; Listing generated by Microsoft (R) Optimizing Compiler Version 19.00.24213.1 

	TITLE	c:\10c\a\oe\KZHSQLXA.C
	.686P
	.XMM
	include listing.inc
	.model	flat

INCLUDELIB MSVCRTD
INCLUDELIB OLDNAMES

PUBLIC	_g_bHoldStmtHandles
PUBLIC	_g_DefaultODBC_Data
PUBLIC	_g_lpOdbcSystemInfo
_BSS	SEGMENT
$SG95232 DB	01H DUP (?)
	ALIGN	4

$SG95259 DB	01H DUP (?)
	ALIGN	4

$SG95261 DB	01H DUP (?)
	ALIGN	4

$SG95280 DB	01H DUP (?)
	ALIGN	4

$SG95281 DB	01H DUP (?)
	ALIGN	4

$SG95468 DB	01H DUP (?)
	ALIGN	4

$SG95469 DB	01H DUP (?)
	ALIGN	4

$SG95470 DB	01H DUP (?)
	ALIGN	4

_g_lpOdbcSystemInfo DD 01H DUP (?)
$SG95506 DB	01H DUP (?)
	ALIGN	4

$SG95507 DB	01H DUP (?)
	ALIGN	4

$SG95508 DB	01H DUP (?)
	ALIGN	4

$SG95513 DB	01H DUP (?)
	ALIGN	4

$SG95515 DB	01H DUP (?)
	ALIGN	4

$SG95539 DB	01H DUP (?)
	ALIGN	4

$SG95540 DB	01H DUP (?)
	ALIGN	4

$SG95541 DB	01H DUP (?)
_BSS	ENDS
_DATA	SEGMENT
COMM	_g_lCurrentProcessID:DWORD
_DATA	ENDS
_BSS	SEGMENT
	ALIGN	4

$SG95570 DB	01H DUP (?)
	ALIGN	4

$SG95571 DB	01H DUP (?)
	ALIGN	4

$SG95572 DB	01H DUP (?)
	ALIGN	4

$SG95601 DB	01H DUP (?)
	ALIGN	4

$SG95602 DB	01H DUP (?)
	ALIGN	4

$SG95603 DB	01H DUP (?)
	ALIGN	4

$SG95630 DB	01H DUP (?)
	ALIGN	4

$SG95636 DB	01H DUP (?)
	ALIGN	4

$SG94658 DB	01H DUP (?)
	ALIGN	4

$SG95684 DB	01H DUP (?)
	ALIGN	4

$SG95685 DB	01H DUP (?)
	ALIGN	4

$SG95687 DB	01H DUP (?)
	ALIGN	4

$SG95688 DB	01H DUP (?)
	ALIGN	4

$SG94665 DB	01H DUP (?)
	ALIGN	4

$SG94671 DB	01H DUP (?)
	ALIGN	4

$SG94719 DB	01H DUP (?)
	ALIGN	4

$SG94726 DB	01H DUP (?)
	ALIGN	4

$SG94739 DB	01H DUP (?)
	ALIGN	4

$SG94740 DB	01H DUP (?)
	ALIGN	4

$SG94776 DB	01H DUP (?)
	ALIGN	4

$SG94778 DB	01H DUP (?)
	ALIGN	4

$SG94780 DB	01H DUP (?)
	ALIGN	4

$SG95805 DB	01H DUP (?)
	ALIGN	4

$SG94784 DB	01H DUP (?)
	ALIGN	4

$SG94809 DB	01H DUP (?)
	ALIGN	4

$SG94812 DB	01H DUP (?)
	ALIGN	4

$SG94814 DB	01H DUP (?)
	ALIGN	4

$SG94816 DB	01H DUP (?)
	ALIGN	4

$SG94836 DB	01H DUP (?)
	ALIGN	4

$SG94839 DB	01H DUP (?)
	ALIGN	4

$SG94841 DB	01H DUP (?)
	ALIGN	4

$SG94843 DB	01H DUP (?)
	ALIGN	4

$SG95877 DB	01H DUP (?)
	ALIGN	4

$SG95878 DB	01H DUP (?)
	ALIGN	4

$SG95880 DB	01H DUP (?)
	ALIGN	4

$SG95887 DB	01H DUP (?)
	ALIGN	4

$SG96084 DB	01H DUP (?)
	ALIGN	4

$SG96085 DB	01H DUP (?)
	ALIGN	4

$SG96104 DB	01H DUP (?)
	ALIGN	4

$SG96106 DB	01H DUP (?)
	ALIGN	4

$SG96107 DB	01H DUP (?)
	ALIGN	4

$SG96108 DB	01H DUP (?)
	ALIGN	4

$SG96111 DB	01H DUP (?)
	ALIGN	4

$SG96124 DB	01H DUP (?)
	ALIGN	4

$SG96127 DB	01H DUP (?)
_BSS	ENDS
_DATA	SEGMENT
COMM	_BoundAttrListRecord:BYTE:01aH
_DATA	ENDS
_BSS	SEGMENT
	ALIGN	4

$SG95230 DB	01H DUP (?)
	ALIGN	4

$SG95231 DB	01H DUP (?)
_BSS	ENDS
_DATA	SEGMENT
$SG95233 DB	'================= Performing load ===================', 00H
_g_bHoldStmtHandles DB 058H
?bShowDateTime@?1??InitDatabase@@9@9 DB 01H		; `InitDatabase'::`2'::bShowDateTime
$SG95234 DB	'  Entity name: ', 00H
$SG95235 DB	'  Table name: ', 00H
	ORG $+1
$SG96264 DB	'TZTENVRO', 00H
	ORG $+3
$SG96265 DB	'TE_DB_Environ', 00H
	ORG $+2
$SG95241 DB	'  Table loaded earlier as part of a join. Entity = ', 00H
$SG96266 DB	'TE_DBMS_Source', 00H
	ORG $+1
$SG96267 DB	'Name', 00H
	ORG $+3
$SG96268 DB	'TE_DBMS_Source', 00H
	ORG $+1
$SG96269 DB	'SQLAllocEnv', 00H
$SG95246 DB	'DBHandler Warning', 00H
	ORG $+2
$SG95245 DB	'XOD ''%s'' needs to be saved with new JOIN code. Keys mu'
	DB	'st be first for entity: %s.', 00H
	ORG $+2
$SG96271 DB	'SQLAllocConnect', 00H
$SG96273 DB	'Database = ', 00H
$SG96274 DB	'SQLConnect', 00H
	ORG $+1
$SG96276 DB	'Error connecting to DB %s', 00H
	ORG $+2
$SG96277 DB	'ODBC DBH Error', 00H
	ORG $+1
$SG96278 DB	'KZH0102', 00H
$SG96279 DB	'Turning AutoCommit off', 00H
	ORG $+1
$SG96280 DB	'SQLSetConnectAttr', 00H
	ORG $+2
$SG96281 DB	'Allocate HSTMT', 00H
	ORG $+1
$SG96282 DB	'SQLAllocHandle', 00H
	ORG $+1
$SG96284 DB	'TABLE', 00H
	ORG $+2
$SG95260 DB	'  Table IS qualified.', 00H
	ORG $+2
$SG96285 DB	'Get table list', 00H
	ORG $+1
$SG96286 DB	'SQLTables', 00H
	ORG $+2
$SG95262 DB	'  Table is not qualified.', 00H
	ORG $+2
$SG96287 DB	'Fetch table name', 00H
	ORG $+3
$SG96288 DB	'SQLFetch', 00H
	ORG $+3
$SG96291 DB	'dtproperties', 00H
	ORG $+3
$SG96292 DB	'TE_TablRec', 00H
	ORG $+1
$SG96293 DB	'Name', 00H
	ORG $+3
$SG96294 DB	'TE_TablRec', 00H
	ORG $+1
$SG96295 DB	'SQLCloseCursor', 00H
	ORG $+1
$SG96296 DB	'TE_TablRec', 00H
	ORG $+1
$SG96297 DB	'TE_TablRec', 00H
	ORG $+1
$SG96298 DB	'Name', 00H
	ORG $+3
$SG95274 DB	'Allocate HSTMT', 00H
	ORG $+1
$SG96299 DB	'TE_TablRec', 00H
	ORG $+1
$SG95275 DB	'SQLAllocHandle', 00H
	ORG $+1
$SG96300 DB	'Get column list', 00H
$SG96301 DB	'SQLColumns', 00H
	ORG $+1
$SG96302 DB	'Fetch column name', 00H
	ORG $+2
$SG96303 DB	'SQLFetch', 00H
	ORG $+3
$SG95282 DB	'SQL might not be needed.', 00H
	ORG $+3
$SG95283 DB	'Loading entity from parent using AutoLoadFromParent; ', 00H
	ORG $+2
$SG95284 DB	'Entity name = ', 00H
	ORG $+1
$SG96317 DB	'Unknown datatype = ', 00H
$SG96318 DB	'Datatype number = ', 00H
	ORG $+1
$SG96319 DB	'Table Name = ', 00H
	ORG $+2
$SG96320 DB	'ColumnName = ', 00H
	ORG $+2
$SG96321 DB	'Unhandled data type', 00H
$SG96322 DB	'DGC', 00H
$SG95298 DB	'executed.', 00H
	ORG $+2
$SG96323 DB	'TE_FieldDataRel', 00H
$SG95299 DB	'Foreign key is null, so following command was not ', 00H
	ORG $+1
$SG96324 DB	'Name', 00H
	ORG $+3
$SG95300 DB	'Number of rows selected = ', 00H
	ORG $+1
$SG96325 DB	'TE_FieldDataRel', 00H
$SG96326 DB	'Length', 00H
	ORG $+1
$SG96327 DB	'TE_FieldDataRel', 00H
$SG96328 DB	'DataType', 00H
	ORG $+3
$SG96329 DB	'TE_FieldDataRel', 00H
$SG96330 DB	'SQLCloseCursor', 00H
	ORG $+1
$SG96331 DB	'TE_TablRec', 00H
	ORG $+1
$SG96332 DB	'TE_TablRec', 00H
	ORG $+1
$SG96333 DB	'Name', 00H
	ORG $+3
$SG96334 DB	'TE_TablRec', 00H
	ORG $+1
$SG96335 DB	'Get index list', 00H
	ORG $+1
$SG95311 DB	'Unknown Data Type', 00H
	ORG $+2
$SG96336 DB	'SQLStatistics', 00H
	ORG $+2
$SG96337 DB	'Fetch column name', 00H
	ORG $+2
$SG95313 DB	'SQLPrepare', 00H
	ORG $+1
$SG96338 DB	'SQLFetch', 00H
	ORG $+3
$SG96342 DB	'IndexName', 00H
	ORG $+2
$SG96343 DB	'TE_TablRecKey', 00H
	ORG $+2
$SG96344 DB	'TE_TablRecKey', 00H
	ORG $+2
$SG96345 DB	'IndexName', 00H
	ORG $+2
$SG96346 DB	'TE_TablRecKey', 00H
	ORG $+2
$SG96347 DB	'Retrieved From DB', 00H
	ORG $+2
$SG96348 DB	'Name', 00H
	ORG $+3
$SG95324 DB	'Unknown Data Type', 00H
	ORG $+2
$SG96349 DB	'TE_TablRecKey', 00H
	ORG $+2
$SG95325 DB	'Attr = ', 00H
$SG95326 DB	'SQLBindCol', 00H
	ORG $+1
$SG96351 DB	'Name', 00H
	ORG $+3
$SG96352 DB	'TE_FieldDataRel', 00H
$SG95328 DB	' ', 00H
	ORG $+2
$SG96353 DB	'TE_FieldDataRel', 00H
$SG95329 DB	'Column Count         = ', 00H
$SG96354 DB	'TE_FieldDataRelKey', 00H
	ORG $+1
$SG95330 DB	'Column Name          = ', 00H
$SG96355 DB	'SQLCloseCursor', 00H
	ORG $+1
$SG95331 DB	'ViewAttrib data type = ', 00H
$SG95332 DB	'DataField data type  = ', 00H
$SG95337 DB	'(KZHSQLBA) Binding attributename = ', 00H
$SG95338 DB	'nParmCount = ', 00H
	ORG $+2
$SG95341 DB	'Column = ', 00H
	ORG $+2
$SG95342 DB	'SQLBindParameter', 00H
	ORG $+3
$SG95344 DB	'nC_DataType = ', 00H
	ORG $+1
$SG95345 DB	'nSQL_Type   = ', 00H
	ORG $+1
$SG95346 DB	'nColumnSize = ', 00H
	ORG $+1
$SG95347 DB	'nDecDigits  = ', 00H
	ORG $+1
$SG95355 DB	'SQLExecute', 00H
	ORG $+1
$SG95362 DB	'SQLFetch', 00H
	ORG $+3
$SG95369 DB	'(xa) Number of rows currently read = ', 00H
	ORG $+2
$SG95382 DB	'Duplicate row found, entity = ', 00H
	ORG $+1
$SG95389 DB	'Getting length for ', 00H
$SG95390 DB	'SQLGetData', 00H
	ORG $+1
$SG95392 DB	'Column number = ', 00H
	ORG $+3
$SG95393 DB	'Returned lth for column = ', 00H
	ORG $+1
$SG95400 DB	'Getting data ', 00H
	ORG $+2
$SG95401 DB	'SQLGetData', 00H
	ORG $+1
$SG95403 DB	'Returned lth for column = ', 00H
	ORG $+1
$SG95411 DB	'YYYY-MM-DD HH:MI:SS', 00H
$SG95413 DB	'M/D/YYYY H:MI:SS AM', 00H
$SG95415 DB	'000000000', 00H
	ORG $+2
$SG95417 DB	'19000101', 00H
	ORG $+3
$SG95423 DB	'SQLFetch', 00H
	ORG $+3
$SG95429 DB	'Number of roots retrieved = ', 00H
	ORG $+3
$SG95430 DB	'Number of rows  retrieved = ', 00H
	ORG $+3
$SG95435 DB	'SQLCloseCursor', 00H
	ORG $+1
$SG95437 DB	'DELETE FROM ZEIDONKEYLIST WHERE TASKID = %ld', 00H
	ORG $+3
$SG95438 DB	'Deleting KeyList', 00H
	ORG $+3
$SG95439 DB	'Prepare', 00H
$SG95440 DB	'Delete keys', 00H
$SG95441 DB	'SQLExecute', 00H
	ORG $+1
$SG95444 DB	'Unbinding stmt handle', 00H
	ORG $+2
$SG95445 DB	'SQLFreeStmt', 00H
_g_DefaultODBC_Data DD 03H
	DB	04eH
	DB	03H
	ORG $+98
$SG95471 DB	'========== Insert ==========', 00H
	ORG $+3
$SG95472 DB	'Inserting entity ', 00H
	ORG $+2
$SG95473 DB	'Inserting record ', 00H
	ORG $+2
$SG95476 DB	'SQLPrepare', 00H
	ORG $+1
$SG95483 DB	'Duplicate root', 00H
	ORG $+1
$SG95484 DB	'SQLExecute', 00H
	ORG $+1
$SG95485 DB	'SQLExecute', 00H
	ORG $+1
$SG95509 DB	'========== Insert Rel ==========', 00H
	ORG $+3
$SG95510 DB	'Inserting rel for entity ', 00H
	ORG $+2
$SG95511 DB	'Inserting rel for record ', 00H
	ORG $+2
$SG95514 DB	'PARENT:', 00H
$SG95516 DB	'CHILD:', 00H
	ORG $+1
$SG95519 DB	'SQLExecDirect', 00H
	ORG $+2
$SG95542 DB	'========== Delete ==========', 00H
	ORG $+3
$SG95543 DB	'Deleting entity ', 00H
	ORG $+3
$SG95544 DB	'Deleting record ', 00H
	ORG $+3
$SG95548 DB	'SqlBuildDeleteAll SQL: ', 00H
$SG95551 DB	'SQLExecDirect', 00H
	ORG $+2
$SG95573 DB	'========== Delete Rel ==========', 00H
	ORG $+3
$SG95574 DB	'Deleting entity ', 00H
	ORG $+3
$SG95575 DB	'Deleting record ', 00H
	ORG $+3
$SG95579 DB	'SQLExecDirect', 00H
	ORG $+2
$SG95604 DB	'========== Update ==========', 00H
	ORG $+3
$SG95605 DB	'Updating entity ', 00H
	ORG $+3
$SG95606 DB	'Updating record ', 00H
	ORG $+3
$SG95610 DB	'SQLPrepare', 00H
	ORG $+1
$SG95613 DB	'SQLExecute', 00H
	ORG $+1
$SG95619 DB	'SQLExecDirect', 00H
	ORG $+2
$SG95631 DB	'===== DBH_Entry Error =====', 00H
$SG95632 DB	'Msg=> ', 00H
	ORG $+1
$SG95634 DB	'nRC=> ', 00H
	ORG $+1
$SG95637 DB	'KZHSQLOA DBH Error', 00H
	ORG $+1
$SG95638 DB	'KZH0101', 00H
$SG95648 DB	'%d (SQL_SUCCESS)', 00H
	ORG $+3
$SG94625 DB	'Closing stmt handle', 00H
$SG95650 DB	'%d (SQL_SUCCESS_WITH_INFO)', 00H
	ORG $+1
$SG94626 DB	'SQLFreeHandle', 00H
	ORG $+2
$SG95652 DB	'%d (SQL_ERROR)', 00H
	ORG $+1
$SG94629 DB	'Closing stmt handle', 00H
$SG95654 DB	'%d (SQL_INVALID_HANDLE)', 00H
$SG94630 DB	'SQLFreeHandle', 00H
	ORG $+2
$SG95656 DB	'%d (SQL_NEED_DATA)', 00H
	ORG $+1
$SG95658 DB	'%d (SQL_NO_DATA)', 00H
	ORG $+3
$SG95660 DB	'%d (SQL_STILL_EXECUTING)', 00H
	ORG $+3
$SG95662 DB	'%d (unknown)', 00H
	ORG $+3
$SG94654 DB	'Zeidon DBHandler Work Object', 00H
	ORG $+3
$SG94656 DB	'Can''t find DB-Handler work view.', 00H
	ORG $+3
$SG94657 DB	'Zeidon DBH', 00H
	ORG $+1
$SG94659 DB	'Type', 00H
	ORG $+3
$SG94660 DB	'Type', 00H
	ORG $+3
$SG95686 DB	'Database name = ', 00H
	ORG $+3
$SG94662 DB	'Type', 00H
	ORG $+3
$SG94663 DB	'Type', 00H
	ORG $+3
$SG94664 DB	'Type', 00H
	ORG $+3
$SG94666 DB	'CommitLatency', 00H
	ORG $+2
$SG95691 DB	'ODBC Call : ', 00H
	ORG $+3
$SG94667 DB	'[kzhsqloa]', 00H
	ORG $+1
$SG95692 DB	'Return Code :', 00H
	ORG $+2
$SG94668 DB	'TypeEnvBlob', 00H
$SG94669 DB	'Type', 00H
	ORG $+3
$SG94672 DB	'HoldStmtHandles', 00H
$SG94673 DB	'[kzhsqloa]', 00H
	ORG $+1
$SG95700 DB	'===== SQL ODBC Error ===== rc = ', 00H
	ORG $+3
$SG95701 DB	'===== SQL ODBC Info ===== rc = ', 00H
$SG94677 DB	'TypeEnvBlob', 00H
$SG95702 DB	'[ODBC] SQLState = %s, Err=', 00H
	ORG $+1
$SG94678 DB	'Type', 00H
	ORG $+3
$SG95703 DB	'ODBC DBH Error', 00H
	ORG $+1
$SG94679 DB	'Zeidon DBH', 00H
	ORG $+1
$SG95704 DB	'KZH0102', 00H
$SG94681 DB	'May 25 2017 16:38:39', 00H
	ORG $+3
$SG94682 DB	'Compile date/time for KZHSQLOA is ', 00H
	ORG $+1
$SG95726 DB	'SQLAllocEnv', 00H
$SG95735 DB	'Too many open databases for 1 session.', 00H
	ORG $+1
$SG95737 DB	'SQLAllocConnect', 00H
$SG94714 DB	'Zeidon DBHandler Work Object', 00H
	ORG $+3
$SG95739 DB	'Database = ', 00H
$SG95740 DB	'SQLConnect', 00H
	ORG $+1
$SG94716 DB	'Can''t find DB-Handler work view.', 00H
	ORG $+3
$SG95742 DB	'Error connecting to DB %s', 00H
	ORG $+2
$SG94718 DB	'Zeidon DBH', 00H
	ORG $+1
$SG95743 DB	'ODBC DBH Error', 00H
	ORG $+1
$SG95744 DB	'KZH0102', 00H
$SG94720 DB	'Type', 00H
	ORG $+3
$SG95745 DB	'Turning AutoCommit off', 00H
	ORG $+1
$SG94721 DB	'Type', 00H
	ORG $+3
$SG95746 DB	'SQLSetConnectAttr', 00H
	ORG $+2
$SG94723 DB	'Zeidon DBH', 00H
	ORG $+1
$SG95748 DB	'Allocate HSTMT', 00H
	ORG $+1
$SG94725 DB	'0x%08x:%08x', 00H
$SG94724 DB	'Internal error -- cannot find DB Base type (%s) in db-ha'
	DB	'ndler work object.', 00H
	ORG $+1
$SG95749 DB	'SQLAllocHandle', 00H
	ORG $+1
$SG94727 DB	'LogicalUserName', 00H
$SG94728 DB	'Connection', 00H
	ORG $+1
$SG94730 DB	'Connection', 00H
	ORG $+1
$SG94731 DB	'LogicalUserName', 00H
$SG94732 DB	'Connection', 00H
	ORG $+1
$SG94734 DB	'Connection', 00H
	ORG $+1
$SG94736 DB	'Zeidon DBH', 00H
	ORG $+1
$SG94737 DB	'TaskID not found for Task:TaskID %s', 00H
$SG94738 DB	'ERROR ********** CloseDatabase ', 00H
$SG94741 DB	'ConnectionBlob', 00H
	ORG $+1
$SG94742 DB	'Connection', 00H
	ORG $+1
$SG94745 DB	'Disconnecting handle for database ', 00H
	ORG $+1
$SG94746 DB	'SQLDisconnect', 00H
	ORG $+2
$SG94747 DB	'Closing handle for database ', 00H
	ORG $+3
$SG94748 DB	'SQLFreeHandle', 00H
	ORG $+2
$SG94750 DB	'Closing henv', 00H
	ORG $+3
$SG94751 DB	'SQLFreeHandle', 00H
	ORG $+2
$SG94752 DB	'ConnectionBlob', 00H
	ORG $+1
$SG94753 DB	'Connection', 00H
	ORG $+1
$SG94754 DB	'Connection', 00H
	ORG $+1
$SG94755 DB	'Zeidon DBH', 00H
	ORG $+1
$SG95792 DB	'Zeidon DBHandler Work Object', 00H
	ORG $+3
$SG95794 DB	'Can''t find DB-Handler work view.', 00H
	ORG $+3
$SG95795 DB	'Zeidon DBH', 00H
	ORG $+1
$SG95796 DB	'Type', 00H
	ORG $+3
$SG95797 DB	'Type', 00H
	ORG $+3
$SG95799 DB	'Type', 00H
	ORG $+3
$SG95800 DB	'Type', 00H
	ORG $+3
$SG95801 DB	'Type', 00H
	ORG $+3
$SG94777 DB	'####################################################', 00H
	ORG $+3
$SG95803 DB	'GetWorkObjectView RESETTING task from: 0x%08x  to: 0x%08'
	DB	'x', 00H
	ORG $+2
$SG94779 DB	'##################  BEGIN TRANSACTION ##############', 00H
	ORG $+3
$SG95804 DB	'0x%08x:%08x', 00H
$SG94781 DB	'####################################################', 00H
	ORG $+3
$SG95806 DB	'LogicalUserName', 00H
$SG95807 DB	'Connection', 00H
	ORG $+1
$SG94785 DB	'Storing Objects', 00H
$SG95810 DB	'Connection', 00H
	ORG $+1
$SG94786 DB	'Activating Object Def ', 00H
	ORG $+1
$SG95811 DB	'LogicalUserName', 00H
$SG94787 DB	'Database name = ', 00H
	ORG $+3
$SG95812 DB	'Connection', 00H
	ORG $+1
$SG95813 DB	'TaskID', 00H
	ORG $+1
$SG95814 DB	'Connection', 00H
	ORG $+1
$SG95815 DB	'Conn BEGIN', 00H
	ORG $+1
$SG94791 DB	'ODBC Latency...waiting... milliseconds = ', 00H
	ORG $+2
$SG95816 DB	'Conn END', 00H
	ORG $+3
$SG95817 DB	'ConnectionBlob', 00H
	ORG $+1
$SG95818 DB	'Connection', 00H
	ORG $+1
$SG95819 DB	'ConnectionBlob', 00H
	ORG $+1
$SG95820 DB	'Connection', 00H
	ORG $+1
$SG95822 DB	'Zeidon DBH', 00H
	ORG $+1
$SG95824 DB	'Zeidon DBH', 00H
	ORG $+1
$SG95825 DB	'ConnectionBlob', 00H
	ORG $+1
$SG95826 DB	'Connection', 00H
	ORG $+1
$SG95829 DB	'TraceLevel', 00H
	ORG $+1
$SG95830 DB	'[KZHSQLOA]', 00H
	ORG $+1
$SG95833 DB	'Zeidon DBH', 00H
	ORG $+1
$SG94810 DB	'lpConnection is null!!!!!!', 00H
	ORG $+1
$SG94813 DB	'####################################################', 00H
	ORG $+3
$SG94815 DB	'#################  COMMIT TRANSACTION ##############', 00H
	ORG $+3
$SG94817 DB	'####################################################', 00H
	ORG $+3
$SG94819 DB	'Commit DB ', 00H
	ORG $+1
$SG94820 DB	'SQLEndTran', 00H
	ORG $+1
$SG94837 DB	'lpConnection is null!!!!!!', 00H
	ORG $+1
$SG94840 DB	'####################################################', 00H
	ORG $+3
$SG94842 DB	'################ ROLLBACK TRANSACTION ##############', 00H
	ORG $+3
$SG94844 DB	'####################################################', 00H
	ORG $+3
$SG94845 DB	'Rollback DB ', 00H
	ORG $+3
$SG94846 DB	'SQLEndTran', 00H
	ORG $+1
$SG95871 DB	'SQLFetch', 00H
	ORG $+3
$SG95872 DB	'SQLFetch', 00H
	ORG $+3
$SG95873 DB	'SQLFetch', 00H
	ORG $+3
$SG95881 DB	'===== ODBC Error =====', 00H
	ORG $+1
$SG95882 DB	'ODBC Call : ', 00H
	ORG $+3
$SG95883 DB	'RC        : ', 00H
	ORG $+3
$SG95893 DB	'[ODBC] SQLState = %s, Err=', 00H
	ORG $+1
$SG95895 DB	'ODBC DBH Error', 00H
	ORG $+1
$SG95896 DB	'KZH0102', 00H
$SG95927 DB	'(KZHSQLBA) WriteLongChar attributename = ', 00H
	ORG $+2
$SG95928 DB	'nParmCount = ', 00H
	ORG $+2
$SG95935 DB	'Column = ', 00H
	ORG $+2
$SG95936 DB	'SQLBindParameter', 00H
	ORG $+3
$SG95938 DB	'nValueType  = ', 00H
	ORG $+1
$SG95939 DB	'nParmType   = ', 00H
	ORG $+1
$SG95940 DB	'nColumnSize = ', 00H
	ORG $+1
$SG95941 DB	'nDecDigits  = ', 00H
	ORG $+1
$SG95942 DB	'nLth        = ', 00H
	ORG $+1
$SG94937 DB	'Allocate HSTMT', 00H
	ORG $+1
$SG94938 DB	'SQLAllocHandle', 00H
	ORG $+1
$SG94940 DB	'INSERT INTO ZEIDONKEYLIST ( TASKID, INTVALUE ) VALUES ( '
	DB	'%ld, ? )', 00H
	ORG $+3
$SG94941 DB	'SQLPrepare insert', 00H
	ORG $+2
$SG95966 DB	'__MSGQ', 00H
	ORG $+1
$SG94942 DB	'IntValue', 00H
	ORG $+3
$SG94943 DB	'Column = ', 00H
	ORG $+2
$SG94944 DB	'SQLBindParameter', 00H
	ORG $+3
$SG95969 DB	'DBH_Error', 00H
	ORG $+2
$SG95970 DB	'DBH_Error', 00H
	ORG $+2
$SG94946 DB	'nC_DataType = ', 00H
	ORG $+1
$SG95971 DB	'DBH_Error', 00H
	ORG $+2
$SG94947 DB	'nSQL_Type   = ', 00H
	ORG $+1
$SG94948 DB	'nColumnSize = ', 00H
	ORG $+1
$SG95973 DB	'Id', 00H
	ORG $+1
$SG94949 DB	'Allocate HSTMT', 00H
	ORG $+1
$SG95974 DB	'Task', 00H
	ORG $+3
$SG94950 DB	'SQLExecute', 00H
	ORG $+1
$SG95976 DB	'DBH_Error', 00H
	ORG $+2
$SG95977 DB	'DBH_Error', 00H
	ORG $+2
$SG96007 DB	'__MSGQ', 00H
	ORG $+1
$SG96011 DB	'KZMSGQOO', 00H
	ORG $+3
$SG96012 DB	'Task', 00H
	ORG $+3
$SG96013 DB	'__MSGQ', 00H
	ORG $+1
$SG96015 DB	'DBH_Error', 00H
	ORG $+2
$SG96016 DB	'DBH_Error', 00H
	ORG $+2
$SG96017 DB	'DBH_Error', 00H
	ORG $+2
$SG96020 DB	'Id', 00H
	ORG $+1
$SG96021 DB	'Task', 00H
	ORG $+3
$SG96022 DB	'Task', 00H
	ORG $+3
$SG96023 DB	'Id', 00H
	ORG $+1
$SG96024 DB	'Task', 00H
	ORG $+3
$SG96025 DB	'Zeidon', 00H
	ORG $+1
$SG96026 DB	'Client', 00H
	ORG $+1
$SG96027 DB	'Task', 00H
	ORG $+3
$SG96029 DB	'Id', 00H
	ORG $+1
$SG96030 DB	'Task', 00H
	ORG $+3
$SG96032 DB	'DBH_Error', 00H
	ORG $+2
$SG96033 DB	'DBH_Error', 00H
	ORG $+2
$SG96034 DB	'DBH_Error', 00H
	ORG $+2
$SG96036 DB	'DBH_Error', 00H
	ORG $+2
$SG96037 DB	'Code', 00H
	ORG $+3
$SG96038 DB	'DBH_Error', 00H
	ORG $+2
$SG96039 DB	'State', 00H
	ORG $+2
$SG96040 DB	'DBH_Error', 00H
	ORG $+2
$SG96041 DB	'Msg', 00H
$SG96042 DB	'DBH_Error', 00H
	ORG $+2
$SG95031 DB	'Key type not supported', 00H
	ORG $+1
$SG95032 DB	'DBHandler Error', 00H
$SG95040 DB	'Key type not supported', 00H
	ORG $+1
$SG95041 DB	'DBHandler Error', 00H
$SG96088 DB	'Error performing Load for OD: ', 00H
	ORG $+1
$SG96091 DB	'Error performing Insert for OD: ', 00H
	ORG $+3
$SG96094 DB	'Error performing InsertRel for OD: ', 00H
$SG96097 DB	'Error performing Delete for OD: ', 00H
	ORG $+3
$SG96100 DB	'Error performing DeleteRel for OD: ', 00H
$SG96102 DB	'Error performing Update for OD: ', 00H
	ORG $+3
$SG96105 DB	'PARENT:', 00H
$SG96109 DB	'CHILD:', 00H
	ORG $+1
$SG96112 DB	'Qualification View:', 00H
$SG96125 DB	'---------------------------------', 00H
	ORG $+2
$SG96126 DB	'Committing object ', 00H
	ORG $+1
$SG96128 DB	'---------------------------------', 00H
	ORG $+2
$SG96175 DB	'HHMISS', 00H
	ORG $+1
$SG96176 DB	't', 00H
	ORG $+2
$SG96177 DB	'HH:MI:SS', 00H
	ORG $+3
$SG96179 DB	'd', 00H
	ORG $+2
$SG96180 DB	'YYYY-mm-DD', 00H
	ORG $+1
$SG96183 DB	'ts', 00H
	ORG $+1
$SG96188 DB	'YYYYmmDDHHMISS', 00H
	ORG $+1
$SG96189 DB	'YYYY-mm-DD HH:MI:SS', 00H
$SG96192 DB	'YYYYmmDDHHMISS999999999999999', 00H
	ORG $+2
$SG96193 DB	'YYYY-mm-DD HH:MI:SS.999999999999999', 00H
$SG96195 DB	'''', 00H
	ORG $+2
$SG96201 DB	'?', 00H
_DATA	ENDS
PUBLIC	___local_stdio_printf_options
PUBLIC	__vsnprintf_l
PUBLIC	__vsprintf_l
PUBLIC	_sprintf
PUBLIC	_fnSqlRC
PUBLIC	_DisplayCommand
PUBLIC	_DBH_Error
PUBLIC	_WriteLongChar
PUBLIC	_fnDBH_Callback@24
PUBLIC	_fnClearDBHandlerError@4
PUBLIC	_fnSetDBHandlerError@16
PUBLIC	_fnOpenDatabaseConnection@16
PUBLIC	_fnAllocateConnectionMemory@16
PUBLIC	_fnFreeStmtHandles
PUBLIC	_InitDatabase
PUBLIC	_CloseDatabase
PUBLIC	_BeginTransaction
PUBLIC	_CommitTransaction
PUBLIC	_RollbackTransaction
PUBLIC	_fnCancelQuery
PUBLIC	_fnFindNextJoinedChild@12
PUBLIC	_fnGetNextDataField@4
PUBLIC	_fnCreateKeyList@16
PUBLIC	_fnSetEntityByKeys@28
PUBLIC	_Load
PUBLIC	_Insert
PUBLIC	_InsertRel
PUBLIC	_Delete
PUBLIC	_DeleteRel
PUBLIC	_Update
PUBLIC	_fnRC_Text
PUBLIC	_GetWorkObjectView
PUBLIC	_DBH_MsgProc@32
PUBLIC	_RetrieveSchema@8
EXTRN	___report_rangecheckfailure:PROC
EXTRN	__imp__toupper:PROC
EXTRN	_memcpy:PROC
EXTRN	_memset:PROC
EXTRN	_strcat:PROC
EXTRN	_strcmp:PROC
EXTRN	_strcpy:PROC
EXTRN	__imp___stricmp:PROC
EXTRN	_strlen:PROC
EXTRN	__imp__strncmp:PROC
EXTRN	__imp__free:PROC
EXTRN	__imp__malloc:PROC
EXTRN	__imp__atol:PROC
EXTRN	_TraceLineI@8:PROC
EXTRN	_DisplayEntityInstance@8:PROC
EXTRN	_DisplayObjectInstance@12:PROC
EXTRN	_TraceLineS@8:PROC
EXTRN	_TraceLine:PROC
EXTRN	_ActivateEmptyObjectInstance@16:PROC
EXTRN	_CreateViewFromViewForTask@12:PROC
EXTRN	_GetDefaultViewForActiveTask@0:PROC
EXTRN	_GetViewByName@16:PROC
EXTRN	_SetNameForView@16:PROC
EXTRN	_DropView@4:PROC
EXTRN	_CheckExistenceOfEntity@8:PROC
EXTRN	_CreateEntity@12:PROC
EXTRN	_LoadEntity@16:PROC
EXTRN	_DeleteEntity@12:PROC
EXTRN	_DropEntity@12:PROC
EXTRN	_IncludeSubobjectFromSubobject@20:PROC
EXTRN	_SetCursorNextEntity@12:PROC
EXTRN	_SetCursorFirstEntity@12:PROC
EXTRN	_SetCursorFirstEntityByString@20:PROC
EXTRN	_SetCursorFirstEntityByInteger@20:PROC
EXTRN	_SetEntityCursor@40:PROC
EXTRN	_GetStringFromAttribute@16:PROC
EXTRN	_SetAttributeFromString@16:PROC
EXTRN	_SetAttributeFromInteger@16:PROC
EXTRN	_SetAttributeFromBlob@20:PROC
EXTRN	_CompareAttributeToString@16:PROC
EXTRN	_SetAttributeFromVariable@32:PROC
EXTRN	_CountEntitiesForView@8:PROC
EXTRN	_UfFormatDateTime@12:PROC
EXTRN	_UfEditFormatDateTime@8:PROC
EXTRN	_GetTaskDBHandlerTraceLevel@4:PROC
EXTRN	_OrderOI_ByDefaultAttribs@4:PROC
EXTRN	_MessageSend@24:PROC
EXTRN	_SysMutexLock@16:PROC
EXTRN	_SysMutexUnlock@12:PROC
EXTRN	_MiGetViewEntityForView@8:PROC
EXTRN	_SysAllocMemory@20:PROC
EXTRN	_SysFree@4:PROC
EXTRN	_SysFreeMemory@4:PROC
EXTRN	_SysGetDB_UserID@12:PROC
EXTRN	_SysGetPointerFromHandle@4:PROC
EXTRN	_SysGetProcessID@4:PROC
EXTRN	_SysGetTaskFromView@4:PROC
EXTRN	_SysGetTickCount@0:PROC
EXTRN	_SysMalloc@4:PROC
EXTRN	_SysMessageBox@16:PROC
EXTRN	_SysReadZeidonIni@16:PROC
EXTRN	_SysWait@4:PROC
EXTRN	_GetAddrForAttribute@16:PROC
EXTRN	_StoreValueInRecord@20:PROC
EXTRN	_GetValueFromRecord@24:PROC
EXTRN	_StoreStringInRecord@16:PROC
EXTRN	_GetStringFromRecord@20:PROC
EXTRN	_GetAttributeFlags@16:PROC
EXTRN	_SfCreateSubtask@12:PROC
EXTRN	_SfDropSubtask@8:PROC
EXTRN	__imp____stdio_common_vsprintf:PROC
EXTRN	_SqlFreeBoundAttrList@4:PROC
EXTRN	_SqlAddBoundAttr@20:PROC
EXTRN	_SqlInitBoundAttrList@20:PROC
EXTRN	_SqlBuildInsert@20:PROC
EXTRN	_SqlBuildInsertCorrTable@20:PROC
EXTRN	_SqlBuildUpdate@24:PROC
EXTRN	_SqlBuildUpdateCorrTable@20:PROC
EXTRN	_SqlBuildDelete@20:PROC
EXTRN	_SqlBuildDeleteAll@20:PROC
EXTRN	_SqlBuildDeleteCorrTable@20:PROC
EXTRN	_SqlBuildSelect@24:PROC
EXTRN	_SqlAutoLoadFromParent@24:PROC
EXTRN	_SqlEntityIsQualified@8:PROC
EXTRN	_SqlFreeQualEntity@4:PROC
EXTRN	_SqlRetrieveQualObject@20:PROC
EXTRN	_SqlDisplayCommand@8:PROC
EXTRN	_SqlDisplayQualEntity@8:PROC
EXTRN	_SQLAllocConnect@8:PROC
EXTRN	_SQLAllocEnv@4:PROC
EXTRN	_SQLAllocHandle@12:PROC
EXTRN	_SQLBindCol@24:PROC
EXTRN	_SQLCloseCursor@4:PROC
EXTRN	_SQLColumns@36:PROC
EXTRN	_SQLConnect@28:PROC
EXTRN	_SQLDisconnect@4:PROC
EXTRN	_SQLEndTran@12:PROC
EXTRN	_SQLExecDirect@12:PROC
EXTRN	_SQLExecute@4:PROC
EXTRN	_SQLFetch@4:PROC
EXTRN	_SQLFreeHandle@8:PROC
EXTRN	_SQLFreeStmt@8:PROC
EXTRN	_SQLGetData@24:PROC
EXTRN	_SQLGetDiagField@28:PROC
EXTRN	_SQLGetDiagRec@32:PROC
EXTRN	_SQLPrepare@12:PROC
EXTRN	_SQLSetConnectAttr@16:PROC
EXTRN	_SQLStatistics@36:PROC
EXTRN	_SQLTables@36:PROC
EXTRN	_SQLBindParameter@40:PROC
EXTRN	@__security_check_cookie@4:PROC
EXTRN	__chkstk:PROC
EXTRN	_memset:PROC
EXTRN	___security_cookie:DWORD
_DATA	SEGMENT
COMM	?_OptionsStorage@?1??__local_stdio_printf_options@@9@9:QWORD							; `__local_stdio_printf_options'::`2'::_OptionsStorage
_DATA	ENDS
_BSS	SEGMENT
	ALIGN	4

?szReturn@?1??fnRC_Text@@9@9 DB 064H DUP (?)		; `fnRC_Text'::`2'::szReturn
_BSS	ENDS
; Function compile flags: /Odtp
; File c:\10c\a\oe\kzhsqlxa.c
_TEXT	SEGMENT
_iCardinality$ = -4596					; size = 4
_cbCardinality$ = -4592					; size = 4
_pchPtr$ = -4588					; size = 4
_cbIndexNameLth$ = -4584				; size = 4
_cbTableNameLth$ = -4580				; size = 4
_sNullable$ = -4576					; size = 2
_cbColumnNameLth$ = -4572				; size = 4
$T1 = -4568						; size = 4
_pchDBName$ = -4564					; size = 4
tv340 = -4560						; size = 4
_sDataType$ = -4556					; size = 2
_iColLth$ = -4552					; size = 4
_vDB$ = -4548						; size = 4
_lpConnection$ = -4544					; size = 4
_nRC$ = -4540						; size = 2
_cr$ = -4536						; size = 2928
_szIndexQual$ = -1608					; size = 256
_szDataTypeName$ = -1352				; size = 256
_szText$2 = -1096					; size = 200
_szIndexName$ = -896					; size = 256
_szColumnName$ = -640					; size = 256
_szTableName$ = -384					; size = 256
_szUserID$ = -128					; size = 50
_szPassword$ = -76					; size = 50
_szDataType$3 = -24					; size = 20
__$ArrayPad$ = -4					; size = 4
_vDTE$ = 8						; size = 4
_pvDB$ = 12						; size = 4
_RetrieveSchema@8 PROC

; 5883 : {

	push	ebp
	mov	ebp, esp
	mov	eax, 4596				; 000011f4H
	call	__chkstk
	mov	eax, DWORD PTR ___security_cookie
	xor	eax, ebp
	mov	DWORD PTR __$ArrayPad$[ebp], eax

; 5884 :    ConnectionRecord cr = { 0 };

	mov	BYTE PTR _cr$[ebp], 0
	push	2927					; 00000b6fH
	push	0
	lea	eax, DWORD PTR _cr$[ebp+1]
	push	eax
	call	_memset
	add	esp, 12					; 0000000cH

; 5885 :    LPCONNECTION lpConnection = &cr;

	lea	ecx, DWORD PTR _cr$[ebp]
	mov	DWORD PTR _lpConnection$[ebp], ecx

; 5886 : 
; 5887 :    zVIEW  vDB;
; 5888 :    zCHAR  szUserID[ 50 ];
; 5889 :    zCHAR  szPassword[ 50 ];
; 5890 :    zPCHAR pchPtr = 0;

	mov	DWORD PTR _pchPtr$[ebp], 0

; 5891 :    zPCHAR pchDBName;
; 5892 : 
; 5893 :    zCHAR  szTableName[ STR_LEN + 1 ];
; 5894 :    zCHAR  szColumnName[ STR_LEN + 1 ];
; 5895 :    zCHAR  szIndexName[ STR_LEN + 1 ];
; 5896 : 
; 5897 : #if defined( DB2 ) || defined( ODBC )
; 5898 :    zCHAR       szDataTypeName[ STR_LEN + 1 ];
; 5899 :    zCHAR       szIndexQual[ STR_LEN + 1 ];
; 5900 :    SQLINTEGER  cbTableNameLth, cbColumnNameLth, cbIndexNameLth, cbCardinality;
; 5901 :    SQLINTEGER  iColLth;
; 5902 :    SQLINTEGER  iCardinality;
; 5903 :    SQLSMALLINT sDataType;
; 5904 :    SQLSMALLINT sNullable;
; 5905 : #else
; 5906 :    zLONG       iColLth = 0;
; 5907 : #endif
; 5908 :    zSHORT nRC = 0;

	xor	edx, edx
	mov	WORD PTR _nRC$[ebp], dx

; 5909 : 
; 5910 : // lpConnection->nTraceLevel = 1;
; 5911 :    lpConnection->lpAppView = vDTE;

	mov	eax, DWORD PTR _lpConnection$[ebp]
	mov	ecx, DWORD PTR _vDTE$[ebp]
	mov	DWORD PTR [eax+20], ecx

; 5912 : 
; 5913 :    if ( *pvDB == 0 )

	mov	edx, DWORD PTR _pvDB$[ebp]
	cmp	DWORD PTR [edx], 0
	jne	SHORT $LN16@RetrieveSc

; 5914 :    {
; 5915 :       ActivateEmptyObjectInstance( pvDB, "TZTENVRO", vDTE, zSINGLE );

	push	0
	mov	eax, DWORD PTR _vDTE$[ebp]
	push	eax
	push	OFFSET $SG96264
	mov	ecx, DWORD PTR _pvDB$[ebp]
	push	ecx
	call	_ActivateEmptyObjectInstance@16

; 5916 :       CreateEntity( *pvDB, "TE_DB_Environ", zPOS_LAST );

	push	2
	push	OFFSET $SG96265
	mov	edx, DWORD PTR _pvDB$[ebp]
	mov	eax, DWORD PTR [edx]
	push	eax
	call	_CreateEntity@12

; 5917 :       CreateEntity( *pvDB, "TE_DBMS_Source", zPOS_LAST );

	push	2
	push	OFFSET $SG96266
	mov	ecx, DWORD PTR _pvDB$[ebp]
	mov	edx, DWORD PTR [ecx]
	push	edx
	call	_CreateEntity@12
$LN16@RetrieveSc:

; 5918 :    }
; 5919 : 
; 5920 :    vDB = *pvDB;  // Just to make things easier.

	mov	eax, DWORD PTR _pvDB$[ebp]
	mov	ecx, DWORD PTR [eax]
	mov	DWORD PTR _vDB$[ebp], ecx

; 5921 : 
; 5922 :    // Get the database name.
; 5923 :    GetAddrForAttribute( &pchDBName, vDTE, "TE_DBMS_Source", "Name" );

	push	OFFSET $SG96267
	push	OFFSET $SG96268
	mov	edx, DWORD PTR _vDTE$[ebp]
	push	edx
	lea	eax, DWORD PTR _pchDBName$[ebp]
	push	eax
	call	_GetAddrForAttribute@16

; 5924 : 
; 5925 :    SysGetDB_UserID( vDTE, szUserID, szPassword );

	lea	ecx, DWORD PTR _szPassword$[ebp]
	push	ecx
	lea	edx, DWORD PTR _szUserID$[ebp]
	push	edx
	mov	eax, DWORD PTR _vDTE$[ebp]
	push	eax
	call	_SysGetDB_UserID@12

; 5926 : 
; 5927 :    //==============================================================
; 5928 :    // Open database.
; 5929 :    //==============================================================
; 5930 : 
; 5931 : #if defined( DB2 ) || defined( ODBC )
; 5932 : 
; 5933 :    nRC = SQLAllocEnv( &lpConnection->henv );

	mov	ecx, DWORD PTR _lpConnection$[ebp]
	add	ecx, 2804				; 00000af4H
	push	ecx
	call	_SQLAllocEnv@4
	mov	WORD PTR _nRC$[ebp], ax

; 5934 :    SQL_RC( "SQLAllocEnv", nRC, 0, 0, 2 );

	mov	edx, DWORD PTR _lpConnection$[ebp]
	push	edx
	push	2
	push	0
	push	0
	movzx	eax, WORD PTR _nRC$[ebp]
	push	eax
	push	OFFSET $SG96269
	call	_fnSqlRC
	add	esp, 24					; 00000018H

; 5935 :    if ( nRC != SQL_SUCCESS )

	movsx	ecx, WORD PTR _nRC$[ebp]
	test	ecx, ecx
	je	SHORT $LN17@RetrieveSc

; 5936 :       return( zCALL_ERROR );

	mov	eax, -16				; fffffff0H
	jmp	$LN40@RetrieveSc
$LN17@RetrieveSc:

; 5937 : 
; 5938 :    nRC = SQLAllocConnect( lpConnection->henv, &lpConnection->hdbc );

	mov	edx, DWORD PTR _lpConnection$[ebp]
	add	edx, 2808				; 00000af8H
	push	edx
	mov	eax, DWORD PTR _lpConnection$[ebp]
	mov	ecx, DWORD PTR [eax+2804]
	push	ecx
	call	_SQLAllocConnect@8
	mov	WORD PTR _nRC$[ebp], ax

; 5939 :    SQL_RC( "SQLAllocConnect", nRC, 0, 0, 2 );

	mov	edx, DWORD PTR _lpConnection$[ebp]
	push	edx
	push	2
	push	0
	push	0
	movzx	eax, WORD PTR _nRC$[ebp]
	push	eax
	push	OFFSET $SG96271
	call	_fnSqlRC
	add	esp, 24					; 00000018H

; 5940 :    if ( nRC != SQL_SUCCESS )

	movsx	ecx, WORD PTR _nRC$[ebp]
	test	ecx, ecx
	je	SHORT $LN18@RetrieveSc

; 5941 :       return( zCALL_ERROR );

	mov	eax, -16				; fffffff0H
	jmp	$LN40@RetrieveSc
$LN18@RetrieveSc:

; 5942 : 
; 5943 :    nRC = SQLConnect( lpConnection->hdbc, pchDBName, SQL_NTS,

	push	-3					; fffffffdH
	lea	edx, DWORD PTR _szPassword$[ebp]
	push	edx
	push	-3					; fffffffdH
	lea	eax, DWORD PTR _szUserID$[ebp]
	push	eax
	push	-3					; fffffffdH
	mov	ecx, DWORD PTR _pchDBName$[ebp]
	push	ecx
	mov	edx, DWORD PTR _lpConnection$[ebp]
	mov	eax, DWORD PTR [edx+2808]
	push	eax
	call	_SQLConnect@28
	mov	WORD PTR _nRC$[ebp], ax

; 5944 :                      szUserID, SQL_NTS, szPassword, SQL_NTS );
; 5945 :    SQL_RC( "SQLConnect", nRC, "Database = ", pchDBName, 1 );

	mov	ecx, DWORD PTR _lpConnection$[ebp]
	push	ecx
	push	1
	mov	edx, DWORD PTR _pchDBName$[ebp]
	push	edx
	push	OFFSET $SG96273
	movzx	eax, WORD PTR _nRC$[ebp]
	push	eax
	push	OFFSET $SG96274
	call	_fnSqlRC
	add	esp, 24					; 00000018H

; 5946 :    if ( !RC_SUCCESSFUL( nRC ) )

	movsx	ecx, WORD PTR _nRC$[ebp]
	test	ecx, ecx
	je	SHORT $LN19@RetrieveSc
	movsx	edx, WORD PTR _nRC$[ebp]
	cmp	edx, 1
	je	SHORT $LN19@RetrieveSc

; 5947 :    {
; 5948 :       zCHAR szText[ 200 ];
; 5949 : 
; 5950 :       zsprintf( szText, "Error connecting to DB %s", pchDBName );

	mov	eax, DWORD PTR _pchDBName$[ebp]
	push	eax
	push	OFFSET $SG96276
	lea	ecx, DWORD PTR _szText$2[ebp]
	push	ecx
	call	_sprintf
	add	esp, 12					; 0000000cH

; 5951 :       MessageSend( lpConnection->lpAppView, "KZH0102", "ODBC DBH Error",

	push	0
	push	1000					; 000003e8H
	lea	edx, DWORD PTR _szText$2[ebp]
	push	edx
	push	OFFSET $SG96277
	push	OFFSET $SG96278
	mov	eax, DWORD PTR _lpConnection$[ebp]
	mov	ecx, DWORD PTR [eax+20]
	push	ecx
	call	_MessageSend@24

; 5952 :                    szText, zMSGQ_SYSTEM_ERROR, 0 );
; 5953 : 
; 5954 :       SQLFreeHandle( SQL_HANDLE_DBC, (SQLHANDLE) lpConnection->hdbc );

	mov	edx, DWORD PTR _lpConnection$[ebp]
	mov	eax, DWORD PTR [edx+2808]
	push	eax
	push	2
	call	_SQLFreeHandle@8

; 5955 :       lpConnection->hdbc = 0;

	mov	ecx, DWORD PTR _lpConnection$[ebp]
	mov	DWORD PTR [ecx+2808], 0

; 5956 :       return( zCALL_ERROR );

	mov	eax, -16				; fffffff0H
	jmp	$LN40@RetrieveSc
$LN19@RetrieveSc:

; 5957 :    }
; 5958 : 
; 5959 : #if defined( DB2 )
; 5960 : 
; 5961 :    nRC = SQLAllocStmt( lpConnection->hdbc, &lpConnection->hstmt );
; 5962 :    SQL_RC( "SQLAllocStmt", nRC, "Allocate HSTMT", 0, 2 );
; 5963 :    if ( nRC != SQL_SUCCESS )
; 5964 :       return( zCALL_ERROR );
; 5965 : 
; 5966 : #else
; 5967 : 
; 5968 :    nRC = SQLSetConnectAttr( lpConnection->hdbc, SQL_ATTR_AUTOCOMMIT,

	push	0
	push	0
	push	102					; 00000066H
	mov	edx, DWORD PTR _lpConnection$[ebp]
	mov	eax, DWORD PTR [edx+2808]
	push	eax
	call	_SQLSetConnectAttr@16
	mov	WORD PTR _nRC$[ebp], ax

; 5969 :                             SQL_AUTOCOMMIT_OFF, 0 );
; 5970 :    SQL_RC( "SQLSetConnectAttr", nRC, "Turning AutoCommit off", 0, 2 );

	mov	ecx, DWORD PTR _lpConnection$[ebp]
	push	ecx
	push	2
	push	0
	push	OFFSET $SG96279
	movzx	edx, WORD PTR _nRC$[ebp]
	push	edx
	push	OFFSET $SG96280
	call	_fnSqlRC
	add	esp, 24					; 00000018H

; 5971 : 
; 5972 :    nRC = SQLAllocHandle( SQL_HANDLE_STMT, lpConnection->hdbc,

	mov	eax, DWORD PTR _lpConnection$[ebp]
	add	eax, 2812				; 00000afcH
	push	eax
	mov	ecx, DWORD PTR _lpConnection$[ebp]
	mov	edx, DWORD PTR [ecx+2808]
	push	edx
	push	3
	call	_SQLAllocHandle@12
	mov	WORD PTR _nRC$[ebp], ax

; 5973 :                          &lpConnection->hstmt );
; 5974 :    SQL_RC( "SQLAllocHandle", nRC, "Allocate HSTMT", 0, 2 );

	mov	eax, DWORD PTR _lpConnection$[ebp]
	push	eax
	push	2
	push	0
	push	OFFSET $SG96281
	movzx	ecx, WORD PTR _nRC$[ebp]
	push	ecx
	push	OFFSET $SG96282
	call	_fnSqlRC
	add	esp, 24					; 00000018H

; 5975 :    if ( nRC != SQL_SUCCESS )

	movsx	edx, WORD PTR _nRC$[ebp]
	test	edx, edx
	je	SHORT $LN20@RetrieveSc

; 5976 :       return( zCALL_ERROR );

	mov	eax, -16				; fffffff0H
	jmp	$LN40@RetrieveSc
$LN20@RetrieveSc:

; 5977 : 
; 5978 : #endif
; 5979 : 
; 5980 :    nRC = SQLTables( lpConnection->hstmt, 0, 0, 0, 0, 0, 0,

	push	-3					; fffffffdH
	push	OFFSET $SG96284
	push	0
	push	0
	push	0
	push	0
	push	0
	push	0
	mov	eax, DWORD PTR _lpConnection$[ebp]
	mov	ecx, DWORD PTR [eax+2812]
	push	ecx
	call	_SQLTables@36
	mov	WORD PTR _nRC$[ebp], ax

; 5981 :                     "TABLE", SQL_NTS );
; 5982 :    SQL_RC( "SQLTables", nRC, "Get table list", 0, 1 );

	mov	edx, DWORD PTR _lpConnection$[ebp]
	push	edx
	push	1
	push	0
	push	OFFSET $SG96285
	movzx	eax, WORD PTR _nRC$[ebp]
	push	eax
	push	OFFSET $SG96286
	call	_fnSqlRC
	add	esp, 24					; 00000018H

; 5983 : 
; 5984 :    SQLBindCol( lpConnection->hstmt, 3, SQL_C_CHAR, szTableName,

	lea	ecx, DWORD PTR _cbTableNameLth$[ebp]
	push	ecx
	push	255					; 000000ffH
	lea	edx, DWORD PTR _szTableName$[ebp]
	push	edx
	push	1
	push	3
	mov	eax, DWORD PTR _lpConnection$[ebp]
	mov	ecx, DWORD PTR [eax+2812]
	push	ecx
	call	_SQLBindCol@24
$LN2@RetrieveSc:

; 5985 :                STR_LEN, &cbTableNameLth );
; 5986 : 
; 5987 : #endif
; 5988 : 
; 5989 :    // Load tables.
; 5990 :    while ( TRUE )

	mov	edx, 1
	test	edx, edx
	je	$LN3@RetrieveSc

; 5991 :    {
; 5992 : #if defined( DB2 ) || defined( ODBC )
; 5993 : 
; 5994 :       nRC = SQLFetch( lpConnection->hstmt );

	mov	eax, DWORD PTR _lpConnection$[ebp]
	mov	ecx, DWORD PTR [eax+2812]
	push	ecx
	call	_SQLFetch@4
	mov	WORD PTR _nRC$[ebp], ax

; 5995 :       SQL_RC( "SQLFetch", nRC, "Fetch table name", 0, 1 );

	mov	edx, DWORD PTR _lpConnection$[ebp]
	push	edx
	push	1
	push	0
	push	OFFSET $SG96287
	movzx	eax, WORD PTR _nRC$[ebp]
	push	eax
	push	OFFSET $SG96288
	call	_fnSqlRC
	add	esp, 24					; 00000018H

; 5996 :       if ( !RC_SUCCESSFUL( nRC ) )

	movsx	ecx, WORD PTR _nRC$[ebp]
	test	ecx, ecx
	je	SHORT $LN21@RetrieveSc
	movsx	edx, WORD PTR _nRC$[ebp]
	cmp	edx, 1
	je	SHORT $LN21@RetrieveSc

; 5997 :          break;

	jmp	SHORT $LN3@RetrieveSc
$LN21@RetrieveSc:

; 5998 : 
; 5999 :       // We have to ignore some system tables.
; 6000 :       if ( zstrcmpi( szTableName, "dtproperties" ) == 0 )

	push	OFFSET $SG96291
	lea	eax, DWORD PTR _szTableName$[ebp]
	push	eax
	call	DWORD PTR __imp___stricmp
	add	esp, 8
	test	eax, eax
	jne	SHORT $LN22@RetrieveSc

; 6001 :          continue;

	jmp	SHORT $LN2@RetrieveSc
$LN22@RetrieveSc:

; 6002 : 
; 6003 : #endif
; 6004 : 
; 6005 :       CreateEntity( vDB, "TE_TablRec", zPOS_LAST );

	push	2
	push	OFFSET $SG96292
	mov	ecx, DWORD PTR _vDB$[ebp]
	push	ecx
	call	_CreateEntity@12

; 6006 :       SetAttributeFromString( vDB, "TE_TablRec", "Name", szTableName );

	lea	edx, DWORD PTR _szTableName$[ebp]
	push	edx
	push	OFFSET $SG96293
	push	OFFSET $SG96294
	mov	eax, DWORD PTR _vDB$[ebp]
	push	eax
	call	_SetAttributeFromString@16

; 6007 : 
; 6008 :    } // Load tables...

	jmp	$LN2@RetrieveSc
$LN3@RetrieveSc:

; 6009 : 
; 6010 :    // Clean up after getting tables.
; 6011 : #if defined( DB2 ) || defined( ODBC )
; 6012 : 
; 6013 :    nRC = SQLCloseCursor( lpConnection->hstmt );

	mov	ecx, DWORD PTR _lpConnection$[ebp]
	mov	edx, DWORD PTR [ecx+2812]
	push	edx
	call	_SQLCloseCursor@4
	mov	WORD PTR _nRC$[ebp], ax

; 6014 :    SQL_RC( "SQLCloseCursor", nRC, 0, 0, 2 );

	mov	eax, DWORD PTR _lpConnection$[ebp]
	push	eax
	push	2
	push	0
	push	0
	movzx	ecx, WORD PTR _nRC$[ebp]
	push	ecx
	push	OFFSET $SG96295
	call	_fnSqlRC
	add	esp, 24					; 00000018H

; 6015 : 
; 6016 : #endif
; 6017 : 
; 6018 :    // Load columns.
; 6019 :    for ( nRC = SetCursorFirstEntity( vDB, "TE_TablRec", 0 );

	push	0
	push	OFFSET $SG96296
	mov	edx, DWORD PTR _vDB$[ebp]
	push	edx
	call	_SetCursorFirstEntity@12
	mov	WORD PTR _nRC$[ebp], ax
	jmp	SHORT $LN6@RetrieveSc
$LN4@RetrieveSc:

; 6021 :          nRC = SetCursorNextEntity( vDB, "TE_TablRec", 0 ) )

	push	0
	push	OFFSET $SG96297
	mov	eax, DWORD PTR _vDB$[ebp]
	push	eax
	call	_SetCursorNextEntity@12
	mov	WORD PTR _nRC$[ebp], ax
$LN6@RetrieveSc:

; 6020 :          nRC >= zCURSOR_SET;

	movsx	ecx, WORD PTR _nRC$[ebp]
	test	ecx, ecx
	jl	$LN5@RetrieveSc

; 6022 :    {
; 6023 :       GetStringFromAttribute( szTableName, vDB, "TE_TablRec", "Name" );

	push	OFFSET $SG96298
	push	OFFSET $SG96299
	mov	edx, DWORD PTR _vDB$[ebp]
	push	edx
	lea	eax, DWORD PTR _szTableName$[ebp]
	push	eax
	call	_GetStringFromAttribute@16

; 6024 : 
; 6025 : #if defined( DB2 ) || defined( ODBC )
; 6026 :       nRC = SQLColumns( lpConnection->hstmt, 0, 0, 0, 0, szTableName,

	push	0
	push	0
	push	-3					; fffffffdH
	lea	ecx, DWORD PTR _szTableName$[ebp]
	push	ecx
	push	0
	push	0
	push	0
	push	0
	mov	edx, DWORD PTR _lpConnection$[ebp]
	mov	eax, DWORD PTR [edx+2812]
	push	eax
	call	_SQLColumns@36
	mov	WORD PTR _nRC$[ebp], ax

; 6027 :                         SQL_NTS, 0, 0 );
; 6028 :       SQL_RC( "SQLColumns", nRC, "Get column list", 0, 1 );

	mov	ecx, DWORD PTR _lpConnection$[ebp]
	push	ecx
	push	1
	push	0
	push	OFFSET $SG96300
	movzx	edx, WORD PTR _nRC$[ebp]
	push	edx
	push	OFFSET $SG96301
	call	_fnSqlRC
	add	esp, 24					; 00000018H

; 6029 : 
; 6030 :       SQLBindCol( lpConnection->hstmt, 4, SQL_C_CHAR,

	lea	eax, DWORD PTR _cbColumnNameLth$[ebp]
	push	eax
	push	255					; 000000ffH
	lea	ecx, DWORD PTR _szColumnName$[ebp]
	push	ecx
	push	1
	push	4
	mov	edx, DWORD PTR _lpConnection$[ebp]
	mov	eax, DWORD PTR [edx+2812]
	push	eax
	call	_SQLBindCol@24

; 6031 :                   szColumnName, STR_LEN, &cbColumnNameLth );
; 6032 :       SQLBindCol( lpConnection->hstmt, 5, SQL_C_SSHORT, &sDataType, 0, 0 );

	push	0
	push	0
	lea	ecx, DWORD PTR _sDataType$[ebp]
	push	ecx
	push	-15					; fffffff1H
	push	5
	mov	edx, DWORD PTR _lpConnection$[ebp]
	mov	eax, DWORD PTR [edx+2812]
	push	eax
	call	_SQLBindCol@24

; 6033 :       SQLBindCol( lpConnection->hstmt, 6, SQL_C_CHAR,

	lea	ecx, DWORD PTR _cbColumnNameLth$[ebp]
	push	ecx
	push	255					; 000000ffH
	lea	edx, DWORD PTR _szDataTypeName$[ebp]
	push	edx
	push	1
	push	6
	mov	eax, DWORD PTR _lpConnection$[ebp]
	mov	ecx, DWORD PTR [eax+2812]
	push	ecx
	call	_SQLBindCol@24

; 6034 :                   szDataTypeName, STR_LEN, &cbColumnNameLth );
; 6035 :       SQLBindCol( lpConnection->hstmt, 7, SQL_C_SLONG, &iColLth, 0, 0 );

	push	0
	push	0
	lea	edx, DWORD PTR _iColLth$[ebp]
	push	edx
	push	-16					; fffffff0H
	push	7
	mov	eax, DWORD PTR _lpConnection$[ebp]
	mov	ecx, DWORD PTR [eax+2812]
	push	ecx
	call	_SQLBindCol@24

; 6036 :       SQLBindCol( lpConnection->hstmt, 11, SQL_C_SSHORT, &sNullable, 0, 0 );

	push	0
	push	0
	lea	edx, DWORD PTR _sNullable$[ebp]
	push	edx
	push	-15					; fffffff1H
	push	11					; 0000000bH
	mov	eax, DWORD PTR _lpConnection$[ebp]
	mov	ecx, DWORD PTR [eax+2812]
	push	ecx
	call	_SQLBindCol@24
$LN7@RetrieveSc:

; 6037 : #endif
; 6038 : 
; 6039 :       while ( TRUE )

	mov	edx, 1
	test	edx, edx
	je	$LN8@RetrieveSc

; 6040 :       {
; 6041 :          zCHAR szDataType[ 20 ];
; 6042 : 
; 6043 : #if defined( DB2 ) || defined( ODBC )
; 6044 : 
; 6045 :          nRC = SQLFetch( lpConnection->hstmt );

	mov	eax, DWORD PTR _lpConnection$[ebp]
	mov	ecx, DWORD PTR [eax+2812]
	push	ecx
	call	_SQLFetch@4
	mov	WORD PTR _nRC$[ebp], ax

; 6046 :          SQL_RC( "SQLFetch", nRC, "Fetch column name", 0, 1 );

	mov	edx, DWORD PTR _lpConnection$[ebp]
	push	edx
	push	1
	push	0
	push	OFFSET $SG96302
	movzx	eax, WORD PTR _nRC$[ebp]
	push	eax
	push	OFFSET $SG96303
	call	_fnSqlRC
	add	esp, 24					; 00000018H

; 6047 :          if ( !RC_SUCCESSFUL( nRC ) )

	movsx	ecx, WORD PTR _nRC$[ebp]
	test	ecx, ecx
	je	SHORT $LN23@RetrieveSc
	movsx	edx, WORD PTR _nRC$[ebp]
	cmp	edx, 1
	je	SHORT $LN23@RetrieveSc

; 6048 :             break;

	jmp	$LN8@RetrieveSc
$LN23@RetrieveSc:

; 6049 : 
; 6050 :          switch ( sDataType )

	movsx	eax, WORD PTR _sDataType$[ebp]
	mov	DWORD PTR tv340[ebp], eax
	mov	ecx, DWORD PTR tv340[ebp]
	add	ecx, 10					; 0000000aH
	mov	DWORD PTR tv340[ebp], ecx
	cmp	DWORD PTR tv340[ebp], 103		; 00000067H
	ja	$LN35@RetrieveSc
	mov	edx, DWORD PTR tv340[ebp]
	movzx	eax, BYTE PTR $LN45@RetrieveSc[edx]
	jmp	DWORD PTR $LN46@RetrieveSc[eax*4]
$LN24@RetrieveSc:

; 6051 :          {
; 6052 :             case SQL_CHAR:
; 6053 :                szDataType[ 0 ] = zTYPE_FIXEDCHAR;

	mov	ecx, 1
	imul	edx, ecx, 0
	mov	BYTE PTR _szDataType$3[ebp+edx], 70	; 00000046H

; 6054 :                break;

	jmp	$LN9@RetrieveSc
$LN25@RetrieveSc:

; 6055 : 
; 6056 :             case SQL_VARCHAR:
; 6057 :                szDataType[ 0 ] = zTYPE_STRING;

	mov	eax, 1
	imul	ecx, eax, 0
	mov	BYTE PTR _szDataType$3[ebp+ecx], 83	; 00000053H

; 6058 :                break;

	jmp	$LN9@RetrieveSc
$LN26@RetrieveSc:

; 6059 : 
; 6060 :             case SQL_LONGVARCHAR:
; 6061 :             case -9:   // No idea what it is, but it's returned by SqlServer.
; 6062 :             case -10:  // Returned by SqlServer, says its an ntext.
; 6063 :                szDataType[ 0 ] = 'V';

	mov	edx, 1
	imul	eax, edx, 0
	mov	BYTE PTR _szDataType$3[ebp+eax], 86	; 00000056H

; 6064 :                break;

	jmp	$LN9@RetrieveSc
$LN27@RetrieveSc:

; 6065 : 
; 6066 :             case SQL_INTEGER:
; 6067 :             case SQL_SMALLINT:
; 6068 :                szDataType[ 0 ] = zTYPE_INTEGER;

	mov	ecx, 1
	imul	edx, ecx, 0
	mov	BYTE PTR _szDataType$3[ebp+edx], 76	; 0000004cH

; 6069 :                iColLth = 4;

	mov	DWORD PTR _iColLth$[ebp], 4

; 6070 :                break;

	jmp	$LN9@RetrieveSc
$LN28@RetrieveSc:

; 6071 : 
; 6072 :             case -6:  // SQL_TINYINT
; 6073 :                szDataType[ 0 ] = zTYPE_INTEGER;

	mov	eax, 1
	imul	ecx, eax, 0
	mov	BYTE PTR _szDataType$3[ebp+ecx], 76	; 0000004cH

; 6074 :                iColLth = 1;

	mov	DWORD PTR _iColLth$[ebp], 1

; 6075 :                break;

	jmp	$LN9@RetrieveSc
$LN29@RetrieveSc:

; 6076 : 
; 6077 :             case -5:  // SQL_BIGINT
; 6078 :                szDataType[ 0 ] = zTYPE_INTEGER;

	mov	edx, 1
	imul	eax, edx, 0
	mov	BYTE PTR _szDataType$3[ebp+eax], 76	; 0000004cH

; 6079 :                iColLth = 8;

	mov	DWORD PTR _iColLth$[ebp], 8

; 6080 :                break;

	jmp	$LN9@RetrieveSc
$LN30@RetrieveSc:

; 6081 : 
; 6082 :             case SQL_REAL:
; 6083 :             case SQL_FLOAT:
; 6084 :             case SQL_DOUBLE:
; 6085 :                szDataType[ 0 ] = zTYPE_DECIMAL;

	mov	ecx, 1
	imul	edx, ecx, 0
	mov	BYTE PTR _szDataType$3[ebp+edx], 77	; 0000004dH

; 6086 :                iColLth = 40;

	mov	DWORD PTR _iColLth$[ebp], 40		; 00000028H

; 6087 :                break;

	jmp	$LN9@RetrieveSc
$LN31@RetrieveSc:

; 6088 : 
; 6089 :             case SQL_TYPE_DATE:
; 6090 :             case SQL_DATE:
; 6091 :                szDataType[ 0 ] = zTYPE_DATE;

	mov	eax, 1
	imul	ecx, eax, 0
	mov	BYTE PTR _szDataType$3[ebp+ecx], 68	; 00000044H

; 6092 :                iColLth = 4;

	mov	DWORD PTR _iColLth$[ebp], 4

; 6093 :                break;

	jmp	$LN9@RetrieveSc
$LN32@RetrieveSc:

; 6094 : 
; 6095 :             case SQL_TYPE_TIME:
; 6096 :             case SQL_TIME:
; 6097 :                szDataType[ 0 ] = zTYPE_TIME;

	mov	edx, 1
	imul	eax, edx, 0
	mov	BYTE PTR _szDataType$3[ebp+eax], 73	; 00000049H

; 6098 :                iColLth = 4;

	mov	DWORD PTR _iColLth$[ebp], 4

; 6099 :                break;

	jmp	$LN9@RetrieveSc
$LN33@RetrieveSc:

; 6100 : 
; 6101 :             case SQL_TYPE_TIMESTAMP:
; 6102 :             case SQL_TIMESTAMP:
; 6103 :                szDataType[ 0 ] = zTYPE_DATETIME;

	mov	ecx, 1
	imul	edx, ecx, 0
	mov	BYTE PTR _szDataType$3[ebp+edx], 84	; 00000054H

; 6104 :                iColLth = 4;

	mov	DWORD PTR _iColLth$[ebp], 4

; 6105 :                break;

	jmp	SHORT $LN9@RetrieveSc
$LN34@RetrieveSc:

; 6106 : 
; 6107 :             case SQL_BINARY:
; 6108 :             case SQL_VARBINARY:
; 6109 :             case SQL_LONGVARBINARY:
; 6110 :                szDataType[ 0 ] = zTYPE_BLOB;

	mov	eax, 1
	imul	ecx, eax, 0
	mov	BYTE PTR _szDataType$3[ebp+ecx], 66	; 00000042H

; 6111 :                break;

	jmp	SHORT $LN9@RetrieveSc
$LN35@RetrieveSc:

; 6112 : 
; 6113 :             default:
; 6114 :                TraceLineS( "Unknown datatype = ", szDataTypeName );

	lea	edx, DWORD PTR _szDataTypeName$[ebp]
	push	edx
	push	OFFSET $SG96317
	call	_TraceLineS@8

; 6115 :                TraceLineI( "Datatype number = ", sDataType );

	movsx	eax, WORD PTR _sDataType$[ebp]
	push	eax
	push	OFFSET $SG96318
	call	_TraceLineI@8

; 6116 :                TraceLineS( "Table Name = ", szTableName );

	lea	ecx, DWORD PTR _szTableName$[ebp]
	push	ecx
	push	OFFSET $SG96319
	call	_TraceLineS@8

; 6117 :                TraceLineS( "ColumnName = ", szColumnName );

	lea	edx, DWORD PTR _szColumnName$[ebp]
	push	edx
	push	OFFSET $SG96320
	call	_TraceLineS@8

; 6118 :                SysMessageBox( vDTE, "DGC", "Unhandled data type", 1 );

	push	1
	push	OFFSET $SG96321
	push	OFFSET $SG96322
	mov	eax, DWORD PTR _vDTE$[ebp]
	push	eax
	call	_SysMessageBox@16
$LN9@RetrieveSc:

; 6119 :                break;
; 6120 :          }
; 6121 : 
; 6122 :          // Add null terminator.
; 6123 :          szDataType[ 1 ] = 0;

	mov	DWORD PTR $T1[ebp], 1
	cmp	DWORD PTR $T1[ebp], 20			; 00000014H
	jae	SHORT $LN41@RetrieveSc
	jmp	SHORT $LN42@RetrieveSc
$LN41@RetrieveSc:
	call	___report_rangecheckfailure
$LN42@RetrieveSc:
	mov	ecx, DWORD PTR $T1[ebp]
	mov	BYTE PTR _szDataType$3[ebp+ecx], 0

; 6124 : 
; 6125 : #endif
; 6126 : 
; 6127 :       CreateEntity( vDB, "TE_FieldDataRel", zPOS_LAST );

	push	2
	push	OFFSET $SG96323
	mov	edx, DWORD PTR _vDB$[ebp]
	push	edx
	call	_CreateEntity@12

; 6128 :       SetAttributeFromString( vDB, "TE_FieldDataRel", "Name",

	lea	eax, DWORD PTR _szColumnName$[ebp]
	push	eax
	push	OFFSET $SG96324
	push	OFFSET $SG96325
	mov	ecx, DWORD PTR _vDB$[ebp]
	push	ecx
	call	_SetAttributeFromString@16

; 6129 :                               szColumnName );
; 6130 :       SetAttributeFromInteger( vDB, "TE_FieldDataRel", "Length",

	mov	edx, DWORD PTR _iColLth$[ebp]
	push	edx
	push	OFFSET $SG96326
	push	OFFSET $SG96327
	mov	eax, DWORD PTR _vDB$[ebp]
	push	eax
	call	_SetAttributeFromInteger@16

; 6131 :                                iColLth );
; 6132 :       SetAttributeFromString( vDB, "TE_FieldDataRel", "DataType",

	lea	ecx, DWORD PTR _szDataType$3[ebp]
	push	ecx
	push	OFFSET $SG96328
	push	OFFSET $SG96329
	mov	edx, DWORD PTR _vDB$[ebp]
	push	edx
	call	_SetAttributeFromString@16

; 6133 :                               szDataType );
; 6134 :    }

	jmp	$LN7@RetrieveSc
$LN8@RetrieveSc:

; 6135 : 
; 6136 : #if defined( DB2 ) || defined( ODBC )
; 6137 : 
; 6138 :       nRC = SQLCloseCursor( lpConnection->hstmt );

	mov	eax, DWORD PTR _lpConnection$[ebp]
	mov	ecx, DWORD PTR [eax+2812]
	push	ecx
	call	_SQLCloseCursor@4
	mov	WORD PTR _nRC$[ebp], ax

; 6139 :       SQL_RC( "SQLCloseCursor", nRC, 0, 0, 2 );

	mov	edx, DWORD PTR _lpConnection$[ebp]
	push	edx
	push	2
	push	0
	push	0
	movzx	eax, WORD PTR _nRC$[ebp]
	push	eax
	push	OFFSET $SG96330
	call	_fnSqlRC
	add	esp, 24					; 00000018H

; 6140 : 
; 6141 : #endif
; 6142 : 
; 6143 :    } // For each Table

	jmp	$LN4@RetrieveSc
$LN5@RetrieveSc:

; 6144 : 
; 6145 :    // Load Indexes.
; 6146 :    for ( nRC = SetCursorFirstEntity( vDB, "TE_TablRec", 0 );

	push	0
	push	OFFSET $SG96331
	mov	ecx, DWORD PTR _vDB$[ebp]
	push	ecx
	call	_SetCursorFirstEntity@12
	mov	WORD PTR _nRC$[ebp], ax
	jmp	SHORT $LN13@RetrieveSc
$LN11@RetrieveSc:

; 6148 :          nRC = SetCursorNextEntity( vDB, "TE_TablRec", 0 ) )

	push	0
	push	OFFSET $SG96332
	mov	edx, DWORD PTR _vDB$[ebp]
	push	edx
	call	_SetCursorNextEntity@12
	mov	WORD PTR _nRC$[ebp], ax
$LN13@RetrieveSc:

; 6147 :          nRC >= zCURSOR_SET;

	movsx	eax, WORD PTR _nRC$[ebp]
	test	eax, eax
	jl	$LN12@RetrieveSc

; 6149 :    {
; 6150 :       GetStringFromAttribute( szTableName, vDB, "TE_TablRec", "Name" );

	push	OFFSET $SG96333
	push	OFFSET $SG96334
	mov	ecx, DWORD PTR _vDB$[ebp]
	push	ecx
	lea	edx, DWORD PTR _szTableName$[ebp]
	push	edx
	call	_GetStringFromAttribute@16

; 6151 : 
; 6152 : #if defined( DB2 ) || defined( ODBC )
; 6153 :       nRC = SQLStatistics( lpConnection->hstmt, 0, 0, 0, 0, szTableName,

	push	0
	push	1
	push	-3					; fffffffdH
	lea	eax, DWORD PTR _szTableName$[ebp]
	push	eax
	push	0
	push	0
	push	0
	push	0
	mov	ecx, DWORD PTR _lpConnection$[ebp]
	mov	edx, DWORD PTR [ecx+2812]
	push	edx
	call	_SQLStatistics@36
	mov	WORD PTR _nRC$[ebp], ax

; 6154 :                         SQL_NTS, SQL_INDEX_ALL, 0 );
; 6155 :       SQL_RC( "SQLStatistics", nRC, "Get index list", 0, 1 );

	mov	eax, DWORD PTR _lpConnection$[ebp]
	push	eax
	push	1
	push	0
	push	OFFSET $SG96335
	movzx	ecx, WORD PTR _nRC$[ebp]
	push	ecx
	push	OFFSET $SG96336
	call	_fnSqlRC
	add	esp, 24					; 00000018H

; 6156 : 
; 6157 :       SQLBindCol( lpConnection->hstmt, 5, SQL_C_CHAR, szIndexQual,

	lea	edx, DWORD PTR _cbTableNameLth$[ebp]
	push	edx
	push	255					; 000000ffH
	lea	eax, DWORD PTR _szIndexQual$[ebp]
	push	eax
	push	1
	push	5
	mov	ecx, DWORD PTR _lpConnection$[ebp]
	mov	edx, DWORD PTR [ecx+2812]
	push	edx
	call	_SQLBindCol@24

; 6158 :                   STR_LEN, &cbTableNameLth );
; 6159 :       SQLBindCol( lpConnection->hstmt, 6, SQL_C_CHAR, szIndexName,

	lea	eax, DWORD PTR _cbIndexNameLth$[ebp]
	push	eax
	push	255					; 000000ffH
	lea	ecx, DWORD PTR _szIndexName$[ebp]
	push	ecx
	push	1
	push	6
	mov	edx, DWORD PTR _lpConnection$[ebp]
	mov	eax, DWORD PTR [edx+2812]
	push	eax
	call	_SQLBindCol@24

; 6160 :                   STR_LEN, &cbIndexNameLth );
; 6161 :       SQLBindCol( lpConnection->hstmt, 9, SQL_C_CHAR, szColumnName,

	lea	ecx, DWORD PTR _cbColumnNameLth$[ebp]
	push	ecx
	push	255					; 000000ffH
	lea	edx, DWORD PTR _szColumnName$[ebp]
	push	edx
	push	1
	push	9
	mov	eax, DWORD PTR _lpConnection$[ebp]
	mov	ecx, DWORD PTR [eax+2812]
	push	ecx
	call	_SQLBindCol@24

; 6162 :                   STR_LEN, &cbColumnNameLth );
; 6163 :       SQLBindCol( lpConnection->hstmt, 11, SQL_C_SLONG, &iCardinality,

	lea	edx, DWORD PTR _cbCardinality$[ebp]
	push	edx
	push	0
	lea	eax, DWORD PTR _iCardinality$[ebp]
	push	eax
	push	-16					; fffffff0H
	push	11					; 0000000bH
	mov	ecx, DWORD PTR _lpConnection$[ebp]
	mov	edx, DWORD PTR [ecx+2812]
	push	edx
	call	_SQLBindCol@24
$LN14@RetrieveSc:

; 6164 :                   0, &cbCardinality );
; 6165 : 
; 6166 : #endif
; 6167 : 
; 6168 :       while ( TRUE )

	mov	eax, 1
	test	eax, eax
	je	$LN15@RetrieveSc

; 6169 :       {
; 6170 : #if defined( DB2 ) || defined( ODBC )
; 6171 : 
; 6172 :          nRC = SQLFetch( lpConnection->hstmt );

	mov	ecx, DWORD PTR _lpConnection$[ebp]
	mov	edx, DWORD PTR [ecx+2812]
	push	edx
	call	_SQLFetch@4
	mov	WORD PTR _nRC$[ebp], ax

; 6173 :          SQL_RC( "SQLFetch", nRC, "Fetch column name", 0, 1 );

	mov	eax, DWORD PTR _lpConnection$[ebp]
	push	eax
	push	1
	push	0
	push	OFFSET $SG96337
	movzx	ecx, WORD PTR _nRC$[ebp]
	push	ecx
	push	OFFSET $SG96338
	call	_fnSqlRC
	add	esp, 24					; 00000018H

; 6174 :          if ( !RC_SUCCESSFUL( nRC ) )

	movsx	edx, WORD PTR _nRC$[ebp]
	test	edx, edx
	je	SHORT $LN36@RetrieveSc
	movsx	eax, WORD PTR _nRC$[ebp]
	cmp	eax, 1
	je	SHORT $LN36@RetrieveSc

; 6175 :             break;

	jmp	$LN15@RetrieveSc
$LN36@RetrieveSc:

; 6176 : 
; 6177 :          // If index name is null, then the current row is a "stat" table
; 6178 :          // so we'll ignore it.
; 6179 :          if ( cbIndexNameLth == SQL_NULL_DATA )

	cmp	DWORD PTR _cbIndexNameLth$[ebp], -1
	jne	SHORT $LN37@RetrieveSc

; 6180 :             continue;

	jmp	SHORT $LN14@RetrieveSc
$LN37@RetrieveSc:

; 6181 : #endif
; 6182 : 
; 6183 :          // Does the index already exist?
; 6184 :          if ( SetCursorFirstEntityByString( vDB, "TE_TablRecKey", "IndexName",
; 6185 :                                             szIndexName, 0 ) < zCURSOR_SET )

	push	0
	lea	ecx, DWORD PTR _szIndexName$[ebp]
	push	ecx
	push	OFFSET $SG96342
	push	OFFSET $SG96343
	mov	edx, DWORD PTR _vDB$[ebp]
	push	edx
	call	_SetCursorFirstEntityByString@20
	cwde
	test	eax, eax
	jge	SHORT $LN38@RetrieveSc

; 6186 :          {
; 6187 :             CreateEntity( vDB, "TE_TablRecKey", zPOS_LAST );

	push	2
	push	OFFSET $SG96344
	mov	ecx, DWORD PTR _vDB$[ebp]
	push	ecx
	call	_CreateEntity@12

; 6188 :             SetAttributeFromString( vDB, "TE_TablRecKey", "IndexName", szIndexName );

	lea	edx, DWORD PTR _szIndexName$[ebp]
	push	edx
	push	OFFSET $SG96345
	push	OFFSET $SG96346
	mov	eax, DWORD PTR _vDB$[ebp]
	push	eax
	call	_SetAttributeFromString@16

; 6189 :             SetAttributeFromString( vDB, "TE_TablRecKey", "Name",

	push	OFFSET $SG96347
	push	OFFSET $SG96348
	push	OFFSET $SG96349
	mov	ecx, DWORD PTR _vDB$[ebp]
	push	ecx
	call	_SetAttributeFromString@16
$LN38@RetrieveSc:

; 6190 :                                     "Retrieved From DB" );
; 6191 :          }
; 6192 : 
; 6193 :          // Find the column in the column list.
; 6194 :          if ( SetCursorFirstEntityByString( vDB, "TE_FieldDataRel", "Name",
; 6195 :                                             szColumnName, 0 ) >= zCURSOR_SET )

	push	0
	lea	edx, DWORD PTR _szColumnName$[ebp]
	push	edx
	push	OFFSET $SG96351
	push	OFFSET $SG96352
	mov	eax, DWORD PTR _vDB$[ebp]
	push	eax
	call	_SetCursorFirstEntityByString@20
	movsx	ecx, ax
	test	ecx, ecx
	jl	SHORT $LN39@RetrieveSc

; 6196 :          {
; 6197 :             IncludeSubobjectFromSubobject( vDB, "TE_FieldDataRelKey",

	push	2
	push	OFFSET $SG96353
	mov	edx, DWORD PTR _vDB$[ebp]
	push	edx
	push	OFFSET $SG96354
	mov	eax, DWORD PTR _vDB$[ebp]
	push	eax
	call	_IncludeSubobjectFromSubobject@20
$LN39@RetrieveSc:

; 6198 :                                            vDB, "TE_FieldDataRel", zPOS_LAST );
; 6199 :          }
; 6200 :       }

	jmp	$LN14@RetrieveSc
$LN15@RetrieveSc:

; 6201 : 
; 6202 : #if defined( DB2 ) || defined( ODBC )
; 6203 : 
; 6204 :       nRC = SQLCloseCursor( lpConnection->hstmt );

	mov	ecx, DWORD PTR _lpConnection$[ebp]
	mov	edx, DWORD PTR [ecx+2812]
	push	edx
	call	_SQLCloseCursor@4
	mov	WORD PTR _nRC$[ebp], ax

; 6205 :       SQL_RC( "SQLCloseCursor", nRC, 0, 0, 2 );

	mov	eax, DWORD PTR _lpConnection$[ebp]
	push	eax
	push	2
	push	0
	push	0
	movzx	ecx, WORD PTR _nRC$[ebp]
	push	ecx
	push	OFFSET $SG96355
	call	_fnSqlRC
	add	esp, 24					; 00000018H

; 6206 : 
; 6207 : #endif
; 6208 : 
; 6209 :    } // For each Table

	jmp	$LN11@RetrieveSc
$LN12@RetrieveSc:

; 6210 : 
; 6211 : #if defined( DB2 ) || defined( ODBC )
; 6212 : 
; 6213 :    SQLFreeHandle( SQL_HANDLE_STMT, (SQLHANDLE) lpConnection->hstmt );

	mov	edx, DWORD PTR _lpConnection$[ebp]
	mov	eax, DWORD PTR [edx+2812]
	push	eax
	push	3
	call	_SQLFreeHandle@8

; 6214 :    SQLFreeHandle( SQL_HANDLE_DBC,  (SQLHANDLE) lpConnection->hdbc );

	mov	ecx, DWORD PTR _lpConnection$[ebp]
	mov	edx, DWORD PTR [ecx+2808]
	push	edx
	push	2
	call	_SQLFreeHandle@8

; 6215 :    SQLFreeHandle( SQL_HANDLE_ENV,  (SQLHANDLE) lpConnection->henv);

	mov	eax, DWORD PTR _lpConnection$[ebp]
	mov	ecx, DWORD PTR [eax+2804]
	push	ecx
	push	1
	call	_SQLFreeHandle@8

; 6216 : 
; 6217 : #endif
; 6218 : 
; 6219 :    return( 0 );

	xor	eax, eax
$LN40@RetrieveSc:

; 6220 : }

	mov	ecx, DWORD PTR __$ArrayPad$[ebp]
	xor	ecx, ebp
	call	@__security_check_cookie@4
	mov	esp, ebp
	pop	ebp
	ret	8
	npad	3
$LN46@RetrieveSc:
	DD	$LN26@RetrieveSc
	DD	$LN28@RetrieveSc
	DD	$LN29@RetrieveSc
	DD	$LN34@RetrieveSc
	DD	$LN24@RetrieveSc
	DD	$LN27@RetrieveSc
	DD	$LN30@RetrieveSc
	DD	$LN31@RetrieveSc
	DD	$LN32@RetrieveSc
	DD	$LN33@RetrieveSc
	DD	$LN25@RetrieveSc
	DD	$LN35@RetrieveSc
$LN45@RetrieveSc:
	DB	0
	DB	0
	DB	11					; 0000000bH
	DB	11					; 0000000bH
	DB	1
	DB	2
	DB	3
	DB	3
	DB	3
	DB	0
	DB	11					; 0000000bH
	DB	4
	DB	11					; 0000000bH
	DB	11					; 0000000bH
	DB	5
	DB	5
	DB	6
	DB	6
	DB	6
	DB	7
	DB	8
	DB	9
	DB	10					; 0000000aH
	DB	11					; 0000000bH
	DB	11					; 0000000bH
	DB	11					; 0000000bH
	DB	11					; 0000000bH
	DB	11					; 0000000bH
	DB	11					; 0000000bH
	DB	11					; 0000000bH
	DB	11					; 0000000bH
	DB	11					; 0000000bH
	DB	11					; 0000000bH
	DB	11					; 0000000bH
	DB	11					; 0000000bH
	DB	11					; 0000000bH
	DB	11					; 0000000bH
	DB	11					; 0000000bH
	DB	11					; 0000000bH
	DB	11					; 0000000bH
	DB	11					; 0000000bH
	DB	11					; 0000000bH
	DB	11					; 0000000bH
	DB	11					; 0000000bH
	DB	11					; 0000000bH
	DB	11					; 0000000bH
	DB	11					; 0000000bH
	DB	11					; 0000000bH
	DB	11					; 0000000bH
	DB	11					; 0000000bH
	DB	11					; 0000000bH
	DB	11					; 0000000bH
	DB	11					; 0000000bH
	DB	11					; 0000000bH
	DB	11					; 0000000bH
	DB	11					; 0000000bH
	DB	11					; 0000000bH
	DB	11					; 0000000bH
	DB	11					; 0000000bH
	DB	11					; 0000000bH
	DB	11					; 0000000bH
	DB	11					; 0000000bH
	DB	11					; 0000000bH
	DB	11					; 0000000bH
	DB	11					; 0000000bH
	DB	11					; 0000000bH
	DB	11					; 0000000bH
	DB	11					; 0000000bH
	DB	11					; 0000000bH
	DB	11					; 0000000bH
	DB	11					; 0000000bH
	DB	11					; 0000000bH
	DB	11					; 0000000bH
	DB	11					; 0000000bH
	DB	11					; 0000000bH
	DB	11					; 0000000bH
	DB	11					; 0000000bH
	DB	11					; 0000000bH
	DB	11					; 0000000bH
	DB	11					; 0000000bH
	DB	11					; 0000000bH
	DB	11					; 0000000bH
	DB	11					; 0000000bH
	DB	11					; 0000000bH
	DB	11					; 0000000bH
	DB	11					; 0000000bH
	DB	11					; 0000000bH
	DB	11					; 0000000bH
	DB	11					; 0000000bH
	DB	11					; 0000000bH
	DB	11					; 0000000bH
	DB	11					; 0000000bH
	DB	11					; 0000000bH
	DB	11					; 0000000bH
	DB	11					; 0000000bH
	DB	11					; 0000000bH
	DB	11					; 0000000bH
	DB	11					; 0000000bH
	DB	11					; 0000000bH
	DB	11					; 0000000bH
	DB	11					; 0000000bH
	DB	7
	DB	8
	DB	9
_RetrieveSchema@8 ENDP
_TEXT	ENDS
; Function compile flags: /Odtp
; File c:\10c\a\oe\kzhsqlxa.c
_TEXT	SEGMENT
_lpParent$1 = -16					; size = 4
tv296 = -12						; size = 4
_lpConnection$ = -8					; size = 4
_nRC$ = -4						; size = 2
_hTask$ = 8						; size = 4
_Message$ = 12						; size = 2
_Indicators$ = 16					; size = 4
_lpViewOD$ = 20						; size = 4
_lpViewEntity$ = 24					; size = 4
_lpView$ = 28						; size = 4
_lpQualView$ = 32					; size = 4
_ppvWorkPtr$ = 36					; size = 4
_DBH_MsgProc@32 PROC

; 5420 : {

	push	ebp
	mov	ebp, esp
	sub	esp, 16					; 00000010H

; 5421 :    LPCONNECTION lpConnection;
; 5422 :    zSHORT       nRC;
; 5423 : 
; 5424 :    // Execute a function according to the message passed.
; 5425 : // TraceLineX( "DBH_MsgProc Message: ", Message );
; 5426 :    if ( Message & DBH_Entity )

	movzx	eax, WORD PTR _Message$[ebp]
	and	eax, 32768				; 00008000H
	je	$LN2@DBH_MsgPro

; 5427 :    {
; 5428 : 
; 5429 : #if Timer
; 5430 :       lEntityMessageCount++;
; 5431 : #endif
; 5432 : 
; 5433 :       nRC = GetWorkObjectView( hTask, lpView, lpViewOD, lpViewEntity,

	lea	ecx, DWORD PTR _lpConnection$[ebp]
	push	ecx
	mov	edx, DWORD PTR _ppvWorkPtr$[ebp]
	push	edx
	mov	eax, DWORD PTR _lpViewEntity$[ebp]
	push	eax
	mov	ecx, DWORD PTR _lpViewOD$[ebp]
	push	ecx
	mov	edx, DWORD PTR _lpView$[ebp]
	push	edx
	mov	eax, DWORD PTR _hTask$[ebp]
	push	eax
	call	_GetWorkObjectView
	add	esp, 24					; 00000018H
	mov	WORD PTR _nRC$[ebp], ax

; 5434 :                                ppvWorkPtr, &lpConnection );
; 5435 :       if ( nRC == zCALL_ERROR )

	movsx	ecx, WORD PTR _nRC$[ebp]
	cmp	ecx, -16				; fffffff0H
	jne	SHORT $LN4@DBH_MsgPro

; 5436 :          goto EndOfFunction;

	jmp	$EndOfFunction$50
$LN4@DBH_MsgPro:

; 5437 : 
; 5438 :       if ( Message & DBH_Load )

	movzx	edx, WORD PTR _Message$[ebp]
	and	edx, 32					; 00000020H
	je	SHORT $LN5@DBH_MsgPro

; 5439 :          nRC = Load( lpViewEntity, lpView, lpViewOD, lpQualView, lpConnection,

	mov	eax, DWORD PTR _Indicators$[ebp]
	push	eax
	mov	ecx, DWORD PTR _lpConnection$[ebp]
	push	ecx
	mov	edx, DWORD PTR _lpQualView$[ebp]
	push	edx
	mov	eax, DWORD PTR _lpViewOD$[ebp]
	push	eax
	mov	ecx, DWORD PTR _lpView$[ebp]
	push	ecx
	mov	edx, DWORD PTR _lpViewEntity$[ebp]
	push	edx
	call	_Load
	add	esp, 24					; 00000018H
	mov	WORD PTR _nRC$[ebp], ax
	jmp	$LN6@DBH_MsgPro
$LN5@DBH_MsgPro:

; 5440 :                      Indicators );
; 5441 :       else
; 5442 :       if ( Message & DBH_Insert )

	movzx	eax, WORD PTR _Message$[ebp]
	and	eax, 1
	je	SHORT $LN7@DBH_MsgPro

; 5443 :          nRC = Insert( lpViewEntity, lpView, lpViewOD, FALSE, lpConnection );

	mov	ecx, DWORD PTR _lpConnection$[ebp]
	push	ecx
	push	0
	mov	edx, DWORD PTR _lpViewOD$[ebp]
	push	edx
	mov	eax, DWORD PTR _lpView$[ebp]
	push	eax
	mov	ecx, DWORD PTR _lpViewEntity$[ebp]
	push	ecx
	call	_Insert
	add	esp, 20					; 00000014H
	mov	WORD PTR _nRC$[ebp], ax
	jmp	$LN6@DBH_MsgPro
$LN7@DBH_MsgPro:

; 5444 :       else
; 5445 :       if ( Message & DBH_InsertRel )

	movzx	edx, WORD PTR _Message$[ebp]
	and	edx, 2
	je	SHORT $LN9@DBH_MsgPro

; 5446 :          nRC = InsertRel( lpViewEntity, lpView, lpViewOD, lpConnection );

	mov	eax, DWORD PTR _lpConnection$[ebp]
	push	eax
	mov	ecx, DWORD PTR _lpViewOD$[ebp]
	push	ecx
	mov	edx, DWORD PTR _lpView$[ebp]
	push	edx
	mov	eax, DWORD PTR _lpViewEntity$[ebp]
	push	eax
	call	_InsertRel
	add	esp, 16					; 00000010H
	mov	WORD PTR _nRC$[ebp], ax
	jmp	$LN6@DBH_MsgPro
$LN9@DBH_MsgPro:

; 5447 :       else
; 5448 :       if ( Message & DBH_Delete )

	movzx	ecx, WORD PTR _Message$[ebp]
	and	ecx, 4
	je	SHORT $LN11@DBH_MsgPro

; 5449 :       {
; 5450 :          if ( Message & DBH_DeleteAll )

	movzx	edx, WORD PTR _Message$[ebp]
	and	edx, 1024				; 00000400H
	je	SHORT $LN13@DBH_MsgPro

; 5451 :             lpConnection->bDeleteAll = TRUE;

	mov	eax, DWORD PTR _lpConnection$[ebp]
	mov	ecx, DWORD PTR [eax+800]
	or	ecx, 4
	mov	edx, DWORD PTR _lpConnection$[ebp]
	mov	DWORD PTR [edx+800], ecx
$LN13@DBH_MsgPro:

; 5452 : 
; 5453 :          nRC = Delete( lpViewEntity, lpView, lpViewOD, lpConnection );

	mov	eax, DWORD PTR _lpConnection$[ebp]
	push	eax
	mov	ecx, DWORD PTR _lpViewOD$[ebp]
	push	ecx
	mov	edx, DWORD PTR _lpView$[ebp]
	push	edx
	mov	eax, DWORD PTR _lpViewEntity$[ebp]
	push	eax
	call	_Delete
	add	esp, 16					; 00000010H
	mov	WORD PTR _nRC$[ebp], ax

; 5454 :       // lpConnection->bDeleteAll = FALSE;  turned off in Delete call
; 5455 :       }

	jmp	SHORT $LN6@DBH_MsgPro
$LN11@DBH_MsgPro:

; 5456 :       else
; 5457 :       if ( Message & DBH_DeleteRel )

	movzx	ecx, WORD PTR _Message$[ebp]
	and	ecx, 8
	je	SHORT $LN14@DBH_MsgPro

; 5458 :          nRC = DeleteRel( lpViewEntity, lpView, lpViewOD, lpConnection );

	mov	edx, DWORD PTR _lpConnection$[ebp]
	push	edx
	mov	eax, DWORD PTR _lpViewOD$[ebp]
	push	eax
	mov	ecx, DWORD PTR _lpView$[ebp]
	push	ecx
	mov	edx, DWORD PTR _lpViewEntity$[ebp]
	push	edx
	call	_DeleteRel
	add	esp, 16					; 00000010H
	mov	WORD PTR _nRC$[ebp], ax
	jmp	SHORT $LN6@DBH_MsgPro
$LN14@DBH_MsgPro:

; 5459 :       else
; 5460 :       if ( Message & DBH_Update )

	movzx	eax, WORD PTR _Message$[ebp]
	and	eax, 16					; 00000010H
	je	SHORT $LN16@DBH_MsgPro

; 5461 :          nRC = Update( lpViewEntity, lpView, lpViewOD, FALSE, lpConnection );

	mov	ecx, DWORD PTR _lpConnection$[ebp]
	push	ecx
	push	0
	mov	edx, DWORD PTR _lpViewOD$[ebp]
	push	edx
	mov	eax, DWORD PTR _lpView$[ebp]
	push	eax
	mov	ecx, DWORD PTR _lpViewEntity$[ebp]
	push	ecx
	call	_Update
	add	esp, 20					; 00000014H
	mov	WORD PTR _nRC$[ebp], ax
	jmp	SHORT $LN6@DBH_MsgPro
$LN16@DBH_MsgPro:

; 5462 :       else
; 5463 :       if ( Message & DBH_UpdateSeq )

	movzx	edx, WORD PTR _Message$[ebp]
	and	edx, 2048				; 00000800H
	je	SHORT $LN6@DBH_MsgPro

; 5464 :          nRC = Update( lpViewEntity, lpView, lpViewOD, TRUE, lpConnection );

	mov	eax, DWORD PTR _lpConnection$[ebp]
	push	eax
	push	1
	mov	ecx, DWORD PTR _lpViewOD$[ebp]
	push	ecx
	mov	edx, DWORD PTR _lpView$[ebp]
	push	edx
	mov	eax, DWORD PTR _lpViewEntity$[ebp]
	push	eax
	call	_Update
	add	esp, 20					; 00000014H
	mov	WORD PTR _nRC$[ebp], ax
$LN6@DBH_MsgPro:

; 5465 : 
; 5466 :       if ( nRC == zCALL_ERROR )

	movsx	ecx, WORD PTR _nRC$[ebp]
	cmp	ecx, -16				; fffffff0H
	jne	$LN19@DBH_MsgPro

; 5467 :       {
; 5468 :          TraceLineS( "", "" );

	push	OFFSET $SG96084
	push	OFFSET $SG96085
	call	_TraceLineS@8

; 5469 :          if ( Message & DBH_Load )

	movzx	edx, WORD PTR _Message$[ebp]
	and	edx, 32					; 00000020H
	je	SHORT $LN20@DBH_MsgPro

; 5470 :             TraceLineS( "Error performing Load for OD: ", lpViewOD->szName );

	mov	eax, DWORD PTR _lpViewOD$[ebp]
	add	eax, 10					; 0000000aH
	push	eax
	push	OFFSET $SG96088
	call	_TraceLineS@8
	jmp	$LN21@DBH_MsgPro
$LN20@DBH_MsgPro:

; 5471 :          else
; 5472 :          if ( Message & DBH_Insert )

	movzx	ecx, WORD PTR _Message$[ebp]
	and	ecx, 1
	je	SHORT $LN22@DBH_MsgPro

; 5473 :             TraceLineS( "Error performing Insert for OD: ", lpViewOD->szName );

	mov	edx, DWORD PTR _lpViewOD$[ebp]
	add	edx, 10					; 0000000aH
	push	edx
	push	OFFSET $SG96091
	call	_TraceLineS@8
	jmp	SHORT $LN21@DBH_MsgPro
$LN22@DBH_MsgPro:

; 5474 :          else
; 5475 :          if ( Message & DBH_InsertRel )

	movzx	eax, WORD PTR _Message$[ebp]
	and	eax, 2
	je	SHORT $LN24@DBH_MsgPro

; 5476 :             TraceLineS( "Error performing InsertRel for OD: ", lpViewOD->szName );

	mov	ecx, DWORD PTR _lpViewOD$[ebp]
	add	ecx, 10					; 0000000aH
	push	ecx
	push	OFFSET $SG96094
	call	_TraceLineS@8
	jmp	SHORT $LN21@DBH_MsgPro
$LN24@DBH_MsgPro:

; 5477 :          else
; 5478 :          if ( Message & DBH_Delete )

	movzx	edx, WORD PTR _Message$[ebp]
	and	edx, 4
	je	SHORT $LN26@DBH_MsgPro

; 5479 :             TraceLineS( "Error performing Delete for OD: ", lpViewOD->szName );

	mov	eax, DWORD PTR _lpViewOD$[ebp]
	add	eax, 10					; 0000000aH
	push	eax
	push	OFFSET $SG96097
	call	_TraceLineS@8
	jmp	SHORT $LN21@DBH_MsgPro
$LN26@DBH_MsgPro:

; 5480 :          else
; 5481 :          if ( Message & DBH_DeleteRel )

	movzx	ecx, WORD PTR _Message$[ebp]
	and	ecx, 8
	je	SHORT $LN28@DBH_MsgPro

; 5482 :             TraceLineS( "Error performing DeleteRel for OD: ", lpViewOD->szName );

	mov	edx, DWORD PTR _lpViewOD$[ebp]
	add	edx, 10					; 0000000aH
	push	edx
	push	OFFSET $SG96100
	call	_TraceLineS@8
	jmp	SHORT $LN21@DBH_MsgPro
$LN28@DBH_MsgPro:

; 5483 :          else
; 5484 :          if ( Message & DBH_Update )

	movzx	eax, WORD PTR _Message$[ebp]
	and	eax, 16					; 00000010H
	je	SHORT $LN21@DBH_MsgPro

; 5485 :             TraceLineS( "Error performing Update for OD: ", lpViewOD->szName );

	mov	ecx, DWORD PTR _lpViewOD$[ebp]
	add	ecx, 10					; 0000000aH
	push	ecx
	push	OFFSET $SG96102
	call	_TraceLineS@8
$LN21@DBH_MsgPro:

; 5486 : 
; 5487 :          if ( lpViewEntity->hParent )

	mov	edx, DWORD PTR _lpViewEntity$[ebp]
	cmp	DWORD PTR [edx+10], 0
	je	SHORT $LN31@DBH_MsgPro

; 5488 :          {
; 5489 :             LPVIEWENTITY lpParent = zGETPTR( lpViewEntity->hParent );

	mov	eax, DWORD PTR _lpViewEntity$[ebp]
	mov	ecx, DWORD PTR [eax+10]
	push	ecx
	call	_SysGetPointerFromHandle@4
	mov	DWORD PTR _lpParent$1[ebp], eax

; 5490 : 
; 5491 :             TraceLineS( "PARENT:", "" );

	push	OFFSET $SG96104
	push	OFFSET $SG96105
	call	_TraceLineS@8

; 5492 :             DisplayEntityInstance( lpView, lpParent->szName );

	mov	edx, DWORD PTR _lpParent$1[ebp]
	add	edx, 14					; 0000000eH
	push	edx
	mov	eax, DWORD PTR _lpView$[ebp]
	push	eax
	call	_DisplayEntityInstance@8

; 5493 :             TraceLineS( "", "" );

	push	OFFSET $SG96106
	push	OFFSET $SG96107
	call	_TraceLineS@8

; 5494 :             TraceLineS( "CHILD:", "" );

	push	OFFSET $SG96108
	push	OFFSET $SG96109
	call	_TraceLineS@8
$LN31@DBH_MsgPro:

; 5495 :          }
; 5496 : 
; 5497 :          DisplayEntityInstance( lpView, lpViewEntity->szName );

	mov	ecx, DWORD PTR _lpViewEntity$[ebp]
	add	ecx, 14					; 0000000eH
	push	ecx
	mov	edx, DWORD PTR _lpView$[ebp]
	push	edx
	call	_DisplayEntityInstance@8

; 5498 : 
; 5499 :          if ( lpQualView )

	cmp	DWORD PTR _lpQualView$[ebp], 0
	je	SHORT $LN19@DBH_MsgPro

; 5500 :          {
; 5501 :             TraceLineS( "Qualification View:", "" );

	push	OFFSET $SG96111
	push	OFFSET $SG96112
	call	_TraceLineS@8

; 5502 :             DisplayObjectInstance( lpQualView, 0, 0 );

	push	0
	push	0
	mov	eax, DWORD PTR _lpQualView$[ebp]
	push	eax
	call	_DisplayObjectInstance@12
$LN19@DBH_MsgPro:

; 5503 :          }
; 5504 :       }
; 5505 :    }

	jmp	$EndOfFunction$50
$LN2@DBH_MsgPro:

; 5506 :    else
; 5507 :    if ( Message & DBH_Object )

	movzx	ecx, WORD PTR _Message$[ebp]
	and	ecx, 16384				; 00004000H
	je	$LN33@DBH_MsgPro

; 5508 :    {
; 5509 :       nRC = GetWorkObjectView( hTask, lpView, lpViewOD, lpViewEntity,

	lea	edx, DWORD PTR _lpConnection$[ebp]
	push	edx
	mov	eax, DWORD PTR _ppvWorkPtr$[ebp]
	push	eax
	mov	ecx, DWORD PTR _lpViewEntity$[ebp]
	push	ecx
	mov	edx, DWORD PTR _lpViewOD$[ebp]
	push	edx
	mov	eax, DWORD PTR _lpView$[ebp]
	push	eax
	mov	ecx, DWORD PTR _hTask$[ebp]
	push	ecx
	call	_GetWorkObjectView
	add	esp, 24					; 00000018H
	mov	WORD PTR _nRC$[ebp], ax

; 5510 :                                ppvWorkPtr, &lpConnection );
; 5511 :       if ( nRC == zCALL_ERROR )

	movsx	edx, WORD PTR _nRC$[ebp]
	cmp	edx, -16				; fffffff0H
	jne	SHORT $LN35@DBH_MsgPro

; 5512 :          goto EndOfFunction;

	jmp	$EndOfFunction$50
$LN35@DBH_MsgPro:

; 5513 : 
; 5514 :       if ( Message & DBH_TranBegin )

	movzx	eax, WORD PTR _Message$[ebp]
	and	eax, 1
	je	SHORT $LN36@DBH_MsgPro

; 5515 :          nRC = BeginTransaction( Indicators, lpViewOD, lpView, lpQualView,

	mov	ecx, DWORD PTR _lpConnection$[ebp]
	push	ecx
	mov	edx, DWORD PTR _lpQualView$[ebp]
	push	edx
	mov	eax, DWORD PTR _lpView$[ebp]
	push	eax
	mov	ecx, DWORD PTR _lpViewOD$[ebp]
	push	ecx
	mov	edx, DWORD PTR _Indicators$[ebp]
	push	edx
	call	_BeginTransaction
	add	esp, 20					; 00000014H
	mov	WORD PTR _nRC$[ebp], ax
	jmp	$LN37@DBH_MsgPro
$LN36@DBH_MsgPro:

; 5516 :                                  lpConnection );
; 5517 :       else
; 5518 :       if ( Message & DBH_Commit )

	movzx	eax, WORD PTR _Message$[ebp]
	and	eax, 2
	je	SHORT $LN38@DBH_MsgPro

; 5519 :          nRC = CommitTransaction( lpView, Indicators, lpConnection );

	mov	ecx, DWORD PTR _lpConnection$[ebp]
	push	ecx
	mov	edx, DWORD PTR _Indicators$[ebp]
	push	edx
	mov	eax, DWORD PTR _lpView$[ebp]
	push	eax
	call	_CommitTransaction
	add	esp, 12					; 0000000cH
	mov	WORD PTR _nRC$[ebp], ax
	jmp	SHORT $LN37@DBH_MsgPro
$LN38@DBH_MsgPro:

; 5520 :       else
; 5521 :       if ( Message & DBH_Rollback )

	movzx	ecx, WORD PTR _Message$[ebp]
	and	ecx, 4
	je	SHORT $LN40@DBH_MsgPro

; 5522 :          nRC = RollbackTransaction( Indicators, lpConnection );

	mov	edx, DWORD PTR _lpConnection$[ebp]
	push	edx
	mov	eax, DWORD PTR _Indicators$[ebp]
	push	eax
	call	_RollbackTransaction
	add	esp, 8
	mov	WORD PTR _nRC$[ebp], ax
	jmp	SHORT $LN37@DBH_MsgPro
$LN40@DBH_MsgPro:

; 5523 :       else
; 5524 :       if ( Message & DBH_NewObject )

	movzx	ecx, WORD PTR _Message$[ebp]
	and	ecx, 8
	je	SHORT $LN37@DBH_MsgPro

; 5525 :       {
; 5526 :          if ( lpConnection->nTraceLevel > 0 )

	mov	edx, DWORD PTR _lpConnection$[ebp]
	movsx	eax, WORD PTR [edx+214]
	test	eax, eax
	jle	SHORT $LN37@DBH_MsgPro

; 5527 :          {
; 5528 :             TraceLineS( "---------------------------------", "" );

	push	OFFSET $SG96124
	push	OFFSET $SG96125
	call	_TraceLineS@8

; 5529 :             TraceLineS( "Committing object ", lpViewOD->szName );

	mov	ecx, DWORD PTR _lpViewOD$[ebp]
	add	ecx, 10					; 0000000aH
	push	ecx
	push	OFFSET $SG96126
	call	_TraceLineS@8

; 5530 :             TraceLineS( "---------------------------------", "" );

	push	OFFSET $SG96127
	push	OFFSET $SG96128
	call	_TraceLineS@8
$LN37@DBH_MsgPro:

; 5531 :          }
; 5532 :       }
; 5533 :    }

	jmp	SHORT $EndOfFunction$50
$LN33@DBH_MsgPro:

; 5534 :    else
; 5535 :    if ( Message & DBH_Init )

	movzx	edx, WORD PTR _Message$[ebp]
	and	edx, 4096				; 00001000H
	je	SHORT $LN44@DBH_MsgPro

; 5536 :       nRC = InitDatabase( lpView );

	mov	eax, DWORD PTR _lpView$[ebp]
	push	eax
	call	_InitDatabase
	add	esp, 4
	mov	WORD PTR _nRC$[ebp], ax
	jmp	SHORT $EndOfFunction$50
$LN44@DBH_MsgPro:

; 5537 :    else
; 5538 :    if ( Message & (DBH_Term | DBH_TaskCloseAll) )

	movzx	ecx, WORD PTR _Message$[ebp]
	and	ecx, 8448				; 00002100H
	je	SHORT $EndOfFunction$50

; 5539 :       nRC = CloseDatabase( lpQualView ? lpQualView : lpView, Indicators );

	cmp	DWORD PTR _lpQualView$[ebp], 0
	je	SHORT $LN48@DBH_MsgPro
	mov	edx, DWORD PTR _lpQualView$[ebp]
	mov	DWORD PTR tv296[ebp], edx
	jmp	SHORT $LN49@DBH_MsgPro
$LN48@DBH_MsgPro:
	mov	eax, DWORD PTR _lpView$[ebp]
	mov	DWORD PTR tv296[ebp], eax
$LN49@DBH_MsgPro:
	mov	ecx, DWORD PTR _Indicators$[ebp]
	push	ecx
	mov	edx, DWORD PTR tv296[ebp]
	push	edx
	call	_CloseDatabase
	add	esp, 8
	mov	WORD PTR _nRC$[ebp], ax
$EndOfFunction$50:

; 5540 : 
; 5541 : EndOfFunction:
; 5542 : 
; 5543 :    return( nRC );

	mov	ax, WORD PTR _nRC$[ebp]

; 5544 : 
; 5545 : } // fnDBH_MsgProc

	mov	esp, ebp
	pop	ebp
	ret	32					; 00000020H
_DBH_MsgProc@32 ENDP
_TEXT	ENDS
; Function compile flags: /Odtp
; File c:\10c\a\oe\kzhsqlxa.c
_TEXT	SEGMENT
_lProcessID$ = -3204					; size = 4
_v$1 = -3200						; size = 4
$T2 = -3196						; size = 4
_lTask$3 = -3192					; size = 4
_nTraceLevel$4 = -3188					; size = 2
_lpConnection$ = -3184					; size = 4
_nRC$ = -3180						; size = 2
_vDbhWork$ = -3176					; size = 4
_ConnRec$5 = -3172					; size = 2928
_szLogicalName$ = -244					; size = 200
_szStr$6 = -44						; size = 20
_szStr$ = -24						; size = 20
__$ArrayPad$ = -4					; size = 4
_hTask$ = 8						; size = 4
_lpView$ = 12						; size = 4
_lpViewOD$ = 16						; size = 4
_lpViewEntity$ = 20					; size = 4
_ppvWorkPtr$ = 24					; size = 4
_lppConnection$ = 28					; size = 4
_GetWorkObjectView PROC

; 4727 : {

	push	ebp
	mov	ebp, esp
	sub	esp, 3204				; 00000c84H
	mov	eax, DWORD PTR ___security_cookie
	xor	eax, ebp
	mov	DWORD PTR __$ArrayPad$[ebp], eax

; 4728 :    LPCONNECTION     lpConnection;
; 4729 :    zVIEW            vDbhWork;
; 4730 :    zCHAR            szLogicalName[ 200 ];
; 4731 :    zCHAR            szStr[ 20 ];
; 4732 :    zLONG            lProcessID;
; 4733 :    zSHORT           nRC;
; 4734 : 
; 4735 :    // If vDbhWorkPTr points to a null pointer then we haven't yet initialized
; 4736 :    // the work pointer--so do it.
; 4737 :    if ( *ppvWorkPtr == 0 )

	mov	eax, DWORD PTR _ppvWorkPtr$[ebp]
	cmp	DWORD PTR [eax], 0
	jne	$LN2@GetWorkObj

; 4738 :    {
; 4739 :       ConnectionRecord ConnRec;
; 4740 :       zSHORT           nTraceLevel = 0;

	xor	ecx, ecx
	mov	WORD PTR _nTraceLevel$4[ebp], cx

; 4741 : 
; 4742 :       GetViewByName( &vDbhWork, zDBHANDLER_WORK_VIEW_NAME, lpView, zLEVEL_SYSTEM );

	push	8
	mov	edx, DWORD PTR _lpView$[ebp]
	push	edx
	push	OFFSET $SG95792
	lea	eax, DWORD PTR _vDbhWork$[ebp]
	push	eax
	call	_GetViewByName@16

; 4743 :       if ( vDbhWork == 0 )

	cmp	DWORD PTR _vDbhWork$[ebp], 0
	jne	SHORT $LN4@GetWorkObj

; 4744 :       {
; 4745 :          DBH_Error( lpView, "Can't find DB-Handler work view.", 0, 0 );

	push	0
	push	0
	push	OFFSET $SG95794
	mov	ecx, DWORD PTR _lpView$[ebp]
	push	ecx
	call	_DBH_Error
	add	esp, 16					; 00000010H

; 4746 :          return( zCALL_ERROR );

	mov	eax, -16				; fffffff0H
	jmp	$LN15@GetWorkObj
$LN4@GetWorkObj:

; 4747 :       }
; 4748 : 
; 4749 :       SysMutexLock( lpView, "Zeidon DBH", 0, 0 );

	push	0
	push	0
	push	OFFSET $SG95795
	mov	edx, DWORD PTR _lpView$[ebp]
	push	edx
	call	_SysMutexLock@16

; 4750 : 
; 4751 :       CreateViewFromViewForTask( &vDbhWork, vDbhWork, lpView );

	mov	eax, DWORD PTR _lpView$[ebp]
	push	eax
	mov	ecx, DWORD PTR _vDbhWork$[ebp]
	push	ecx
	lea	edx, DWORD PTR _vDbhWork$[ebp]
	push	edx
	call	_CreateViewFromViewForTask@12

; 4752 : 
; 4753 :       szStr[ 0 ] = zSQL_type;

	mov	eax, 1
	imul	ecx, eax, 0
	mov	BYTE PTR _szStr$[ebp+ecx], 79		; 0000004fH

; 4754 :       szStr[ 1 ] = 0;

	mov	DWORD PTR $T2[ebp], 1
	cmp	DWORD PTR $T2[ebp], 20			; 00000014H
	jae	SHORT $LN16@GetWorkObj
	jmp	SHORT $LN17@GetWorkObj
$LN16@GetWorkObj:
	call	___report_rangecheckfailure
$LN17@GetWorkObj:
	mov	edx, DWORD PTR $T2[ebp]
	mov	BYTE PTR _szStr$[ebp+edx], 0

; 4755 : 
; 4756 :       nRC = SetCursorFirstEntityByString( vDbhWork, "Type", "Type", szStr, 0 );

	push	0
	lea	eax, DWORD PTR _szStr$[ebp]
	push	eax
	push	OFFSET $SG95796
	push	OFFSET $SG95797
	mov	ecx, DWORD PTR _vDbhWork$[ebp]
	push	ecx
	call	_SetCursorFirstEntityByString@20
	mov	WORD PTR _nRC$[ebp], ax

; 4757 :       if ( nRC != zCURSOR_SET )

	movsx	edx, WORD PTR _nRC$[ebp]
	test	edx, edx
	je	SHORT $LN5@GetWorkObj

; 4758 :       {
; 4759 :          CreateEntity( vDbhWork, "Type", zPOS_LAST );

	push	2
	push	OFFSET $SG95799
	mov	eax, DWORD PTR _vDbhWork$[ebp]
	push	eax
	call	_CreateEntity@12

; 4760 :          SetAttributeFromString( vDbhWork, "Type", "Type", szStr );

	lea	ecx, DWORD PTR _szStr$[ebp]
	push	ecx
	push	OFFSET $SG95800
	push	OFFSET $SG95801
	mov	edx, DWORD PTR _vDbhWork$[ebp]
	push	edx
	call	_SetAttributeFromString@16
$LN5@GetWorkObj:

; 4761 :       }
; 4762 : 
; 4763 : #if 1
; 4764 :       {
; 4765 :          zVIEW v = GetDefaultViewForActiveTask( );

	call	_GetDefaultViewForActiveTask@0
	mov	DWORD PTR _v$1[ebp], eax

; 4766 :          zLONG lTask;
; 4767 : 
; 4768 :          if ( v && (LPTASK) (lTask = SysGetTaskFromView( v )) != hTask )

	cmp	DWORD PTR _v$1[ebp], 0
	je	SHORT $LN6@GetWorkObj
	mov	eax, DWORD PTR _v$1[ebp]
	push	eax
	call	_SysGetTaskFromView@4
	mov	DWORD PTR _lTask$3[ebp], eax
	mov	ecx, DWORD PTR _lTask$3[ebp]
	cmp	ecx, DWORD PTR _hTask$[ebp]
	je	SHORT $LN6@GetWorkObj

; 4769 :          {
; 4770 :             TraceLine( "GetWorkObjectView RESETTING task from: 0x%08x  to: 0x%08x",

	mov	edx, DWORD PTR _lTask$3[ebp]
	push	edx
	mov	eax, DWORD PTR _hTask$[ebp]
	push	eax
	push	OFFSET $SG95803
	call	_TraceLine
	add	esp, 12					; 0000000cH

; 4771 :                        hTask, lTask );
; 4772 :             hTask = (LPTASK) lTask;

	mov	ecx, DWORD PTR _lTask$3[ebp]
	mov	DWORD PTR _hTask$[ebp], ecx
$LN6@GetWorkObj:

; 4773 :          }
; 4774 :       }
; 4775 : #endif
; 4776 : 
; 4777 :       lProcessID = SysGetProcessID( 0 );

	push	0
	call	_SysGetProcessID@4
	mov	DWORD PTR _lProcessID$[ebp], eax

; 4778 :    // zltoa( (zLONG) hTask, szLogicalName );
; 4779 :       zsprintf( szLogicalName, "0x%08x:%08x", hTask, lProcessID );

	mov	edx, DWORD PTR _lProcessID$[ebp]
	push	edx
	mov	eax, DWORD PTR _hTask$[ebp]
	push	eax
	push	OFFSET $SG95804
	lea	ecx, DWORD PTR _szLogicalName$[ebp]
	push	ecx
	call	_sprintf
	add	esp, 16					; 00000010H

; 4780 : 
; 4781 :    // sprintf( szLogicalName, "0x%08x", SysGetTaskFromView( lpView ) );
; 4782 : 
; 4783 :       nRC = SetCursorFirstEntityByString( vDbhWork, "Connection",

	push	OFFSET $SG95805
	lea	edx, DWORD PTR _szLogicalName$[ebp]
	push	edx
	push	OFFSET $SG95806
	push	OFFSET $SG95807
	mov	eax, DWORD PTR _vDbhWork$[ebp]
	push	eax
	call	_SetCursorFirstEntityByString@20
	mov	WORD PTR _nRC$[ebp], ax

; 4784 :                                           "LogicalUserName", szLogicalName, "" );
; 4785 :       if ( nRC != zCURSOR_SET )

	movsx	ecx, WORD PTR _nRC$[ebp]
	test	ecx, ecx
	je	$LN7@GetWorkObj

; 4786 :       {
; 4787 :          CreateEntity( vDbhWork, "Connection", zPOS_AFTER );

	push	3
	push	OFFSET $SG95810
	mov	edx, DWORD PTR _vDbhWork$[ebp]
	push	edx
	call	_CreateEntity@12

; 4788 :          SetAttributeFromString( vDbhWork, "Connection",

	lea	eax, DWORD PTR _szLogicalName$[ebp]
	push	eax
	push	OFFSET $SG95811
	push	OFFSET $SG95812
	mov	ecx, DWORD PTR _vDbhWork$[ebp]
	push	ecx
	call	_SetAttributeFromString@16

; 4789 :                                  "LogicalUserName", szLogicalName );
; 4790 :       // TraceLineS( "GetWorkObjectView adding Connection =======================>",
; 4791 :       //             szLogicalName );   // dks debug
; 4792 :          SetAttributeFromInteger( vDbhWork, "Connection",

	mov	edx, DWORD PTR _hTask$[ebp]
	push	edx
	push	OFFSET $SG95813
	push	OFFSET $SG95814
	mov	eax, DWORD PTR _vDbhWork$[ebp]
	push	eax
	call	_SetAttributeFromInteger@16

; 4793 :                                   "TaskID", (zLONG) hTask );
; 4794 : 
; 4795 :          zmemset( (zPVOID) &ConnRec, 0, sizeof( ConnRec ) );

	push	2928					; 00000b70H
	push	0
	lea	ecx, DWORD PTR _ConnRec$5[ebp]
	push	ecx
	call	_memset
	add	esp, 12					; 0000000cH

; 4796 : #ifdef DEBUG
; 4797 :          zstrcpy( ConnRec.szDebug1, "Conn BEGIN" );

	push	OFFSET $SG95815
	lea	edx, DWORD PTR _ConnRec$5[ebp]
	push	edx
	call	_strcpy
	add	esp, 8

; 4798 :          zstrcpy( ConnRec.szDebug2, "Conn END" );

	push	OFFSET $SG95816
	lea	eax, DWORD PTR _ConnRec$5[ebp+2908]
	push	eax
	call	_strcpy
	add	esp, 8

; 4799 : #endif
; 4800 : 
; 4801 :          SetAttributeFromBlob( vDbhWork, "Connection", "ConnectionBlob",

	push	2928					; 00000b70H
	lea	ecx, DWORD PTR _ConnRec$5[ebp]
	push	ecx
	push	OFFSET $SG95817
	push	OFFSET $SG95818
	mov	edx, DWORD PTR _vDbhWork$[ebp]
	push	edx
	call	_SetAttributeFromBlob@20

; 4802 :                                (zPVOID) &ConnRec, sizeof( ConnectionRecord ) );
; 4803 : 
; 4804 :          GetAddrForAttribute( (zPVOID) lppConnection, vDbhWork,

	push	OFFSET $SG95819
	push	OFFSET $SG95820
	mov	eax, DWORD PTR _vDbhWork$[ebp]
	push	eax
	mov	ecx, DWORD PTR _lppConnection$[ebp]
	push	ecx
	call	_GetAddrForAttribute@16

; 4805 :                               "Connection", "ConnectionBlob" );
; 4806 : 
; 4807 :          lpConnection = *lppConnection;

	mov	edx, DWORD PTR _lppConnection$[ebp]
	mov	eax, DWORD PTR [edx]
	mov	DWORD PTR _lpConnection$[ebp], eax

; 4808 :          lpConnection->vDbhWork = vDbhWork;

	mov	ecx, DWORD PTR _lpConnection$[ebp]
	mov	edx, DWORD PTR _vDbhWork$[ebp]
	mov	DWORD PTR [ecx+24], edx

; 4809 : 
; 4810 :          // Allocate space for SQL commands and the column buffer.
; 4811 :          fnAllocateConnectionMemory( lpView, *lppConnection, TRUE, MAX_SQLCMD_LENGTH );

	push	105000					; 00019a28H
	push	1
	mov	eax, DWORD PTR _lppConnection$[ebp]
	mov	ecx, DWORD PTR [eax]
	push	ecx
	mov	edx, DWORD PTR _lpView$[ebp]
	push	edx
	call	_fnAllocateConnectionMemory@16

; 4812 :          if ( lpConnection->hCmdMem == 0 )

	mov	eax, DWORD PTR _lpConnection$[ebp]
	cmp	DWORD PTR [eax+198], 0
	jne	SHORT $LN9@GetWorkObj

; 4813 :          {
; 4814 :             SysMutexUnlock( lpView, "Zeidon DBH", 0 );

	push	0
	push	OFFSET $SG95822
	mov	ecx, DWORD PTR _lpView$[ebp]
	push	ecx
	call	_SysMutexUnlock@12

; 4815 :             DropView( vDbhWork );

	mov	edx, DWORD PTR _vDbhWork$[ebp]
	push	edx
	call	_DropView@4

; 4816 :             return( zCALL_ERROR );

	mov	eax, -16				; fffffff0H
	jmp	$LN15@GetWorkObj
$LN9@GetWorkObj:

; 4817 :          }
; 4818 : 
; 4819 :          fnAllocateConnectionMemory( lpView, *lppConnection, FALSE, TABLE_BUFFER_LTH );

	push	32000					; 00007d00H
	push	0
	mov	eax, DWORD PTR _lppConnection$[ebp]
	mov	ecx, DWORD PTR [eax]
	push	ecx
	mov	edx, DWORD PTR _lpView$[ebp]
	push	edx
	call	_fnAllocateConnectionMemory@16

; 4820 :          if ( lpConnection->hTblMem == 0 )

	mov	eax, DWORD PTR _lpConnection$[ebp]
	cmp	DWORD PTR [eax+210], 0
	jne	SHORT $LN10@GetWorkObj

; 4821 :          {
; 4822 :             SysMutexUnlock( lpView, "Zeidon DBH", 0 );

	push	0
	push	OFFSET $SG95824
	mov	ecx, DWORD PTR _lpView$[ebp]
	push	ecx
	call	_SysMutexUnlock@12

; 4823 : 
; 4824 :             // Free connection memory (last parm zero).
; 4825 :             fnAllocateConnectionMemory( lpView, *lppConnection, TRUE, 0 );

	push	0
	push	1
	mov	edx, DWORD PTR _lppConnection$[ebp]
	mov	eax, DWORD PTR [edx]
	push	eax
	mov	ecx, DWORD PTR _lpView$[ebp]
	push	ecx
	call	_fnAllocateConnectionMemory@16

; 4826 :             DropView( vDbhWork );

	mov	edx, DWORD PTR _vDbhWork$[ebp]
	push	edx
	call	_DropView@4

; 4827 :             return( zCALL_ERROR );

	mov	eax, -16				; fffffff0H
	jmp	$LN15@GetWorkObj
$LN10@GetWorkObj:

; 4828 :          }
; 4829 : 
; 4830 :       }  // if ( nRC != zCURSOR_SET )...

	jmp	SHORT $LN8@GetWorkObj
$LN7@GetWorkObj:

; 4831 :       else
; 4832 :       {
; 4833 :          GetAddrForAttribute( (zPVOID) lppConnection, vDbhWork,

	push	OFFSET $SG95825
	push	OFFSET $SG95826
	mov	eax, DWORD PTR _vDbhWork$[ebp]
	push	eax
	mov	ecx, DWORD PTR _lppConnection$[ebp]
	push	ecx
	call	_GetAddrForAttribute@16

; 4834 :                               "Connection", "ConnectionBlob" );
; 4835 :          lpConnection = *lppConnection;

	mov	edx, DWORD PTR _lppConnection$[ebp]
	mov	eax, DWORD PTR [edx]
	mov	DWORD PTR _lpConnection$[ebp], eax

; 4836 :          lpConnection->vDbhWork = vDbhWork;

	mov	ecx, DWORD PTR _lpConnection$[ebp]
	mov	edx, DWORD PTR _vDbhWork$[ebp]
	mov	DWORD PTR [ecx+24], edx
$LN8@GetWorkObj:

; 4837 :       }
; 4838 : 
; 4839 :       if ( lpView )

	cmp	DWORD PTR _lpView$[ebp], 0
	je	SHORT $LN11@GetWorkObj

; 4840 :          nTraceLevel = GetTaskDBHandlerTraceLevel( lpView );

	mov	eax, DWORD PTR _lpView$[ebp]
	push	eax
	call	_GetTaskDBHandlerTraceLevel@4
	mov	WORD PTR _nTraceLevel$4[ebp], ax
$LN11@GetWorkObj:

; 4841 : 
; 4842 :       if ( nTraceLevel == 0 )

	movsx	ecx, WORD PTR _nTraceLevel$4[ebp]
	test	ecx, ecx
	jne	SHORT $LN12@GetWorkObj

; 4843 :       {
; 4844 :          zCHAR  szStr[ 20 ];
; 4845 : 
; 4846 :          // Get the default trace level from the INI file.
; 4847 :          SysReadZeidonIni( -1, "[" DBHANDLER_NAME "]", "TraceLevel", szStr );

	lea	edx, DWORD PTR _szStr$6[ebp]
	push	edx
	push	OFFSET $SG95829
	push	OFFSET $SG95830
	push	-1
	call	_SysReadZeidonIni@16

; 4848 :          if ( szStr[ 0 ] )

	mov	eax, 1
	imul	ecx, eax, 0
	movsx	edx, BYTE PTR _szStr$6[ebp+ecx]
	test	edx, edx
	je	SHORT $LN12@GetWorkObj

; 4849 :             nTraceLevel = (zSHORT) zatol( szStr );

	lea	eax, DWORD PTR _szStr$6[ebp]
	push	eax
	call	DWORD PTR __imp__atol
	add	esp, 4
	mov	WORD PTR _nTraceLevel$4[ebp], ax
$LN12@GetWorkObj:

; 4850 :       }
; 4851 : 
; 4852 :       lpConnection->nTraceLevel = nTraceLevel;

	mov	ecx, DWORD PTR _lpConnection$[ebp]
	mov	dx, WORD PTR _nTraceLevel$4[ebp]
	mov	WORD PTR [ecx+214], dx

; 4853 : 
; 4854 :       *ppvWorkPtr = (zPVOID) *lppConnection;

	mov	eax, DWORD PTR _ppvWorkPtr$[ebp]
	mov	ecx, DWORD PTR _lppConnection$[ebp]
	mov	edx, DWORD PTR [ecx]
	mov	DWORD PTR [eax], edx

; 4855 : 
; 4856 :       // Create a subtask view so we can reference the application.
; 4857 :       if ( lpConnection->lpAppView == 0 )

	mov	eax, DWORD PTR _lpConnection$[ebp]
	cmp	DWORD PTR [eax+20], 0
	jne	SHORT $LN14@GetWorkObj

; 4858 :          SfCreateSubtask( &lpConnection->lpAppView, lpView, 0 );

	push	0
	mov	ecx, DWORD PTR _lpView$[ebp]
	push	ecx
	mov	edx, DWORD PTR _lpConnection$[ebp]
	add	edx, 20					; 00000014H
	push	edx
	call	_SfCreateSubtask@12
$LN14@GetWorkObj:

; 4859 : 
; 4860 :       SysMutexUnlock( lpView, "Zeidon DBH", 0 );

	push	0
	push	OFFSET $SG95833
	mov	eax, DWORD PTR _lpView$[ebp]
	push	eax
	call	_SysMutexUnlock@12

; 4861 : 
; 4862 :    } // if ( *ppvWorkPtr == 0 )...

	jmp	SHORT $LN3@GetWorkObj
$LN2@GetWorkObj:

; 4863 :    else
; 4864 :    {
; 4865 :       *lppConnection = (LPCONNECTION) *ppvWorkPtr;

	mov	ecx, DWORD PTR _lppConnection$[ebp]
	mov	edx, DWORD PTR _ppvWorkPtr$[ebp]
	mov	eax, DWORD PTR [edx]
	mov	DWORD PTR [ecx], eax

; 4866 :       lpConnection = *lppConnection;

	mov	ecx, DWORD PTR _lppConnection$[ebp]
	mov	edx, DWORD PTR [ecx]
	mov	DWORD PTR _lpConnection$[ebp], edx
$LN3@GetWorkObj:

; 4867 :    }
; 4868 : 
; 4869 : #if defined ( DB2 )
; 4870 : {
; 4871 :    LPOD_LIST lpOD = fnFindOD( lpViewOD, lpConnection );
; 4872 : 
; 4873 :    if ( lpOD == 0 )
; 4874 :       lpOD = fnAddOD( lpViewOD, lpConnection );
; 4875 : }
; 4876 : #endif
; 4877 : 
; 4878 :    nRC = fnOpenDatabaseConnection( lpView, lpViewOD,

	mov	eax, DWORD PTR _lpConnection$[ebp]
	push	eax
	mov	ecx, DWORD PTR _lpViewEntity$[ebp]
	push	ecx
	mov	edx, DWORD PTR _lpViewOD$[ebp]
	push	edx
	mov	eax, DWORD PTR _lpView$[ebp]
	push	eax
	call	_fnOpenDatabaseConnection@16
	mov	WORD PTR _nRC$[ebp], ax

; 4879 :                                    lpViewEntity, lpConnection );
; 4880 :    return( nRC );

	mov	ax, WORD PTR _nRC$[ebp]
$LN15@GetWorkObj:

; 4881 : 
; 4882 : }  /* GetWorkObjectView */

	mov	ecx, DWORD PTR __$ArrayPad$[ebp]
	xor	ecx, ebp
	call	@__security_check_cookie@4
	mov	esp, ebp
	pop	ebp
	ret	0
_GetWorkObjectView ENDP
_TEXT	ENDS
; Function compile flags: /Odtp
; File c:\10c\a\oe\kzhsqlxa.c
_TEXT	SEGMENT
tv65 = -4						; size = 4
_nRC$ = 8						; size = 2
_fnRC_Text PROC

; 4327 : {

	push	ebp
	mov	ebp, esp
	push	ecx

; 4328 :    static zCHAR szReturn[ 100 ];
; 4329 : 
; 4330 :    switch ( nRC )

	movsx	eax, WORD PTR _nRC$[ebp]
	mov	DWORD PTR tv65[ebp], eax
	mov	ecx, DWORD PTR tv65[ebp]
	add	ecx, 2
	mov	DWORD PTR tv65[ebp], ecx
	cmp	DWORD PTR tv65[ebp], 102		; 00000066H
	ja	$LN11@fnRC_Text
	mov	edx, DWORD PTR tv65[ebp]
	movzx	eax, BYTE PTR $LN13@fnRC_Text[edx]
	jmp	DWORD PTR $LN14@fnRC_Text[eax*4]
$LN4@fnRC_Text:

; 4331 :    {
; 4332 :       case SQL_SUCCESS:
; 4333 :          zsprintf( szReturn, "%d (SQL_SUCCESS)", nRC );

	movsx	ecx, WORD PTR _nRC$[ebp]
	push	ecx
	push	OFFSET $SG95648
	push	OFFSET ?szReturn@?1??fnRC_Text@@9@9
	call	_sprintf
	add	esp, 12					; 0000000cH

; 4334 :          break;

	jmp	$LN2@fnRC_Text
$LN5@fnRC_Text:

; 4335 : 
; 4336 :       case SQL_SUCCESS_WITH_INFO:
; 4337 :          zsprintf( szReturn, "%d (SQL_SUCCESS_WITH_INFO)", nRC );

	movsx	edx, WORD PTR _nRC$[ebp]
	push	edx
	push	OFFSET $SG95650
	push	OFFSET ?szReturn@?1??fnRC_Text@@9@9
	call	_sprintf
	add	esp, 12					; 0000000cH

; 4338 :          break;

	jmp	$LN2@fnRC_Text
$LN6@fnRC_Text:

; 4339 : 
; 4340 :       case SQL_ERROR:
; 4341 :          zsprintf( szReturn, "%d (SQL_ERROR)", nRC );

	movsx	eax, WORD PTR _nRC$[ebp]
	push	eax
	push	OFFSET $SG95652
	push	OFFSET ?szReturn@?1??fnRC_Text@@9@9
	call	_sprintf
	add	esp, 12					; 0000000cH

; 4342 :          break;

	jmp	SHORT $LN2@fnRC_Text
$LN7@fnRC_Text:

; 4343 : 
; 4344 :       case SQL_INVALID_HANDLE:
; 4345 :          zsprintf( szReturn, "%d (SQL_INVALID_HANDLE)", nRC );

	movsx	ecx, WORD PTR _nRC$[ebp]
	push	ecx
	push	OFFSET $SG95654
	push	OFFSET ?szReturn@?1??fnRC_Text@@9@9
	call	_sprintf
	add	esp, 12					; 0000000cH

; 4346 :          break;

	jmp	SHORT $LN2@fnRC_Text
$LN8@fnRC_Text:

; 4347 : 
; 4348 :       case SQL_NEED_DATA:
; 4349 :          zsprintf( szReturn, "%d (SQL_NEED_DATA)", nRC );

	movsx	edx, WORD PTR _nRC$[ebp]
	push	edx
	push	OFFSET $SG95656
	push	OFFSET ?szReturn@?1??fnRC_Text@@9@9
	call	_sprintf
	add	esp, 12					; 0000000cH

; 4350 :          break;

	jmp	SHORT $LN2@fnRC_Text
$LN9@fnRC_Text:

; 4351 : 
; 4352 : #ifdef DB2
; 4353 :       case SQL_NO_DATA_FOUND:
; 4354 :          zsprintf( szReturn, "%d (SQL_NO_DATA_FOUND)", nRC );
; 4355 :          break;
; 4356 : #else
; 4357 :       #if (ODBCVER >= 0x0300)
; 4358 :          case SQL_NO_DATA:
; 4359 :             zsprintf( szReturn, "%d (SQL_NO_DATA)", nRC );

	movsx	eax, WORD PTR _nRC$[ebp]
	push	eax
	push	OFFSET $SG95658
	push	OFFSET ?szReturn@?1??fnRC_Text@@9@9
	call	_sprintf
	add	esp, 12					; 0000000cH

; 4360 :             break;

	jmp	SHORT $LN2@fnRC_Text
$LN10@fnRC_Text:

; 4361 : #endif
; 4362 : 
; 4363 :       case SQL_STILL_EXECUTING:
; 4364 :          zsprintf( szReturn, "%d (SQL_STILL_EXECUTING)", nRC );

	movsx	ecx, WORD PTR _nRC$[ebp]
	push	ecx
	push	OFFSET $SG95660
	push	OFFSET ?szReturn@?1??fnRC_Text@@9@9
	call	_sprintf
	add	esp, 12					; 0000000cH

; 4365 :          break;

	jmp	SHORT $LN2@fnRC_Text
$LN11@fnRC_Text:

; 4366 : #endif
; 4367 : 
; 4368 :       default:
; 4369 :          zsprintf( szReturn, "%d (unknown)", nRC );

	movsx	edx, WORD PTR _nRC$[ebp]
	push	edx
	push	OFFSET $SG95662
	push	OFFSET ?szReturn@?1??fnRC_Text@@9@9
	call	_sprintf
	add	esp, 12					; 0000000cH
$LN2@fnRC_Text:

; 4370 :          break;
; 4371 :    }
; 4372 : 
; 4373 :    return( szReturn );

	mov	eax, OFFSET ?szReturn@?1??fnRC_Text@@9@9

; 4374 : }

	mov	esp, ebp
	pop	ebp
	ret	0
$LN14@fnRC_Text:
	DD	$LN7@fnRC_Text
	DD	$LN6@fnRC_Text
	DD	$LN4@fnRC_Text
	DD	$LN5@fnRC_Text
	DD	$LN10@fnRC_Text
	DD	$LN8@fnRC_Text
	DD	$LN9@fnRC_Text
	DD	$LN11@fnRC_Text
$LN13@fnRC_Text:
	DB	0
	DB	1
	DB	2
	DB	3
	DB	4
	DB	7
	DB	7
	DB	7
	DB	7
	DB	7
	DB	7
	DB	7
	DB	7
	DB	7
	DB	7
	DB	7
	DB	7
	DB	7
	DB	7
	DB	7
	DB	7
	DB	7
	DB	7
	DB	7
	DB	7
	DB	7
	DB	7
	DB	7
	DB	7
	DB	7
	DB	7
	DB	7
	DB	7
	DB	7
	DB	7
	DB	7
	DB	7
	DB	7
	DB	7
	DB	7
	DB	7
	DB	7
	DB	7
	DB	7
	DB	7
	DB	7
	DB	7
	DB	7
	DB	7
	DB	7
	DB	7
	DB	7
	DB	7
	DB	7
	DB	7
	DB	7
	DB	7
	DB	7
	DB	7
	DB	7
	DB	7
	DB	7
	DB	7
	DB	7
	DB	7
	DB	7
	DB	7
	DB	7
	DB	7
	DB	7
	DB	7
	DB	7
	DB	7
	DB	7
	DB	7
	DB	7
	DB	7
	DB	7
	DB	7
	DB	7
	DB	7
	DB	7
	DB	7
	DB	7
	DB	7
	DB	7
	DB	7
	DB	7
	DB	7
	DB	7
	DB	7
	DB	7
	DB	7
	DB	7
	DB	7
	DB	7
	DB	7
	DB	7
	DB	7
	DB	7
	DB	7
	DB	5
	DB	6
_fnRC_Text ENDP
_TEXT	ENDS
; Function compile flags: /Odtp
; File c:\10c\a\oe\kzhsqlxa.c
_TEXT	SEGMENT
_CallbackInfo$ = -32					; size = 5
_lpRelRecord$ = -24					; size = 4
_lpDataRecord$ = -20					; size = 4
_pvDBH_Data$ = -16					; size = 4
_lpBoundList$ = -12					; size = 4
_nBuildRC$ = -8						; size = 2
_nRC$ = -4						; size = 2
_lpViewEntity$ = 8					; size = 4
_lpView$ = 12						; size = 4
_lpViewOD$ = 16						; size = 4
_bAutoSeqOnly$ = 20					; size = 2
_lpConnection$ = 24					; size = 4
_Update	PROC

; 4140 : {

	push	ebp
	mov	ebp, esp
	sub	esp, 32					; 00000020H

; 4141 :    LPDATARECORD    lpDataRecord;
; 4142 :    LPRELRECORD     lpRelRecord;
; 4143 :    LPBOUNDLIST     lpBoundList;
; 4144 :    zPVOID          pvDBH_Data = 0;

	mov	DWORD PTR _pvDBH_Data$[ebp], 0

; 4145 :    zSHORT          nRC, nBuildRC;
; 4146 : 
; 4147 : #if defined( DB2 ) || defined( ODBC )
; 4148 :    CallbackInfoRecord CallbackInfo = { 0 };

	mov	BYTE PTR _CallbackInfo$[ebp], 0
	xor	eax, eax
	mov	DWORD PTR _CallbackInfo$[ebp+1], eax

; 4149 : 
; 4150 :    pvDBH_Data = &CallbackInfo;

	lea	ecx, DWORD PTR _CallbackInfo$[ebp]
	mov	DWORD PTR _pvDBH_Data$[ebp], ecx

; 4151 :    CallbackInfo.cBuildFunction = BUILD_UPDATE;

	mov	BYTE PTR _CallbackInfo$[ebp], 85	; 00000055H

; 4152 : 
; 4153 :    #if defined( ODBC )
; 4154 :       // Get a pointer to the dbh-specific data for ODBC.  We'll pass this
; 4155 :       // info around via the lpBoundList structure.
; 4156 :       CallbackInfo.lpObjectData = zGETPTR( lpViewOD->hDBH_Data );

	mov	edx, DWORD PTR _lpViewOD$[ebp]
	mov	eax, DWORD PTR [edx+244]
	push	eax
	call	_SysGetPointerFromHandle@4
	mov	DWORD PTR _CallbackInfo$[ebp+1], eax

; 4157 :    #endif
; 4158 : 
; 4159 : #endif
; 4160 : 
; 4161 :    SqlInitBoundAttrList( &lpBoundList, 0,

	mov	ecx, DWORD PTR _pvDBH_Data$[ebp]
	push	ecx
	push	50331916				; 0300010cH
	push	OFFSET _fnDBH_Callback@24
	push	0
	lea	edx, DWORD PTR _lpBoundList$[ebp]
	push	edx
	call	_SqlInitBoundAttrList@20

; 4162 :                          fnDBH_Callback, zCB_FUNCS, pvDBH_Data );
; 4163 : 
; 4164 :    lpDataRecord = zGETPTR( lpViewEntity->hFirstDataRecord );

	mov	eax, DWORD PTR _lpViewEntity$[ebp]
	mov	ecx, DWORD PTR [eax+191]
	push	ecx
	call	_SysGetPointerFromHandle@4
	mov	DWORD PTR _lpDataRecord$[ebp], eax

; 4165 : 
; 4166 :    if ( lpConnection->nTraceLevel > 1 )

	mov	edx, DWORD PTR _lpConnection$[ebp]
	movsx	eax, WORD PTR [edx+214]
	cmp	eax, 1
	jle	SHORT $LN2@Update

; 4167 :    {
; 4168 :       TraceLineS( "", "" );

	push	OFFSET $SG95601
	push	OFFSET $SG95602
	call	_TraceLineS@8

; 4169 :       TraceLineS( "========== Update ==========", "" );

	push	OFFSET $SG95603
	push	OFFSET $SG95604
	call	_TraceLineS@8

; 4170 :       TraceLineS( "Updating entity ", lpViewEntity->szName );

	mov	ecx, DWORD PTR _lpViewEntity$[ebp]
	add	ecx, 14					; 0000000eH
	push	ecx
	push	OFFSET $SG95605
	call	_TraceLineS@8

; 4171 :       TraceLineS( "Updating record ", lpDataRecord->szRecordName );

	mov	edx, DWORD PTR _lpDataRecord$[ebp]
	add	edx, 15					; 0000000fH
	push	edx
	push	OFFSET $SG95606
	call	_TraceLineS@8

; 4172 :       if ( lpConnection->nTraceLevel > 2 )

	mov	eax, DWORD PTR _lpConnection$[ebp]
	movsx	ecx, WORD PTR [eax+214]
	cmp	ecx, 2
	jle	SHORT $LN2@Update

; 4173 :          DisplayEntityInstance( lpView, lpViewEntity->szName );

	mov	edx, DWORD PTR _lpViewEntity$[ebp]
	add	edx, 14					; 0000000eH
	push	edx
	mov	eax, DWORD PTR _lpView$[ebp]
	push	eax
	call	_DisplayEntityInstance@8
$LN2@Update:

; 4174 :    }
; 4175 : 
; 4176 :    nBuildRC = SqlBuildUpdate( lpView, lpViewOD, lpViewEntity, bAutoSeqOnly,

	mov	ecx, DWORD PTR _lpBoundList$[ebp]
	push	ecx
	mov	edx, DWORD PTR _lpConnection$[ebp]
	mov	eax, DWORD PTR [edx+194]
	push	eax
	movzx	ecx, WORD PTR _bAutoSeqOnly$[ebp]
	push	ecx
	mov	edx, DWORD PTR _lpViewEntity$[ebp]
	push	edx
	mov	eax, DWORD PTR _lpViewOD$[ebp]
	push	eax
	mov	ecx, DWORD PTR _lpView$[ebp]
	push	ecx
	call	_SqlBuildUpdate@24
	mov	WORD PTR _nBuildRC$[ebp], ax

; 4177 :                               lpConnection->pchConnSqlCmd, lpBoundList );
; 4178 :    if ( nBuildRC == zCALL_ERROR )

	movsx	edx, WORD PTR _nBuildRC$[ebp]
	cmp	edx, -16				; fffffff0H
	jne	SHORT $LN4@Update

; 4179 :    {
; 4180 :       SqlFreeBoundAttrList( lpBoundList );

	mov	eax, DWORD PTR _lpBoundList$[ebp]
	push	eax
	call	_SqlFreeBoundAttrList@4

; 4181 :       return( zCALL_ERROR );

	mov	eax, -16				; fffffff0H
	jmp	$LN1@Update
$LN4@Update:

; 4182 :    }
; 4183 : 
; 4184 :    // ================================================================
; 4185 :    // Prepare/compile Update statement.
; 4186 :    // ================================================================
; 4187 : 
; 4188 :    // If nBuildRC is -1 then none of the attributes where updated so don't
; 4189 :    // update the table.
; 4190 :    if ( nBuildRC != -1 )

	movsx	ecx, WORD PTR _nBuildRC$[ebp]
	cmp	ecx, -1
	je	$LN5@Update

; 4191 :    {
; 4192 : 
; 4193 : #if defined( DB2 ) || defined( ODBC )
; 4194 : 
; 4195 :       lpConnection->hstmt = lpConnection->hGeneralStmt;

	mov	edx, DWORD PTR _lpConnection$[ebp]
	mov	eax, DWORD PTR _lpConnection$[ebp]
	mov	ecx, DWORD PTR [eax+2816]
	mov	DWORD PTR [edx+2812], ecx

; 4196 : 
; 4197 :       nRC = SQLPrepare( lpConnection->hstmt, lpConnection->pchConnSqlCmd, SQL_NTS );

	push	-3					; fffffffdH
	mov	edx, DWORD PTR _lpConnection$[ebp]
	mov	eax, DWORD PTR [edx+194]
	push	eax
	mov	ecx, DWORD PTR _lpConnection$[ebp]
	mov	edx, DWORD PTR [ecx+2812]
	push	edx
	call	_SQLPrepare@12
	mov	WORD PTR _nRC$[ebp], ax

; 4198 :       DisplayCommand( "SQLPrepare", nRC, lpConnection );

	mov	eax, DWORD PTR _lpConnection$[ebp]
	push	eax
	movzx	ecx, WORD PTR _nRC$[ebp]
	push	ecx
	push	OFFSET $SG95610
	call	_DisplayCommand
	add	esp, 12					; 0000000cH

; 4199 :       if ( nRC != SQL_SUCCESS )

	movsx	edx, WORD PTR _nRC$[ebp]
	test	edx, edx
	je	SHORT $LN6@Update

; 4200 :       {
; 4201 :          SqlFreeBoundAttrList( lpBoundList );

	mov	eax, DWORD PTR _lpBoundList$[ebp]
	push	eax
	call	_SqlFreeBoundAttrList@4

; 4202 :          return( zCALL_ERROR );

	mov	eax, -16				; fffffff0H
	jmp	$LN1@Update
$LN6@Update:

; 4203 :       }
; 4204 : 
; 4205 : #elif defined( DUMMY )
; 4206 : 
; 4207 :       if ( lpConnection->nTraceLevel > 0 )
; 4208 :       {
; 4209 :          TraceLineS( "", "" );
; 4210 :          SqlDisplayCommand( lpConnection->pchConnSqlCmd, 0 );
; 4211 :       }
; 4212 : 
; 4213 : #endif
; 4214 : 
; 4215 :       nRC = WriteLongChar( lpConnection, lpBoundList );

	mov	ecx, DWORD PTR _lpBoundList$[ebp]
	push	ecx
	mov	edx, DWORD PTR _lpConnection$[ebp]
	push	edx
	call	_WriteLongChar
	add	esp, 8
	mov	WORD PTR _nRC$[ebp], ax

; 4216 :       if ( nRC < 0 )

	movsx	eax, WORD PTR _nRC$[ebp]
	test	eax, eax
	jge	SHORT $LN7@Update

; 4217 :       {
; 4218 :          SqlFreeBoundAttrList( lpBoundList );

	mov	ecx, DWORD PTR _lpBoundList$[ebp]
	push	ecx
	call	_SqlFreeBoundAttrList@4

; 4219 :          return( zCALL_ERROR );

	mov	eax, -16				; fffffff0H
	jmp	$LN1@Update
$LN7@Update:

; 4220 :       }
; 4221 : 
; 4222 :       // ================================================================
; 4223 :       // Execute Update statement.
; 4224 :       // ================================================================
; 4225 : #if defined( DB2 ) || defined( ODBC )
; 4226 : 
; 4227 :       nRC = SQLExecute( lpConnection->hstmt );

	mov	edx, DWORD PTR _lpConnection$[ebp]
	mov	eax, DWORD PTR [edx+2812]
	push	eax
	call	_SQLExecute@4
	mov	WORD PTR _nRC$[ebp], ax

; 4228 :       SQL_RC( "SQLExecute", nRC, 0, 0, 2 );

	mov	ecx, DWORD PTR _lpConnection$[ebp]
	push	ecx
	push	2
	push	0
	push	0
	movzx	edx, WORD PTR _nRC$[ebp]
	push	edx
	push	OFFSET $SG95613
	call	_fnSqlRC
	add	esp, 24					; 00000018H

; 4229 :       if ( nRC != SQL_SUCCESS )

	movsx	eax, WORD PTR _nRC$[ebp]
	test	eax, eax
	je	SHORT $LN5@Update

; 4230 :       {
; 4231 :          // If the trace level is 0 then let's trace the SQL to help debugging.
; 4232 :          if ( lpConnection->nTraceLevel == 0 )

	mov	ecx, DWORD PTR _lpConnection$[ebp]
	movsx	edx, WORD PTR [ecx+214]
	test	edx, edx
	jne	SHORT $LN9@Update

; 4233 :             SqlDisplayCommand( lpConnection->pchConnSqlCmd, 0 );

	push	0
	mov	eax, DWORD PTR _lpConnection$[ebp]
	mov	ecx, DWORD PTR [eax+194]
	push	ecx
	call	_SqlDisplayCommand@8
$LN9@Update:

; 4234 : 
; 4235 :          SqlFreeBoundAttrList( lpBoundList );

	mov	edx, DWORD PTR _lpBoundList$[ebp]
	push	edx
	call	_SqlFreeBoundAttrList@4

; 4236 :          return( zCALL_ERROR );

	mov	eax, -16				; fffffff0H
	jmp	$LN1@Update
$LN5@Update:

; 4237 :       }
; 4238 : 
; 4239 : #endif
; 4240 : 
; 4241 :    } // if ( nBuildRC != -1 )...
; 4242 : 
; 4243 :    // We don't need it any more...
; 4244 :    SqlFreeBoundAttrList( lpBoundList );

	mov	eax, DWORD PTR _lpBoundList$[ebp]
	push	eax
	call	_SqlFreeBoundAttrList@4

; 4245 : // lpBoundList = 0;
; 4246 : 
; 4247 :    // If the entity has auto seq attributes, then the corr table might have
; 4248 :    // to be updated.  This will only happen if the current entity has a parent
; 4249 :    // and if the relationship is many-to-many.
; 4250 :    lpRelRecord = zGETPTR( lpDataRecord->hFirstRelRecord );

	mov	ecx, DWORD PTR _lpDataRecord$[ebp]
	mov	edx, DWORD PTR [ecx+6]
	push	edx
	call	_SysGetPointerFromHandle@4
	mov	DWORD PTR _lpRelRecord$[ebp], eax

; 4251 :    if ( lpViewEntity->bAutoSeq && lpViewEntity->hParent &&

	mov	eax, DWORD PTR _lpViewEntity$[ebp]
	mov	ecx, DWORD PTR [eax+235]
	shr	ecx, 20					; 00000014H
	and	ecx, 1
	je	$LN10@Update
	mov	edx, DWORD PTR _lpViewEntity$[ebp]
	cmp	DWORD PTR [edx+10], 0
	je	$LN10@Update
	mov	eax, DWORD PTR _lpRelRecord$[ebp]
	movsx	ecx, BYTE PTR [eax+10]
	cmp	ecx, 50					; 00000032H
	jne	$LN10@Update

; 4252 :         lpRelRecord->cOwnerMember == zDBH_MANY_TO_MANY )
; 4253 :    {
; 4254 :       nRC = SqlBuildUpdateCorrTable( lpView, lpViewOD, lpViewEntity,

	mov	edx, DWORD PTR _lpBoundList$[ebp]
	push	edx
	mov	eax, DWORD PTR _lpConnection$[ebp]
	mov	ecx, DWORD PTR [eax+194]
	push	ecx
	mov	edx, DWORD PTR _lpViewEntity$[ebp]
	push	edx
	mov	eax, DWORD PTR _lpViewOD$[ebp]
	push	eax
	mov	ecx, DWORD PTR _lpView$[ebp]
	push	ecx
	call	_SqlBuildUpdateCorrTable@20
	mov	WORD PTR _nRC$[ebp], ax

; 4255 :                                      lpConnection->pchConnSqlCmd, lpBoundList );
; 4256 :       SqlFreeBoundAttrList( lpBoundList );

	mov	edx, DWORD PTR _lpBoundList$[ebp]
	push	edx
	call	_SqlFreeBoundAttrList@4

; 4257 :    // lpBoundList = 0;
; 4258 :       if ( nRC == zCALL_ERROR )

	movsx	eax, WORD PTR _nRC$[ebp]
	cmp	eax, -16				; fffffff0H
	jne	SHORT $LN11@Update

; 4259 :          return( zCALL_ERROR );

	mov	eax, -16				; fffffff0H
	jmp	SHORT $LN1@Update
$LN11@Update:

; 4260 : 
; 4261 :       // ================================================================
; 4262 :       // Update correspondence table.
; 4263 :       // ================================================================
; 4264 : 
; 4265 :       // If nBuildRC is -1 then none of the attributes where updated so don't
; 4266 :       // update the table.
; 4267 :       if ( nRC != -1 )

	movsx	ecx, WORD PTR _nRC$[ebp]
	cmp	ecx, -1
	je	SHORT $LN10@Update

; 4268 :       {
; 4269 : #if defined( DB2 ) || defined( ODBC )
; 4270 : 
; 4271 :          lpConnection->hstmt = lpConnection->hGeneralStmt;

	mov	edx, DWORD PTR _lpConnection$[ebp]
	mov	eax, DWORD PTR _lpConnection$[ebp]
	mov	ecx, DWORD PTR [eax+2816]
	mov	DWORD PTR [edx+2812], ecx

; 4272 : 
; 4273 :          nRC = SQLExecDirect( lpConnection->hstmt, lpConnection->pchConnSqlCmd,

	push	-3					; fffffffdH
	mov	edx, DWORD PTR _lpConnection$[ebp]
	mov	eax, DWORD PTR [edx+194]
	push	eax
	mov	ecx, DWORD PTR _lpConnection$[ebp]
	mov	edx, DWORD PTR [ecx+2812]
	push	edx
	call	_SQLExecDirect@12
	mov	WORD PTR _nRC$[ebp], ax

; 4274 :                               SQL_NTS );
; 4275 :          DisplayCommand( "SQLExecDirect", nRC, lpConnection );

	mov	eax, DWORD PTR _lpConnection$[ebp]
	push	eax
	movzx	ecx, WORD PTR _nRC$[ebp]
	push	ecx
	push	OFFSET $SG95619
	call	_DisplayCommand
	add	esp, 12					; 0000000cH

; 4276 :          if ( nRC )

	movsx	edx, WORD PTR _nRC$[ebp]
	test	edx, edx
	je	SHORT $LN10@Update

; 4277 :             return( zCALL_ERROR );

	mov	eax, -16				; fffffff0H
	jmp	SHORT $LN1@Update
$LN10@Update:

; 4278 : 
; 4279 : #elif defined( DUMMY )
; 4280 : 
; 4281 :          if ( lpConnection->nTraceLevel > 0 )
; 4282 :          {
; 4283 :             TraceLineS( "", "" );
; 4284 :             SqlDisplayCommand( lpConnection->pchConnSqlCmd, 0 );
; 4285 :          }
; 4286 : 
; 4287 : #endif
; 4288 :       } // if ( nBuildRC != -1 )...
; 4289 :    }
; 4290 : 
; 4291 :    lpConnection->bDatabaseChanged = TRUE;

	mov	eax, DWORD PTR _lpConnection$[ebp]
	mov	ecx, DWORD PTR [eax+800]
	or	ecx, 2
	mov	edx, DWORD PTR _lpConnection$[ebp]
	mov	DWORD PTR [edx+800], ecx

; 4292 : 
; 4293 :    return( 0 );

	xor	eax, eax
$LN1@Update:

; 4294 : }  /* Update */

	mov	esp, ebp
	pop	ebp
	ret	0
_Update	ENDP
_TEXT	ENDS
; Function compile flags: /Odtp
; File c:\10c\a\oe\kzhsqlxa.c
_TEXT	SEGMENT
_CallbackInfo$ = -28					; size = 5
_lpRelRecord$ = -20					; size = 4
_lpBoundList$ = -16					; size = 4
_lpDataRecord$ = -12					; size = 4
_pvDBH_Data$ = -8					; size = 4
_nRC$ = -4						; size = 2
_lpViewEntity$ = 8					; size = 4
_lpView$ = 12						; size = 4
_lpViewOD$ = 16						; size = 4
_lpConnection$ = 20					; size = 4
_DeleteRel PROC

; 4053 : {

	push	ebp
	mov	ebp, esp
	sub	esp, 28					; 0000001cH

; 4054 :    LPDATARECORD    lpDataRecord;
; 4055 :    LPRELRECORD     lpRelRecord;
; 4056 :    LPBOUNDLIST     lpBoundList;
; 4057 :    zPVOID          pvDBH_Data = 0;

	mov	DWORD PTR _pvDBH_Data$[ebp], 0

; 4058 :    zSHORT          nRC;
; 4059 : 
; 4060 : #if defined( DB2 ) || defined( ODBC )
; 4061 :    CallbackInfoRecord CallbackInfo = { 0 };

	mov	BYTE PTR _CallbackInfo$[ebp], 0
	xor	eax, eax
	mov	DWORD PTR _CallbackInfo$[ebp+1], eax

; 4062 : 
; 4063 :    pvDBH_Data = &CallbackInfo;

	lea	ecx, DWORD PTR _CallbackInfo$[ebp]
	mov	DWORD PTR _pvDBH_Data$[ebp], ecx

; 4064 :    CallbackInfo.cBuildFunction = BUILD_EXCLUDE;

	mov	BYTE PTR _CallbackInfo$[ebp], 88	; 00000058H

; 4065 : 
; 4066 :    #if defined( ODBC )
; 4067 :       // Get a pointer to the dbh-specific data for ODBC.  We'll pass this
; 4068 :       // info around via the lpBoundList structure.
; 4069 :       CallbackInfo.lpObjectData = zGETPTR( lpViewOD->hDBH_Data );

	mov	edx, DWORD PTR _lpViewOD$[ebp]
	mov	eax, DWORD PTR [edx+244]
	push	eax
	call	_SysGetPointerFromHandle@4
	mov	DWORD PTR _CallbackInfo$[ebp+1], eax

; 4070 :    #endif
; 4071 : 
; 4072 : #endif
; 4073 : 
; 4074 :    SqlInitBoundAttrList( &lpBoundList, 0,

	mov	ecx, DWORD PTR _pvDBH_Data$[ebp]
	push	ecx
	push	50331916				; 0300010cH
	push	OFFSET _fnDBH_Callback@24
	push	0
	lea	edx, DWORD PTR _lpBoundList$[ebp]
	push	edx
	call	_SqlInitBoundAttrList@20

; 4075 :                          fnDBH_Callback, zCB_FUNCS, pvDBH_Data );
; 4076 : 
; 4077 :    lpDataRecord = zGETPTR( lpViewEntity->hFirstDataRecord );

	mov	eax, DWORD PTR _lpViewEntity$[ebp]
	mov	ecx, DWORD PTR [eax+191]
	push	ecx
	call	_SysGetPointerFromHandle@4
	mov	DWORD PTR _lpDataRecord$[ebp], eax

; 4078 :    lpRelRecord  = zGETPTR( lpDataRecord->hFirstRelRecord );

	mov	edx, DWORD PTR _lpDataRecord$[ebp]
	mov	eax, DWORD PTR [edx+6]
	push	eax
	call	_SysGetPointerFromHandle@4
	mov	DWORD PTR _lpRelRecord$[ebp], eax

; 4079 : 
; 4080 :    if ( lpConnection->nTraceLevel > 1 )

	mov	ecx, DWORD PTR _lpConnection$[ebp]
	movsx	edx, WORD PTR [ecx+214]
	cmp	edx, 1
	jle	SHORT $LN2@DeleteRel

; 4081 :    {
; 4082 :       TraceLineS( "", "" );

	push	OFFSET $SG95570
	push	OFFSET $SG95571
	call	_TraceLineS@8

; 4083 :       TraceLineS( "========== Delete Rel ==========", "" );

	push	OFFSET $SG95572
	push	OFFSET $SG95573
	call	_TraceLineS@8

; 4084 :       TraceLineS( "Deleting entity ", lpViewEntity->szName );

	mov	eax, DWORD PTR _lpViewEntity$[ebp]
	add	eax, 14					; 0000000eH
	push	eax
	push	OFFSET $SG95574
	call	_TraceLineS@8

; 4085 :       TraceLineS( "Deleting record ", lpDataRecord->szRecordName );

	mov	ecx, DWORD PTR _lpDataRecord$[ebp]
	add	ecx, 15					; 0000000fH
	push	ecx
	push	OFFSET $SG95575
	call	_TraceLineS@8

; 4086 :       if ( lpConnection->nTraceLevel > 2 )

	mov	edx, DWORD PTR _lpConnection$[ebp]
	movsx	eax, WORD PTR [edx+214]
	cmp	eax, 2
	jle	SHORT $LN2@DeleteRel

; 4087 :          DisplayEntityInstance( lpView, lpViewEntity->szName );

	mov	ecx, DWORD PTR _lpViewEntity$[ebp]
	add	ecx, 14					; 0000000eH
	push	ecx
	mov	edx, DWORD PTR _lpView$[ebp]
	push	edx
	call	_DisplayEntityInstance@8
$LN2@DeleteRel:

; 4088 :    }
; 4089 : 
; 4090 :    // The only thing that needs to be done is to delete the correspondence
; 4091 :    // table if the relationship is many-to-many.
; 4092 :    if ( lpRelRecord->cOwnerMember == zDBH_MANY_TO_MANY )

	mov	eax, DWORD PTR _lpRelRecord$[ebp]
	movsx	ecx, BYTE PTR [eax+10]
	cmp	ecx, 50					; 00000032H
	jne	$LN4@DeleteRel

; 4093 :    {
; 4094 :       nRC = SqlBuildDeleteCorrTable( lpView, lpViewOD, lpViewEntity,

	mov	edx, DWORD PTR _lpBoundList$[ebp]
	push	edx
	mov	eax, DWORD PTR _lpConnection$[ebp]
	mov	ecx, DWORD PTR [eax+194]
	push	ecx
	mov	edx, DWORD PTR _lpViewEntity$[ebp]
	push	edx
	mov	eax, DWORD PTR _lpViewOD$[ebp]
	push	eax
	mov	ecx, DWORD PTR _lpView$[ebp]
	push	ecx
	call	_SqlBuildDeleteCorrTable@20
	mov	WORD PTR _nRC$[ebp], ax

; 4095 :                                      lpConnection->pchConnSqlCmd, lpBoundList );
; 4096 :       SqlFreeBoundAttrList( lpBoundList );

	mov	edx, DWORD PTR _lpBoundList$[ebp]
	push	edx
	call	_SqlFreeBoundAttrList@4

; 4097 :    // lpBoundList = 0;
; 4098 :       if ( nRC == zCALL_ERROR )

	movsx	eax, WORD PTR _nRC$[ebp]
	cmp	eax, -16				; fffffff0H
	jne	SHORT $LN5@DeleteRel

; 4099 :          return( zCALL_ERROR );

	mov	eax, -16				; fffffff0H
	jmp	SHORT $LN1@DeleteRel
$LN5@DeleteRel:

; 4100 : 
; 4101 :       // ================================================================
; 4102 :       // Delete correspondence table.
; 4103 :       // ================================================================
; 4104 : 
; 4105 : #if defined( DB2 ) || defined( ODBC )
; 4106 : 
; 4107 :       lpConnection->hstmt = lpConnection->hGeneralStmt;

	mov	ecx, DWORD PTR _lpConnection$[ebp]
	mov	edx, DWORD PTR _lpConnection$[ebp]
	mov	eax, DWORD PTR [edx+2816]
	mov	DWORD PTR [ecx+2812], eax

; 4108 : 
; 4109 :       nRC = SQLExecDirect( lpConnection->hstmt, lpConnection->pchConnSqlCmd,

	push	-3					; fffffffdH
	mov	ecx, DWORD PTR _lpConnection$[ebp]
	mov	edx, DWORD PTR [ecx+194]
	push	edx
	mov	eax, DWORD PTR _lpConnection$[ebp]
	mov	ecx, DWORD PTR [eax+2812]
	push	ecx
	call	_SQLExecDirect@12
	mov	WORD PTR _nRC$[ebp], ax

; 4110 :                            SQL_NTS);
; 4111 :       DisplayCommand( "SQLExecDirect", nRC, lpConnection );

	mov	edx, DWORD PTR _lpConnection$[ebp]
	push	edx
	movzx	eax, WORD PTR _nRC$[ebp]
	push	eax
	push	OFFSET $SG95579
	call	_DisplayCommand
	add	esp, 12					; 0000000cH

; 4112 :       if ( nRC )

	movsx	ecx, WORD PTR _nRC$[ebp]
	test	ecx, ecx
	je	SHORT $LN6@DeleteRel

; 4113 :          return( zCALL_ERROR );

	mov	eax, -16				; fffffff0H
	jmp	SHORT $LN1@DeleteRel
$LN6@DeleteRel:

; 4114 : 
; 4115 : #elif defined( DUMMY )
; 4116 : 
; 4117 :       if ( lpConnection->nTraceLevel > 0 )
; 4118 :       {
; 4119 :          TraceLineS( "", "" );
; 4120 :          SqlDisplayCommand( lpConnection->pchConnSqlCmd, 0 );
; 4121 :       }
; 4122 : 
; 4123 : #endif
; 4124 : 
; 4125 :       lpConnection->bDatabaseChanged = TRUE;

	mov	edx, DWORD PTR _lpConnection$[ebp]
	mov	eax, DWORD PTR [edx+800]
	or	eax, 2
	mov	ecx, DWORD PTR _lpConnection$[ebp]
	mov	DWORD PTR [ecx+800], eax
$LN4@DeleteRel:

; 4126 :    }
; 4127 : 
; 4128 :    return( 0 );

	xor	eax, eax
$LN1@DeleteRel:

; 4129 : }  /* DeleteRel */

	mov	esp, ebp
	pop	ebp
	ret	0
_DeleteRel ENDP
_TEXT	ENDS
; Function compile flags: /Odtp
; File c:\10c\a\oe\kzhsqlxa.c
_TEXT	SEGMENT
_CallbackInfo$ = -32					; size = 5
_lpRelRecord$ = -24					; size = 4
_lpDataRecord$ = -20					; size = 4
_pvDBH_Data$ = -16					; size = 4
_lpBoundList$ = -12					; size = 4
_nRC$ = -8						; size = 2
_bDeleteRequired$ = -1					; size = 1
_lpViewEntity$ = 8					; size = 4
_lpView$ = 12						; size = 4
_lpViewOD$ = 16						; size = 4
_lpConnection$ = 20					; size = 4
_Delete	PROC

; 3954 : {

	push	ebp
	mov	ebp, esp
	sub	esp, 32					; 00000020H

; 3955 :    LPDATARECORD    lpDataRecord;
; 3956 :    LPRELRECORD     lpRelRecord;
; 3957 :    LPBOUNDLIST     lpBoundList;
; 3958 :    zPVOID          pvDBH_Data = 0;

	mov	DWORD PTR _pvDBH_Data$[ebp], 0

; 3959 :    zBOOL           bDeleteRequired = TRUE;  // dks ... 2006.01.25

	mov	BYTE PTR _bDeleteRequired$[ebp], 1

; 3960 :    zSHORT          nRC;
; 3961 : 
; 3962 : #if defined( DB2 ) || defined( ODBC )
; 3963 :    CallbackInfoRecord CallbackInfo = { 0 };

	mov	BYTE PTR _CallbackInfo$[ebp], 0
	xor	eax, eax
	mov	DWORD PTR _CallbackInfo$[ebp+1], eax

; 3964 : 
; 3965 :    pvDBH_Data = &CallbackInfo;

	lea	ecx, DWORD PTR _CallbackInfo$[ebp]
	mov	DWORD PTR _pvDBH_Data$[ebp], ecx

; 3966 :    CallbackInfo.cBuildFunction = BUILD_DELETE;

	mov	BYTE PTR _CallbackInfo$[ebp], 68	; 00000044H

; 3967 : 
; 3968 :    #if defined( ODBC )
; 3969 :       // Get a pointer to the dbh-specific data for ODBC.  We'll pass this
; 3970 :       // info around via the lpBoundList structure.
; 3971 :       CallbackInfo.lpObjectData = zGETPTR( lpViewOD->hDBH_Data );

	mov	edx, DWORD PTR _lpViewOD$[ebp]
	mov	eax, DWORD PTR [edx+244]
	push	eax
	call	_SysGetPointerFromHandle@4
	mov	DWORD PTR _CallbackInfo$[ebp+1], eax

; 3972 :    #endif
; 3973 : 
; 3974 : #endif
; 3975 : 
; 3976 :    SqlInitBoundAttrList( &lpBoundList, 0,

	mov	ecx, DWORD PTR _pvDBH_Data$[ebp]
	push	ecx
	push	50331916				; 0300010cH
	push	OFFSET _fnDBH_Callback@24
	push	0
	lea	edx, DWORD PTR _lpBoundList$[ebp]
	push	edx
	call	_SqlInitBoundAttrList@20

; 3977 :                          fnDBH_Callback, zCB_FUNCS, pvDBH_Data );
; 3978 : 
; 3979 :    lpDataRecord = zGETPTR( lpViewEntity->hFirstDataRecord );

	mov	eax, DWORD PTR _lpViewEntity$[ebp]
	mov	ecx, DWORD PTR [eax+191]
	push	ecx
	call	_SysGetPointerFromHandle@4
	mov	DWORD PTR _lpDataRecord$[ebp], eax

; 3980 :    lpRelRecord  = zGETPTR( lpDataRecord->hFirstRelRecord );

	mov	edx, DWORD PTR _lpDataRecord$[ebp]
	mov	eax, DWORD PTR [edx+6]
	push	eax
	call	_SysGetPointerFromHandle@4
	mov	DWORD PTR _lpRelRecord$[ebp], eax

; 3981 : 
; 3982 :    if ( lpConnection->nTraceLevel > 1 )

	mov	ecx, DWORD PTR _lpConnection$[ebp]
	movsx	edx, WORD PTR [ecx+214]
	cmp	edx, 1
	jle	SHORT $LN2@Delete

; 3983 :    {
; 3984 :       TraceLineS( "", "" );

	push	OFFSET $SG95539
	push	OFFSET $SG95540
	call	_TraceLineS@8

; 3985 :       TraceLineS( "========== Delete ==========", "" );

	push	OFFSET $SG95541
	push	OFFSET $SG95542
	call	_TraceLineS@8

; 3986 :       TraceLineS( "Deleting entity ", lpViewEntity->szName );

	mov	eax, DWORD PTR _lpViewEntity$[ebp]
	add	eax, 14					; 0000000eH
	push	eax
	push	OFFSET $SG95543
	call	_TraceLineS@8

; 3987 :       TraceLineS( "Deleting record ", lpDataRecord->szRecordName );

	mov	ecx, DWORD PTR _lpDataRecord$[ebp]
	add	ecx, 15					; 0000000fH
	push	ecx
	push	OFFSET $SG95544
	call	_TraceLineS@8

; 3988 :       if ( lpConnection->nTraceLevel > 2 )

	mov	edx, DWORD PTR _lpConnection$[ebp]
	movsx	eax, WORD PTR [edx+214]
	cmp	eax, 2
	jle	SHORT $LN2@Delete

; 3989 :          DisplayEntityInstance( lpView, lpViewEntity->szName );

	mov	ecx, DWORD PTR _lpViewEntity$[ebp]
	add	ecx, 14					; 0000000eH
	push	ecx
	mov	edx, DWORD PTR _lpView$[ebp]
	push	edx
	call	_DisplayEntityInstance@8
$LN2@Delete:

; 3990 :    }
; 3991 : 
; 3992 :    // ================================================================
; 3993 :    // Delete table.
; 3994 :    // ================================================================
; 3995 : 
; 3996 :    // Start dks ... 2006.01.25
; 3997 :    if ( lpConnection->bDeleteAll )

	mov	eax, DWORD PTR _lpConnection$[ebp]
	mov	ecx, DWORD PTR [eax+800]
	shr	ecx, 2
	and	ecx, 1
	je	SHORT $LN4@Delete

; 3998 :    {
; 3999 :       if ( SqlBuildDeleteAll( lpView, lpViewOD, lpViewEntity,
; 4000 :                               lpConnection->pchConnSqlCmd, lpBoundList ) == 0 )

	mov	edx, DWORD PTR _lpBoundList$[ebp]
	push	edx
	mov	eax, DWORD PTR _lpConnection$[ebp]
	mov	ecx, DWORD PTR [eax+194]
	push	ecx
	mov	edx, DWORD PTR _lpViewEntity$[ebp]
	push	edx
	mov	eax, DWORD PTR _lpViewOD$[ebp]
	push	eax
	mov	ecx, DWORD PTR _lpView$[ebp]
	push	ecx
	call	_SqlBuildDeleteAll@20
	movsx	edx, ax
	test	edx, edx
	jne	SHORT $LN5@Delete

; 4001 :       {
; 4002 :          TraceLineS( "SqlBuildDeleteAll SQL: ", lpConnection->pchConnSqlCmd );

	mov	eax, DWORD PTR _lpConnection$[ebp]
	mov	ecx, DWORD PTR [eax+194]
	push	ecx
	push	OFFSET $SG95548
	call	_TraceLineS@8

; 4003 :          bDeleteRequired = FALSE;

	mov	BYTE PTR _bDeleteRequired$[ebp], 0
$LN5@Delete:

; 4004 :       }
; 4005 : 
; 4006 :       lpConnection->bDeleteAll = FALSE;

	mov	edx, DWORD PTR _lpConnection$[ebp]
	mov	eax, DWORD PTR [edx+800]
	and	eax, -5					; fffffffbH
	mov	ecx, DWORD PTR _lpConnection$[ebp]
	mov	DWORD PTR [ecx+800], eax
$LN4@Delete:

; 4007 :    }
; 4008 :    // End dks ... 2006.01.25
; 4009 : 
; 4010 :    if ( bDeleteRequired )

	movzx	edx, BYTE PTR _bDeleteRequired$[ebp]
	test	edx, edx
	je	SHORT $LN6@Delete

; 4011 :    {
; 4012 :       nRC = SqlBuildDelete( lpView, lpViewOD, lpViewEntity,

	mov	eax, DWORD PTR _lpBoundList$[ebp]
	push	eax
	mov	ecx, DWORD PTR _lpConnection$[ebp]
	mov	edx, DWORD PTR [ecx+194]
	push	edx
	mov	eax, DWORD PTR _lpViewEntity$[ebp]
	push	eax
	mov	ecx, DWORD PTR _lpViewOD$[ebp]
	push	ecx
	mov	edx, DWORD PTR _lpView$[ebp]
	push	edx
	call	_SqlBuildDelete@20
	mov	WORD PTR _nRC$[ebp], ax
$LN6@Delete:

; 4013 :                             lpConnection->pchConnSqlCmd, lpBoundList );
; 4014 :    }
; 4015 : 
; 4016 :    SqlFreeBoundAttrList( lpBoundList );

	mov	eax, DWORD PTR _lpBoundList$[ebp]
	push	eax
	call	_SqlFreeBoundAttrList@4

; 4017 : // lpBoundList = 0;
; 4018 :    if ( nRC == zCALL_ERROR )

	movsx	ecx, WORD PTR _nRC$[ebp]
	cmp	ecx, -16				; fffffff0H
	jne	SHORT $LN7@Delete

; 4019 :       return( zCALL_ERROR );

	mov	eax, -16				; fffffff0H
	jmp	SHORT $LN1@Delete
$LN7@Delete:

; 4020 : 
; 4021 : #if defined( DB2 ) || defined( ODBC )
; 4022 : 
; 4023 :    lpConnection->hstmt = lpConnection->hGeneralStmt;

	mov	edx, DWORD PTR _lpConnection$[ebp]
	mov	eax, DWORD PTR _lpConnection$[ebp]
	mov	ecx, DWORD PTR [eax+2816]
	mov	DWORD PTR [edx+2812], ecx

; 4024 : 
; 4025 :    nRC = SQLExecDirect( lpConnection->hstmt, lpConnection->pchConnSqlCmd, SQL_NTS );

	push	-3					; fffffffdH
	mov	edx, DWORD PTR _lpConnection$[ebp]
	mov	eax, DWORD PTR [edx+194]
	push	eax
	mov	ecx, DWORD PTR _lpConnection$[ebp]
	mov	edx, DWORD PTR [ecx+2812]
	push	edx
	call	_SQLExecDirect@12
	mov	WORD PTR _nRC$[ebp], ax

; 4026 :    DisplayCommand( "SQLExecDirect", nRC, lpConnection );

	mov	eax, DWORD PTR _lpConnection$[ebp]
	push	eax
	movzx	ecx, WORD PTR _nRC$[ebp]
	push	ecx
	push	OFFSET $SG95551
	call	_DisplayCommand
	add	esp, 12					; 0000000cH

; 4027 :    if ( nRC != SQL_SUCCESS )

	movsx	edx, WORD PTR _nRC$[ebp]
	test	edx, edx
	je	SHORT $LN8@Delete

; 4028 :       return( zCALL_ERROR );

	mov	eax, -16				; fffffff0H
	jmp	SHORT $LN1@Delete
$LN8@Delete:

; 4029 : 
; 4030 : #elif defined( DUMMY )
; 4031 : 
; 4032 :    if ( lpConnection->nTraceLevel > 0 )
; 4033 :    {
; 4034 :       TraceLineS( "", "" );
; 4035 :       SqlDisplayCommand( lpConnection->pchConnSqlCmd, 0 );
; 4036 :    }
; 4037 : 
; 4038 : #endif
; 4039 : 
; 4040 :    lpConnection->bDatabaseChanged = TRUE;

	mov	eax, DWORD PTR _lpConnection$[ebp]
	mov	ecx, DWORD PTR [eax+800]
	or	ecx, 2
	mov	edx, DWORD PTR _lpConnection$[ebp]
	mov	DWORD PTR [edx+800], ecx

; 4041 : 
; 4042 :    return( 0 );

	xor	eax, eax
$LN1@Delete:

; 4043 : }  /* Delete */

	mov	esp, ebp
	pop	ebp
	ret	0
_Delete	ENDP
_TEXT	ENDS
; Function compile flags: /Odtp
; File c:\10c\a\oe\kzhsqlxa.c
_TEXT	SEGMENT
_CallbackInfo$ = -36					; size = 5
_pchRecordName$ = -28					; size = 4
_lpRelRecord$ = -24					; size = 4
_lpParent$1 = -20					; size = 4
_lpBoundList$ = -16					; size = 4
_pvDBH_Data$ = -12					; size = 4
_lpDataRecord$ = -8					; size = 4
_nRC$ = -4						; size = 2
_lpViewEntity$ = 8					; size = 4
_lpView$ = 12						; size = 4
_lpViewOD$ = 16						; size = 4
_lpConnection$ = 20					; size = 4
_InsertRel PROC

; 3856 : {

	push	ebp
	mov	ebp, esp
	sub	esp, 36					; 00000024H

; 3857 :    LPDATARECORD    lpDataRecord;
; 3858 :    LPRELRECORD     lpRelRecord;
; 3859 :    LPBOUNDLIST     lpBoundList;
; 3860 :    zPVOID          pvDBH_Data = 0;

	mov	DWORD PTR _pvDBH_Data$[ebp], 0

; 3861 :    zPCHAR          pchRecordName;
; 3862 :    zSHORT          nRC;
; 3863 : 
; 3864 : #if defined( DB2 ) || defined( ODBC )
; 3865 :    CallbackInfoRecord CallbackInfo = { 0 };

	mov	BYTE PTR _CallbackInfo$[ebp], 0
	xor	eax, eax
	mov	DWORD PTR _CallbackInfo$[ebp+1], eax

; 3866 : 
; 3867 :    pvDBH_Data = &CallbackInfo;

	lea	ecx, DWORD PTR _CallbackInfo$[ebp]
	mov	DWORD PTR _pvDBH_Data$[ebp], ecx

; 3868 :    CallbackInfo.cBuildFunction = BUILD_INCLUDE;

	mov	BYTE PTR _CallbackInfo$[ebp], 73	; 00000049H

; 3869 : 
; 3870 :    #if defined( ODBC )
; 3871 :       // Get a pointer to the dbh-specific data for ODBC.  We'll pass this
; 3872 :       // info around via the lpBoundList structure.
; 3873 :       CallbackInfo.lpObjectData = zGETPTR( lpViewOD->hDBH_Data );

	mov	edx, DWORD PTR _lpViewOD$[ebp]
	mov	eax, DWORD PTR [edx+244]
	push	eax
	call	_SysGetPointerFromHandle@4
	mov	DWORD PTR _CallbackInfo$[ebp+1], eax

; 3874 :    #endif
; 3875 : 
; 3876 : #endif
; 3877 : 
; 3878 :    SqlInitBoundAttrList( &lpBoundList, 0,

	mov	ecx, DWORD PTR _pvDBH_Data$[ebp]
	push	ecx
	push	50331916				; 0300010cH
	push	OFFSET _fnDBH_Callback@24
	push	0
	lea	edx, DWORD PTR _lpBoundList$[ebp]
	push	edx
	call	_SqlInitBoundAttrList@20

; 3879 :                          fnDBH_Callback, zCB_FUNCS, pvDBH_Data );
; 3880 : 
; 3881 :    lpDataRecord = zGETPTR( lpViewEntity->hFirstDataRecord );

	mov	eax, DWORD PTR _lpViewEntity$[ebp]
	mov	ecx, DWORD PTR [eax+191]
	push	ecx
	call	_SysGetPointerFromHandle@4
	mov	DWORD PTR _lpDataRecord$[ebp], eax

; 3882 :    lpRelRecord  = zGETPTR( lpDataRecord->hFirstRelRecord );

	mov	edx, DWORD PTR _lpDataRecord$[ebp]
	mov	eax, DWORD PTR [edx+6]
	push	eax
	call	_SysGetPointerFromHandle@4
	mov	DWORD PTR _lpRelRecord$[ebp], eax

; 3883 :    pchRecordName = lpDataRecord->szRecordName;

	mov	ecx, DWORD PTR _lpDataRecord$[ebp]
	add	ecx, 15					; 0000000fH
	mov	DWORD PTR _pchRecordName$[ebp], ecx

; 3884 : 
; 3885 :    if ( lpConnection->nTraceLevel > 1 )

	mov	edx, DWORD PTR _lpConnection$[ebp]
	movsx	eax, WORD PTR [edx+214]
	cmp	eax, 1
	jle	$LN2@InsertRel

; 3886 :    {
; 3887 :       TraceLineS( "", "" );

	push	OFFSET $SG95506
	push	OFFSET $SG95507
	call	_TraceLineS@8

; 3888 :       TraceLineS( "========== Insert Rel ==========", "" );

	push	OFFSET $SG95508
	push	OFFSET $SG95509
	call	_TraceLineS@8

; 3889 :       TraceLineS( "Inserting rel for entity ", lpViewEntity->szName );

	mov	ecx, DWORD PTR _lpViewEntity$[ebp]
	add	ecx, 14					; 0000000eH
	push	ecx
	push	OFFSET $SG95510
	call	_TraceLineS@8

; 3890 :       TraceLineS( "Inserting rel for record ", lpDataRecord->szRecordName );

	mov	edx, DWORD PTR _lpDataRecord$[ebp]
	add	edx, 15					; 0000000fH
	push	edx
	push	OFFSET $SG95511
	call	_TraceLineS@8

; 3891 : 
; 3892 :       if ( lpConnection->nTraceLevel > 2 )

	mov	eax, DWORD PTR _lpConnection$[ebp]
	movsx	ecx, WORD PTR [eax+214]
	cmp	ecx, 2
	jle	SHORT $LN2@InsertRel

; 3893 :       {
; 3894 :          LPVIEWENTITY lpParent = zGETPTR( lpViewEntity->hParent );

	mov	edx, DWORD PTR _lpViewEntity$[ebp]
	mov	eax, DWORD PTR [edx+10]
	push	eax
	call	_SysGetPointerFromHandle@4
	mov	DWORD PTR _lpParent$1[ebp], eax

; 3895 : 
; 3896 :          TraceLineS( "PARENT:", "" );

	push	OFFSET $SG95513
	push	OFFSET $SG95514
	call	_TraceLineS@8

; 3897 :          DisplayEntityInstance( lpView, lpParent->szName );

	mov	ecx, DWORD PTR _lpParent$1[ebp]
	add	ecx, 14					; 0000000eH
	push	ecx
	mov	edx, DWORD PTR _lpView$[ebp]
	push	edx
	call	_DisplayEntityInstance@8

; 3898 : 
; 3899 :          TraceLineS( "CHILD:", "" );

	push	OFFSET $SG95515
	push	OFFSET $SG95516
	call	_TraceLineS@8

; 3900 :          DisplayEntityInstance( lpView, lpViewEntity->szName );

	mov	eax, DWORD PTR _lpViewEntity$[ebp]
	add	eax, 14					; 0000000eH
	push	eax
	mov	ecx, DWORD PTR _lpView$[ebp]
	push	ecx
	call	_DisplayEntityInstance@8
$LN2@InsertRel:

; 3901 :       }
; 3902 :    }
; 3903 : 
; 3904 :    // The only thing that needs to be done is to insert the correspondence
; 3905 :    // table if the relationship is many-to-many.
; 3906 :    if ( lpRelRecord->cOwnerMember == zDBH_MANY_TO_MANY )

	mov	edx, DWORD PTR _lpRelRecord$[ebp]
	movsx	eax, BYTE PTR [edx+10]
	cmp	eax, 50					; 00000032H
	jne	$LN4@InsertRel

; 3907 :    {
; 3908 :       nRC = SqlBuildInsertCorrTable( lpView, lpViewOD, lpViewEntity,

	mov	ecx, DWORD PTR _lpBoundList$[ebp]
	push	ecx
	mov	edx, DWORD PTR _lpConnection$[ebp]
	mov	eax, DWORD PTR [edx+194]
	push	eax
	mov	ecx, DWORD PTR _lpViewEntity$[ebp]
	push	ecx
	mov	edx, DWORD PTR _lpViewOD$[ebp]
	push	edx
	mov	eax, DWORD PTR _lpView$[ebp]
	push	eax
	call	_SqlBuildInsertCorrTable@20
	mov	WORD PTR _nRC$[ebp], ax

; 3909 :                                      lpConnection->pchConnSqlCmd, lpBoundList );
; 3910 :       SqlFreeBoundAttrList( lpBoundList );

	mov	ecx, DWORD PTR _lpBoundList$[ebp]
	push	ecx
	call	_SqlFreeBoundAttrList@4

; 3911 :    // lpBoundList = 0;
; 3912 :       if ( nRC == zCALL_ERROR )

	movsx	edx, WORD PTR _nRC$[ebp]
	cmp	edx, -16				; fffffff0H
	jne	SHORT $LN5@InsertRel

; 3913 :          return( zCALL_ERROR );

	mov	eax, -16				; fffffff0H
	jmp	SHORT $LN1@InsertRel
$LN5@InsertRel:

; 3914 : 
; 3915 :       // ================================================================
; 3916 :       // Insert correspondence table.
; 3917 :       // ================================================================
; 3918 : 
; 3919 : #if defined( DB2 ) || defined( ODBC )
; 3920 : 
; 3921 :       lpConnection->hstmt = lpConnection->hGeneralStmt;

	mov	eax, DWORD PTR _lpConnection$[ebp]
	mov	ecx, DWORD PTR _lpConnection$[ebp]
	mov	edx, DWORD PTR [ecx+2816]
	mov	DWORD PTR [eax+2812], edx

; 3922 : 
; 3923 :       nRC = SQLExecDirect( lpConnection->hstmt, lpConnection->pchConnSqlCmd,

	push	-3					; fffffffdH
	mov	eax, DWORD PTR _lpConnection$[ebp]
	mov	ecx, DWORD PTR [eax+194]
	push	ecx
	mov	edx, DWORD PTR _lpConnection$[ebp]
	mov	eax, DWORD PTR [edx+2812]
	push	eax
	call	_SQLExecDirect@12
	mov	WORD PTR _nRC$[ebp], ax

; 3924 :                            SQL_NTS );
; 3925 :       DisplayCommand( "SQLExecDirect", nRC, lpConnection );

	mov	ecx, DWORD PTR _lpConnection$[ebp]
	push	ecx
	movzx	edx, WORD PTR _nRC$[ebp]
	push	edx
	push	OFFSET $SG95519
	call	_DisplayCommand
	add	esp, 12					; 0000000cH

; 3926 :       if ( nRC != SQL_SUCCESS )

	movsx	eax, WORD PTR _nRC$[ebp]
	test	eax, eax
	je	SHORT $LN6@InsertRel

; 3927 :          return( zCALL_ERROR );

	mov	eax, -16				; fffffff0H
	jmp	SHORT $LN1@InsertRel
$LN6@InsertRel:

; 3928 : 
; 3929 : #elif defined( DUMMY )
; 3930 : 
; 3931 :       if ( lpConnection->nTraceLevel > 0 )
; 3932 :       {
; 3933 :          TraceLineS( "", "" );
; 3934 :          SqlDisplayCommand( lpConnection->pchConnSqlCmd, 0 );
; 3935 :       }
; 3936 : 
; 3937 : #endif
; 3938 : 
; 3939 :       lpConnection->bDatabaseChanged = TRUE;

	mov	ecx, DWORD PTR _lpConnection$[ebp]
	mov	edx, DWORD PTR [ecx+800]
	or	edx, 2
	mov	eax, DWORD PTR _lpConnection$[ebp]
	mov	DWORD PTR [eax+800], edx
$LN4@InsertRel:

; 3940 :    }
; 3941 : 
; 3942 :    return( 0 );

	xor	eax, eax
$LN1@InsertRel:

; 3943 : 
; 3944 : }  /* InsertRel */

	mov	esp, ebp
	pop	ebp
	ret	0
_InsertRel ENDP
_TEXT	ENDS
; Function compile flags: /Odtp
; File c:\10c\a\oe\kzhsqlxa.c
_TEXT	SEGMENT
_CallbackInfo$ = -36					; size = 5
_pchRecordName$ = -28					; size = 4
_lpRelRecord$ = -24					; size = 4
_pvDBH_Data$ = -20					; size = 4
_lpDataRecord$ = -16					; size = 4
_lpBoundList$ = -12					; size = 4
_nBuildRC$ = -8						; size = 2
_nRC$ = -4						; size = 2
_lpViewEntity$ = 8					; size = 4
_lpView$ = 12						; size = 4
_lpViewOD$ = 16						; size = 4
_bAutoSeqOnly$ = 20					; size = 2
_lpConnection$ = 24					; size = 4
_Insert	PROC

; 3724 : {

	push	ebp
	mov	ebp, esp
	sub	esp, 36					; 00000024H

; 3725 :    LPDATARECORD    lpDataRecord;
; 3726 :    LPRELRECORD     lpRelRecord;
; 3727 :    LPBOUNDLIST     lpBoundList;
; 3728 :    zPVOID          pvDBH_Data = 0;

	mov	DWORD PTR _pvDBH_Data$[ebp], 0

; 3729 :    zPCHAR          pchRecordName;
; 3730 :    zSHORT          nBuildRC;
; 3731 :    zSHORT          nRC = 0;

	xor	eax, eax
	mov	WORD PTR _nRC$[ebp], ax

; 3732 : 
; 3733 : #if defined( DB2 ) || defined( ODBC )
; 3734 :    CallbackInfoRecord CallbackInfo = { 0 };

	mov	BYTE PTR _CallbackInfo$[ebp], 0
	xor	ecx, ecx
	mov	DWORD PTR _CallbackInfo$[ebp+1], ecx

; 3735 : 
; 3736 :    pvDBH_Data = &CallbackInfo;

	lea	edx, DWORD PTR _CallbackInfo$[ebp]
	mov	DWORD PTR _pvDBH_Data$[ebp], edx

; 3737 :    CallbackInfo.cBuildFunction = BUILD_CREATE;

	mov	BYTE PTR _CallbackInfo$[ebp], 67	; 00000043H

; 3738 : 
; 3739 : #if defined( ODBC )
; 3740 :       // Get a pointer to the dbh-specific data for ODBC.  We'll pass this
; 3741 :       // info around via the lpBoundList structure.
; 3742 :       CallbackInfo.lpObjectData = zGETPTR( lpViewOD->hDBH_Data );

	mov	eax, DWORD PTR _lpViewOD$[ebp]
	mov	ecx, DWORD PTR [eax+244]
	push	ecx
	call	_SysGetPointerFromHandle@4
	mov	DWORD PTR _CallbackInfo$[ebp+1], eax

; 3743 : #endif
; 3744 : 
; 3745 : #endif
; 3746 : 
; 3747 :    SqlInitBoundAttrList( &lpBoundList, 0,

	mov	edx, DWORD PTR _pvDBH_Data$[ebp]
	push	edx
	push	50331916				; 0300010cH
	push	OFFSET _fnDBH_Callback@24
	push	0
	lea	eax, DWORD PTR _lpBoundList$[ebp]
	push	eax
	call	_SqlInitBoundAttrList@20

; 3748 :                          fnDBH_Callback, zCB_FUNCS, pvDBH_Data );
; 3749 : 
; 3750 :    lpDataRecord = zGETPTR( lpViewEntity->hFirstDataRecord );

	mov	ecx, DWORD PTR _lpViewEntity$[ebp]
	mov	edx, DWORD PTR [ecx+191]
	push	edx
	call	_SysGetPointerFromHandle@4
	mov	DWORD PTR _lpDataRecord$[ebp], eax

; 3751 :    lpRelRecord  = zGETPTR( lpDataRecord->hFirstRelRecord );

	mov	eax, DWORD PTR _lpDataRecord$[ebp]
	mov	ecx, DWORD PTR [eax+6]
	push	ecx
	call	_SysGetPointerFromHandle@4
	mov	DWORD PTR _lpRelRecord$[ebp], eax

; 3752 :    pchRecordName = lpDataRecord->szRecordName;

	mov	edx, DWORD PTR _lpDataRecord$[ebp]
	add	edx, 15					; 0000000fH
	mov	DWORD PTR _pchRecordName$[ebp], edx

; 3753 : 
; 3754 :    if ( lpConnection->nTraceLevel > 1 )

	mov	eax, DWORD PTR _lpConnection$[ebp]
	movsx	ecx, WORD PTR [eax+214]
	cmp	ecx, 1
	jle	SHORT $LN2@Insert

; 3755 :    {
; 3756 :       TraceLineS( "", "" );

	push	OFFSET $SG95468
	push	OFFSET $SG95469
	call	_TraceLineS@8

; 3757 :       TraceLineS( "========== Insert ==========", "" );

	push	OFFSET $SG95470
	push	OFFSET $SG95471
	call	_TraceLineS@8

; 3758 :       TraceLineS( "Inserting entity ", lpViewEntity->szName );

	mov	edx, DWORD PTR _lpViewEntity$[ebp]
	add	edx, 14					; 0000000eH
	push	edx
	push	OFFSET $SG95472
	call	_TraceLineS@8

; 3759 :       TraceLineS( "Inserting record ", lpDataRecord->szRecordName );

	mov	eax, DWORD PTR _lpDataRecord$[ebp]
	add	eax, 15					; 0000000fH
	push	eax
	push	OFFSET $SG95473
	call	_TraceLineS@8

; 3760 :       if ( lpConnection->nTraceLevel > 2 )

	mov	ecx, DWORD PTR _lpConnection$[ebp]
	movsx	edx, WORD PTR [ecx+214]
	cmp	edx, 2
	jle	SHORT $LN2@Insert

; 3761 :          DisplayEntityInstance( lpView, lpViewEntity->szName );

	mov	eax, DWORD PTR _lpViewEntity$[ebp]
	add	eax, 14					; 0000000eH
	push	eax
	mov	ecx, DWORD PTR _lpView$[ebp]
	push	ecx
	call	_DisplayEntityInstance@8
$LN2@Insert:

; 3762 :    }
; 3763 : 
; 3764 :    // Build SQL for insert.  If nBuildRC == 1 after build, then there are some
; 3765 :    // long var chars that need to be bound.
; 3766 :    nBuildRC = SqlBuildInsert( lpView, lpViewOD, lpViewEntity,

	mov	edx, DWORD PTR _lpBoundList$[ebp]
	push	edx
	mov	eax, DWORD PTR _lpConnection$[ebp]
	mov	ecx, DWORD PTR [eax+194]
	push	ecx
	mov	edx, DWORD PTR _lpViewEntity$[ebp]
	push	edx
	mov	eax, DWORD PTR _lpViewOD$[ebp]
	push	eax
	mov	ecx, DWORD PTR _lpView$[ebp]
	push	ecx
	call	_SqlBuildInsert@20
	mov	WORD PTR _nBuildRC$[ebp], ax

; 3767 :                               lpConnection->pchConnSqlCmd, lpBoundList );
; 3768 :    if ( nBuildRC == zCALL_ERROR )

	movsx	edx, WORD PTR _nBuildRC$[ebp]
	cmp	edx, -16				; fffffff0H
	jne	SHORT $LN4@Insert

; 3769 :    {
; 3770 :       SqlFreeBoundAttrList( lpBoundList );

	mov	eax, DWORD PTR _lpBoundList$[ebp]
	push	eax
	call	_SqlFreeBoundAttrList@4

; 3771 :       return( zCALL_ERROR );

	mov	eax, -16				; fffffff0H
	jmp	$LN1@Insert
$LN4@Insert:

; 3772 :    }
; 3773 : 
; 3774 :    // ================================================================
; 3775 :    // Prepare/compile insert statement
; 3776 :    // ================================================================
; 3777 : 
; 3778 : #if defined( DB2 ) || defined( ODBC )
; 3779 : 
; 3780 :    lpConnection->hstmt = lpConnection->hGeneralStmt;

	mov	ecx, DWORD PTR _lpConnection$[ebp]
	mov	edx, DWORD PTR _lpConnection$[ebp]
	mov	eax, DWORD PTR [edx+2816]
	mov	DWORD PTR [ecx+2812], eax

; 3781 : 
; 3782 :    nRC = SQLPrepare( lpConnection->hstmt, lpConnection->pchConnSqlCmd, SQL_NTS );

	push	-3					; fffffffdH
	mov	ecx, DWORD PTR _lpConnection$[ebp]
	mov	edx, DWORD PTR [ecx+194]
	push	edx
	mov	eax, DWORD PTR _lpConnection$[ebp]
	mov	ecx, DWORD PTR [eax+2812]
	push	ecx
	call	_SQLPrepare@12
	mov	WORD PTR _nRC$[ebp], ax

; 3783 :    DisplayCommand( "SQLPrepare", nRC, lpConnection );

	mov	edx, DWORD PTR _lpConnection$[ebp]
	push	edx
	movzx	eax, WORD PTR _nRC$[ebp]
	push	eax
	push	OFFSET $SG95476
	call	_DisplayCommand
	add	esp, 12					; 0000000cH

; 3784 : 
; 3785 : #endif
; 3786 : 
; 3787 :    if ( nRC )

	movsx	ecx, WORD PTR _nRC$[ebp]
	test	ecx, ecx
	je	SHORT $LN5@Insert

; 3788 :    {
; 3789 :       SqlFreeBoundAttrList( lpBoundList );

	mov	edx, DWORD PTR _lpBoundList$[ebp]
	push	edx
	call	_SqlFreeBoundAttrList@4

; 3790 :       return( zCALL_ERROR );

	mov	eax, -16				; fffffff0H
	jmp	$LN1@Insert
$LN5@Insert:

; 3791 :    }
; 3792 : 
; 3793 :    // If needed, bind any long varchars.
; 3794 :    nRC = WriteLongChar( lpConnection, lpBoundList );

	mov	eax, DWORD PTR _lpBoundList$[ebp]
	push	eax
	mov	ecx, DWORD PTR _lpConnection$[ebp]
	push	ecx
	call	_WriteLongChar
	add	esp, 8
	mov	WORD PTR _nRC$[ebp], ax

; 3795 :    if ( nRC < 0 )

	movsx	edx, WORD PTR _nRC$[ebp]
	test	edx, edx
	jge	SHORT $LN6@Insert

; 3796 :    {
; 3797 :       SqlFreeBoundAttrList( lpBoundList );

	mov	eax, DWORD PTR _lpBoundList$[ebp]
	push	eax
	call	_SqlFreeBoundAttrList@4

; 3798 :       return( zCALL_ERROR );

	mov	eax, -16				; fffffff0H
	jmp	$LN1@Insert
$LN6@Insert:

; 3799 :    }
; 3800 : 
; 3801 :    // ================================================================
; 3802 :    // Insert table.
; 3803 :    // ================================================================
; 3804 : 
; 3805 : #if defined( DB2 ) || defined( ODBC )
; 3806 : 
; 3807 :    nRC = SQLExecute( lpConnection->hstmt );

	mov	ecx, DWORD PTR _lpConnection$[ebp]
	mov	edx, DWORD PTR [ecx+2812]
	push	edx
	call	_SQLExecute@4
	mov	WORD PTR _nRC$[ebp], ax

; 3808 :    SqlFreeBoundAttrList( lpBoundList );

	mov	eax, DWORD PTR _lpBoundList$[ebp]
	push	eax
	call	_SqlFreeBoundAttrList@4

; 3809 : // lpBoundList = 0;
; 3810 : 
; 3811 :    if ( nRC != SQL_SUCCESS && nRC != SQL_SUCCESS_WITH_INFO )

	movsx	ecx, WORD PTR _nRC$[ebp]
	test	ecx, ecx
	je	SHORT $LN7@Insert
	movsx	edx, WORD PTR _nRC$[ebp]
	cmp	edx, 1
	je	SHORT $LN7@Insert

; 3812 :    {
; 3813 :       // If the trace level is 0 then let's trace the SQL to help debugging.
; 3814 :       if ( lpConnection->nTraceLevel == 0 )

	mov	eax, DWORD PTR _lpConnection$[ebp]
	movsx	ecx, WORD PTR [eax+214]
	test	ecx, ecx
	jne	SHORT $LN7@Insert

; 3815 :          SqlDisplayCommand( lpConnection->pchConnSqlCmd, 0 );

	push	0
	mov	edx, DWORD PTR _lpConnection$[ebp]
	mov	eax, DWORD PTR [edx+194]
	push	eax
	call	_SqlDisplayCommand@8
$LN7@Insert:

; 3816 :    }
; 3817 : 
; 3818 :    if ( nRC == 805 && lpViewEntity->hParent == 0 )

	movsx	ecx, WORD PTR _nRC$[ebp]
	cmp	ecx, 805				; 00000325H
	jne	SHORT $LN9@Insert
	mov	edx, DWORD PTR _lpViewEntity$[ebp]
	cmp	DWORD PTR [edx+10], 0
	jne	SHORT $LN9@Insert

; 3819 :    {
; 3820 :       SQL_RC( "SQLExecute", nRC, "Duplicate root", 0, 2 );

	mov	eax, DWORD PTR _lpConnection$[ebp]
	push	eax
	push	2
	push	0
	push	OFFSET $SG95483
	movzx	ecx, WORD PTR _nRC$[ebp]
	push	ecx
	push	OFFSET $SG95484
	call	_fnSqlRC
	add	esp, 24					; 00000018H

; 3821 :       nRC = zDUPLICATE_ROOT;

	mov	edx, -4					; fffffffcH
	mov	WORD PTR _nRC$[ebp], dx

; 3822 :       return( zDUPLICATE_ROOT );

	mov	eax, -4					; fffffffcH
	jmp	SHORT $LN1@Insert

; 3823 :    }

	jmp	SHORT $LN10@Insert
$LN9@Insert:

; 3824 :    else
; 3825 :    {
; 3826 :       SQL_RC( "SQLExecute", nRC, 0, 0, 2 );

	mov	eax, DWORD PTR _lpConnection$[ebp]
	push	eax
	push	2
	push	0
	push	0
	movzx	ecx, WORD PTR _nRC$[ebp]
	push	ecx
	push	OFFSET $SG95485
	call	_fnSqlRC
	add	esp, 24					; 00000018H

; 3827 :       if ( nRC != SQL_SUCCESS && nRC != SQL_SUCCESS_WITH_INFO )

	movsx	edx, WORD PTR _nRC$[ebp]
	test	edx, edx
	je	SHORT $LN10@Insert
	movsx	eax, WORD PTR _nRC$[ebp]
	cmp	eax, 1
	je	SHORT $LN10@Insert

; 3828 :          return( zCALL_ERROR );

	mov	eax, -16				; fffffff0H
	jmp	SHORT $LN1@Insert
$LN10@Insert:

; 3829 :    }
; 3830 : 
; 3831 : #elif defined( DUMMY )
; 3832 : 
; 3833 :    if ( lpConnection->nTraceLevel > 0 )
; 3834 :    {
; 3835 :       TraceLineS( "", "" );
; 3836 :       SqlDisplayCommand( lpConnection->pchConnSqlCmd, 0 );
; 3837 :    }
; 3838 : 
; 3839 : #endif
; 3840 : 
; 3841 :    lpConnection->bDatabaseChanged = TRUE;

	mov	ecx, DWORD PTR _lpConnection$[ebp]
	mov	edx, DWORD PTR [ecx+800]
	or	edx, 2
	mov	eax, DWORD PTR _lpConnection$[ebp]
	mov	DWORD PTR [eax+800], edx

; 3842 : 
; 3843 :    return( 0 );

	xor	eax, eax
$LN1@Insert:

; 3844 : }  /* Insert */

	mov	esp, ebp
	pop	ebp
	ret	0
_Insert	ENDP
_TEXT	ENDS
; Function compile flags: /Odtp
; File c:\10c\a\oe\kzhsqlxa.c
_TEXT	SEGMENT
_lpRelRecord$ = -3808					; size = 4
_lpnLth$1 = -3804					; size = 4
_ulLth$2 = -3800					; size = 4
_lpParent$3 = -3796					; size = 4
_lpBoundEntity$4 = -3792				; size = 4
_lpDataField$5 = -3788					; size = 4
_hTask$6 = -3784					; size = 4
_lpDataPtr$7 = -3780					; size = 4
tv596 = -3776						; size = 4
tv524 = -3772						; size = 4
$T8 = -3768						; size = 4
tv1084 = -3764						; size = 4
tv870 = -3760						; size = 4
_lpDataField$9 = -3756					; size = 4
tv784 = -3752						; size = 4
_lpHandles$ = -3748					; size = 4
_pvDBH_Data$ = -3744					; size = 4
tv69 = -3740						; size = 4
_lpValue$10 = -3736					; size = 4
tv1166 = -3732						; size = 4
_chType$11 = -3725					; size = 1
_nLth$12 = -3724					; size = 2
_nRC2$13 = -3720					; size = 2
_LoopInfo$ = -3716					; size = 33
_CallbackInfo$ = -3680					; size = 5
_nRC2$14 = -3672					; size = 2
tv1260 = -3668						; size = 4
_lpLastCreatedEntity$15 = -3664				; size = 4
tv921 = -3660						; size = 4
_iBufferLth$16 = -3656					; size = 4
_nColumnSize$17 = -3652					; size = 4
_lpnParmLth$18 = -3648					; size = 4
_lFuncs$ = -3644					; size = 4
_lpDataRecord$ = -3640					; size = 4
_lMemLth$ = -3636					; size = 4
tv593 = -3632						; size = 4
tv521 = -3628						; size = 4
tv1203 = -3624						; size = 4
_lpMem$ = -3620						; size = 4
_ulTotalLth$ = -3616					; size = 4
_rc$19 = -3612						; size = 2
_nLth$20 = -3608					; size = 2
_lRowCount$ = -3604					; size = 4
_ppchBufferPtr$ = -3600					; size = 4
_lpBoundAttr$21 = -3596					; size = 4
_ulLth$22 = -3592					; size = 4
_lRootLimit$ = -3588					; size = 4
_pchBufferPos$23 = -3584				; size = 4
_lpPtr$ = -3580						; size = 4
_lRootCnt$ = -3576					; size = 4
_nC_DataType$24 = -3572					; size = 2
_nSQL_Type$25 = -3568					; size = 2
_hMem$ = -3564						; size = 4
_ulLth$26 = -3560					; size = 4
_nDecDigits$27 = -3556					; size = 2
_bCreateMultipleRoots$ = -3549				; size = 1
_fSqlType$28 = -3548					; size = 2
_nParmCount$29 = -3544					; size = 2
_pchBufferPos$30 = -3540				; size = 4
_lpAttribFlags$ = -3536					; size = 4
_lpPtr$31 = -3532					; size = 4
_sz$32 = -3528						; size = 2
_lpBoundAttr$33 = -3524					; size = 4
_nLth$34 = -3520					; size = 4
_lpQualEntity$ = -3516					; size = 4
_fSqlType$35 = -3512					; size = 2
_bKeyListCreated$ = -3508				; size = 1
_bCursorOpened$ = -3507					; size = 1
_bRootLimitReached$ = -3506				; size = 1
_bNewEntity$36 = -3505					; size = 1
_lpLoadEntity$37 = -3504				; size = 4
_k$38 = -3500						; size = 2
_k$39 = -3496						; size = 2
_bOpenSQL$ = -3490					; size = 1
_bKeysOnly$ = -3489					; size = 1
_lpBoundList$ = -3488					; size = 4
_lpDataField$ = -3484					; size = 4
_lpStmtHandle$ = -3480					; size = 4
_nEntityKeyCnt$ = -3476					; size = 2
_nReturnCode$ = -3472					; size = 2
_lpViewAttrib$ = -3468					; size = 4
_nColumnCnt$ = -3464					; size = 2
_nRC$ = -3460						; size = 2
_ppchBufferPtrArea$ = -3456				; size = 1200
_lpKeyData$ = -2256					; size = 800
_szMsg$40 = -1456					; size = 500
_szDeleteCmd$41 = -956					; size = 300
_bEntityCreatedList$42 = -656				; size = 500
_sz$43 = -156						; size = 50
_szDatetime$44 = -104					; size = 100
__$ArrayPad$ = -4					; size = 4
_lpViewEntity$ = 8					; size = 4
_lpView$ = 12						; size = 4
_lpViewOD$ = 16						; size = 4
_lpQualView$ = 20					; size = 4
_lpConnection$ = 24					; size = 4
_Indicators$ = 28					; size = 4
_Load	PROC

; 1983 : {

	push	ebp
	mov	ebp, esp
	sub	esp, 3808				; 00000ee0H
	mov	eax, DWORD PTR ___security_cookie
	xor	eax, ebp
	mov	DWORD PTR __$ArrayPad$[ebp], eax

; 1984 :    LPQUALENTITY      lpQualEntity;
; 1985 :    LPVIEWATTRIB      lpViewAttrib;
; 1986 :    LPDATARECORD      lpDataRecord;
; 1987 :    LPDATAFIELD       lpDataField;
; 1988 :    LPRELRECORD       lpRelRecord;
; 1989 :    LPATTRIBFLAGS     lpAttribFlags;
; 1990 :    LPBOUNDLIST       lpBoundList = 0;

	mov	DWORD PTR _lpBoundList$[ebp], 0

; 1991 :    DataFieldLoopInfo LoopInfo;
; 1992 :    KeyData           lpKeyData[ 50 ];
; 1993 :    zPVOID            pvDBH_Data = 0;

	mov	DWORD PTR _pvDBH_Data$[ebp], 0

; 1994 :    zPVOID            lpMem;
; 1995 :    zPCHAR            ppchBufferPtrArea[ MAX_COLUMNS ] = { 0 };

	mov	DWORD PTR _ppchBufferPtrArea$[ebp], 0
	push	1196					; 000004acH
	push	0
	lea	eax, DWORD PTR _ppchBufferPtrArea$[ebp+4]
	push	eax
	call	_memset
	add	esp, 12					; 0000000cH

; 1996 :    zPPCHAR           ppchBufferPtr = ppchBufferPtrArea;

	lea	ecx, DWORD PTR _ppchBufferPtrArea$[ebp]
	mov	DWORD PTR _ppchBufferPtr$[ebp], ecx

; 1997 :    zPCHAR            lpPtr;
; 1998 :    zULONG            ulTotalLth;
; 1999 :    zLONG             lRowCount;
; 2000 :    zLONG             lRootCnt;
; 2001 :    zLONG             lRootLimit;
; 2002 :    zLONG             hMem = 0;

	mov	DWORD PTR _hMem$[ebp], 0

; 2003 :    zLONG             lMemLth;
; 2004 :    zLONG             lFuncs;
; 2005 :    zBOOL             bKeyListCreated = FALSE;

	mov	BYTE PTR _bKeyListCreated$[ebp], 0

; 2006 :    zBOOL             bCursorOpened = FALSE;

	mov	BYTE PTR _bCursorOpened$[ebp], 0

; 2007 :    zBOOL             bKeysOnly;
; 2008 :    zBOOL             bOpenSQL = FALSE;

	mov	BYTE PTR _bOpenSQL$[ebp], 0

; 2009 :    zBOOL             bCreateMultipleRoots = ((Indicators & zMULTIPLE) != 0);

	mov	edx, DWORD PTR _Indicators$[ebp]
	and	edx, 256				; 00000100H
	je	SHORT $LN201@Load
	mov	DWORD PTR tv69[ebp], 1
	jmp	SHORT $LN202@Load
$LN201@Load:
	mov	DWORD PTR tv69[ebp], 0
$LN202@Load:
	mov	al, BYTE PTR tv69[ebp]
	mov	BYTE PTR _bCreateMultipleRoots$[ebp], al

; 2010 :    zBOOL             bRootLimitReached = FALSE;

	mov	BYTE PTR _bRootLimitReached$[ebp], 0

; 2011 :    zSHORT            nEntityKeyCnt = 0;

	xor	ecx, ecx
	mov	WORD PTR _nEntityKeyCnt$[ebp], cx

; 2012 :    zSHORT            nColumnCnt;
; 2013 :    zSHORT            nReturnCode = zCALL_ERROR;

	mov	edx, -16				; fffffff0H
	mov	WORD PTR _nReturnCode$[ebp], dx

; 2014 :    zSHORT            nRC;
; 2015 : 
; 2016 : #if defined( DB2 )
; 2017 : 
; 2018 :    LPHANDLES      lpHandles = 0;
; 2019 :    LPSTMTHANDLES  lpStmtHandle = 0;
; 2020 : 
; 2021 :    // Define statements needed to load BLOB/CLOB columns.
; 2022 :    SQLHSTMT     hBlobStmt    = 0;
; 2023 :    SQLHSTMT     hLocatorStmt = 0;
; 2024 : 
; 2025 :    // Get a pointer to the dbh-specific data for DB2.
; 2026 :    CallbackInfoRecord CallbackInfo = { 0 };
; 2027 : 
; 2028 :    LPDB2_OBJECTDATA lpDB2_Data =
; 2029 :                            (LPDB2_OBJECTDATA) zGETPTR( lpViewOD->hDBH_Data );
; 2030 : 
; 2031 :    pvDBH_Data = &CallbackInfo;
; 2032 :    CallbackInfo.cBuildFunction = BUILD_SELECT;
; 2033 : 
; 2034 : #elif defined( ODBC )
; 2035 : 
; 2036 :    LPHANDLES          lpHandles = 0;

	mov	DWORD PTR _lpHandles$[ebp], 0

; 2037 :    LPSTMTHANDLES      lpStmtHandle = 0;

	mov	DWORD PTR _lpStmtHandle$[ebp], 0

; 2038 :    CallbackInfoRecord CallbackInfo = { 0 };

	mov	BYTE PTR _CallbackInfo$[ebp], 0
	xor	eax, eax
	mov	DWORD PTR _CallbackInfo$[ebp+1], eax

; 2039 : 
; 2040 :    pvDBH_Data = &CallbackInfo;

	lea	ecx, DWORD PTR _CallbackInfo$[ebp]
	mov	DWORD PTR _pvDBH_Data$[ebp], ecx

; 2041 : 
; 2042 :    // Get a pointer to the dbh-specific data for ODBC.  We'll pass this info
; 2043 :    // around via the lpBoundList structure.
; 2044 :    CallbackInfo.lpObjectData = zGETPTR( lpViewOD->hDBH_Data );

	mov	edx, DWORD PTR _lpViewOD$[ebp]
	mov	eax, DWORD PTR [edx+244]
	push	eax
	call	_SysGetPointerFromHandle@4
	mov	DWORD PTR _CallbackInfo$[ebp+1], eax

; 2045 :    CallbackInfo.cBuildFunction = BUILD_SELECT;

	mov	BYTE PTR _CallbackInfo$[ebp], 83	; 00000053H

; 2046 : 
; 2047 : #endif
; 2048 : 
; 2049 :    lpDataRecord = zGETPTR( lpViewEntity->hFirstDataRecord );

	mov	ecx, DWORD PTR _lpViewEntity$[ebp]
	mov	edx, DWORD PTR [ecx+191]
	push	edx
	call	_SysGetPointerFromHandle@4
	mov	DWORD PTR _lpDataRecord$[ebp], eax

; 2050 :    lpRelRecord  = zGETPTR( lpDataRecord->hFirstRelRecord );

	mov	eax, DWORD PTR _lpDataRecord$[ebp]
	mov	ecx, DWORD PTR [eax+6]
	push	ecx
	call	_SysGetPointerFromHandle@4
	mov	DWORD PTR _lpRelRecord$[ebp], eax

; 2051 : 
; 2052 :    if ( lpConnection->nTraceLevel > 1 )

	mov	edx, DWORD PTR _lpConnection$[ebp]
	movsx	eax, WORD PTR [edx+214]
	cmp	eax, 1
	jle	SHORT $LN49@Load

; 2053 :    {
; 2054 :       TraceLineS( "", "" );

	push	OFFSET $SG95230
	push	OFFSET $SG95231
	call	_TraceLineS@8

; 2055 :       TraceLineS( "================= Performing load ===================", "" );

	push	OFFSET $SG95232
	push	OFFSET $SG95233
	call	_TraceLineS@8

; 2056 :       TraceLineS( "  Entity name: ", lpViewEntity->szName );

	mov	ecx, DWORD PTR _lpViewEntity$[ebp]
	add	ecx, 14					; 0000000eH
	push	ecx
	push	OFFSET $SG95234
	call	_TraceLineS@8

; 2057 :       TraceLineS( "  Table name: ", lpDataRecord->szRecordName );

	mov	edx, DWORD PTR _lpDataRecord$[ebp]
	add	edx, 15					; 0000000fH
	push	edx
	push	OFFSET $SG95235
	call	_TraceLineS@8
$LN49@Load:

; 2058 :    }
; 2059 : 
; 2060 : #ifdef USE_JOINS
; 2061 :    // If we are loading only the root entities then we don't want to use a
; 2062 :    // join to load any children.
; 2063 :    lFuncs = zCB_FUNCS;

	mov	DWORD PTR _lFuncs$[ebp], 50331916	; 0300010cH

; 2064 :    if ( Indicators & zACTIVATE_ROOTONLY )

	mov	eax, DWORD PTR _Indicators$[ebp]
	and	eax, 268435456				; 10000000H
	je	SHORT $LN50@Load

; 2065 :       lFuncs &= ~zSQLCALLBACK_USEJOIN;

	mov	ecx, DWORD PTR _lFuncs$[ebp]
	and	ecx, -33554433				; fdffffffH
	mov	DWORD PTR _lFuncs$[ebp], ecx
$LN50@Load:

; 2066 : 
; 2067 :    // Check to see if the entity was already loaded via a join.
; 2068 :    if ( lpConnection->pchEntityJoinTable == 0 )

	mov	edx, DWORD PTR _lpConnection$[ebp]
	cmp	DWORD PTR [edx+2900], 0
	jne	SHORT $LN51@Load

; 2069 :    {
; 2070 :       // We haven't yet allocated the table to indicate what has been joined
; 2071 :       // so do it now.
; 2072 :       lpConnection->pchEntityJoinTable = SysMalloc( lpViewOD->uEntities + 1 );

	mov	eax, DWORD PTR _lpViewOD$[ebp]
	movzx	ecx, WORD PTR [eax+234]
	add	ecx, 1
	push	ecx
	call	_SysMalloc@4
	mov	edx, DWORD PTR _lpConnection$[ebp]
	mov	DWORD PTR [edx+2900], eax

; 2073 :    }

	jmp	SHORT $LN52@Load
$LN51@Load:

; 2074 :    else
; 2075 :    {
; 2076 :       // pchEntityJoinTable is an array of chars, one char for each entity in
; 2077 :       // the XOD.  If the bit for the current entity is non-zero, then the
; 2078 :       // entity has already been loaded via a join.
; 2079 :       if ( (lpConnection->pchEntityJoinTable[ lpViewEntity->nHierNbr ] &
; 2080 :                                             zSELECT_JOINEDWITHPARENT) != 0 )

	mov	eax, DWORD PTR _lpViewEntity$[ebp]
	movsx	ecx, WORD PTR [eax+217]
	mov	edx, DWORD PTR _lpConnection$[ebp]
	mov	eax, DWORD PTR [edx+2900]
	movsx	ecx, BYTE PTR [eax+ecx]
	and	ecx, 1
	je	SHORT $LN52@Load

; 2081 :       {
; 2082 :          if ( lpConnection->nTraceLevel > 1 )

	mov	edx, DWORD PTR _lpConnection$[ebp]
	movsx	eax, WORD PTR [edx+214]
	cmp	eax, 1
	jle	SHORT $LN54@Load

; 2083 :             TraceLineS( "  Table loaded earlier as part of a join. Entity = ",

	mov	ecx, DWORD PTR _lpViewEntity$[ebp]
	add	ecx, 14					; 0000000eH
	push	ecx
	push	OFFSET $SG95241
	call	_TraceLineS@8
$LN54@Load:

; 2084 :                         lpViewEntity->szName );
; 2085 : 
; 2086 :          nReturnCode = 0;

	xor	edx, edx
	mov	WORD PTR _nReturnCode$[ebp], dx

; 2087 : 
; 2088 :          // If the entity has hanging FKeys then we need to check to see if the
; 2089 :          // entity was loaded.  If not we want to return a -1 so that core knows
; 2090 :          // it should check to see if the entity has a hanging FK.
; 2091 :          if ( lpViewEntity->bHangingFKey )

	mov	eax, DWORD PTR _lpViewEntity$[ebp]
	mov	ecx, DWORD PTR [eax+239]
	shr	ecx, 10					; 0000000aH
	and	ecx, 1
	je	SHORT $LN55@Load

; 2092 :          {
; 2093 :             if ( CheckExistenceOfEntity( lpView,
; 2094 :                                          lpViewEntity->szName ) != zCURSOR_SET )

	mov	edx, DWORD PTR _lpViewEntity$[ebp]
	add	edx, 14					; 0000000eH
	push	edx
	mov	eax, DWORD PTR _lpView$[ebp]
	push	eax
	call	_CheckExistenceOfEntity@8
	movsx	ecx, ax
	test	ecx, ecx
	je	SHORT $LN55@Load

; 2095 :                nReturnCode = -1;  // Indicates that entity doesn't exist.

	or	edx, -1
	mov	WORD PTR _nReturnCode$[ebp], dx
$LN55@Load:

; 2096 :          }
; 2097 : 
; 2098 :          goto EndOfFunction;

	jmp	$EndOfFunction$213
$LN52@Load:

; 2099 :       }
; 2100 :    }
; 2101 : 
; 2102 : #ifdef DEBUG
; 2103 :    // DGC 6/22/2001
; 2104 :    // Put in a check to make sure that keys are sorted first.  This shouldn't
; 2105 :    // be necessary after everybody moves to new join code.
; 2106 :    lpDataField  = zGETPTR( lpDataRecord->hFirstDataField );

	mov	eax, DWORD PTR _lpDataRecord$[ebp]
	mov	ecx, DWORD PTR [eax+10]
	push	ecx
	call	_SysGetPointerFromHandle@4
	mov	DWORD PTR _lpDataField$[ebp], eax

; 2107 :    lpViewAttrib = zGETPTR( lpDataField->hViewAttrib );

	mov	edx, DWORD PTR _lpDataField$[ebp]
	mov	eax, DWORD PTR [edx+6]
	push	eax
	call	_SysGetPointerFromHandle@4
	mov	DWORD PTR _lpViewAttrib$[ebp], eax

; 2108 :    if ( lpViewAttrib->bKey == FALSE )

	mov	ecx, DWORD PTR _lpViewAttrib$[ebp]
	mov	edx, DWORD PTR [ecx+193]
	shr	edx, 1
	and	edx, 1
	jne	SHORT $LN57@Load

; 2109 :    {
; 2110 :       zCHAR szMsg[ 500 ];
; 2111 : 
; 2112 :       zsprintf( szMsg, "XOD '%s' needs to be saved with new JOIN code. "

	mov	eax, DWORD PTR _lpViewEntity$[ebp]
	add	eax, 14					; 0000000eH
	push	eax
	mov	ecx, DWORD PTR _lpViewOD$[ebp]
	add	ecx, 10					; 0000000aH
	push	ecx
	push	OFFSET $SG95245
	lea	edx, DWORD PTR _szMsg$40[ebp]
	push	edx
	call	_sprintf
	add	esp, 16					; 00000010H

; 2113 :                 "Keys must be first for entity: %s.",
; 2114 :                 lpViewOD->szName, lpViewEntity->szName );
; 2115 :       SysMessageBox( lpView, "DBHandler Warning", szMsg, 0 );

	push	0
	lea	eax, DWORD PTR _szMsg$40[ebp]
	push	eax
	push	OFFSET $SG95246
	mov	ecx, DWORD PTR _lpView$[ebp]
	push	ecx
	call	_SysMessageBox@16
$LN57@Load:

; 2116 :    }
; 2117 : #endif
; 2118 : 
; 2119 : #endif
; 2120 : 
; 2121 :    SqlInitBoundAttrList( &lpBoundList, lpConnection->pchEntityJoinTable,

	mov	edx, DWORD PTR _pvDBH_Data$[ebp]
	push	edx
	mov	eax, DWORD PTR _lFuncs$[ebp]
	push	eax
	push	OFFSET _fnDBH_Callback@24
	mov	ecx, DWORD PTR _lpConnection$[ebp]
	mov	edx, DWORD PTR [ecx+2900]
	push	edx
	lea	eax, DWORD PTR _lpBoundList$[ebp]
	push	eax
	call	_SqlInitBoundAttrList@20

; 2122 :                          fnDBH_Callback, lFuncs, pvDBH_Data );
; 2123 : 
; 2124 :    // Until further notice we will return zCALL_ERROR if we exit early.
; 2125 : 
; 2126 :    if ( lpQualView )

	cmp	DWORD PTR _lpQualView$[ebp], 0
	je	$LN58@Load

; 2127 :    {
; 2128 :       zSHORT k;
; 2129 : 
; 2130 :       // Check to see if we've already stored the qual OI.  Start by looking
; 2131 :       // for lpQualView in the qualification list.
; 2132 :       for ( k = 0; k < lpConnection->nQualCount; k++ )

	xor	ecx, ecx
	mov	WORD PTR _k$39[ebp], cx
	jmp	SHORT $LN4@Load
$LN2@Load:
	mov	dx, WORD PTR _k$39[ebp]
	add	dx, 1
	mov	WORD PTR _k$39[ebp], dx
$LN4@Load:
	movsx	eax, WORD PTR _k$39[ebp]
	mov	ecx, DWORD PTR _lpConnection$[ebp]
	movsx	edx, WORD PTR [ecx+188]
	cmp	eax, edx
	jge	SHORT $LN3@Load

; 2133 :       {
; 2134 :          if ( lpConnection->vQualList[ k ] == lpQualView )

	movsx	eax, WORD PTR _k$39[ebp]
	mov	ecx, DWORD PTR _lpConnection$[ebp]
	mov	edx, DWORD PTR [ecx+eax*4+28]
	cmp	edx, DWORD PTR _lpQualView$[ebp]
	jne	SHORT $LN60@Load

; 2135 :             break;

	jmp	SHORT $LN3@Load
$LN60@Load:

; 2136 :       }

	jmp	SHORT $LN2@Load
$LN3@Load:

; 2137 : 
; 2138 :       // If k = nQualCount then we didn't find lpQualView so we must extract
; 2139 :       // the OI to a QualEntity list.  If lpViewEntity is the root entity
; 2140 :       // then we'll reload the qualfication OI if lpQualView was found.
; 2141 :       if ( k == lpConnection->nQualCount || lpViewEntity->hParent == 0 )

	movsx	eax, WORD PTR _k$39[ebp]
	mov	ecx, DWORD PTR _lpConnection$[ebp]
	movsx	edx, WORD PTR [ecx+188]
	cmp	eax, edx
	je	SHORT $LN62@Load
	mov	eax, DWORD PTR _lpViewEntity$[ebp]
	cmp	DWORD PTR [eax+10], 0
	jne	$LN61@Load
$LN62@Load:

; 2142 :       {
; 2143 :          // If there already is a lpQualEntity then we need to free up the
; 2144 :          // old one so we can create a new one.
; 2145 :          if ( lpConnection->lpQualEntityList[ k ] )

	movsx	ecx, WORD PTR _k$39[ebp]
	mov	edx, DWORD PTR _lpConnection$[ebp]
	cmp	DWORD PTR [edx+ecx*4+108], 0
	je	SHORT $LN63@Load

; 2146 :             SqlFreeQualEntity( &lpConnection->lpQualEntityList[ k ] );

	movsx	eax, WORD PTR _k$39[ebp]
	mov	ecx, DWORD PTR _lpConnection$[ebp]
	lea	edx, DWORD PTR [ecx+eax*4+108]
	push	edx
	call	_SqlFreeQualEntity@4
$LN63@Load:

; 2147 : 
; 2148 :          // Copy the contents of lpQualView to memory.
; 2149 :          nRC = SqlRetrieveQualObject( lpView, lpQualView, lpViewOD,

	mov	eax, DWORD PTR _lpBoundList$[ebp]
	push	eax
	movsx	ecx, WORD PTR _k$39[ebp]
	mov	edx, DWORD PTR _lpConnection$[ebp]
	lea	eax, DWORD PTR [edx+ecx*4+108]
	push	eax
	mov	ecx, DWORD PTR _lpViewOD$[ebp]
	push	ecx
	mov	edx, DWORD PTR _lpQualView$[ebp]
	push	edx
	mov	eax, DWORD PTR _lpView$[ebp]
	push	eax
	call	_SqlRetrieveQualObject@20
	mov	WORD PTR _nRC$[ebp], ax

; 2150 :                                       &lpConnection->lpQualEntityList[ k ],
; 2151 :                                       lpBoundList );
; 2152 :          if ( nRC < 0 )

	movsx	ecx, WORD PTR _nRC$[ebp]
	test	ecx, ecx
	jge	SHORT $LN64@Load

; 2153 :             goto EndOfFunction;

	jmp	$EndOfFunction$213
$LN64@Load:

; 2154 : 
; 2155 :          // If this is a new view we must bump up our count.
; 2156 :          if ( k == lpConnection->nQualCount )

	movsx	edx, WORD PTR _k$39[ebp]
	mov	eax, DWORD PTR _lpConnection$[ebp]
	movsx	ecx, WORD PTR [eax+188]
	cmp	edx, ecx
	jne	SHORT $LN61@Load

; 2157 :          {
; 2158 :             // Make sure that nQualCount doesn't get bigger than our max
; 2159 :             // count.  We have to subtract one from MAX_QUALIFICATIONS for
; 2160 :             // comparison because nQualCount can never be equal to
; 2161 :             // MAX_QUALIFICATIONS.
; 2162 :             if ( lpConnection->nQualCount < MAX_QUALIFICATIONS - 1 )

	mov	edx, DWORD PTR _lpConnection$[ebp]
	movsx	eax, WORD PTR [edx+188]
	cmp	eax, 19					; 00000013H
	jge	SHORT $LN66@Load

; 2163 :                lpConnection->nQualCount++;

	mov	ecx, DWORD PTR _lpConnection$[ebp]
	mov	dx, WORD PTR [ecx+188]
	add	dx, 1
	mov	eax, DWORD PTR _lpConnection$[ebp]
	mov	WORD PTR [eax+188], dx
$LN66@Load:

; 2164 : 
; 2165 :             lpConnection->vQualList[ k ] = lpQualView;

	movsx	ecx, WORD PTR _k$39[ebp]
	mov	edx, DWORD PTR _lpConnection$[ebp]
	mov	eax, DWORD PTR _lpQualView$[ebp]
	mov	DWORD PTR [edx+ecx*4+28], eax
$LN61@Load:

; 2166 :          }
; 2167 :       }
; 2168 : 
; 2169 :       lpConnection->lpFirstQualEntity = lpConnection->lpQualEntityList[ k ];

	movsx	ecx, WORD PTR _k$39[ebp]
	mov	edx, DWORD PTR _lpConnection$[ebp]
	mov	eax, DWORD PTR _lpConnection$[ebp]
	mov	ecx, DWORD PTR [eax+ecx*4+108]
	mov	DWORD PTR [edx+190], ecx

; 2170 :    }

	jmp	SHORT $LN59@Load
$LN58@Load:

; 2171 :    else
; 2172 :    {
; 2173 :       // No qual entity so blank it out.
; 2174 :       lpConnection->lpFirstQualEntity = 0;

	mov	edx, DWORD PTR _lpConnection$[ebp]
	mov	DWORD PTR [edx+190], 0
$LN59@Load:

; 2175 :    }
; 2176 : 
; 2177 :    nRC = 0;

	xor	eax, eax
	mov	WORD PTR _nRC$[ebp], ax

; 2178 :    bKeysOnly = FALSE;

	mov	BYTE PTR _bKeysOnly$[ebp], 0

; 2179 : 
; 2180 :    lpQualEntity = SqlEntityIsQualified( lpConnection->lpFirstQualEntity,

	mov	ecx, DWORD PTR _lpViewEntity$[ebp]
	push	ecx
	mov	edx, DWORD PTR _lpConnection$[ebp]
	mov	eax, DWORD PTR [edx+190]
	push	eax
	call	_SqlEntityIsQualified@8
	mov	DWORD PTR _lpQualEntity$[ebp], eax

; 2181 :                                         lpViewEntity );
; 2182 : 
; 2183 :    if ( lpConnection->nTraceLevel > 2 )

	mov	ecx, DWORD PTR _lpConnection$[ebp]
	movsx	edx, WORD PTR [ecx+214]
	cmp	edx, 2
	jle	SHORT $LN67@Load

; 2184 :    {
; 2185 :       if ( lpConnection->lpFirstQualEntity )

	mov	eax, DWORD PTR _lpConnection$[ebp]
	cmp	DWORD PTR [eax+190], 0
	je	SHORT $LN68@Load

; 2186 :          TraceLineS( "  Table IS qualified.", "" );

	push	OFFSET $SG95259
	push	OFFSET $SG95260
	call	_TraceLineS@8
	jmp	SHORT $LN69@Load
$LN68@Load:

; 2187 :       else
; 2188 :          TraceLineS( "  Table is not qualified.", "" );

	push	OFFSET $SG95261
	push	OFFSET $SG95262
	call	_TraceLineS@8
$LN69@Load:

; 2189 : 
; 2190 :       if ( lpViewEntity->hParent )

	mov	ecx, DWORD PTR _lpViewEntity$[ebp]
	cmp	DWORD PTR [ecx+10], 0
	je	SHORT $LN67@Load

; 2191 :       {
; 2192 :          LPVIEWENTITY lpParent = zGETPTR( lpViewEntity->hParent );

	mov	edx, DWORD PTR _lpViewEntity$[ebp]
	mov	eax, DWORD PTR [edx+10]
	push	eax
	call	_SysGetPointerFromHandle@4
	mov	DWORD PTR _lpParent$3[ebp], eax

; 2193 : 
; 2194 :          DisplayEntityInstance( lpView, lpParent->szName );

	mov	ecx, DWORD PTR _lpParent$3[ebp]
	add	ecx, 14					; 0000000eH
	push	ecx
	mov	edx, DWORD PTR _lpView$[ebp]
	push	edx
	call	_DisplayEntityInstance@8
$LN67@Load:

; 2195 :       }
; 2196 :    }
; 2197 : 
; 2198 :    if ( lpQualEntity && lpConnection->nTraceLevel > 2 )

	cmp	DWORD PTR _lpQualEntity$[ebp], 0
	je	SHORT $LN71@Load
	mov	eax, DWORD PTR _lpConnection$[ebp]
	movsx	ecx, WORD PTR [eax+214]
	cmp	ecx, 2
	jle	SHORT $LN71@Load

; 2199 :       SqlDisplayQualEntity( lpQualEntity, FALSE );

	push	0
	mov	edx, DWORD PTR _lpQualEntity$[ebp]
	push	edx
	call	_SqlDisplayQualEntity@8
$LN71@Load:

; 2200 : 
; 2201 : #if defined( DB2 )
; 2202 : {
; 2203 :    LPOD_LIST lpOD = fnFindOD( lpViewOD, lpConnection );
; 2204 : 
; 2205 :    // Check for static bind.
; 2206 :    if ( lpDB2_Data && lpDB2_Data->bUseStaticSQL )
; 2207 :    {
; 2208 :       // Load static library if not already loaded.
; 2209 :       if ( lpOD->hStaticLibrary == 0 )
; 2210 :       {
; 2211 :          lpOD->hStaticLibrary = SysLoadLibrary( lpView,
; 2212 :                                                 lpDB2_Data->szStaticSQL_DLL );
; 2213 :          if ( lpOD->hStaticLibrary == 0 )
; 2214 :             goto EndOfFunction;
; 2215 :       }
; 2216 : 
; 2217 :       if ( lpQualEntity == 0 )
; 2218 :       {
; 2219 :          zSHORT (POPERATION pfnFunc)( zVIEW, LPVIEWOD, LPVIEWENTITY,
; 2220 :                                       int, zSHORT );
; 2221 :          zCHAR  szFuncName[ 200 ];
; 2222 : 
; 2223 :          lpOD->bNeedsCommit = TRUE;
; 2224 : 
; 2225 :          // We have static binding so call the static function.
; 2226 :          zsprintf( szFuncName, "SQL_%s_%s_Select", lpOD->lpViewOD->szName,
; 2227 :                    lpViewEntity->szName );
; 2228 :          pfnFunc = SysGetProc( lpOD->hStaticLibrary, szFuncName );
; 2229 : 
; 2230 :          nRC = (*pfnFunc)( lpView, lpViewOD, lpViewEntity, Indicators,
; 2231 :                            lpConnection->nTraceLevel );
; 2232 : 
; 2233 :          nReturnCode = nRC;
; 2234 :          goto EndOfFunction;
; 2235 :       }
; 2236 :       else
; 2237 :       if ( lpQualEntity->bUniqueQualification )
; 2238 :       {
; 2239 :          zSHORT (POPERATION pfnFunc)( zVIEW, LPVIEWOD, LPVIEWENTITY,
; 2240 :                                       LPQUALENTITY, int, zSHORT );
; 2241 :          zCHAR  szFuncName[ 200 ];
; 2242 : 
; 2243 :          lpOD->bNeedsCommit = TRUE;
; 2244 : 
; 2245 :          // We have static binding so call the static function.
; 2246 :          zsprintf( szFuncName, "SQL_%s_%s_SelectUnique", lpOD->lpViewOD->szName,
; 2247 :                    lpViewEntity->szName );
; 2248 :          pfnFunc = SysGetProc( lpOD->hStaticLibrary, szFuncName );
; 2249 : 
; 2250 :          nRC = (*pfnFunc)( lpView, lpViewOD, lpViewEntity, lpQualEntity,
; 2251 :                            Indicators, lpConnection->nTraceLevel );
; 2252 : 
; 2253 :          nReturnCode = nRC;
; 2254 :          goto EndOfFunction;
; 2255 :       }
; 2256 : 
; 2257 :       // We have to use dynamic SQL so open a connection using it.
; 2258 :       fnOpenDatabaseConnection( lpView, lpViewOD, lpViewEntity, lpConnection );
; 2259 :    }
; 2260 : }
; 2261 : #endif
; 2262 : 
; 2263 : #if defined( DB2 ) || defined( ODBC )
; 2264 : 
; 2265 :    // Check to see if we've already generated/prepared the SQL for this
; 2266 :    // entity.
; 2267 :    if ( g_bHoldStmtHandles )

	movzx	eax, BYTE PTR _g_bHoldStmtHandles
	test	eax, eax
	je	$LN72@Load

; 2268 :    {
; 2269 :       zSHORT rc;
; 2270 :       zSHORT k;
; 2271 : 
; 2272 :       // Find the handle info for this LOD.
; 2273 :       for ( k = 0; lpConnection->lpHandles[ k ]; k++ )

	xor	ecx, ecx
	mov	WORD PTR _k$38[ebp], cx
	jmp	SHORT $LN7@Load
$LN5@Load:
	mov	dx, WORD PTR _k$38[ebp]
	add	dx, 1
	mov	WORD PTR _k$38[ebp], dx
$LN7@Load:
	movsx	eax, WORD PTR _k$38[ebp]
	mov	ecx, DWORD PTR _lpConnection$[ebp]
	cmp	DWORD PTR [ecx+eax*4+2820], 0
	je	SHORT $LN6@Load

; 2274 :       {
; 2275 :          if ( lpConnection->lpHandles[ k ]->lpViewOD == lpViewOD )

	movsx	edx, WORD PTR _k$38[ebp]
	mov	eax, DWORD PTR _lpConnection$[ebp]
	mov	ecx, DWORD PTR [eax+edx*4+2820]
	mov	edx, DWORD PTR [ecx]
	cmp	edx, DWORD PTR _lpViewOD$[ebp]
	jne	SHORT $LN74@Load

; 2276 :             break;

	jmp	SHORT $LN6@Load
$LN74@Load:

; 2277 :       }

	jmp	SHORT $LN5@Load
$LN6@Load:

; 2278 : 
; 2279 :       // We need to allocate handles (and other info) for each of the entities
; 2280 :       // in the LOD.  If lpHandles is 0 we need to allocate it now.
; 2281 :       if ( lpConnection->lpHandles[ k ] == 0 )

	movsx	eax, WORD PTR _k$38[ebp]
	mov	ecx, DWORD PTR _lpConnection$[ebp]
	cmp	DWORD PTR [ecx+eax*4+2820], 0
	jne	$LN75@Load

; 2282 :       {
; 2283 :          zUSHORT nLth;
; 2284 : 
; 2285 :          lpConnection->lpHandles[ k ] = malloc( sizeof( SelectHandlesRecord ) );

	push	8
	call	DWORD PTR __imp__malloc
	add	esp, 4
	movsx	edx, WORD PTR _k$38[ebp]
	mov	ecx, DWORD PTR _lpConnection$[ebp]
	mov	DWORD PTR [ecx+edx*4+2820], eax

; 2286 :          zmemset( lpConnection->lpHandles[ k ], 0, sizeof( SelectHandlesRecord ) );

	push	8
	push	0
	movsx	edx, WORD PTR _k$38[ebp]
	mov	eax, DWORD PTR _lpConnection$[ebp]
	mov	ecx, DWORD PTR [eax+edx*4+2820]
	push	ecx
	call	_memset
	add	esp, 12					; 0000000cH

; 2287 : 
; 2288 :          // It's just easier to allocate one extra record instead of worrying
; 2289 :          // about converting hier # to an offset.
; 2290 :          nLth = sizeof( EntityHandlesRecord ) * (lpViewOD->uEntities + 1);

	mov	edx, DWORD PTR _lpViewOD$[ebp]
	movzx	eax, WORD PTR [edx+234]
	add	eax, 1
	shl	eax, 5
	mov	WORD PTR _nLth$20[ebp], ax

; 2291 : 
; 2292 :          // We didn't find one so create space to store the handles.
; 2293 :          lpConnection->lpHandles[ k ]->lpViewOD = lpViewOD;

	movsx	ecx, WORD PTR _k$38[ebp]
	mov	edx, DWORD PTR _lpConnection$[ebp]
	mov	eax, DWORD PTR [edx+ecx*4+2820]
	mov	ecx, DWORD PTR _lpViewOD$[ebp]
	mov	DWORD PTR [eax], ecx

; 2294 :          lpConnection->lpHandles[ k ]->lpStmtHandles = malloc( nLth );

	movzx	edx, WORD PTR _nLth$20[ebp]
	push	edx
	call	DWORD PTR __imp__malloc
	add	esp, 4
	movsx	ecx, WORD PTR _k$38[ebp]
	mov	edx, DWORD PTR _lpConnection$[ebp]
	mov	ecx, DWORD PTR [edx+ecx*4+2820]
	mov	DWORD PTR [ecx+4], eax

; 2295 :          zmemset( lpConnection->lpHandles[ k ]->lpStmtHandles, 0, nLth );

	movzx	edx, WORD PTR _nLth$20[ebp]
	push	edx
	push	0
	movsx	eax, WORD PTR _k$38[ebp]
	mov	ecx, DWORD PTR _lpConnection$[ebp]
	mov	edx, DWORD PTR [ecx+eax*4+2820]
	mov	eax, DWORD PTR [edx+4]
	push	eax
	call	_memset
	add	esp, 12					; 0000000cH
$LN75@Load:

; 2296 :       }
; 2297 : 
; 2298 :       lpHandles    = lpConnection->lpHandles[ k ];

	movsx	ecx, WORD PTR _k$38[ebp]
	mov	edx, DWORD PTR _lpConnection$[ebp]
	mov	eax, DWORD PTR [edx+ecx*4+2820]
	mov	DWORD PTR _lpHandles$[ebp], eax

; 2299 :       lpStmtHandle = &lpHandles->lpStmtHandles[ lpViewEntity->nHierNbr ];

	mov	ecx, DWORD PTR _lpViewEntity$[ebp]
	movsx	edx, WORD PTR [ecx+217]
	shl	edx, 5
	mov	eax, DWORD PTR _lpHandles$[ebp]
	add	edx, DWORD PTR [eax+4]
	mov	DWORD PTR _lpStmtHandle$[ebp], edx

; 2300 : 
; 2301 :       // Check to see if a handle has been created for this entity.
; 2302 :       if ( lpStmtHandle->hstmt )

	mov	ecx, DWORD PTR _lpStmtHandle$[ebp]
	cmp	DWORD PTR [ecx], 0
	je	$LN76@Load

; 2303 :       {
; 2304 :          // Use the old bound list.  Free up the current one since we don't
; 2305 :          // need it anymore.
; 2306 :          SqlFreeBoundAttrList( lpBoundList );

	mov	edx, DWORD PTR _lpBoundList$[ebp]
	push	edx
	call	_SqlFreeBoundAttrList@4

; 2307 :          lpBoundList = lpStmtHandle->lpBoundList;

	mov	eax, DWORD PTR _lpStmtHandle$[ebp]
	mov	ecx, DWORD PTR [eax+24]
	mov	DWORD PTR _lpBoundList$[ebp], ecx

; 2308 : 
; 2309 :          // If we are using autoload, then we are only activating the keys,
; 2310 :          // so set the flag.
; 2311 :          if ( lpViewEntity->bAutoLoadFromParent )

	mov	edx, DWORD PTR _lpViewEntity$[ebp]
	mov	eax, DWORD PTR [edx+235]
	shr	eax, 30					; 0000001eH
	and	eax, 1
	je	SHORT $LN77@Load

; 2312 :             bKeysOnly = TRUE;

	mov	BYTE PTR _bKeysOnly$[ebp], 1
$LN77@Load:

; 2313 : 
; 2314 :          if ( lpStmtHandle->bLoadFromParent )

	mov	ecx, DWORD PTR _lpStmtHandle$[ebp]
	mov	edx, DWORD PTR [ecx+28]
	and	edx, 1
	je	SHORT $LN78@Load

; 2315 :          {
; 2316 :             // We can load this guy from the parent so do it now.
; 2317 :             nRC = SqlAutoLoadFromParent( lpView, lpViewOD, lpViewEntity,

	mov	eax, DWORD PTR _lpBoundList$[ebp]
	push	eax
	mov	ecx, DWORD PTR _lpConnection$[ebp]
	mov	edx, DWORD PTR [ecx+194]
	push	edx
	mov	eax, DWORD PTR _lpConnection$[ebp]
	mov	ecx, DWORD PTR [eax+190]
	push	ecx
	mov	edx, DWORD PTR _lpViewEntity$[ebp]
	push	edx
	mov	eax, DWORD PTR _lpViewOD$[ebp]
	push	eax
	mov	ecx, DWORD PTR _lpView$[ebp]
	push	ecx
	call	_SqlAutoLoadFromParent@24
	mov	WORD PTR _nRC$[ebp], ax

; 2318 :                                          lpConnection->lpFirstQualEntity,
; 2319 :                                          lpConnection->pchConnSqlCmd, lpBoundList );
; 2320 :             if ( nRC < 0 )

	movsx	edx, WORD PTR _nRC$[ebp]
	test	edx, edx
	jge	SHORT $LN79@Load

; 2321 :                goto EndOfFunction;

	jmp	$EndOfFunction$213
	jmp	SHORT $LN78@Load
$LN79@Load:

; 2322 :             else
; 2323 :             {
; 2324 :                nReturnCode = 0;

	xor	eax, eax
	mov	WORD PTR _nReturnCode$[ebp], ax

; 2325 :                goto EndOfFunction;

	jmp	$EndOfFunction$213
$LN78@Load:

; 2326 :             }
; 2327 :          }
; 2328 : 
; 2329 :          lpConnection->hstmt = lpStmtHandle->hstmt;

	mov	ecx, DWORD PTR _lpConnection$[ebp]
	mov	edx, DWORD PTR _lpStmtHandle$[ebp]
	mov	eax, DWORD PTR [edx]
	mov	DWORD PTR [ecx+2812], eax

; 2330 :          lpConnection->pchGlobalTableBuffer = lpStmtHandle->pchOutputBuffer;

	mov	ecx, DWORD PTR _lpConnection$[ebp]
	mov	edx, DWORD PTR _lpStmtHandle$[ebp]
	mov	eax, DWORD PTR [edx+20]
	mov	DWORD PTR [ecx+202], eax

; 2331 :          ppchBufferPtr = lpStmtHandle->ppchBufferPtr;

	mov	ecx, DWORD PTR _lpStmtHandle$[ebp]
	mov	edx, DWORD PTR [ecx+12]
	mov	DWORD PTR _ppchBufferPtr$[ebp], edx

; 2332 : 
; 2333 :          // Skip the prepare/bind step.
; 2334 :          goto ExecuteCommand;

	jmp	$ExecuteCommand$214
$LN76@Load:

; 2335 :       }
; 2336 : 
; 2337 :       // No statement handle so we must create one and prepare the SQL.
; 2338 : #if defined( DB2 )
; 2339 : 
; 2340 :       rc = SQLAllocStmt( lpConnection->hdbc, &lpStmtHandle->hstmt );
; 2341 :       SQL_RC( "SQLAllocStmt", rc, "Allocate HSTMT", 0, 2 );
; 2342 :       if ( rc != SQL_SUCCESS )
; 2343 :          goto EndOfFunction;
; 2344 : 
; 2345 : #elif defined( ODBC )
; 2346 : 
; 2347 :       rc = SQLAllocHandle( SQL_HANDLE_STMT, lpConnection->hdbc,

	mov	eax, DWORD PTR _lpStmtHandle$[ebp]
	push	eax
	mov	ecx, DWORD PTR _lpConnection$[ebp]
	mov	edx, DWORD PTR [ecx+2808]
	push	edx
	push	3
	call	_SQLAllocHandle@12
	mov	WORD PTR _rc$19[ebp], ax

; 2348 :                            &lpStmtHandle->hstmt );
; 2349 :       SQL_RC( "SQLAllocHandle", rc, "Allocate HSTMT", 0, 2 );

	mov	eax, DWORD PTR _lpConnection$[ebp]
	push	eax
	push	2
	push	0
	push	OFFSET $SG95274
	movzx	ecx, WORD PTR _rc$19[ebp]
	push	ecx
	push	OFFSET $SG95275
	call	_fnSqlRC
	add	esp, 24					; 00000018H

; 2350 :       if ( rc != SQL_SUCCESS )

	movsx	edx, WORD PTR _rc$19[ebp]
	test	edx, edx
	je	SHORT $LN81@Load

; 2351 :          goto EndOfFunction;

	jmp	$EndOfFunction$213
$LN81@Load:

; 2352 : 
; 2353 : #endif
; 2354 : 
; 2355 :       lpConnection->hstmt = lpStmtHandle->hstmt;

	mov	eax, DWORD PTR _lpConnection$[ebp]
	mov	ecx, DWORD PTR _lpStmtHandle$[ebp]
	mov	edx, DWORD PTR [ecx]
	mov	DWORD PTR [eax+2812], edx

; 2356 :    }

	jmp	SHORT $LN73@Load
$LN72@Load:

; 2357 :    else
; 2358 :       lpConnection->hstmt = lpConnection->hGeneralStmt;

	mov	eax, DWORD PTR _lpConnection$[ebp]
	mov	ecx, DWORD PTR _lpConnection$[ebp]
	mov	edx, DWORD PTR [ecx+2816]
	mov	DWORD PTR [eax+2812], edx
$LN73@Load:

; 2359 : 
; 2360 : #endif
; 2361 : 
; 2362 :    // AutoLoad:
; 2363 :    // When the parent has the imbedded keys for the child and the
; 2364 :    // only attributes in the child are those imbedded keys.
; 2365 :    // Autoload is defined (for Phil) from the object for performance reasons.
; 2366 :    if ( lpViewEntity->bAutoLoadFromParent )

	mov	eax, DWORD PTR _lpViewEntity$[ebp]
	mov	ecx, DWORD PTR [eax+235]
	shr	ecx, 30					; 0000001eH
	and	ecx, 1
	je	$LN82@Load

; 2367 :    {
; 2368 :       if ( lpConnection->nTraceLevel > 1 )

	mov	edx, DWORD PTR _lpConnection$[ebp]
	movsx	eax, WORD PTR [edx+214]
	cmp	eax, 1
	jle	SHORT $LN84@Load

; 2369 :       {
; 2370 :          TraceLineS( "", "" );

	push	OFFSET $SG95280
	push	OFFSET $SG95281
	call	_TraceLineS@8

; 2371 :          TraceLineS( "Loading entity from parent using AutoLoadFromParent; ",

	push	OFFSET $SG95282
	push	OFFSET $SG95283
	call	_TraceLineS@8

; 2372 :                      "SQL might not be needed." );
; 2373 :          TraceLineS( "Entity name = ", lpViewEntity->szName );

	mov	ecx, DWORD PTR _lpViewEntity$[ebp]
	add	ecx, 14					; 0000000eH
	push	ecx
	push	OFFSET $SG95284
	call	_TraceLineS@8
$LN84@Load:

; 2374 :       }
; 2375 : 
; 2376 :       // Return codes from SqlAutoLoadFromParent are:
; 2377 :       //    0 - Nothing done. Perform normal SQL code.
; 2378 :       //    1 - Entity created using info from parent.
; 2379 :       //    2 - A SQL command was created and needs to be executed.  In this
; 2380 :       //        case only the keys need to be loaded for the entity.
; 2381 :       nRC = SqlAutoLoadFromParent( lpView, lpViewOD, lpViewEntity,

	mov	edx, DWORD PTR _lpBoundList$[ebp]
	push	edx
	mov	eax, DWORD PTR _lpConnection$[ebp]
	mov	ecx, DWORD PTR [eax+194]
	push	ecx
	mov	edx, DWORD PTR _lpConnection$[ebp]
	mov	eax, DWORD PTR [edx+190]
	push	eax
	mov	ecx, DWORD PTR _lpViewEntity$[ebp]
	push	ecx
	mov	edx, DWORD PTR _lpViewOD$[ebp]
	push	edx
	mov	eax, DWORD PTR _lpView$[ebp]
	push	eax
	call	_SqlAutoLoadFromParent@24
	mov	WORD PTR _nRC$[ebp], ax

; 2382 :                                    lpConnection->lpFirstQualEntity,
; 2383 :                                    lpConnection->pchConnSqlCmd, lpBoundList );
; 2384 :       if ( nRC < 0 )

	movsx	ecx, WORD PTR _nRC$[ebp]
	test	ecx, ecx
	jge	SHORT $LN85@Load

; 2385 :          goto EndOfFunction;

	jmp	$EndOfFunction$213
	jmp	$LN86@Load
$LN85@Load:

; 2386 :       else
; 2387 :       if ( nRC == 0 )

	movsx	edx, WORD PTR _nRC$[ebp]
	test	edx, edx
	jne	SHORT $LN87@Load

; 2388 :       {
; 2389 :          nRC = SqlBuildSelect( lpView, lpViewOD, lpViewEntity,

	mov	eax, DWORD PTR _lpBoundList$[ebp]
	push	eax
	mov	ecx, DWORD PTR _lpConnection$[ebp]
	mov	edx, DWORD PTR [ecx+194]
	push	edx
	mov	eax, DWORD PTR _lpConnection$[ebp]
	mov	ecx, DWORD PTR [eax+190]
	push	ecx
	mov	edx, DWORD PTR _lpViewEntity$[ebp]
	push	edx
	mov	eax, DWORD PTR _lpViewOD$[ebp]
	push	eax
	mov	ecx, DWORD PTR _lpView$[ebp]
	push	ecx
	call	_SqlBuildSelect@24
	mov	WORD PTR _nRC$[ebp], ax

; 2390 :                                lpConnection->lpFirstQualEntity,
; 2391 :                                lpConnection->pchConnSqlCmd, lpBoundList );
; 2392 :          if ( nRC == zCALL_ERROR )

	movsx	edx, WORD PTR _nRC$[ebp]
	cmp	edx, -16				; fffffff0H
	jne	SHORT $LN89@Load

; 2393 :             goto EndOfFunction;

	jmp	$EndOfFunction$213
$LN89@Load:

; 2394 :       }

	jmp	SHORT $LN86@Load
$LN87@Load:

; 2395 :       else
; 2396 :       if ( nRC == 1 )

	movsx	eax, WORD PTR _nRC$[ebp]
	cmp	eax, 1
	jne	SHORT $LN90@Load

; 2397 :       {
; 2398 :          nReturnCode = 0;

	xor	ecx, ecx
	mov	WORD PTR _nReturnCode$[ebp], cx

; 2399 : 
; 2400 : #if defined( DB2 ) || defined( ODBC )
; 2401 :          // We have to indicate that this entity is loaded from the parent
; 2402 :          // instead of the database.
; 2403 :          if ( g_bHoldStmtHandles )

	movzx	edx, BYTE PTR _g_bHoldStmtHandles
	test	edx, edx
	je	SHORT $LN92@Load

; 2404 :          {
; 2405 :             lpStmtHandle->bLoadFromParent = TRUE;

	mov	eax, DWORD PTR _lpStmtHandle$[ebp]
	mov	ecx, DWORD PTR [eax+28]
	or	ecx, 1
	mov	edx, DWORD PTR _lpStmtHandle$[ebp]
	mov	DWORD PTR [edx+28], ecx

; 2406 :             lpStmtHandle->lpBoundList = lpBoundList;

	mov	eax, DWORD PTR _lpStmtHandle$[ebp]
	mov	ecx, DWORD PTR _lpBoundList$[ebp]
	mov	DWORD PTR [eax+24], ecx
$LN92@Load:

; 2407 :          }
; 2408 : #endif
; 2409 : 
; 2410 :          goto EndOfFunction;

	jmp	$EndOfFunction$213

; 2411 :       }

	jmp	SHORT $LN86@Load
$LN90@Load:

; 2412 :       else
; 2413 :       if ( nRC == 2 )

	movsx	edx, WORD PTR _nRC$[ebp]
	cmp	edx, 2
	jne	SHORT $LN86@Load

; 2414 :       {
; 2415 :          bKeysOnly = TRUE;

	mov	BYTE PTR _bKeysOnly$[ebp], 1

; 2416 :          nRC = 0;

	xor	eax, eax
	mov	WORD PTR _nRC$[ebp], ax
$LN86@Load:

; 2417 :       }
; 2418 :    }

	jmp	SHORT $LN83@Load
$LN82@Load:

; 2419 :    else
; 2420 :    {
; 2421 :       nRC = SqlBuildSelect( lpView, lpViewOD, lpViewEntity,

	mov	ecx, DWORD PTR _lpBoundList$[ebp]
	push	ecx
	mov	edx, DWORD PTR _lpConnection$[ebp]
	mov	eax, DWORD PTR [edx+194]
	push	eax
	mov	ecx, DWORD PTR _lpConnection$[ebp]
	mov	edx, DWORD PTR [ecx+190]
	push	edx
	mov	eax, DWORD PTR _lpViewEntity$[ebp]
	push	eax
	mov	ecx, DWORD PTR _lpViewOD$[ebp]
	push	ecx
	mov	edx, DWORD PTR _lpView$[ebp]
	push	edx
	call	_SqlBuildSelect@24
	mov	WORD PTR _nRC$[ebp], ax

; 2422 :                             lpConnection->lpFirstQualEntity,
; 2423 :                             lpConnection->pchConnSqlCmd, lpBoundList );
; 2424 :       if ( nRC == zCALL_ERROR )

	movsx	eax, WORD PTR _nRC$[ebp]
	cmp	eax, -16				; fffffff0H
	jne	SHORT $LN83@Load

; 2425 :          goto EndOfFunction;

	jmp	$EndOfFunction$213
$LN83@Load:

; 2426 :    }
; 2427 : 
; 2428 :    // If the '2' bit is set then multiple tables where joined together.
; 2429 :    nRC &= ~((zSHORT) 0x0002); // turn off the join flag

	movsx	ecx, WORD PTR _nRC$[ebp]
	and	ecx, -3					; fffffffdH
	mov	WORD PTR _nRC$[ebp], cx

; 2430 : 
; 2431 :    // If nRC == 1, then some of the foreign keys are null, which means that
; 2432 :    // there are no children.
; 2433 : 
; 2434 : #if defined( DB2 ) || defined( ODBC )
; 2435 : 
; 2436 :    // If we're holding on to stmt handles we will ignore the nRC == 1 return
; 2437 :    // code because we still want to prepare the stmt for later use.
; 2438 :    if ( nRC == 1 && g_bHoldStmtHandles )

	movsx	edx, WORD PTR _nRC$[ebp]
	cmp	edx, 1
	jne	SHORT $LN95@Load
	movzx	eax, BYTE PTR _g_bHoldStmtHandles
	test	eax, eax
	je	SHORT $LN95@Load

; 2439 :       nRC = 0;

	xor	ecx, ecx
	mov	WORD PTR _nRC$[ebp], cx
$LN95@Load:

; 2440 : 
; 2441 : #endif
; 2442 : 
; 2443 :    if ( nRC == 1 )

	movsx	edx, WORD PTR _nRC$[ebp]
	cmp	edx, 1
	jne	SHORT $LN96@Load

; 2444 :    {
; 2445 :       if ( lpConnection->nTraceLevel > 1 )

	mov	eax, DWORD PTR _lpConnection$[ebp]
	movsx	ecx, WORD PTR [eax+214]
	cmp	ecx, 1
	jle	SHORT $LN97@Load

; 2446 :       {
; 2447 :          TraceLineS( "Foreign key is null, so following command was not ",

	push	OFFSET $SG95298
	push	OFFSET $SG95299
	call	_TraceLineS@8

; 2448 :                      "executed." );
; 2449 :          SqlDisplayCommand( lpConnection->pchConnSqlCmd, 0 );

	push	0
	mov	edx, DWORD PTR _lpConnection$[ebp]
	mov	eax, DWORD PTR [edx+194]
	push	eax
	call	_SqlDisplayCommand@8

; 2450 :          TraceLineI( "Number of rows selected = ", (zLONG) 0 );

	push	0
	push	OFFSET $SG95300
	call	_TraceLineI@8
$LN97@Load:

; 2451 :       }
; 2452 : 
; 2453 :       nReturnCode = 0;

	xor	ecx, ecx
	mov	WORD PTR _nReturnCode$[ebp], cx

; 2454 :       goto EndOfFunction;

	jmp	$EndOfFunction$213
$LN96@Load:

; 2455 :    }
; 2456 : 
; 2457 :    // Check to see if the current select was built using OpenSQL.
; 2458 :    if ( lpQualEntity && lpQualEntity->pszOpenSQL )

	cmp	DWORD PTR _lpQualEntity$[ebp], 0
	je	SHORT $LN98@Load
	mov	edx, DWORD PTR _lpQualEntity$[ebp]
	cmp	DWORD PTR [edx+16], 0
	je	SHORT $LN98@Load

; 2459 :       bOpenSQL = TRUE;

	mov	BYTE PTR _bOpenSQL$[ebp], 1
$LN98@Load:

; 2460 : 
; 2461 :    // ================================================================
; 2462 :    // Set up incoming buffer area.
; 2463 :    // ================================================================
; 2464 : 
; 2465 :    // First get the attribute lengths.
; 2466 :    LoopInfo.bOpenSQL          = bOpenSQL;

	mov	al, BYTE PTR _bOpenSQL$[ebp]
	mov	BYTE PTR _LoopInfo$[ebp], al

; 2467 :    LoopInfo.bKeysOnly         = bKeysOnly;

	mov	cl, BYTE PTR _bKeysOnly$[ebp]
	mov	BYTE PTR _LoopInfo$[ebp+1], cl

; 2468 :    LoopInfo.bFirstPass        = TRUE;

	mov	BYTE PTR _LoopInfo$[ebp+32], 1

; 2469 :    LoopInfo.lpQualEntity      = lpQualEntity;

	mov	edx, DWORD PTR _lpQualEntity$[ebp]
	mov	DWORD PTR _LoopInfo$[ebp+4], edx

; 2470 :    LoopInfo.lpFirstQualEntity = lpConnection->lpFirstQualEntity;

	mov	eax, DWORD PTR _lpConnection$[ebp]
	mov	ecx, DWORD PTR [eax+190]
	mov	DWORD PTR _LoopInfo$[ebp+8], ecx

; 2471 :    LoopInfo.lpViewEntity      = lpViewEntity;

	mov	edx, DWORD PTR _lpViewEntity$[ebp]
	mov	DWORD PTR _LoopInfo$[ebp+12], edx

; 2472 :    LoopInfo.lpDataField       = 0;

	mov	DWORD PTR _LoopInfo$[ebp+20], 0

; 2473 :    LoopInfo.lControl          = Indicators;

	mov	eax, DWORD PTR _Indicators$[ebp]
	mov	DWORD PTR _LoopInfo$[ebp+24], eax

; 2474 :    LoopInfo.lpBoundList       = lpBoundList;

	mov	ecx, DWORD PTR _lpBoundList$[ebp]
	mov	DWORD PTR _LoopInfo$[ebp+28], ecx

; 2475 :    nColumnCnt                 = 0;

	xor	edx, edx
	mov	WORD PTR _nColumnCnt$[ebp], dx

; 2476 :    ulTotalLth                 = 0;

	mov	DWORD PTR _ulTotalLth$[ebp], 0

; 2477 : 
; 2478 :    for ( lpDataField = fnGetNextDataField( &LoopInfo );

	lea	eax, DWORD PTR _LoopInfo$[ebp]
	push	eax
	call	_fnGetNextDataField@4
	mov	DWORD PTR _lpDataField$[ebp], eax
	jmp	SHORT $LN10@Load
$LN8@Load:

; 2480 :          lpDataField = fnGetNextDataField( &LoopInfo ) )

	lea	ecx, DWORD PTR _LoopInfo$[ebp]
	push	ecx
	call	_fnGetNextDataField@4
	mov	DWORD PTR _lpDataField$[ebp], eax
$LN10@Load:

; 2479 :          lpDataField;

	cmp	DWORD PTR _lpDataField$[ebp], 0
	je	$LN9@Load

; 2481 :    {
; 2482 :       lpViewAttrib = zGETPTR( lpDataField->hViewAttrib );

	mov	edx, DWORD PTR _lpDataField$[ebp]
	mov	eax, DWORD PTR [edx+6]
	push	eax
	call	_SysGetPointerFromHandle@4
	mov	DWORD PTR _lpViewAttrib$[ebp], eax

; 2483 :       nColumnCnt++;

	mov	cx, WORD PTR _nColumnCnt$[ebp]
	add	cx, 1
	mov	WORD PTR _nColumnCnt$[ebp], cx

; 2484 : 
; 2485 :       // ================================================================
; 2486 :       // Get column length.
; 2487 :       // ================================================================
; 2488 : 
; 2489 : #if defined( DB2 ) || defined( ODBC )
; 2490 :       {
; 2491 :       SWORD        fSqlType;
; 2492 :       UDWORD       ulLth;
; 2493 : 
; 2494 :       // We need space for the incoming length.
; 2495 :       ulTotalLth += sizeof( SQLINTEGER );

	mov	edx, DWORD PTR _ulTotalLth$[ebp]
	add	edx, 4
	mov	DWORD PTR _ulTotalLth$[ebp], edx

; 2496 : 
; 2497 :       switch ( lpViewAttrib->cType )

	mov	eax, DWORD PTR _lpViewAttrib$[ebp]
	movsx	ecx, BYTE PTR [eax+202]
	mov	DWORD PTR tv521[ebp], ecx
	mov	edx, DWORD PTR tv521[ebp]
	sub	edx, 66					; 00000042H
	mov	DWORD PTR tv521[ebp], edx
	cmp	DWORD PTR tv521[ebp], 22		; 00000016H
	ja	$LN107@Load
	mov	eax, DWORD PTR tv521[ebp]
	movzx	ecx, BYTE PTR $LN207@Load[eax]
	jmp	DWORD PTR $LN210@Load[ecx*4]
$LN99@Load:

; 2498 :       {
; 2499 :          case zTYPE_BLOB:
; 2500 : #if defined( ODBC )
; 2501 :             // We don't want to bind blobs because we are going to use
; 2502 :             // SQLGetData( ) to retrieve the data.
; 2503 :             continue;

	jmp	$LN8@Load

; 2504 : #else
; 2505 :             fSqlType = SQL_C_BLOB_LOCATOR;
; 2506 : #endif
; 2507 :             ulLth = sizeof( SQLINTEGER );

	mov	DWORD PTR _ulLth$22[ebp], 4

; 2508 :             break;

	jmp	$LN11@Load
$LN100@Load:

; 2509 : 
; 2510 :          case zTYPE_DATETIME:
; 2511 :          case zTYPE_TIME:
; 2512 :          case zTYPE_DATE:
; 2513 :             fSqlType = SQL_C_CHAR;

	mov	edx, 1
	mov	WORD PTR _fSqlType$28[ebp], dx

; 2514 :             ulLth = CONVERSION_AREA_LTH; // We'll retrieve the date as a string

	mov	DWORD PTR _ulLth$22[ebp], 100		; 00000064H

; 2515 :                                          // and then convert it.
; 2516 :             break;

	jmp	$LN11@Load
$LN101@Load:

; 2517 : 
; 2518 :          case 'X':
; 2519 :             // TimeStampEx.
; 2520 :             fSqlType = SQL_C_CHAR;

	mov	eax, 1
	mov	WORD PTR _fSqlType$28[ebp], ax

; 2521 :             ulLth = CONVERSION_AREA_LTH;

	mov	DWORD PTR _ulLth$22[ebp], 100		; 00000064H

; 2522 :             break;

	jmp	$LN11@Load
$LN102@Load:

; 2523 : 
; 2524 :          case zTYPE_INTEGER:
; 2525 :             fSqlType = SQL_C_SLONG;

	mov	ecx, -16				; fffffff0H
	mov	WORD PTR _fSqlType$28[ebp], cx

; 2526 :             ulLth = sizeof( zLONG );

	mov	DWORD PTR _ulLth$22[ebp], 4

; 2527 :             break;

	jmp	$LN11@Load
$LN103@Load:

; 2528 : 
; 2529 :          case zTYPE_DECIMAL:
; 2530 :             fSqlType = SQL_C_CHAR;

	mov	edx, 1
	mov	WORD PTR _fSqlType$28[ebp], dx

; 2531 :             ulLth = CONVERSION_AREA_LTH; // We'll retrieve the date as a string

	mov	DWORD PTR _ulLth$22[ebp], 100		; 00000064H

; 2532 :                                          // and then convert it.
; 2533 :             break;

	jmp	SHORT $LN11@Load
$LN104@Load:

; 2534 : 
; 2535 :          case zTYPE_STRING:
; 2536 :             switch ( lpDataField->cFldType )

	mov	eax, DWORD PTR _lpDataField$[ebp]
	mov	cl, BYTE PTR [eax+270]
	mov	BYTE PTR tv524[ebp], cl
	cmp	BYTE PTR tv524[ebp], 86			; 00000056H
	je	SHORT $LN105@Load
	jmp	SHORT $LN106@Load
$LN105@Load:

; 2537 :             {
; 2538 :                case 'V':
; 2539 : #if defined( DB2 )
; 2540 :                   fSqlType = SQL_C_CLOB_LOCATOR;
; 2541 :                   ulLth = sizeof( SQLINTEGER );
; 2542 : #else
; 2543 :                   // We don't want to bind varchar because we are going to use
; 2544 :                   // SQLGetData( ) to retrieve the data.
; 2545 :                   continue;

	jmp	$LN8@Load

; 2546 : #endif
; 2547 :                   break;

	jmp	SHORT $LN13@Load
$LN106@Load:

; 2548 : 
; 2549 :                default:
; 2550 :                   fSqlType = SQL_C_CHAR;

	mov	edx, 1
	mov	WORD PTR _fSqlType$28[ebp], dx

; 2551 :                   ulLth = lpDataField->uFldLth + 1;

	mov	eax, DWORD PTR _lpDataField$[ebp]
	movzx	ecx, WORD PTR [eax+271]
	add	ecx, 1
	mov	DWORD PTR _ulLth$22[ebp], ecx
$LN13@Load:

; 2552 :                   break;
; 2553 :             }
; 2554 : 
; 2555 :             break;

	jmp	SHORT $LN11@Load
$LN107@Load:

; 2556 : 
; 2557 :          default:
; 2558 :             DBH_Error(lpView, "Unknown Data Type", 0, 0 );

	push	0
	push	0
	push	OFFSET $SG95311
	mov	edx, DWORD PTR _lpView$[ebp]
	push	edx
	call	_DBH_Error
	add	esp, 16					; 00000010H

; 2559 :             nRC = zCALL_ERROR;

	mov	eax, -16				; fffffff0H
	mov	WORD PTR _nRC$[ebp], ax
$LN11@Load:

; 2560 :             break;
; 2561 :       }
; 2562 : 
; 2563 :       ulTotalLth += ulLth;

	mov	ecx, DWORD PTR _ulTotalLth$[ebp]
	add	ecx, DWORD PTR _ulLth$22[ebp]
	mov	DWORD PTR _ulTotalLth$[ebp], ecx

; 2564 : 
; 2565 :       }
; 2566 : 
; 2567 : #endif
; 2568 : 
; 2569 :    } // for ( lpDataField )...

	jmp	$LN8@Load
$LN9@Load:

; 2570 : 
; 2571 :    // Allocate the buffer.
; 2572 : #if defined( DB2 ) || defined( ODBC )
; 2573 : 
; 2574 :    if ( g_bHoldStmtHandles )

	movzx	edx, BYTE PTR _g_bHoldStmtHandles
	test	edx, edx
	je	$LN108@Load

; 2575 :    {
; 2576 :       // We need to add one more to column count to account for the difference
; 2577 :       // between the count and offsets.
; 2578 :       nColumnCnt++;

	mov	ax, WORD PTR _nColumnCnt$[ebp]
	add	ax, 1
	mov	WORD PTR _nColumnCnt$[ebp], ax

; 2579 : 
; 2580 :       lpStmtHandle->pchOutputBuffer = malloc( ulTotalLth + 1 );

	mov	ecx, DWORD PTR _ulTotalLth$[ebp]
	add	ecx, 1
	push	ecx
	call	DWORD PTR __imp__malloc
	add	esp, 4
	mov	edx, DWORD PTR _lpStmtHandle$[ebp]
	mov	DWORD PTR [edx+20], eax

; 2581 :       lpConnection->pchGlobalTableBuffer = lpStmtHandle->pchOutputBuffer;

	mov	eax, DWORD PTR _lpConnection$[ebp]
	mov	ecx, DWORD PTR _lpStmtHandle$[ebp]
	mov	edx, DWORD PTR [ecx+20]
	mov	DWORD PTR [eax+202], edx

; 2582 :       lpStmtHandle->ppchBufferPtr = malloc( sizeof( zPCHAR ) * nColumnCnt );

	movsx	eax, WORD PTR _nColumnCnt$[ebp]
	shl	eax, 2
	push	eax
	call	DWORD PTR __imp__malloc
	add	esp, 4
	mov	ecx, DWORD PTR _lpStmtHandle$[ebp]
	mov	DWORD PTR [ecx+12], eax

; 2583 :       ppchBufferPtr = lpStmtHandle->ppchBufferPtr;

	mov	edx, DWORD PTR _lpStmtHandle$[ebp]
	mov	eax, DWORD PTR [edx+12]
	mov	DWORD PTR _ppchBufferPtr$[ebp], eax

; 2584 :       zmemset( ppchBufferPtr, 0, sizeof( zPCHAR ) * nColumnCnt );

	movsx	ecx, WORD PTR _nColumnCnt$[ebp]
	shl	ecx, 2
	push	ecx
	push	0
	mov	edx, DWORD PTR _ppchBufferPtr$[ebp]
	push	edx
	call	_memset
	add	esp, 12					; 0000000cH

; 2585 :       lpStmtHandle->lpBoundList = lpBoundList;

	mov	eax, DWORD PTR _lpStmtHandle$[ebp]
	mov	ecx, DWORD PTR _lpBoundList$[ebp]
	mov	DWORD PTR [eax+24], ecx
$LN108@Load:

; 2586 :    }
; 2587 : #endif
; 2588 : 
; 2589 :    // ================================================================
; 2590 :    // Compile/prepare SQL.
; 2591 :    // ================================================================
; 2592 : 
; 2593 : #if defined( DB2 ) || defined( ODBC )
; 2594 : 
; 2595 :    nRC = SQLPrepare( lpConnection->hstmt, lpConnection->pchConnSqlCmd, SQL_NTS );

	push	-3					; fffffffdH
	mov	edx, DWORD PTR _lpConnection$[ebp]
	mov	eax, DWORD PTR [edx+194]
	push	eax
	mov	ecx, DWORD PTR _lpConnection$[ebp]
	mov	edx, DWORD PTR [ecx+2812]
	push	edx
	call	_SQLPrepare@12
	mov	WORD PTR _nRC$[ebp], ax

; 2596 :    DisplayCommand( "SQLPrepare", nRC, lpConnection );

	mov	eax, DWORD PTR _lpConnection$[ebp]
	push	eax
	movzx	ecx, WORD PTR _nRC$[ebp]
	push	ecx
	push	OFFSET $SG95313
	call	_DisplayCommand
	add	esp, 12					; 0000000cH

; 2597 :    if ( nRC != SQL_SUCCESS )

	movsx	edx, WORD PTR _nRC$[ebp]
	test	edx, edx
	je	SHORT $LN109@Load

; 2598 :       goto EndOfFunction;

	jmp	$EndOfFunction$213
$LN109@Load:

; 2599 : 
; 2600 : #elif defined( DUMMY )
; 2601 : 
; 2602 :    DisplayCommand( "Compile SQL", nRC, lpConnection );
; 2603 :    if ( nRC )
; 2604 :       goto EndOfFunction;
; 2605 : 
; 2606 : #endif
; 2607 : 
; 2608 :    // Set the select buffer for each data field.
; 2609 :    LoopInfo.bOpenSQL          = bOpenSQL;

	mov	al, BYTE PTR _bOpenSQL$[ebp]
	mov	BYTE PTR _LoopInfo$[ebp], al

; 2610 :    LoopInfo.bKeysOnly         = bKeysOnly;

	mov	cl, BYTE PTR _bKeysOnly$[ebp]
	mov	BYTE PTR _LoopInfo$[ebp+1], cl

; 2611 :    LoopInfo.bFirstPass        = TRUE;

	mov	BYTE PTR _LoopInfo$[ebp+32], 1

; 2612 :    LoopInfo.lpQualEntity      = lpQualEntity;

	mov	edx, DWORD PTR _lpQualEntity$[ebp]
	mov	DWORD PTR _LoopInfo$[ebp+4], edx

; 2613 :    LoopInfo.lpFirstQualEntity = lpConnection->lpFirstQualEntity;

	mov	eax, DWORD PTR _lpConnection$[ebp]
	mov	ecx, DWORD PTR [eax+190]
	mov	DWORD PTR _LoopInfo$[ebp+8], ecx

; 2614 :    LoopInfo.lpViewEntity      = lpViewEntity;

	mov	edx, DWORD PTR _lpViewEntity$[ebp]
	mov	DWORD PTR _LoopInfo$[ebp+12], edx

; 2615 :    LoopInfo.lpDataField       = 0;

	mov	DWORD PTR _LoopInfo$[ebp+20], 0

; 2616 :    LoopInfo.lControl          = Indicators;

	mov	eax, DWORD PTR _Indicators$[ebp]
	mov	DWORD PTR _LoopInfo$[ebp+24], eax

; 2617 :    LoopInfo.lpBoundList       = lpBoundList;

	mov	ecx, DWORD PTR _lpBoundList$[ebp]
	mov	DWORD PTR _LoopInfo$[ebp+28], ecx

; 2618 :    nColumnCnt = 0;

	xor	edx, edx
	mov	WORD PTR _nColumnCnt$[ebp], dx

; 2619 :    lpPtr        = lpConnection->pchGlobalTableBuffer;

	mov	eax, DWORD PTR _lpConnection$[ebp]
	mov	ecx, DWORD PTR [eax+202]
	mov	DWORD PTR _lpPtr$[ebp], ecx

; 2620 : 
; 2621 :    for ( lpDataField = fnGetNextDataField( &LoopInfo );

	lea	edx, DWORD PTR _LoopInfo$[ebp]
	push	edx
	call	_fnGetNextDataField@4
	mov	DWORD PTR _lpDataField$[ebp], eax
	jmp	SHORT $LN17@Load
$LN15@Load:

; 2623 :          lpDataField = fnGetNextDataField( &LoopInfo ) )

	lea	eax, DWORD PTR _LoopInfo$[ebp]
	push	eax
	call	_fnGetNextDataField@4
	mov	DWORD PTR _lpDataField$[ebp], eax
$LN17@Load:

; 2622 :          lpDataField;

	cmp	DWORD PTR _lpDataField$[ebp], 0
	je	$LN16@Load

; 2624 :    {
; 2625 :       lpViewAttrib = zGETPTR( lpDataField->hViewAttrib );

	mov	ecx, DWORD PTR _lpDataField$[ebp]
	mov	edx, DWORD PTR [ecx+6]
	push	edx
	call	_SysGetPointerFromHandle@4
	mov	DWORD PTR _lpViewAttrib$[ebp], eax

; 2626 :       nColumnCnt++;

	mov	ax, WORD PTR _nColumnCnt$[ebp]
	add	ax, 1
	mov	WORD PTR _nColumnCnt$[ebp], ax

; 2627 : 
; 2628 :       // ================================================================
; 2629 :       // Bind columns.
; 2630 :       // ================================================================
; 2631 : 
; 2632 : #if defined( DB2 ) || defined( ODBC )
; 2633 :       {
; 2634 :       SWORD        fSqlType;
; 2635 :       UDWORD       ulLth;
; 2636 :       zPCHAR       lpDataPtr;
; 2637 : 
; 2638 :       ppchBufferPtr[ nColumnCnt ] = lpPtr;

	movsx	ecx, WORD PTR _nColumnCnt$[ebp]
	mov	edx, DWORD PTR _ppchBufferPtr$[ebp]
	mov	eax, DWORD PTR _lpPtr$[ebp]
	mov	DWORD PTR [edx+ecx*4], eax

; 2639 : 
; 2640 :       // lpDataPtr points to the area that is to hold the data returned from
; 2641 :       // the database.
; 2642 :       lpDataPtr = lpPtr + sizeof( SQLINTEGER );

	mov	ecx, DWORD PTR _lpPtr$[ebp]
	add	ecx, 4
	mov	DWORD PTR _lpDataPtr$7[ebp], ecx

; 2643 :       *(SQLINTEGER *) lpPtr = 0;

	mov	edx, DWORD PTR _lpPtr$[ebp]
	mov	DWORD PTR [edx], 0

; 2644 : 
; 2645 :       switch ( lpViewAttrib->cType )

	mov	eax, DWORD PTR _lpViewAttrib$[ebp]
	movsx	ecx, BYTE PTR [eax+202]
	mov	DWORD PTR tv593[ebp], ecx
	mov	edx, DWORD PTR tv593[ebp]
	sub	edx, 66					; 00000042H
	mov	DWORD PTR tv593[ebp], edx
	cmp	DWORD PTR tv593[ebp], 22		; 00000016H
	ja	$LN118@Load
	mov	eax, DWORD PTR tv593[ebp]
	movzx	ecx, BYTE PTR $LN208@Load[eax]
	jmp	DWORD PTR $LN211@Load[ecx*4]
$LN110@Load:

; 2646 :       {
; 2647 :          case zTYPE_BLOB:
; 2648 : #if defined( ODBC )
; 2649 :             // We don't want to bind blobs because we are going to use
; 2650 :             // SQLGetData( ) to retrieve the data.
; 2651 :             continue;

	jmp	$LN15@Load

; 2652 : #else
; 2653 :             fSqlType = SQL_C_BLOB_LOCATOR;
; 2654 : #endif
; 2655 :             ulLth = sizeof( SQLINTEGER );

	mov	DWORD PTR _ulLth$26[ebp], 4

; 2656 :             break;

	jmp	$LN18@Load
$LN111@Load:

; 2657 : 
; 2658 :          case zTYPE_DATETIME:
; 2659 :          case zTYPE_TIME:
; 2660 :          case zTYPE_DATE:
; 2661 :             fSqlType = SQL_C_CHAR;

	mov	edx, 1
	mov	WORD PTR _fSqlType$35[ebp], dx

; 2662 :             ulLth = CONVERSION_AREA_LTH; // We'll store the date as a string

	mov	DWORD PTR _ulLth$26[ebp], 100		; 00000064H

; 2663 :                                          // and then convert it.
; 2664 :             break;

	jmp	$LN18@Load
$LN112@Load:

; 2665 : 
; 2666 :          case 'X':
; 2667 :             // TimeStampEx.
; 2668 :             fSqlType = SQL_C_CHAR;

	mov	eax, 1
	mov	WORD PTR _fSqlType$35[ebp], ax

; 2669 :             ulLth = CONVERSION_AREA_LTH;

	mov	DWORD PTR _ulLth$26[ebp], 100		; 00000064H

; 2670 :             break;

	jmp	$LN18@Load
$LN113@Load:

; 2671 : 
; 2672 :          case zTYPE_INTEGER:
; 2673 :             fSqlType = SQL_C_SLONG;

	mov	ecx, -16				; fffffff0H
	mov	WORD PTR _fSqlType$35[ebp], cx

; 2674 :             ulLth = sizeof( zLONG );

	mov	DWORD PTR _ulLth$26[ebp], 4

; 2675 :             break;

	jmp	$LN18@Load
$LN114@Load:

; 2676 : 
; 2677 :          case zTYPE_DECIMAL:
; 2678 :             fSqlType = SQL_C_CHAR;

	mov	edx, 1
	mov	WORD PTR _fSqlType$35[ebp], dx

; 2679 :             ulLth = CONVERSION_AREA_LTH; // We'll retrieve the decimal as a

	mov	DWORD PTR _ulLth$26[ebp], 100		; 00000064H

; 2680 :                                          // string and then convert it.
; 2681 :             break;

	jmp	SHORT $LN18@Load
$LN115@Load:

; 2682 : 
; 2683 :          case zTYPE_STRING:
; 2684 :             switch ( lpDataField->cFldType )

	mov	eax, DWORD PTR _lpDataField$[ebp]
	mov	cl, BYTE PTR [eax+270]
	mov	BYTE PTR tv596[ebp], cl
	cmp	BYTE PTR tv596[ebp], 86			; 00000056H
	je	SHORT $LN116@Load
	jmp	SHORT $LN117@Load
$LN116@Load:

; 2685 :             {
; 2686 :                case 'V':
; 2687 : #if defined( DB2 )
; 2688 :                   fSqlType = SQL_C_CLOB_LOCATOR;
; 2689 :                   ulLth = sizeof( SQLINTEGER );
; 2690 : #else
; 2691 :                   // We don't want to bind varchar because we are going to use
; 2692 :                   // SQLGetData( ) to retrieve the data.
; 2693 :                   continue;

	jmp	$LN15@Load

; 2694 : #endif
; 2695 :                   break;

	jmp	SHORT $LN20@Load
$LN117@Load:

; 2696 : 
; 2697 :                default:
; 2698 :                   fSqlType = SQL_C_CHAR;

	mov	edx, 1
	mov	WORD PTR _fSqlType$35[ebp], dx

; 2699 :                   ulLth = lpDataField->uFldLth + 1;

	mov	eax, DWORD PTR _lpDataField$[ebp]
	movzx	ecx, WORD PTR [eax+271]
	add	ecx, 1
	mov	DWORD PTR _ulLth$26[ebp], ecx
$LN20@Load:

; 2700 :                   break;
; 2701 :             }
; 2702 : 
; 2703 :             break;

	jmp	SHORT $LN18@Load
$LN118@Load:

; 2704 : 
; 2705 :          default:
; 2706 :             DBH_Error(lpView, "Unknown Data Type", 0, 0 );

	push	0
	push	0
	push	OFFSET $SG95324
	mov	edx, DWORD PTR _lpView$[ebp]
	push	edx
	call	_DBH_Error
	add	esp, 16					; 00000010H

; 2707 :             nRC = zCALL_ERROR;

	mov	eax, -16				; fffffff0H
	mov	WORD PTR _nRC$[ebp], ax
$LN18@Load:

; 2708 :             break;
; 2709 :       }
; 2710 : 
; 2711 : 
; 2712 :       nRC = SQLBindCol( lpConnection->hstmt, nColumnCnt, fSqlType,

	mov	ecx, DWORD PTR _lpPtr$[ebp]
	push	ecx
	mov	edx, DWORD PTR _ulLth$26[ebp]
	push	edx
	mov	eax, DWORD PTR _lpDataPtr$7[ebp]
	push	eax
	movzx	ecx, WORD PTR _fSqlType$35[ebp]
	push	ecx
	movzx	edx, WORD PTR _nColumnCnt$[ebp]
	push	edx
	mov	eax, DWORD PTR _lpConnection$[ebp]
	mov	ecx, DWORD PTR [eax+2812]
	push	ecx
	call	_SQLBindCol@24
	mov	WORD PTR _nRC$[ebp], ax

; 2713 :                         (SQLPOINTER) lpDataPtr,
; 2714 :                         ulLth, (SQLINTEGER *) lpPtr );
; 2715 :       SQL_RC( "SQLBindCol", nRC, "Attr = ", lpViewAttrib->szName, 2 );

	mov	edx, DWORD PTR _lpConnection$[ebp]
	push	edx
	push	2
	mov	eax, DWORD PTR _lpViewAttrib$[ebp]
	add	eax, 10					; 0000000aH
	push	eax
	push	OFFSET $SG95325
	movzx	ecx, WORD PTR _nRC$[ebp]
	push	ecx
	push	OFFSET $SG95326
	call	_fnSqlRC
	add	esp, 24					; 00000018H

; 2716 : 
; 2717 :       if ( lpConnection->nTraceLevel >= 2 )

	mov	edx, DWORD PTR _lpConnection$[ebp]
	movsx	eax, WORD PTR [edx+214]
	cmp	eax, 2
	jl	$LN119@Load

; 2718 :       {
; 2719 :          zCHAR sz[ 2 ] = " ";

	mov	cx, WORD PTR $SG95328
	mov	WORD PTR _sz$32[ebp], cx

; 2720 : 
; 2721 :          TraceLineI( "Column Count         = ", nColumnCnt );

	movsx	edx, WORD PTR _nColumnCnt$[ebp]
	push	edx
	push	OFFSET $SG95329
	call	_TraceLineI@8

; 2722 :          TraceLineS( "Column Name          = ", lpDataField->szFldName );

	mov	eax, DWORD PTR _lpDataField$[ebp]
	add	eax, 10					; 0000000aH
	push	eax
	push	OFFSET $SG95330
	call	_TraceLineS@8

; 2723 :          sz[ 0 ] = lpViewAttrib->cType;

	mov	ecx, 1
	imul	edx, ecx, 0
	mov	eax, DWORD PTR _lpViewAttrib$[ebp]
	mov	cl, BYTE PTR [eax+202]
	mov	BYTE PTR _sz$32[ebp+edx], cl

; 2724 :          TraceLineS( "ViewAttrib data type = ", sz );

	lea	edx, DWORD PTR _sz$32[ebp]
	push	edx
	push	OFFSET $SG95331
	call	_TraceLineS@8

; 2725 :          sz[ 0 ] = lpDataField->cFldType;

	mov	eax, 1
	imul	ecx, eax, 0
	mov	edx, DWORD PTR _lpDataField$[ebp]
	mov	al, BYTE PTR [edx+270]
	mov	BYTE PTR _sz$32[ebp+ecx], al

; 2726 :          TraceLineS( "DataField data type  = ", sz );

	lea	ecx, DWORD PTR _sz$32[ebp]
	push	ecx
	push	OFFSET $SG95332
	call	_TraceLineS@8
$LN119@Load:

; 2727 :       }
; 2728 : 
; 2729 :       if ( !RC_SUCCESSFUL( nRC ) )

	movsx	edx, WORD PTR _nRC$[ebp]
	test	edx, edx
	je	SHORT $LN120@Load
	movsx	eax, WORD PTR _nRC$[ebp]
	cmp	eax, 1
	je	SHORT $LN120@Load

; 2730 :          goto EndOfFunction;

	jmp	$EndOfFunction$213
$LN120@Load:

; 2731 : 
; 2732 :       lpPtr += ulLth + sizeof( SQLINTEGER );

	mov	ecx, DWORD PTR _ulLth$26[ebp]
	mov	edx, DWORD PTR _lpPtr$[ebp]
	lea	eax, DWORD PTR [edx+ecx+4]
	mov	DWORD PTR _lpPtr$[ebp], eax

; 2733 : 
; 2734 :       }
; 2735 : 
; 2736 : #endif
; 2737 : 
; 2738 :    } // for ( lpDataField )...

	jmp	$LN15@Load
$LN16@Load:

; 2739 : 
; 2740 : #if defined( DB2 ) || defined( ODBC )
; 2741 : 
; 2742 :    // Save the SQL command and statement handle.
; 2743 :    if ( g_bHoldStmtHandles )

	movzx	ecx, BYTE PTR _g_bHoldStmtHandles
	test	ecx, ecx
	je	$ExecuteCommand$214

; 2744 :    {
; 2745 :       zSHORT nLth = zstrlen( lpConnection->pchConnSqlCmd );

	mov	edx, DWORD PTR _lpConnection$[ebp]
	mov	eax, DWORD PTR [edx+194]
	push	eax
	call	_strlen
	add	esp, 4
	mov	WORD PTR _nLth$12[ebp], ax

; 2746 : 
; 2747 :       lpStmtHandle->pchSqlCmd = malloc( nLth + 1 );

	movsx	ecx, WORD PTR _nLth$12[ebp]
	add	ecx, 1
	push	ecx
	call	DWORD PTR __imp__malloc
	add	esp, 4
	mov	edx, DWORD PTR _lpStmtHandle$[ebp]
	mov	DWORD PTR [edx+4], eax

; 2748 :       zstrcpy( lpStmtHandle->pchSqlCmd, lpConnection->pchConnSqlCmd );

	mov	eax, DWORD PTR _lpConnection$[ebp]
	mov	ecx, DWORD PTR [eax+194]
	push	ecx
	mov	edx, DWORD PTR _lpStmtHandle$[ebp]
	mov	eax, DWORD PTR [edx+4]
	push	eax
	call	_strcpy
	add	esp, 8

; 2749 : 
; 2750 :       lpStmtHandle->hstmt = lpConnection->hstmt;

	mov	ecx, DWORD PTR _lpStmtHandle$[ebp]
	mov	edx, DWORD PTR _lpConnection$[ebp]
	mov	eax, DWORD PTR [edx+2812]
	mov	DWORD PTR [ecx], eax

; 2751 : 
; 2752 :       // Check to make sure that there is a buffer to hold the input variables.
; 2753 :       if ( lpBoundList->lpFirstBoundAttr )

	mov	ecx, DWORD PTR _lpBoundList$[ebp]
	cmp	DWORD PTR [ecx+6], 0
	je	$ExecuteCommand$214

; 2754 :       {
; 2755 :          LPBOUNDATTR  lpBoundAttr;
; 2756 :          zPCHAR       pchBufferPos;
; 2757 :          SQLUSMALLINT nParmCount;
; 2758 : 
; 2759 :          // Go through the bind variable list and determine how big the buffer
; 2760 :          // needs to be.
; 2761 :          lpStmtHandle->ulInputLth = 0;

	mov	edx, DWORD PTR _lpStmtHandle$[ebp]
	mov	DWORD PTR [edx+16], 0

; 2762 :          for ( lpBoundAttr = lpBoundList->lpFirstBoundAttr;

	mov	eax, DWORD PTR _lpBoundList$[ebp]
	mov	ecx, DWORD PTR [eax+6]
	mov	DWORD PTR _lpBoundAttr$33[ebp], ecx
	jmp	SHORT $LN24@Load
$LN22@Load:

; 2764 :                lpBoundAttr = lpBoundAttr->lpNextBoundAttr )

	mov	edx, DWORD PTR _lpBoundAttr$33[ebp]
	mov	eax, DWORD PTR [edx+8]
	mov	DWORD PTR _lpBoundAttr$33[ebp], eax
$LN24@Load:

; 2763 :                lpBoundAttr;

	cmp	DWORD PTR _lpBoundAttr$33[ebp], 0
	je	SHORT $LN23@Load

; 2765 :          {
; 2766 :             // We need to keep an area to specify the attribute length.
; 2767 :             lpStmtHandle->ulInputLth += sizeof( SQLINTEGER );

	mov	ecx, DWORD PTR _lpStmtHandle$[ebp]
	mov	edx, DWORD PTR [ecx+16]
	add	edx, 4
	mov	eax, DWORD PTR _lpStmtHandle$[ebp]
	mov	DWORD PTR [eax+16], edx

; 2768 : 
; 2769 :             // Now set aside the buffer area.
; 2770 :             lpViewAttrib = zGETPTR( lpBoundAttr->lpDataField->hViewAttrib );

	mov	ecx, DWORD PTR _lpBoundAttr$33[ebp]
	mov	edx, DWORD PTR [ecx]
	mov	eax, DWORD PTR [edx+6]
	push	eax
	call	_SysGetPointerFromHandle@4
	mov	DWORD PTR _lpViewAttrib$[ebp], eax

; 2771 :             lpStmtHandle->ulInputLth += lpViewAttrib->ulLth;

	mov	ecx, DWORD PTR _lpStmtHandle$[ebp]
	mov	edx, DWORD PTR [ecx+16]
	mov	eax, DWORD PTR _lpViewAttrib$[ebp]
	add	edx, DWORD PTR [eax+203]
	mov	ecx, DWORD PTR _lpStmtHandle$[ebp]
	mov	DWORD PTR [ecx+16], edx

; 2772 :          }

	jmp	SHORT $LN22@Load
$LN23@Load:

; 2773 : 
; 2774 :          lpStmtHandle->pchInputBuffer = malloc( lpStmtHandle->ulInputLth + 1 );

	mov	edx, DWORD PTR _lpStmtHandle$[ebp]
	mov	eax, DWORD PTR [edx+16]
	add	eax, 1
	push	eax
	call	DWORD PTR __imp__malloc
	add	esp, 4
	mov	ecx, DWORD PTR _lpStmtHandle$[ebp]
	mov	DWORD PTR [ecx+8], eax

; 2775 : 
; 2776 :          // Now call BindParamter to set up the input buffer.
; 2777 :          nParmCount   = 0;

	xor	edx, edx
	mov	WORD PTR _nParmCount$29[ebp], dx

; 2778 :          pchBufferPos = lpStmtHandle->pchInputBuffer;

	mov	eax, DWORD PTR _lpStmtHandle$[ebp]
	mov	ecx, DWORD PTR [eax+8]
	mov	DWORD PTR _pchBufferPos$23[ebp], ecx

; 2779 :          for ( lpBoundAttr = lpBoundList->lpFirstBoundAttr;

	mov	edx, DWORD PTR _lpBoundList$[ebp]
	mov	eax, DWORD PTR [edx+6]
	mov	DWORD PTR _lpBoundAttr$33[ebp], eax
	jmp	SHORT $LN27@Load
$LN25@Load:

; 2781 :                lpBoundAttr = lpBoundAttr->lpNextBoundAttr )

	mov	ecx, DWORD PTR _lpBoundAttr$33[ebp]
	mov	edx, DWORD PTR [ecx+8]
	mov	DWORD PTR _lpBoundAttr$33[ebp], edx
$LN27@Load:

; 2780 :                lpBoundAttr;

	cmp	DWORD PTR _lpBoundAttr$33[ebp], 0
	je	$ExecuteCommand$214

; 2782 :          {
; 2783 :             LPDATAFIELD    lpDataField  = lpBoundAttr->lpDataField;

	mov	eax, DWORD PTR _lpBoundAttr$33[ebp]
	mov	ecx, DWORD PTR [eax]
	mov	DWORD PTR _lpDataField$9[ebp], ecx

; 2784 :             SQLSMALLINT    nC_DataType;
; 2785 :             SQLSMALLINT    nSQL_Type;
; 2786 :             SQLSMALLINT    nDecDigits;
; 2787 :             SQLUINTEGER    nColumnSize;
; 2788 :             SQLINTEGER *   lpnParmLth;
; 2789 :             SQLINTEGER     iBufferLth;
; 2790 : 
; 2791 :             lpViewAttrib = zGETPTR( lpDataField->hViewAttrib );

	mov	edx, DWORD PTR _lpDataField$9[ebp]
	mov	eax, DWORD PTR [edx+6]
	push	eax
	call	_SysGetPointerFromHandle@4
	mov	DWORD PTR _lpViewAttrib$[ebp], eax

; 2792 : 
; 2793 :             nParmCount++;

	mov	cx, WORD PTR _nParmCount$29[ebp]
	add	cx, 1
	mov	WORD PTR _nParmCount$29[ebp], cx

; 2794 : 
; 2795 :             if ( lpConnection->nTraceLevel > 1 )

	mov	edx, DWORD PTR _lpConnection$[ebp]
	movsx	eax, WORD PTR [edx+214]
	cmp	eax, 1
	jle	SHORT $LN123@Load

; 2796 :             {
; 2797 :                TraceLineS( "(KZHSQLBA) Binding attributename = ",

	mov	ecx, DWORD PTR _lpViewAttrib$[ebp]
	add	ecx, 10					; 0000000aH
	push	ecx
	push	OFFSET $SG95337
	call	_TraceLineS@8

; 2798 :                            lpViewAttrib->szName );
; 2799 :                TraceLineI( "nParmCount = ", nParmCount );

	movzx	edx, WORD PTR _nParmCount$29[ebp]
	push	edx
	push	OFFSET $SG95338
	call	_TraceLineI@8
$LN123@Load:

; 2800 :             }
; 2801 : 
; 2802 :             lpnParmLth = (SQLINTEGER *) pchBufferPos;

	mov	eax, DWORD PTR _pchBufferPos$23[ebp]
	mov	DWORD PTR _lpnParmLth$18[ebp], eax

; 2803 :             pchBufferPos += sizeof( SQLINTEGER );

	mov	ecx, DWORD PTR _pchBufferPos$23[ebp]
	add	ecx, 4
	mov	DWORD PTR _pchBufferPos$23[ebp], ecx

; 2804 : 
; 2805 :             switch ( lpViewAttrib->cType )

	mov	edx, DWORD PTR _lpViewAttrib$[ebp]
	mov	al, BYTE PTR [edx+202]
	mov	BYTE PTR tv784[ebp], al
	cmp	BYTE PTR tv784[ebp], 76			; 0000004cH
	je	SHORT $LN125@Load
	cmp	BYTE PTR tv784[ebp], 83			; 00000053H
	je	SHORT $LN124@Load
	jmp	$LN28@Load
$LN124@Load:

; 2806 :             {
; 2807 :                case zTYPE_STRING:
; 2808 :                   nC_DataType = SQL_C_CHAR;

	mov	ecx, 1
	mov	WORD PTR _nC_DataType$24[ebp], cx

; 2809 :                   nSQL_Type   = SQL_VARCHAR;

	mov	edx, 12					; 0000000cH
	mov	WORD PTR _nSQL_Type$25[ebp], dx

; 2810 :                   iBufferLth  = lpViewAttrib->ulLth;

	mov	eax, DWORD PTR _lpViewAttrib$[ebp]
	mov	ecx, DWORD PTR [eax+203]
	mov	DWORD PTR _iBufferLth$16[ebp], ecx

; 2811 :                   nColumnSize = lpViewAttrib->ulLth;

	mov	edx, DWORD PTR _lpViewAttrib$[ebp]
	mov	eax, DWORD PTR [edx+203]
	mov	DWORD PTR _nColumnSize$17[ebp], eax

; 2812 :                   *lpnParmLth = SQL_NTS;

	mov	ecx, DWORD PTR _lpnParmLth$18[ebp]
	mov	DWORD PTR [ecx], -3			; fffffffdH

; 2813 :                   nDecDigits = 0;

	xor	edx, edx
	mov	WORD PTR _nDecDigits$27[ebp], dx

; 2814 :                   break;

	jmp	SHORT $LN28@Load
$LN125@Load:

; 2815 : 
; 2816 :                case zTYPE_INTEGER:
; 2817 :                   nC_DataType = SQL_C_SLONG;

	mov	eax, -16				; fffffff0H
	mov	WORD PTR _nC_DataType$24[ebp], ax

; 2818 :                   nSQL_Type   = SQL_INTEGER;

	mov	ecx, 4
	mov	WORD PTR _nSQL_Type$25[ebp], cx

; 2819 :                   iBufferLth  = sizeof( zLONG );

	mov	DWORD PTR _iBufferLth$16[ebp], 4

; 2820 :                   nColumnSize = sizeof( zLONG );

	mov	DWORD PTR _nColumnSize$17[ebp], 4

; 2821 :                   *lpnParmLth = sizeof( zLONG );

	mov	edx, DWORD PTR _lpnParmLth$18[ebp]
	mov	DWORD PTR [edx], 4

; 2822 :                   nDecDigits = 0;

	xor	eax, eax
	mov	WORD PTR _nDecDigits$27[ebp], ax
$LN28@Load:

; 2823 :                   break;
; 2824 :             }
; 2825 : 
; 2826 :             nRC = SQLBindParameter( lpConnection->hstmt, nParmCount, SQL_PARAM_INPUT,

	mov	ecx, DWORD PTR _lpnParmLth$18[ebp]
	push	ecx
	mov	edx, DWORD PTR _iBufferLth$16[ebp]
	push	edx
	mov	eax, DWORD PTR _pchBufferPos$23[ebp]
	push	eax
	movzx	ecx, WORD PTR _nDecDigits$27[ebp]
	push	ecx
	mov	edx, DWORD PTR _nColumnSize$17[ebp]
	push	edx
	movzx	eax, WORD PTR _nSQL_Type$25[ebp]
	push	eax
	movzx	ecx, WORD PTR _nC_DataType$24[ebp]
	push	ecx
	push	1
	movzx	edx, WORD PTR _nParmCount$29[ebp]
	push	edx
	mov	eax, DWORD PTR _lpConnection$[ebp]
	mov	ecx, DWORD PTR [eax+2812]
	push	ecx
	call	_SQLBindParameter@40
	mov	WORD PTR _nRC$[ebp], ax

; 2827 :                                     nC_DataType, nSQL_Type, nColumnSize, nDecDigits,
; 2828 :                                     (SQLPOINTER) pchBufferPos, iBufferLth,
; 2829 :                                     lpnParmLth );
; 2830 :             SQL_RC( "SQLBindParameter", nRC, "Column = ", lpDataField->szFldName, 3 );

	mov	edx, DWORD PTR _lpConnection$[ebp]
	push	edx
	push	3
	mov	eax, DWORD PTR _lpDataField$9[ebp]
	add	eax, 10					; 0000000aH
	push	eax
	push	OFFSET $SG95341
	movzx	ecx, WORD PTR _nRC$[ebp]
	push	ecx
	push	OFFSET $SG95342
	call	_fnSqlRC
	add	esp, 24					; 00000018H

; 2831 : 
; 2832 :             if ( lpConnection->nTraceLevel > 2 )

	mov	edx, DWORD PTR _lpConnection$[ebp]
	movsx	eax, WORD PTR [edx+214]
	cmp	eax, 2
	jle	SHORT $LN126@Load

; 2833 :             {
; 2834 :                TraceLineI( "nC_DataType = ", nC_DataType );

	movsx	ecx, WORD PTR _nC_DataType$24[ebp]
	push	ecx
	push	OFFSET $SG95344
	call	_TraceLineI@8

; 2835 :                TraceLineI( "nSQL_Type   = ", nSQL_Type );

	movsx	edx, WORD PTR _nSQL_Type$25[ebp]
	push	edx
	push	OFFSET $SG95345
	call	_TraceLineI@8

; 2836 :                TraceLineI( "nColumnSize = ", nColumnSize );

	mov	eax, DWORD PTR _nColumnSize$17[ebp]
	push	eax
	push	OFFSET $SG95346
	call	_TraceLineI@8

; 2837 :                TraceLineI( "nDecDigits  = ", nDecDigits );

	movsx	ecx, WORD PTR _nDecDigits$27[ebp]
	push	ecx
	push	OFFSET $SG95347
	call	_TraceLineI@8
$LN126@Load:

; 2838 :             }
; 2839 : 
; 2840 :             if ( !RC_SUCCESSFUL( nRC ) )

	movsx	edx, WORD PTR _nRC$[ebp]
	test	edx, edx
	je	SHORT $LN127@Load
	movsx	eax, WORD PTR _nRC$[ebp]
	cmp	eax, 1
	je	SHORT $LN127@Load

; 2841 :                goto EndOfFunction;

	jmp	$EndOfFunction$213
$LN127@Load:

; 2842 : 
; 2843 :             pchBufferPos += iBufferLth;

	mov	ecx, DWORD PTR _pchBufferPos$23[ebp]
	add	ecx, DWORD PTR _iBufferLth$16[ebp]
	mov	DWORD PTR _pchBufferPos$23[ebp], ecx

; 2844 : 
; 2845 :          } // for...

	jmp	$LN25@Load
$ExecuteCommand$214:

; 2846 : 
; 2847 :       } // if ( lpStmtHandle->pchInputBuffer == 0 )...
; 2848 : 
; 2849 :    } // if ( g_bHoldStmtHandles )...
; 2850 : 
; 2851 : #endif
; 2852 : 
; 2853 :    // ================================================================
; 2854 :    // Execute generated SQL
; 2855 :    // ================================================================
; 2856 : 
; 2857 :    // Following is kind of a hack to keep from getting warning messages that
; 2858 :    // the label ExecuteCommand is unused.
; 2859 :    goto ExecuteCommand;
; 2860 : 
; 2861 : // I know goto statements are lousy but it is much easier to code when
; 2862 : // dealing with all the conditional compiling.
; 2863 : ExecuteCommand:
; 2864 : 
; 2865 :    // If the qualification uses a key list then we need to add the keys to
; 2866 :    // the key list table.
; 2867 :    if ( lpQualEntity && lpQualEntity->bContainsKeyList )

	cmp	DWORD PTR _lpQualEntity$[ebp], 0
	je	SHORT $LN128@Load
	mov	edx, DWORD PTR _lpQualEntity$[ebp]
	mov	eax, DWORD PTR [edx+28]
	shr	eax, 5
	and	eax, 1
	je	SHORT $LN128@Load

; 2868 :    {
; 2869 :       zLONG hTask = SysGetTaskFromView( lpView );

	mov	ecx, DWORD PTR _lpView$[ebp]
	push	ecx
	call	_SysGetTaskFromView@4
	mov	DWORD PTR _hTask$6[ebp], eax

; 2870 :       if ( fnCreateKeyList( hTask, lpConnection, lpBoundList, lpQualEntity ) < 0 )

	mov	edx, DWORD PTR _lpQualEntity$[ebp]
	push	edx
	mov	eax, DWORD PTR _lpBoundList$[ebp]
	push	eax
	mov	ecx, DWORD PTR _lpConnection$[ebp]
	push	ecx
	mov	edx, DWORD PTR _hTask$6[ebp]
	push	edx
	call	_fnCreateKeyList@16
	cwde
	test	eax, eax
	jge	SHORT $LN129@Load

; 2871 :          goto EndOfFunction;

	jmp	$EndOfFunction$213
$LN129@Load:

; 2872 : 
; 2873 :       bKeyListCreated = TRUE;

	mov	BYTE PTR _bKeyListCreated$[ebp], 1
$LN128@Load:

; 2874 :    }
; 2875 : 
; 2876 : #if defined( DB2 ) || defined( ODBC )
; 2877 : 
; 2878 :    // OK, if there are any bound attributes we need to copy the attribute
; 2879 :    // values into the input buffer.
; 2880 :    if ( lpBoundList && lpBoundList->lpFirstBoundAttr )

	cmp	DWORD PTR _lpBoundList$[ebp], 0
	je	$LN130@Load
	mov	ecx, DWORD PTR _lpBoundList$[ebp]
	cmp	DWORD PTR [ecx+6], 0
	je	$LN130@Load

; 2881 :    {
; 2882 :       LPBOUNDATTR  lpBoundAttr;
; 2883 :       zPCHAR       pchBufferPos;
; 2884 : 
; 2885 :       // Go through the bind variable list and determine how big the buffer
; 2886 :       // needs to be.
; 2887 :       pchBufferPos = lpStmtHandle->pchInputBuffer;

	mov	edx, DWORD PTR _lpStmtHandle$[ebp]
	mov	eax, DWORD PTR [edx+8]
	mov	DWORD PTR _pchBufferPos$30[ebp], eax

; 2888 :       for ( lpBoundAttr = lpBoundList->lpFirstBoundAttr;

	mov	ecx, DWORD PTR _lpBoundList$[ebp]
	mov	edx, DWORD PTR [ecx+6]
	mov	DWORD PTR _lpBoundAttr$21[ebp], edx
	jmp	SHORT $LN32@Load
$LN30@Load:

; 2890 :             lpBoundAttr = lpBoundAttr->lpNextBoundAttr )

	mov	eax, DWORD PTR _lpBoundAttr$21[ebp]
	mov	ecx, DWORD PTR [eax+8]
	mov	DWORD PTR _lpBoundAttr$21[ebp], ecx
$LN32@Load:

; 2889 :             lpBoundAttr;

	cmp	DWORD PTR _lpBoundAttr$21[ebp], 0
	je	$LN130@Load

; 2891 :       {
; 2892 :          LPDATAFIELD    lpDataField  = lpBoundAttr->lpDataField;

	mov	edx, DWORD PTR _lpBoundAttr$21[ebp]
	mov	eax, DWORD PTR [edx]
	mov	DWORD PTR _lpDataField$5[ebp], eax

; 2893 :          LPVIEWENTITY   lpBoundEntity;
; 2894 :          SQLINTEGER     *lpnLth;
; 2895 :          zPCHAR         lpValue;
; 2896 :          zCHAR          chType;
; 2897 :          zULONG         ulLth;
; 2898 : 
; 2899 :          lpViewAttrib = zGETPTR( lpDataField->hViewAttrib );

	mov	ecx, DWORD PTR _lpDataField$5[ebp]
	mov	edx, DWORD PTR [ecx+6]
	push	edx
	call	_SysGetPointerFromHandle@4
	mov	DWORD PTR _lpViewAttrib$[ebp], eax

; 2900 :          lpBoundEntity = zGETPTR( lpViewAttrib->hViewEntity );

	mov	eax, DWORD PTR _lpViewAttrib$[ebp]
	mov	ecx, DWORD PTR [eax+6]
	push	ecx
	call	_SysGetPointerFromHandle@4
	mov	DWORD PTR _lpBoundEntity$4[ebp], eax

; 2901 : 
; 2902 :          lpnLth = (SQLINTEGER *) pchBufferPos;

	mov	edx, DWORD PTR _pchBufferPos$30[ebp]
	mov	DWORD PTR _lpnLth$1[ebp], edx

; 2903 :          pchBufferPos += sizeof( SQLINTEGER );

	mov	eax, DWORD PTR _pchBufferPos$30[ebp]
	add	eax, 4
	mov	DWORD PTR _pchBufferPos$30[ebp], eax

; 2904 : 
; 2905 :          if ( GetValueFromRecord( lpBoundAttr->lpView,
; 2906 :                                   lpBoundEntity, lpViewAttrib, (zPVOID) &lpValue,
; 2907 :                                   &chType, &ulLth ) == zCALL_ERROR )

	lea	ecx, DWORD PTR _ulLth$2[ebp]
	push	ecx
	lea	edx, DWORD PTR _chType$11[ebp]
	push	edx
	lea	eax, DWORD PTR _lpValue$10[ebp]
	push	eax
	mov	ecx, DWORD PTR _lpViewAttrib$[ebp]
	push	ecx
	mov	edx, DWORD PTR _lpBoundEntity$4[ebp]
	push	edx
	mov	eax, DWORD PTR _lpBoundAttr$21[ebp]
	mov	ecx, DWORD PTR [eax+4]
	push	ecx
	call	_GetValueFromRecord@24
	movsx	edx, ax
	cmp	edx, -16				; fffffff0H
	jne	SHORT $LN131@Load

; 2908 :          {
; 2909 :             // Oops, error.  Get out of function.
; 2910 :             goto EndOfFunction;

	jmp	$EndOfFunction$213
$LN131@Load:

; 2911 :          }
; 2912 : 
; 2913 :          switch ( lpViewAttrib->cType )

	mov	eax, DWORD PTR _lpViewAttrib$[ebp]
	mov	cl, BYTE PTR [eax+202]
	mov	BYTE PTR tv870[ebp], cl
	cmp	BYTE PTR tv870[ebp], 76			; 0000004cH
	je	SHORT $LN133@Load
	cmp	BYTE PTR tv870[ebp], 83			; 00000053H
	je	SHORT $LN132@Load
	jmp	SHORT $LN33@Load
$LN132@Load:

; 2914 :          {
; 2915 :             case zTYPE_STRING:
; 2916 :             // Length is always SQL_NTS.
; 2917 :                //*lpnLth = (SQLINTEGER) ulLth;
; 2918 :                zstrcpy( pchBufferPos, lpValue );

	mov	edx, DWORD PTR _lpValue$10[ebp]
	push	edx
	mov	eax, DWORD PTR _pchBufferPos$30[ebp]
	push	eax
	call	_strcpy
	add	esp, 8

; 2919 :                pchBufferPos += lpViewAttrib->ulLth;

	mov	ecx, DWORD PTR _lpViewAttrib$[ebp]
	mov	edx, DWORD PTR _pchBufferPos$30[ebp]
	add	edx, DWORD PTR [ecx+203]
	mov	DWORD PTR _pchBufferPos$30[ebp], edx

; 2920 :                break;

	jmp	SHORT $LN33@Load
$LN133@Load:

; 2921 : 
; 2922 :             case zTYPE_INTEGER:
; 2923 :                *((zPLONG) pchBufferPos) = *((zPLONG) lpValue);

	mov	eax, DWORD PTR _pchBufferPos$30[ebp]
	mov	ecx, DWORD PTR _lpValue$10[ebp]
	mov	edx, DWORD PTR [ecx]
	mov	DWORD PTR [eax], edx

; 2924 :                pchBufferPos += sizeof( zLONG );

	mov	eax, DWORD PTR _pchBufferPos$30[ebp]
	add	eax, 4
	mov	DWORD PTR _pchBufferPos$30[ebp], eax
$LN33@Load:

; 2925 :                break;
; 2926 :          }
; 2927 :       }

	jmp	$LN30@Load
$LN130@Load:

; 2928 :    }
; 2929 : 
; 2930 :    // Execute the sql command.
; 2931 :    nRC = SQLExecute( lpConnection->hstmt );

	mov	ecx, DWORD PTR _lpConnection$[ebp]
	mov	edx, DWORD PTR [ecx+2812]
	push	edx
	call	_SQLExecute@4
	mov	WORD PTR _nRC$[ebp], ax

; 2932 :    SQL_RC( "SQLExecute", nRC, 0, 0, 2 );

	mov	eax, DWORD PTR _lpConnection$[ebp]
	push	eax
	push	2
	push	0
	push	0
	movzx	ecx, WORD PTR _nRC$[ebp]
	push	ecx
	push	OFFSET $SG95355
	call	_fnSqlRC
	add	esp, 24					; 00000018H

; 2933 :    if ( nRC != SQL_SUCCESS && nRC != SQL_SUCCESS_WITH_INFO )

	movsx	edx, WORD PTR _nRC$[ebp]
	test	edx, edx
	je	SHORT $StartOfFetches$215
	movsx	eax, WORD PTR _nRC$[ebp]
	cmp	eax, 1
	je	SHORT $StartOfFetches$215

; 2934 :    {
; 2935 :       // If the trace level is 0 then let's trace the SQL to help debugging.
; 2936 :       if ( lpConnection->nTraceLevel == 0 )

	mov	ecx, DWORD PTR _lpConnection$[ebp]
	movsx	edx, WORD PTR [ecx+214]
	test	edx, edx
	jne	SHORT $LN135@Load

; 2937 :          SqlDisplayCommand( lpConnection->pchConnSqlCmd, 0 );

	push	0
	mov	eax, DWORD PTR _lpConnection$[ebp]
	mov	ecx, DWORD PTR [eax+194]
	push	ecx
	call	_SqlDisplayCommand@8
$LN135@Load:

; 2938 : 
; 2939 :       goto EndOfFunction;

	jmp	$EndOfFunction$213
$StartOfFetches$215:

; 2940 :    }
; 2941 : 
; 2942 : #endif
; 2943 : 
; 2944 :    // Following is kind of a hack to keep from getting warning messages that
; 2945 :    // the label StartOfFetches is unused.
; 2946 :    goto StartOfFetches;
; 2947 : 
; 2948 : StartOfFetches:
; 2949 : 
; 2950 : #ifdef DELETEHACK
; 2951 :    // If OpenSQL has been specified but there are no data fields then we'll
; 2952 :    // assume that OpenSQL has been used for DELETE processing.  For delete
; 2953 :    // processing we obviously don't need to do a fetch so return now.
; 2954 :    if ( bOpenSQL && lpQualEntity->lpDataField[ 0 ] == 0 )

	movzx	edx, BYTE PTR _bOpenSQL$[ebp]
	test	edx, edx
	je	SHORT $LN136@Load
	mov	eax, 4
	imul	ecx, eax, 0
	mov	edx, DWORD PTR _lpQualEntity$[ebp]
	mov	eax, DWORD PTR [edx+20]
	cmp	DWORD PTR [ecx+eax], 0
	jne	SHORT $LN136@Load

; 2955 :    {
; 2956 :       nReturnCode = -1;  // Indicates nothing was loaded.

	or	ecx, -1
	mov	WORD PTR _nReturnCode$[ebp], cx

; 2957 :       goto EndOfFunction;

	jmp	$EndOfFunction$213
$LN136@Load:

; 2958 :    }
; 2959 : #endif
; 2960 : 
; 2961 :    // ================================================================
; 2962 :    // Fetch first row from the table.
; 2963 :    // ================================================================
; 2964 : 
; 2965 :    lRowCount  = 0;

	mov	DWORD PTR _lRowCount$[ebp], 0

; 2966 :    lRootCnt = 0;

	mov	DWORD PTR _lRootCnt$[ebp], 0

; 2967 : 
; 2968 :    if ( bCreateMultipleRoots == FALSE && lpViewEntity->hParent == 0 )

	movzx	edx, BYTE PTR _bCreateMultipleRoots$[ebp]
	test	edx, edx
	jne	SHORT $LN137@Load
	mov	eax, DWORD PTR _lpViewEntity$[ebp]
	cmp	DWORD PTR [eax+10], 0
	jne	SHORT $LN137@Load

; 2969 :       lRootLimit = 1;

	mov	DWORD PTR _lRootLimit$[ebp], 1
	jmp	SHORT $LN138@Load
$LN137@Load:

; 2970 :    else
; 2971 :    {
; 2972 :       lRootLimit = lpViewEntity->lActivateLimit;

	mov	ecx, DWORD PTR _lpViewEntity$[ebp]
	mov	edx, DWORD PTR [ecx+226]
	mov	DWORD PTR _lRootLimit$[ebp], edx

; 2973 :       if ( lRootLimit == 0 )

	cmp	DWORD PTR _lRootLimit$[ebp], 0
	jne	SHORT $LN138@Load

; 2974 :          lRootLimit = 0x7FFFFFFF;

	mov	DWORD PTR _lRootLimit$[ebp], 2147483647	; 7fffffffH
$LN138@Load:

; 2975 :    }
; 2976 : 
; 2977 : #if defined( DB2 ) || defined( ODBC )
; 2978 : 
; 2979 :    bCursorOpened = TRUE;

	mov	BYTE PTR _bCursorOpened$[ebp], 1

; 2980 : 
; 2981 :    nRC = SQLFetch( lpConnection->hstmt );

	mov	eax, DWORD PTR _lpConnection$[ebp]
	mov	ecx, DWORD PTR [eax+2812]
	push	ecx
	call	_SQLFetch@4
	mov	WORD PTR _nRC$[ebp], ax

; 2982 :    SQL_RC( "SQLFetch", nRC, 0, 0, 2 );

	mov	edx, DWORD PTR _lpConnection$[ebp]
	push	edx
	push	2
	push	0
	push	0
	movzx	eax, WORD PTR _nRC$[ebp]
	push	eax
	push	OFFSET $SG95362
	call	_fnSqlRC
	add	esp, 24					; 00000018H

; 2983 :    switch ( nRC )

	movsx	ecx, WORD PTR _nRC$[ebp]
	mov	DWORD PTR tv921[ebp], ecx
	cmp	DWORD PTR tv921[ebp], 0
	jl	SHORT $LN142@Load
	cmp	DWORD PTR tv921[ebp], 1
	jle	SHORT $LN140@Load
	cmp	DWORD PTR tv921[ebp], 100		; 00000064H
	je	SHORT $LN141@Load
	jmp	SHORT $LN142@Load
$LN140@Load:

; 2984 :    {
; 2985 :       case SQL_SUCCESS:
; 2986 :       case SQL_SUCCESS_WITH_INFO:
; 2987 :          nRC = zFETCH_OK;

	xor	edx, edx
	mov	WORD PTR _nRC$[ebp], dx

; 2988 :          break;

	jmp	SHORT $LN35@Load
$LN141@Load:

; 2989 : 
; 2990 :       case SQL_NO_DATA:
; 2991 :          nRC = zFETCH_NO_DATA;

	mov	eax, 1
	mov	WORD PTR _nRC$[ebp], ax

; 2992 :          break;

	jmp	SHORT $LN35@Load
$LN142@Load:

; 2993 : 
; 2994 :       default:
; 2995 :          // Oops, error.
; 2996 :          goto EndOfFunction;

	jmp	$EndOfFunction$213
$LN35@Load:

; 2997 :    }
; 2998 : 
; 2999 : #elif defined( DUMMY )
; 3000 : 
; 3001 :    // If the entity supports hanging keys then let's pretend we didn't find
; 3002 :    // any.
; 3003 :    if ( lpViewEntity->bHangingFKey )
; 3004 :       nRC = zFETCH_NO_DATA;
; 3005 :    else
; 3006 :       nRC = zFETCH_OK;
; 3007 : 
; 3008 : #endif
; 3009 : 
; 3010 :    hMem    = 0;

	mov	DWORD PTR _hMem$[ebp], 0

; 3011 :    lMemLth = 0;

	mov	DWORD PTR _lMemLth$[ebp], 0

; 3012 :    lpMem   = 0;

	mov	DWORD PTR _lpMem$[ebp], 0

; 3013 : 
; 3014 :    // If a row was fetched, copy the table data into a newly created entity.
; 3015 :    if ( nRC == zFETCH_OK )

	movsx	ecx, WORD PTR _nRC$[ebp]
	test	ecx, ecx
	jne	$LN143@Load

; 3016 :    {
; 3017 :       // The following is a list of booleans, one for each entity in the
; 3018 :       // lpViewOD.  It keeps track of whether the entity was created
; 3019 :       // (added to the OI) since the last fetch.
; 3020 :       zBOOL bEntityCreatedList[ 500 ];
; 3021 : 
; 3022 :       // Reset all the flags to not-created.
; 3023 :       zmemset( bEntityCreatedList, 0, sizeof( bEntityCreatedList ) );

	push	500					; 000001f4H
	push	0
	lea	edx, DWORD PTR _bEntityCreatedList$42[ebp]
	push	edx
	call	_memset
	add	esp, 12					; 0000000cH

; 3024 : 
; 3025 :       nReturnCode = 0;

	xor	eax, eax
	mov	WORD PTR _nReturnCode$[ebp], ax
$LN39@Load:

; 3026 : 
; 3027 :       // For each row, create an entity instance and copy the attribute
; 3028 :       // values from the table to the entity.
; 3029 :       do
; 3030 :       {
; 3031 :          LPVIEWENTITY lpLastCreatedEntity;
; 3032 :          zBOOL        bNewEntity;
; 3033 : #if defined( DUMMY )
; 3034 : 
; 3035 :          LPVIEWENTITY lpCreatedEntity = 0;
; 3036 : 
; 3037 :          // Dummy DBH doesn't load children via a join.
; 3038 :          lRootCnt++;
; 3039 : 
; 3040 : #endif
; 3041 :          lRowCount++;

	mov	ecx, DWORD PTR _lRowCount$[ebp]
	add	ecx, 1
	mov	DWORD PTR _lRowCount$[ebp], ecx

; 3042 : 
; 3043 :          if ( lpConnection->nTraceLevel >= 1 && (lRowCount % 1000) == 0 )

	mov	edx, DWORD PTR _lpConnection$[ebp]
	movsx	eax, WORD PTR [edx+214]
	cmp	eax, 1
	jl	SHORT $LN145@Load
	mov	eax, DWORD PTR _lRowCount$[ebp]
	cdq
	mov	ecx, 1000				; 000003e8H
	idiv	ecx
	test	edx, edx
	jne	SHORT $LN145@Load

; 3044 :             TraceLineI( "(xa) Number of rows currently read = ", lRowCount );

	mov	edx, DWORD PTR _lRowCount$[ebp]
	push	edx
	push	OFFSET $SG95369
	call	_TraceLineI@8
$LN145@Load:

; 3045 : 
; 3046 :          // Loop through each of the attributes and get the column values
; 3047 :          // from the currently fetched row.
; 3048 : 
; 3049 :          LoopInfo.bOpenSQL          = bOpenSQL;

	mov	al, BYTE PTR _bOpenSQL$[ebp]
	mov	BYTE PTR _LoopInfo$[ebp], al

; 3050 :          LoopInfo.bKeysOnly         = bKeysOnly;

	mov	cl, BYTE PTR _bKeysOnly$[ebp]
	mov	BYTE PTR _LoopInfo$[ebp+1], cl

; 3051 :          LoopInfo.bFirstPass        = TRUE;

	mov	BYTE PTR _LoopInfo$[ebp+32], 1

; 3052 :          LoopInfo.lpQualEntity      = lpQualEntity;

	mov	edx, DWORD PTR _lpQualEntity$[ebp]
	mov	DWORD PTR _LoopInfo$[ebp+4], edx

; 3053 :          LoopInfo.lpFirstQualEntity = lpConnection->lpFirstQualEntity;

	mov	eax, DWORD PTR _lpConnection$[ebp]
	mov	ecx, DWORD PTR [eax+190]
	mov	DWORD PTR _LoopInfo$[ebp+8], ecx

; 3054 :          LoopInfo.lpViewEntity      = lpViewEntity;

	mov	edx, DWORD PTR _lpViewEntity$[ebp]
	mov	DWORD PTR _LoopInfo$[ebp+12], edx

; 3055 :          LoopInfo.lpDataField       = 0;

	mov	DWORD PTR _LoopInfo$[ebp+20], 0

; 3056 :          LoopInfo.lControl          = Indicators;

	mov	eax, DWORD PTR _Indicators$[ebp]
	mov	DWORD PTR _LoopInfo$[ebp+24], eax

; 3057 :          LoopInfo.lpBoundList       = lpBoundList;

	mov	ecx, DWORD PTR _lpBoundList$[ebp]
	mov	DWORD PTR _LoopInfo$[ebp+28], ecx

; 3058 :          lpLastCreatedEntity        = 0;

	mov	DWORD PTR _lpLastCreatedEntity$15[ebp], 0

; 3059 :          bNewEntity                 = FALSE;

	mov	BYTE PTR _bNewEntity$36[ebp], 0

; 3060 :          nColumnCnt = 0;

	xor	edx, edx
	mov	WORD PTR _nColumnCnt$[ebp], dx

; 3061 :          for ( lpDataField = fnGetNextDataField( &LoopInfo );

	lea	eax, DWORD PTR _LoopInfo$[ebp]
	push	eax
	call	_fnGetNextDataField@4
	mov	DWORD PTR _lpDataField$[ebp], eax
	jmp	SHORT $LN42@Load
$LN40@Load:

; 3063 :                lpDataField = fnGetNextDataField( &LoopInfo ) )

	lea	ecx, DWORD PTR _LoopInfo$[ebp]
	push	ecx
	call	_fnGetNextDataField@4
	mov	DWORD PTR _lpDataField$[ebp], eax
$LN42@Load:

; 3062 :                lpDataField;

	cmp	DWORD PTR _lpDataField$[ebp], 0
	je	$LN41@Load

; 3064 :          {
; 3065 :             LPVIEWENTITY lpLoadEntity;
; 3066 : 
; 3067 : #if defined( DB2 )
; 3068 : 
; 3069 :             zPCHAR       lpPtr;
; 3070 :             SQLINTEGER   nLth;
; 3071 :             SQLINTEGER   nInd;
; 3072 : 
; 3073 : #elif defined( ODBC )
; 3074 : 
; 3075 :             zCHAR        sz[ 50 ];
; 3076 :             zPCHAR       lpPtr;
; 3077 :             SQLINTEGER   nLth;
; 3078 : 
; 3079 : #endif
; 3080 : 
; 3081 :             lpViewAttrib = zGETPTR( lpDataField->hViewAttrib );

	mov	edx, DWORD PTR _lpDataField$[ebp]
	mov	eax, DWORD PTR [edx+6]
	push	eax
	call	_SysGetPointerFromHandle@4
	mov	DWORD PTR _lpViewAttrib$[ebp], eax

; 3082 :             lpLoadEntity = zGETPTR( lpViewAttrib->hViewEntity );

	mov	ecx, DWORD PTR _lpViewAttrib$[ebp]
	mov	edx, DWORD PTR [ecx+6]
	push	edx
	call	_SysGetPointerFromHandle@4
	mov	DWORD PTR _lpLoadEntity$37[ebp], eax

; 3083 : 
; 3084 :             if ( lpLoadEntity != lpLastCreatedEntity )

	mov	eax, DWORD PTR _lpLoadEntity$37[ebp]
	cmp	eax, DWORD PTR _lpLastCreatedEntity$15[ebp]
	je	SHORT $LN146@Load

; 3085 :                bNewEntity = TRUE;

	mov	BYTE PTR _bNewEntity$36[ebp], 1
	jmp	SHORT $LN147@Load
$LN146@Load:

; 3086 :             else
; 3087 :                bNewEntity = FALSE;

	mov	BYTE PTR _bNewEntity$36[ebp], 0
$LN147@Load:

; 3088 : 
; 3089 :             nColumnCnt++;

	mov	cx, WORD PTR _nColumnCnt$[ebp]
	add	cx, 1
	mov	WORD PTR _nColumnCnt$[ebp], cx

; 3090 : 
; 3091 :             // When dealing with joins, we need to make sure we don't create
; 3092 :             // duplicate entities.  The only way to do this is to compare the
; 3093 :             // key for the current row and see if it already exists in the
; 3094 :             // entity list.  So first we need to store the keys for the current
; 3095 :             // row.  If we find an attribute that is NOT a key, then we've
; 3096 :             // retrieved and stored the keys for the current entity in the
; 3097 :             // current row.  Call fnSetEntityByKeys to see if the entity
; 3098 :             // already exists.
; 3099 :             // The second part of the 'if' is to handle the situation where
; 3100 :             // an entity has only keys.  If nEntityKeyCnt is > 0, then we
; 3101 :             // know we've stored some key values.  If the 'lpLoadEntity' for
; 3102 :             // the key is different from the current lpLoadEntity, then we're
; 3103 :             // onto a new entity and we must create the previous entity.
; 3104 :             if ( lpViewAttrib->bKey == FALSE ||

	mov	edx, DWORD PTR _lpViewAttrib$[ebp]
	mov	eax, DWORD PTR [edx+193]
	shr	eax, 1
	and	eax, 1
	je	SHORT $LN149@Load
	movsx	ecx, WORD PTR _nEntityKeyCnt$[ebp]
	test	ecx, ecx
	jle	$LN148@Load
	mov	edx, 16					; 00000010H
	imul	eax, edx, 0
	mov	ecx, DWORD PTR _lpKeyData$[ebp+eax]
	cmp	ecx, DWORD PTR _lpLoadEntity$37[ebp]
	je	$LN148@Load
$LN149@Load:

; 3105 :                  (nEntityKeyCnt > 0 &&
; 3106 :                   lpKeyData[ 0 ].lpLoadEntity != lpLoadEntity) )
; 3107 :             {
; 3108 :                // If nEntityKeyCnt is > 0, then the current lpDataField is
; 3109 :                // not a key and the previous lpDataField was a key.  Use the
; 3110 :                // keys stored in lpKeyData to see if we need to create an
; 3111 :                // entity.
; 3112 :                if ( nEntityKeyCnt > 0 )

	movsx	edx, WORD PTR _nEntityKeyCnt$[ebp]
	test	edx, edx
	jle	$LN150@Load

; 3113 :                {
; 3114 :                   nRC = fnSetEntityByKeys( lpView, lpKeyData, nEntityKeyCnt,

	mov	eax, DWORD PTR _lpBoundList$[ebp]
	push	eax
	mov	ecx, DWORD PTR _lRootCnt$[ebp]
	push	ecx
	mov	edx, DWORD PTR _lRootLimit$[ebp]
	push	edx
	lea	eax, DWORD PTR _bEntityCreatedList$42[ebp]
	push	eax
	movzx	ecx, WORD PTR _nEntityKeyCnt$[ebp]
	push	ecx
	lea	edx, DWORD PTR _lpKeyData$[ebp]
	push	edx
	mov	eax, DWORD PTR _lpView$[ebp]
	push	eax
	call	_fnSetEntityByKeys@28
	mov	WORD PTR _nRC$[ebp], ax

; 3115 :                                            bEntityCreatedList, lRootLimit,
; 3116 :                                            lRootCnt, lpBoundList );
; 3117 :                   if ( nRC == -1 )

	movsx	ecx, WORD PTR _nRC$[ebp]
	cmp	ecx, -1
	jne	SHORT $LN152@Load

; 3118 :                   {
; 3119 :                      // We found a new root entity but we have reached our
; 3120 :                      // root limit.  Set flag and break to fetch the next row.
; 3121 :                      nEntityKeyCnt = 0;

	xor	edx, edx
	mov	WORD PTR _nEntityKeyCnt$[ebp], dx

; 3122 :                      bRootLimitReached = TRUE;

	mov	BYTE PTR _bRootLimitReached$[ebp], 1

; 3123 :                      break;

	jmp	$LN41@Load

; 3124 :                   }

	jmp	SHORT $LN153@Load
$LN152@Load:

; 3125 :                   else
; 3126 :                   if ( nRC == 1 )

	movsx	eax, WORD PTR _nRC$[ebp]
	cmp	eax, 1
	jne	SHORT $LN154@Load

; 3127 :                   {
; 3128 :                      // Keep track of the number of root entities created.
; 3129 :                      if ( lpLoadEntity == lpViewEntity )

	mov	ecx, DWORD PTR _lpLoadEntity$37[ebp]
	cmp	ecx, DWORD PTR _lpViewEntity$[ebp]
	jne	SHORT $LN156@Load

; 3130 :                         lRootCnt++;

	mov	edx, DWORD PTR _lRootCnt$[ebp]
	add	edx, 1
	mov	DWORD PTR _lRootCnt$[ebp], edx
$LN156@Load:

; 3131 :                   }

	jmp	SHORT $LN153@Load
$LN154@Load:

; 3132 :                   else
; 3133 :                   {
; 3134 :                      if ( lpConnection->nTraceLevel > 1 )

	mov	eax, DWORD PTR _lpConnection$[ebp]
	movsx	ecx, WORD PTR [eax+214]
	cmp	ecx, 1
	jle	SHORT $LN153@Load

; 3135 :                      {
; 3136 :                         TraceLineS( "Duplicate row found, entity = ",

	mov	edx, DWORD PTR _lpLoadEntity$37[ebp]
	add	edx, 14					; 0000000eH
	push	edx
	push	OFFSET $SG95382
	call	_TraceLineS@8
$LN153@Load:

; 3137 :                                     lpLoadEntity->szName );
; 3138 :                      }
; 3139 :                   }
; 3140 : 
; 3141 :                   // We just created an entity (or at least positioned on the
; 3142 :                   // right one) so set lpLastCreatedEntity.
; 3143 :                   lpLastCreatedEntity = lpLoadEntity;

	mov	eax, DWORD PTR _lpLoadEntity$37[ebp]
	mov	DWORD PTR _lpLastCreatedEntity$15[ebp], eax

; 3144 : 
; 3145 :                   // Reset nEntityKeyCnt so we don't try this on the following
; 3146 :                   // non-key attributes.
; 3147 :                   nEntityKeyCnt = 0;

	xor	ecx, ecx
	mov	WORD PTR _nEntityKeyCnt$[ebp], cx

; 3148 : 
; 3149 :                } // if ( nEntityKeyCnt > 0 )...

	jmp	SHORT $LN151@Load
$LN150@Load:

; 3150 :                else
; 3151 :                if ( lpLoadEntity->bHasDB_Oper )

	mov	edx, DWORD PTR _lpLoadEntity$37[ebp]
	mov	eax, DWORD PTR [edx+239]
	and	eax, 1
	je	SHORT $LN151@Load

; 3152 :                {
; 3153 :                   if ( bNewEntity )

	movzx	ecx, BYTE PTR _bNewEntity$36[ebp]
	test	ecx, ecx
	je	SHORT $LN151@Load

; 3154 :                   {
; 3155 :                      LoadEntity( lpView, lpLoadEntity->szName, zPOS_LAST, 0 );

	push	0
	push	2
	mov	edx, DWORD PTR _lpLoadEntity$37[ebp]
	add	edx, 14					; 0000000eH
	push	edx
	mov	eax, DWORD PTR _lpView$[ebp]
	push	eax
	call	_LoadEntity@16

; 3156 :                      lpLastCreatedEntity = lpLoadEntity;

	mov	ecx, DWORD PTR _lpLoadEntity$37[ebp]
	mov	DWORD PTR _lpLastCreatedEntity$15[ebp], ecx

; 3157 :                      bEntityCreatedList[ lpLoadEntity->nHierNbr ] = TRUE;

	mov	edx, DWORD PTR _lpLoadEntity$37[ebp]
	movsx	eax, WORD PTR [edx+217]
	mov	BYTE PTR _bEntityCreatedList$42[ebp+eax], 1
$LN151@Load:

; 3158 :                   }
; 3159 :                }
; 3160 : 
; 3161 :                // If the DataField is not a key and the entity was not created
; 3162 :                // during the current FETCH, it was loaded on a previous fetch
; 3163 :                // and we don't need to copy the attributes.
; 3164 :                if ( lpViewAttrib->bKey == FALSE &&

	mov	ecx, DWORD PTR _lpViewAttrib$[ebp]
	mov	edx, DWORD PTR [ecx+193]
	shr	edx, 1
	and	edx, 1
	jne	SHORT $LN148@Load
	mov	eax, DWORD PTR _lpLoadEntity$37[ebp]
	movsx	ecx, WORD PTR [eax+217]
	movzx	edx, BYTE PTR _bEntityCreatedList$42[ebp+ecx]
	test	edx, edx
	jne	SHORT $LN148@Load

; 3165 :                     bEntityCreatedList[ lpLoadEntity->nHierNbr ] == FALSE )
; 3166 :                {
; 3167 :                   continue; // Continue on with the next lpDataField.

	jmp	$LN40@Load
$LN148@Load:

; 3168 :                }
; 3169 : 
; 3170 :             } // if ( !lpViewAttrib->bKey || ...
; 3171 : 
; 3172 :             // ================================================================
; 3173 :             // Retrieve column value and store it as an attribute in the entity.
; 3174 :             // ================================================================
; 3175 : 
; 3176 : #if defined( DB2 ) || defined( ODBC )
; 3177 : 
; 3178 :             lpPtr = ppchBufferPtr[ nColumnCnt ];

	movsx	eax, WORD PTR _nColumnCnt$[ebp]
	mov	ecx, DWORD PTR _ppchBufferPtr$[ebp]
	mov	edx, DWORD PTR [ecx+eax*4]
	mov	DWORD PTR _lpPtr$31[ebp], edx

; 3179 :             nLth = *((SQLINTEGER *) lpPtr);

	mov	eax, DWORD PTR _lpPtr$31[ebp]
	mov	ecx, DWORD PTR [eax]
	mov	DWORD PTR _nLth$34[ebp], ecx

; 3180 :             lpPtr += sizeof( SQLINTEGER );

	mov	edx, DWORD PTR _lpPtr$31[ebp]
	add	edx, 4
	mov	DWORD PTR _lpPtr$31[ebp], edx

; 3181 : 
; 3182 :             // If attribute is a blob or long string, then the value must be
; 3183 :             // retrieved from a long varchar.
; 3184 :             if ( lpDataField->cFldType == zTYPE_BLOB ||

	mov	eax, DWORD PTR _lpDataField$[ebp]
	movsx	ecx, BYTE PTR [eax+270]
	cmp	ecx, 66					; 00000042H
	je	SHORT $LN163@Load
	mov	edx, DWORD PTR _lpDataField$[ebp]
	movsx	eax, BYTE PTR [edx+270]
	cmp	eax, 86					; 00000056H
	jne	$LN161@Load
$LN163@Load:

; 3185 :                  lpDataField->cFldType == 'V' )
; 3186 :             {
; 3187 : #ifdef DB2
; 3188 :                SQLINTEGER  cLocator = *((SQLINTEGER *) lpPtr);
; 3189 :                SQLSMALLINT iSqlType;
; 3190 :                SQLSMALLINT iCType;
; 3191 : 
; 3192 :                if ( lpDataField->cFldType == zTYPE_BLOB )
; 3193 :                {
; 3194 :                   iSqlType = SQL_C_BLOB_LOCATOR;
; 3195 :                   iCType   = SQL_C_BINARY;
; 3196 :                }
; 3197 :                else
; 3198 :                {
; 3199 :                   iSqlType = SQL_C_CLOB_LOCATOR;
; 3200 :                   iCType   = SQL_C_CHAR;
; 3201 :                }
; 3202 : 
; 3203 :                if ( hBlobStmt == 0 )
; 3204 :                {
; 3205 :                   nRC = SQLAllocStmt( lpConnection->hdbc, &hBlobStmt );
; 3206 :                   SQL_RC( "SQLAllocStmt", nRC, "Allocate Temp HSTMT", 0, 2 );
; 3207 :                   if ( nRC != SQL_SUCCESS )
; 3208 :                      goto EndOfFunction;
; 3209 : 
; 3210 :                   nRC = SQLAllocStmt( lpConnection->hdbc, &hLocatorStmt );
; 3211 :                   SQL_RC( "SQLAllocStmt", nRC, "Allocate Temp HSTMT", 0, 2 );
; 3212 :                   if ( nRC != SQL_SUCCESS )
; 3213 :                      goto EndOfFunction;
; 3214 :                }
; 3215 : 
; 3216 :                // NOTE: There doesn't seem to be a way to find out if the
; 3217 :                // BLOB/CLOB is null (checking for SQL_NULL doesn't work)
; 3218 :                // so SQLGetLength( ) will return an error if the attribute
; 3219 :                // is null.
; 3220 :                nRC = SQLGetLength( hBlobStmt, iSqlType, cLocator, &nLth, &nInd );
; 3221 :                SQL_RC( "SQLGetLength", nRC, "Getting length of column ",
; 3222 :                        lpDataField->szFldName, 2 );
; 3223 : 
; 3224 :                // If the length is 0, then there is nothing to be read.
; 3225 :                if ( nLth > 0 )
; 3226 :                {
; 3227 :                   // If memory needs to be allocated, then allocate it.
; 3228 :                   if ( hMem == 0 || lMemLth <= nLth )
; 3229 :                   {
; 3230 :                      if ( hMem != 0 )
; 3231 :                         SysFreeMemory( hMem );
; 3232 : 
; 3233 :                      // Make sure that the length of the buffer is a least
; 3234 :                      // 1000 and always at least 1 greater then the length of
; 3235 :                      // the column value.
; 3236 :                      lMemLth = ( nLth < 1000 ) ? 1001 : nLth + 1;
; 3237 :                      hMem = SysAllocMemory( (zPVOID) &lpMem, lMemLth, 0,
; 3238 :                                             zCOREMEM_ALLOC, 0 );
; 3239 :                      if ( lpMem == 0 )
; 3240 :                         goto EndOfFunction;
; 3241 :                   }
; 3242 : 
; 3243 :                   nRC = SQLGetSubString( hBlobStmt, iSqlType, cLocator, 1, nLth,
; 3244 :                                          iCType, (SQLPOINTER) lpMem,
; 3245 :                                          lMemLth,  &nInd, &nInd );
; 3246 :                   SQL_RC( "SQLGetSubString", nRC, 0, 0, 3 );
; 3247 :                   if ( nRC != SQL_SUCCESS )
; 3248 :                      goto EndOfFunction;
; 3249 : 
; 3250 :                   StoreValueInRecord( lpView, lpLoadEntity, lpViewAttrib,
; 3251 :                                       lpMem, (zULONG) nLth );
; 3252 : 
; 3253 :                   // Now set the attribute flags.
; 3254 :                   GetAttributeFlags( &lpAttribFlags, lpView,
; 3255 :                                      lpLoadEntity, lpViewAttrib );
; 3256 :                   lpAttribFlags->u.bFlags.bActivated = TRUE;
; 3257 :                   lpAttribFlags->u.bFlags.bUpdated  = FALSE;
; 3258 : 
; 3259 :                   nRC = SQLFreeStmt( hBlobStmt, SQL_CLOSE );
; 3260 :                   SQL_RC( "SQLFreeStmt", nRC, "Freeing temp handle?", 0, 3 );
; 3261 : 
; 3262 : 
; 3263 :                   nRC = SQLSetParam( hLocatorStmt, 1, SQL_C_CLOB_LOCATOR,
; 3264 :                                      SQL_CLOB_LOCATOR, 0, 0, &cLocator, 0 );
; 3265 :                   SQL_RC( "SQLSetParam", nRC, "About to free locator.", 0, 3 );
; 3266 : 
; 3267 :                   nRC = SQLExecDirect( hLocatorStmt, "FREE LOCATOR ?", SQL_NTS );
; 3268 :                   SQL_RC( "SQLExecDirect", nRC, "Freeing locator.", 0, 3 );
; 3269 : 
; 3270 :                } // if ( nLth > 0 )...
; 3271 :                else
; 3272 :                   nRC = 0;
; 3273 : 
; 3274 : #else   // i.e. #ifdef ODBC
; 3275 : 
; 3276 :                // Get the length of the column.
; 3277 :                nRC = SQLGetData( lpConnection->hstmt, nColumnCnt,

	lea	ecx, DWORD PTR _nLth$34[ebp]
	push	ecx
	push	0
	lea	edx, DWORD PTR _sz$43[ebp]
	push	edx
	push	99					; 00000063H
	movzx	eax, WORD PTR _nColumnCnt$[ebp]
	push	eax
	mov	ecx, DWORD PTR _lpConnection$[ebp]
	mov	edx, DWORD PTR [ecx+2812]
	push	edx
	call	_SQLGetData@24
	mov	WORD PTR _nRC$[ebp], ax

; 3278 :                                  SQL_C_DEFAULT, (SQLPOINTER) sz, 0, &nLth );
; 3279 :                SQL_RC( "SQLGetData", nRC, "Getting length for ",

	mov	eax, DWORD PTR _lpConnection$[ebp]
	push	eax
	push	2
	mov	ecx, DWORD PTR _lpDataField$[ebp]
	add	ecx, 10					; 0000000aH
	push	ecx
	push	OFFSET $SG95389
	movzx	edx, WORD PTR _nRC$[ebp]
	push	edx
	push	OFFSET $SG95390
	call	_fnSqlRC
	add	esp, 24					; 00000018H

; 3280 :                        lpDataField->szFldName, 2 );
; 3281 : 
; 3282 :                if ( lpConnection->nTraceLevel >= 2 )

	mov	eax, DWORD PTR _lpConnection$[ebp]
	movsx	ecx, WORD PTR [eax+214]
	cmp	ecx, 2
	jl	SHORT $LN164@Load

; 3283 :                {
; 3284 :                   TraceLineI( "Column number = ", nColumnCnt );

	movsx	edx, WORD PTR _nColumnCnt$[ebp]
	push	edx
	push	OFFSET $SG95392
	call	_TraceLineI@8

; 3285 :                   TraceLineI( "Returned lth for column = ", nLth );

	mov	eax, DWORD PTR _nLth$34[ebp]
	push	eax
	push	OFFSET $SG95393
	call	_TraceLineI@8
$LN164@Load:

; 3286 :                }
; 3287 : 
; 3288 :                if ( !RC_SUCCESSFUL( nRC ) )

	movsx	ecx, WORD PTR _nRC$[ebp]
	test	ecx, ecx
	je	SHORT $LN165@Load
	movsx	edx, WORD PTR _nRC$[ebp]
	cmp	edx, 1
	je	SHORT $LN165@Load

; 3289 :                   goto EndOfFunction;

	jmp	$EndOfFunction$213
$LN165@Load:

; 3290 : 
; 3291 :                if ( nLth > 0 )

	cmp	DWORD PTR _nLth$34[ebp], 0
	jle	$LN166@Load

; 3292 :                {
; 3293 :                   // If memory needs to be allocated, then allocate it.
; 3294 :                   if ( hMem == 0 || lMemLth <= nLth )

	cmp	DWORD PTR _hMem$[ebp], 0
	je	SHORT $LN168@Load
	mov	eax, DWORD PTR _lMemLth$[ebp]
	cmp	eax, DWORD PTR _nLth$34[ebp]
	jg	SHORT $LN167@Load
$LN168@Load:

; 3295 :                   {
; 3296 :                      if ( hMem != 0 )

	cmp	DWORD PTR _hMem$[ebp], 0
	je	SHORT $LN169@Load

; 3297 :                         SysFreeMemory( hMem );

	mov	ecx, DWORD PTR _hMem$[ebp]
	push	ecx
	call	_SysFreeMemory@4
$LN169@Load:

; 3298 : 
; 3299 :                      // Make sure that the length of the buffer is a least
; 3300 :                      // 1000 and always at least 1 greater then the length of
; 3301 :                      // the column value.
; 3302 :                      lMemLth = ( nLth < 1000 ) ? 1001 : nLth + 1;

	cmp	DWORD PTR _nLth$34[ebp], 1000		; 000003e8H
	jge	SHORT $LN203@Load
	mov	DWORD PTR tv1084[ebp], 1001		; 000003e9H
	jmp	SHORT $LN204@Load
$LN203@Load:
	mov	edx, DWORD PTR _nLth$34[ebp]
	add	edx, 1
	mov	DWORD PTR tv1084[ebp], edx
$LN204@Load:
	mov	eax, DWORD PTR tv1084[ebp]
	mov	DWORD PTR _lMemLth$[ebp], eax

; 3303 :                      hMem = SysAllocMemory( (zPVOID) &lpMem, lMemLth, 0,

	push	0
	push	32768					; 00008000H
	push	0
	mov	ecx, DWORD PTR _lMemLth$[ebp]
	push	ecx
	lea	edx, DWORD PTR _lpMem$[ebp]
	push	edx
	call	_SysAllocMemory@20
	mov	DWORD PTR _hMem$[ebp], eax

; 3304 :                                             zCOREMEM_ALLOC, 0 );
; 3305 :                      if ( lpMem == 0 )

	cmp	DWORD PTR _lpMem$[ebp], 0
	jne	SHORT $LN167@Load

; 3306 :                         goto EndOfFunction;

	jmp	$EndOfFunction$213
$LN167@Load:

; 3307 :                   }
; 3308 : 
; 3309 :                   // Now retrieve the data.
; 3310 :                   nRC = SQLGetData( lpConnection->hstmt, nColumnCnt,

	lea	eax, DWORD PTR _nLth$34[ebp]
	push	eax
	mov	ecx, DWORD PTR _lMemLth$[ebp]
	push	ecx
	mov	edx, DWORD PTR _lpMem$[ebp]
	push	edx
	push	99					; 00000063H
	movzx	eax, WORD PTR _nColumnCnt$[ebp]
	push	eax
	mov	ecx, DWORD PTR _lpConnection$[ebp]
	mov	edx, DWORD PTR [ecx+2812]
	push	edx
	call	_SQLGetData@24
	mov	WORD PTR _nRC$[ebp], ax

; 3311 :                                     SQL_C_DEFAULT, (SQLPOINTER) lpMem,
; 3312 :                                     lMemLth, &nLth );
; 3313 :                   SQL_RC( "SQLGetData", nRC, "Getting data ", 0, 2 );

	mov	eax, DWORD PTR _lpConnection$[ebp]
	push	eax
	push	2
	push	0
	push	OFFSET $SG95400
	movzx	ecx, WORD PTR _nRC$[ebp]
	push	ecx
	push	OFFSET $SG95401
	call	_fnSqlRC
	add	esp, 24					; 00000018H

; 3314 : 
; 3315 :                   if ( lpConnection->nTraceLevel >= 2 )

	mov	edx, DWORD PTR _lpConnection$[ebp]
	movsx	eax, WORD PTR [edx+214]
	cmp	eax, 2
	jl	SHORT $LN171@Load

; 3316 :                      TraceLineI( "Returned lth for column = ", nLth );

	mov	ecx, DWORD PTR _nLth$34[ebp]
	push	ecx
	push	OFFSET $SG95403
	call	_TraceLineI@8
$LN171@Load:

; 3317 : 
; 3318 :                   if ( !RC_SUCCESSFUL( nRC ) )

	movsx	edx, WORD PTR _nRC$[ebp]
	test	edx, edx
	je	SHORT $LN172@Load
	movsx	eax, WORD PTR _nRC$[ebp]
	cmp	eax, 1
	je	SHORT $LN172@Load

; 3319 :                      goto EndOfFunction;

