; Listing generated by Microsoft (R) Optimizing Compiler Version 19.00.24213.1 

	TITLE	c:\10c\a\oe\KZHSQLGA.C
	.686P
	.XMM
	include listing.inc
	.model	flat

INCLUDELIB MSVCRTD
INCLUDELIB OLDNAMES

_BSS	SEGMENT
$SG13347 DB	01H DUP (?)
$SG13569 DB	01H DUP (?)
$SG13570 DB	01H DUP (?)
_BSS	ENDS
_DATA	SEGMENT
COMM	_BoundAttrListRecord:BYTE:01aH
_DATA	ENDS
_BSS	SEGMENT
$SG13260 DB	01H DUP (?)
$SG13261 DB	01H DUP (?)
$SG13284 DB	01H DUP (?)
$SG13286 DB	01H DUP (?)
$SG13288 DB	01H DUP (?)
$SG13289 DB	01H DUP (?)
$SG13290 DB	01H DUP (?)
$SG13295 DB	01H DUP (?)
$SG13297 DB	01H DUP (?)
$SG13301 DB	01H DUP (?)
$SG13303 DB	01H DUP (?)
$SG13306 DB	01H DUP (?)
_BSS	ENDS
_DATA	SEGMENT
$SG13341 DB	'Warning', 00H
$SG12317 DB	'UPDATE ', 00H
$SG13342 DB	'Error', 00H
	ORG $+2
$SG13343 DB	'%s loading qualification object while activating LOD %s:'
	DB	' %s', 00H
$SG13344 DB	'Qualification Object Warning', 00H
	ORG $+3
$SG13345 DB	'Qualification Object Error', 00H
	ORG $+1
$SG13346 DB	'KZH0201', 00H
$SG12323 DB	' SET ', 00H
	ORG $+2
$SG12324 DB	' = ', 00H
$SG12325 DB	' WHERE ( ', 00H
	ORG $+2
$SG12326 DB	' = ', 00H
$SG12328 DB	' AND ', 00H
	ORG $+2
$SG12329 DB	' )', 00H
	ORG $+1
$SG12348 DB	'DELETE FROM ', 00H
	ORG $+3
$SG12349 DB	' ', 00H
	ORG $+2
_szlEntitySpec DB 'EntitySpec', 00H
	ORG $+1
_szlQualAttrib DB 'QualAttrib', 00H
	ORG $+1
_szlSubQualAttrib DB 'SubQualAttrib', 00H
	ORG $+2
$SG12368 DB	'DELETE FROM ', 00H
	ORG $+3
$SG12369 DB	' ', 00H
	ORG $+2
$SG13407 DB	'Cannot allocate memory.', 00H
$SG13410 DB	'Cannot allocate memory.', 00H
$SG12394 DB	'DELETE FROM ', 00H
	ORG $+3
$SG12397 DB	' AND ', 00H
	ORG $+2
$SG12398 DB	' = ', 00H
$SG13432 DB	')', 00H
	ORG $+2
$SG13433 DB	'AND', 00H
$SG13434 DB	'IS NOT NULL', 00H
$SG13435 DB	'(', 00H
	ORG $+2
$SG12482 DB	' ( ', 00H
$SG12488 DB	' AND ', 00H
	ORG $+2
$SG12489 DB	'.', 00H
	ORG $+2
$SG12490 DB	' = ', 00H
$SG12493 DB	'.', 00H
	ORG $+2
$SG12497 DB	'.', 00H
	ORG $+2
$SG12502 DB	' AND ', 00H
	ORG $+2
$SG12503 DB	'.', 00H
	ORG $+2
$SG12504 DB	' = ', 00H
$SG12507 DB	'.', 00H
	ORG $+2
$SG12512 DB	' AND ', 00H
	ORG $+2
$SG12513 DB	'.', 00H
	ORG $+2
$SG12514 DB	' = ', 00H
$SG12521 DB	'(#11) View OD Name = ', 00H
	ORG $+2
$SG12522 DB	'(#11) Building foreign keys for entity', 00H
	ORG $+1
$SG12523 DB	'(#11) RelViewAttrib = ', 00H
	ORG $+1
$SG12524 DB	'Internal error #11--can''t find RelRecord', 00H
	ORG $+3
$SG12525 DB	'Zeidon SQL Generator Error', 00H
	ORG $+1
$SG12529 DB	'.', 00H
	ORG $+2
$SG12530 DB	' )', 00H
	ORG $+1
$SG13572 DB	'Cannot allocate memory', 00H
	ORG $+1
$SG13573 DB	'Oper', 00H
	ORG $+3
$SG13580 DB	'OR', 00H
	ORG $+1
$SG13575 DB	'QualAttrib does not have an operation defined.  Oper is '
	DB	'a required attribute.', 00H
	ORG $+2
$SG13581 DB	'EntityName', 00H
	ORG $+1
$SG13585 DB	'*root*', 00H
	ORG $+1
$SG13586 DB	'*root*', 00H
	ORG $+1
$SG12562 DB	' AND ', 00H
	ORG $+2
$SG13587 DB	'*root*', 00H
	ORG $+1
$SG13605 DB	'Internal error #10--can''t find RelRecord', 00H
	ORG $+3
$SG13589 DB	'Entity ''%s'' was specified in the Qualification object '
	DB	'but does not exist in LOD ''%s''', 00H
	ORG $+3
$SG13592 DB	'Entity ''%s'' in Object ''%s'' is a work or derived enti'
	DB	'ty and is not allowed for entity qualification during an Acti'
	DB	'vate', 00H
	ORG $+2
$SG13594 DB	'You cannot qualify entity ''%s'' using entity ''%s'' in '
	DB	'Object Definition ''%s''.  Only child entities may be used fo'
	DB	'r qualification.', 00H
$SG13596 DB	'AttributeName', 00H
	ORG $+2
$SG13599 DB	'QualAttrib entity has AttributeName but doesn''t have En'
	DB	'tityName.', 00H
	ORG $+3
$SG11557 DB	' FROM ', 00H
	ORG $+1
$SG11561 DB	' WHERE ( ', 00H
	ORG $+2
$SG13602 DB	'AttributeName in QualAttrib not found in in target objec'
	DB	't definition.', 00H
	ORG $+2
$SG13608 DB	'Value', 00H
	ORG $+2
$SG11562 DB	' )', 00H
	ORG $+1
$SG13611 DB	'QualAttrib entity has Value but doesn''t have AttributeN'
	DB	'ame.', 00H
$SG11563 DB	' WHERE ', 00H
$SG12588 DB	' ( SELECT ', 00H
	ORG $+1
$SG13615 DB	'QualAttrib Value invalid for DateTime.', 00H
	ORG $+1
$SG12591 DB	' FROM ', 00H
	ORG $+1
$SG12592 DB	' WHERE ', 00H
$SG13617 DB	'Cannot allocate memory.', 00H
$SG12594 DB	' ( ', 00H
$SG13619 DB	'KeyList', 00H
$SG12596 DB	' ) ', 00H
$SG13621 DB	'Cannot specify ''Value'' and ''KeyList'' on the same Qua'
	DB	'lAttrib.', 00H
	ORG $+3
$SG12597 DB	' )', 00H
	ORG $+1
$SG13623 DB	'QualAttrib entity has KeyList but doesn''t have Attribut'
	DB	'eName.', 00H
	ORG $+2
$SG13625 DB	'The only datatypes supported with KeyList is Integer.', 00H
	ORG $+2
$SG13627 DB	'Only one QualAttrib is allowed to have a KeyList specifi'
	DB	'ed under each QualEntity.', 00H
	ORG $+2
$SG13628 DB	'KeyList', 00H
$SG13629 DB	'KeyList', 00H
$SG13630 DB	'KeyList', 00H
$SG13631 DB	'IntegerValue', 00H
	ORG $+3
$SG13632 DB	'KeyList', 00H
$SG13633 DB	'SourceViewName', 00H
	ORG $+1
$SG13638 DB	'SourceViewID', 00H
	ORG $+3
$SG13639 DB	'SourceViewName not found at TASK level.', 00H
$SG13640 DB	'SourceViewID', 00H
	ORG $+3
$SG13642 DB	'SourceEntityName', 00H
	ORG $+3
$SG13647 DB	'Attribute SourceEntityName not found in target object de'
	DB	'fintion.', 00H
	ORG $+3
$SG12623 DB	' AND ', 00H
	ORG $+2
$SG12624 DB	'.', 00H
	ORG $+2
$SG12625 DB	' = ', 00H
$SG13654 DB	'SourceAttributeName', 00H
$SG13651 DB	'Cursor is not set properly in the Source View specified '
	DB	'in QualAttrib.', 00H
	ORG $+1
$SG13653 DB	'SourceEntityName does not have hierarchical precidence o'
	DB	'ver EntityName in EntitySpec.', 00H
	ORG $+2
$SG13657 DB	'QualAttrib has SourceAttributeName but doesn''t have Sou'
	DB	'rceEntityName.', 00H
	ORG $+2
$SG13660 DB	'SourceAttributeName in QualAttrib not found in target ob'
	DB	'ject definition.', 00H
	ORG $+3
$SG11612 DB	' AS', 00H
$SG13664 DB	'EXISTS', 00H
	ORG $+1
$SG13665 DB	'NOT EXISTS', 00H
	ORG $+1
$SG13667 DB	'QualAttrib must specify EntityName for [NOT] EXISTS oper'
	DB	'ation.', 00H
	ORG $+1
$SG13679 DB	')', 00H
	ORG $+2
$SG13669 DB	'QualAttrib.EntityName must be a direct descendant of Ent'
	DB	'itySpec.EntityName for the [NOT] EXISTS operation.', 00H
	ORG $+1
$SG13683 DB	'AND', 00H
$SG13672 DB	'Extraneous attributes specified for [NOT] EXISTS operati'
	DB	'on.  Only Oper and EntityName are needed.  All others will be'
	DB	' ignored.', 00H
	ORG $+1
$SG13675 DB	'EXISTS', 00H
	ORG $+1
$SG13685 DB	'IS NOT NULL', 00H
$SG13686 DB	'IS NULL', 00H
$SG13688 DB	'(', 00H
	ORG $+2
$SG13692 DB	'IS', 00H
	ORG $+1
$SG13694 DB	'QualAttrib must have EntityName for IS operation.', 00H
	ORG $+2
$SG13696 DB	'QualAttrib must have SourceEntityName for IS operation.', 00H
$SG13698 DB	'QualAttrib must have SourceView for IS operation.', 00H
	ORG $+2
$SG12684 DB	' AND ( ', 00H
$SG12685 DB	'( ', 00H
	ORG $+1
$SG13701 DB	'Extraneous attributes specified for IS operation.  Only '
	DB	'Oper, EntityName, SourceEntityName, and SourceView are needed'
	DB	'.  All others will be ignored.', 00H
$SG13704 DB	'LIKE', 00H
	ORG $+3
$SG13706 DB	'QualAttrib must have Entity.AttributeName for LIKE opera'
	DB	'tion.', 00H
	ORG $+2
$SG12687 DB	' ', 00H
	ORG $+2
$SG13708 DB	'Entity.AttributeName for QualAttrib must be a string for'
	DB	' the LIKE operation.', 00H
	ORG $+3
$SG13712 DB	'=', 00H
	ORG $+2
$SG12688 DB	' ', 00H
	ORG $+2
$SG13713 DB	'=', 00H
	ORG $+2
$SG13714 DB	'=', 00H
	ORG $+2
$SG13715 DB	'IS NULL', 00H
$SG13718 DB	'<> !=', 00H
	ORG $+2
$SG13719 DB	'IS NOT NULL', 00H
$SG13721 DB	'<= =< >= =>', 00H
$SG13722 DB	'QualAttrib has AttributeName but does not have Value or '
	DB	'SourceAttributeName, which are needed for the following compa'
	DB	'rison opererators: ''<'', ''<='', ''>'', and''>=''.', 00H
	ORG $+3
$SG12698 DB	'.', 00H
	ORG $+2
$SG12699 DB	' IN ( SELECT INTVALUE FROM ZEIDONKEYLIST WHERE TASKID = '
	DB	'%ld ) ', 00H
	ORG $+1
$SG13725 DB	'IS NULL', 00H
$SG12702 DB	'UPPER', 00H
	ORG $+2
$SG12703 DB	'( ', 00H
	ORG $+1
$SG12704 DB	'.', 00H
	ORG $+2
$SG13728 DB	'QualAttrib has Value or SourceAttributeName but does not'
	DB	' have AttributeName.', 00H
	ORG $+3
$SG12706 DB	' )', 00H
	ORG $+1
$SG13731 DB	'=', 00H
	ORG $+2
$SG12707 DB	' ', 00H
	ORG $+2
$SG13732 DB	'=', 00H
	ORG $+2
$SG13733 DB	'=', 00H
	ORG $+2
$SG13736 DB	'Internal error setting view to Subobject.', 00H
	ORG $+2
$SG12717 DB	' IS NOT ', 00H
	ORG $+3
$SG12718 DB	'<>', 00H
	ORG $+1
$SG12721 DB	' IS ', 00H
	ORG $+3
$SG11700 DB	'Too many tables in SQL cmd', 00H
	ORG $+1
$SG11701 DB	'Internal Core Error', 00H
$SG12726 DB	' ', 00H
	ORG $+2
$SG13752 DB	'EXISTS', 00H
	ORG $+1
$SG12729 DB	' ', 00H
	ORG $+2
$SG12730 DB	' )', 00H
	ORG $+1
$SG11710 DB	' LEFT JOIN ', 00H
$SG13759 DB	'The QualAttrib used to qualify EntitySpec causes two tab'
	DB	'les from different databases to be joined.  This is invalid.', 00H
	ORG $+3
$SG11711 DB	', ', 00H
	ORG $+1
$SG13761 DB	'Parens for all QualAttrib.Oper under EntitySpec do not m'
	DB	'atch.', 00H
	ORG $+2
$SG11714 DB	' ON ', 00H
	ORG $+3
$SG11718 DB	' AND ', 00H
	ORG $+2
$SG11719 DB	'.', 00H
	ORG $+2
$SG11720 DB	' = ', 00H
$SG11721 DB	'.', 00H
	ORG $+2
$SG11722 DB	' ) ', 00H
$SG11726 DB	' LEFT JOIN ', 00H
$SG11727 DB	', ', 00H
	ORG $+1
$SG11731 DB	' ON ', 00H
	ORG $+3
$SG11736 DB	' AND ', 00H
	ORG $+2
$SG11737 DB	'.', 00H
	ORG $+2
$SG11738 DB	' = ', 00H
$SG11741 DB	'.', 00H
	ORG $+2
$SG11742 DB	'.', 00H
	ORG $+2
$SG11743 DB	' ) ', 00H
$SG11782 DB	'YYYYMMDD', 00H
	ORG $+3
$SG11785 DB	'YYYY-M-D H:MI:SSAM', 00H
	ORG $+1
$SG11788 DB	'D-Mmm-YYYY H:MI:SSAM', 00H
	ORG $+3
$SG13838 DB	'Cannot allocate memory', 00H
	ORG $+1
$SG13839 DB	'EntityName', 00H
	ORG $+1
$SG11791 DB	'D-Mmm-YYYY', 00H
	ORG $+1
$SG13842 DB	'*root*', 00H
	ORG $+1
$SG11794 DB	'YYYY-M-D H:MI:SS', 00H
	ORG $+3
$SG13843 DB	'*root*', 00H
	ORG $+1
$SG13844 DB	'*root*', 00H
	ORG $+1
$SG11797 DB	'YYYY-M-D H:MIAM', 00H
$SG13846 DB	'Entity ''%s'' does not exist in Object ''%s''', 00H
	ORG $+2
$SG12823 DB	', ', 00H
	ORG $+1
$SG11800 DB	'YYYY-M-D H:MI', 00H
	ORG $+2
$SG13850 DB	'OpenSQL', 00H
$SG11803 DB	'YYYY-M-D', 00H
	ORG $+3
$SG13849 DB	'Entity ''%s'' in Object ''%s'' is a work or derived enti'
	DB	'ty and is not allowed for entity qualification during an Acti'
	DB	'vate', 00H
	ORG $+2
$SG12825 DB	' AND ', 00H
	ORG $+2
$SG13853 DB	'OpenSQL_AttributeList', 00H
	ORG $+2
$SG11806 DB	'H:MI:SSAM', 00H
	ORG $+2
$SG13855 DB	'OpenSQL is specified but not OpenSQL_AttributeList.', 00H
$SG11809 DB	'H:MI:SS', 00H
$SG13858 DB	'OpenSQL is specified but entity does not have DB informa'
	DB	'tion for attributes.', 00H
	ORG $+3
$SG13860 DB	'Cannot allocate memory', 00H
	ORG $+1
$SG11812 DB	'H:MIAM', 00H
	ORG $+1
$SG11814 DB	'H:MI', 00H
	ORG $+3
$SG11816 DB	'19000101000000000', 00H
	ORG $+2
$SG13866 DB	'Options', 00H
$SG12888 DB	'Qualification Object Error', 00H
	ORG $+1
$SG13865 DB	'Attribute name ''%s'' specified in OpenSQL_AttributeList'
	DB	' does not exist for entity ''%s''', 00H
	ORG $+2
$SG13869 DB	'NOJOIN', 00H
	ORG $+1
$SG12887 DB	'Cursor is NULL for attribute ''@%s.%s''', 00H
	ORG $+2
$SG12889 DB	'KZH0202', 00H
$SG11865 DB	'null', 00H
	ORG $+3
$SG11875 DB	'UPPER', 00H
	ORG $+2
$SG13931 DB	'ERR>  ', 00H
	ORG $+1
$SG13932 DB	'^', 00H
	ORG $+2
$SG12929 DB	'SELECT ', 00H
$SG11908 DB	'Blobs not supported as string attributes', 00H
	ORG $+3
$SG11909 DB	'Zeidon Core', 00H
$SG12939 DB	'( ', 00H
	ORG $+1
$SG11917 DB	'HH.MI.SS.999', 00H
	ORG $+3
$SG12942 DB	' )', 00H
	ORG $+1
$SG11919 DB	'YYYY-mm-DD', 00H
	ORG $+1
$SG11921 DB	'YYYY-mm-DD-HH.MI.SS.999', 00H
$SG11922 DB	'''%s''', 00H
	ORG $+3
$SG14009 DB	'ON ', 00H
$SG14013 DB	'AND ', 00H
	ORG $+3
$SG12989 DB	'SELECT ', 00H
$SG14014 DB	'OR ', 00H
$SG14017 DB	'FROM ', 00H
	ORG $+2
$SG12993 DB	' AND ', 00H
	ORG $+2
$SG12994 DB	' = ', 00H
$SG14020 DB	'INTO ', 00H
	ORG $+2
$SG14022 DB	'IN ', 00H
$SG13000 DB	', ', 00H
	ORG $+1
$SG14026 DB	'SELECT ', 00H
$SG14029 DB	'SET ', 00H
	ORG $+3
$SG14032 DB	'VALUES ', 00H
$SG14035 DB	'WHERE ', 00H
	ORG $+1
$SG12002 DB	'AVG( ', 00H
	ORG $+2
$SG12004 DB	'COUNT( ', 00H
$SG12006 DB	'MIN( ', 00H
	ORG $+2
$SG12008 DB	'SUM( ', 00H
	ORG $+2
$SG12010 DB	'MAX( ', 00H
	ORG $+2
$SG14059 DB	'SQL>  ', 00H
	ORG $+1
$SG12014 DB	'.', 00H
	ORG $+2
$SG12018 DB	' )', 00H
	ORG $+1
$SG12021 DB	', ', 00H
	ORG $+1
$SG12024 DB	', ', 00H
	ORG $+1
$SG12046 DB	' INTO ', 00H
	ORG $+1
$SG12052 DB	', ', 00H
	ORG $+1
$SG12055 DB	':', 00H
	ORG $+2
$SG13094 DB	'SELECT ', 00H
$SG13097 DB	'(kzhsqlga) Internal error #2', 00H
	ORG $+3
$SG13100 DB	', ', 00H
	ORG $+1
$SG13102 DB	' ( ', 00H
$SG13106 DB	' AND ', 00H
	ORG $+2
$SG12082 DB	' , ', 00H
$SG13107 DB	' = ', 00H
$SG13110 DB	' ) AND ( ', 00H
	ORG $+2
$SG13113 DB	' AND ', 00H
	ORG $+2
$SG13115 DB	'(kzhsqlga) Internal error #3', 00H
	ORG $+3
$SG13116 DB	' ', 00H
	ORG $+2
$SG13119 DB	' ', 00H
	ORG $+2
$SG13121 DB	' ', 00H
	ORG $+2
$SG13122 DB	' )', 00H
	ORG $+1
$SG12128 DB	'fnSqlBuildWhere found ForeignKey: ', 00H
	ORG $+1
$SG12129 DB	'fnSqlBuildWhere found Attribute: ', 00H
	ORG $+2
$SG12130 DB	' ( ', 00H
$SG12133 DB	' IS ', 00H
	ORG $+3
$SG12134 DB	' = ', 00H
$SG12135 DB	' )', 00H
	ORG $+1
$SG13162 DB	' ORDER BY ', 00H
	ORG $+1
$SG12139 DB	' ( ', 00H
$SG12140 DB	' AND ', 00H
	ORG $+2
$SG12142 DB	'.', 00H
	ORG $+2
$SG13167 DB	', ', 00H
	ORG $+1
$SG13168 DB	'.', 00H
	ORG $+2
$SG12145 DB	' IS ', 00H
	ORG $+3
$SG13170 DB	' DESC', 00H
	ORG $+2
$SG12146 DB	' = ', 00H
$SG12150 DB	' )', 00H
	ORG $+1
$SG12148 DB	'SQL Error creating WHERE clause -- no key attribute foun'
	DB	'd in object definition.', 0aH, 'Object name = ', 00H
	ORG $+1
$SG12149 DB	0aH, 'Entity name = ', 00H
$SG12172 DB	'INSERT INTO ', 00H
	ORG $+3
$SG12173 DB	' ( ', 00H
$SG12177 DB	' ) VALUES ( ', 00H
	ORG $+3
$SG12179 DB	' )', 00H
	ORG $+1
$SG13224 DB	'Invalid Sequencing defined for Entity ', 00H
	ORG $+1
$SG13230 DB	' ORDER BY ', 00H
	ORG $+1
$SG13231 DB	', ', 00H
	ORG $+1
$SG13232 DB	'.', 00H
	ORG $+2
$SG13234 DB	' DESC', 00H
	ORG $+2
$SG12215 DB	'INSERT INTO ', 00H
	ORG $+3
$SG12216 DB	' ( ', 00H
$SG12218 DB	', ', 00H
	ORG $+1
$SG12222 DB	', ', 00H
	ORG $+1
$SG12223 DB	' ) VALUES ( ', 00H
	ORG $+3
$SG12225 DB	', ', 00H
	ORG $+1
$SG12227 DB	', ', 00H
	ORG $+1
$SG12228 DB	' )', 00H
	ORG $+1
$SG13262 DB	'--- QualAttrib ---', 00H
	ORG $+1
$SG13264 DB	'Entity name: ', 00H
	ORG $+2
$SG13266 DB	'Attrib name: ', 00H
	ORG $+2
$SG13267 DB	'Oper       : ', 00H
	ORG $+2
$SG13269 DB	'Value      : ', 00H
	ORG $+2
$SG13271 DB	'Source Entity name: ', 00H
	ORG $+3
$SG13273 DB	'Source Attrib name: ', 00H
	ORG $+3
$SG13275 DB	'SourceView is defined', 00H
	ORG $+2
$SG13285 DB	'************************************', 00H
	ORG $+3
$SG12261 DB	'UPDATE ', 00H
$SG13287 DB	'Display QualEntity structure', 00H
	ORG $+3
$SG13291 DB	'--- QualEntity ---', 00H
	ORG $+1
$SG13292 DB	'  Entity Name:', 00H
	ORG $+1
$SG13296 DB	'  bQualUsesChildEntity: TRUE', 00H
	ORG $+3
$SG12273 DB	' SET ', 00H
	ORG $+2
$SG13298 DB	'  bQualUsesChildEntity: FALSE', 00H
	ORG $+2
$SG12274 DB	' , ', 00H
$SG12275 DB	' = ', 00H
$SG12276 DB	' ', 00H
	ORG $+2
$SG13302 DB	'  bContainsSubselect: TRUE', 00H
	ORG $+1
$SG13304 DB	'  bContainsSubselect: FALSE', 00H
$SG13307 DB	'************************************', 00H
_DATA	ENDS
PUBLIC	___local_stdio_printf_options
PUBLIC	__vsnprintf_l
PUBLIC	__vsprintf_l
PUBLIC	_sprintf
PUBLIC	_SqlFreeBoundAttrList@4
PUBLIC	_SqlAddBoundAttr@20
PUBLIC	_SqlInitBoundAttrList@20
PUBLIC	_SqlBuildInsert@20
PUBLIC	_SqlBuildInsertCorrTable@20
PUBLIC	_SqlBuildUpdate@24
PUBLIC	_SqlBuildUpdateCorrTable@20
PUBLIC	_SqlBuildDelete@20
PUBLIC	_SqlBuildDeleteAll@20
PUBLIC	_SqlBuildDeleteCorrTable@20
PUBLIC	_SqlBuildSelect@24
PUBLIC	_SqlBuildSelectForEntityInstance@24
PUBLIC	_SqlAutoLoadFromParent@24
PUBLIC	_SqlEntityIsQualified@8
PUBLIC	_SqlFreeQualEntity@4
PUBLIC	_SqlRetrieveQualObject@20
PUBLIC	_SqlDisplayCommandEx@16
PUBLIC	_SqlDisplayCommand@8
PUBLIC	_SqlDisplayQualEntity@8
PUBLIC	_SqlAttributeIsNull@12
PUBLIC	_SqlFindNextJoinableChild@20
PUBLIC	_SqlEntityValidForJoin@12
PUBLIC	_SqlCheckOpenSQL@8
PUBLIC	_zstrtrim
PUBLIC	_fnTableName@12
PUBLIC	_fnAddCheckForNullKey
PUBLIC	_fnTraceSql@8
EXTRN	___report_rangecheckfailure:PROC
EXTRN	_memset:PROC
EXTRN	__imp__strstr:PROC
EXTRN	_strcat:PROC
EXTRN	_strcmp:PROC
EXTRN	_strcpy:PROC
EXTRN	__imp___stricmp:PROC
EXTRN	_strlen:PROC
EXTRN	__imp___strnicmp:PROC
EXTRN	__imp__strncpy:PROC
EXTRN	__imp__free:PROC
EXTRN	__imp__malloc:PROC
EXTRN	__imp__atol:PROC
EXTRN	__imp___ltoa:PROC
EXTRN	_DisplayEntityInstancePath@8:PROC
EXTRN	_DisplayObjectInstance@12:PROC
EXTRN	_TraceLineS@8:PROC
EXTRN	_IssueError@16:PROC
EXTRN	_CreateViewFromViewForTask@12:PROC
EXTRN	_GetViewByName@16:PROC
EXTRN	_DropView@4:PROC
EXTRN	_SetViewToSubobject@8:PROC
EXTRN	_CheckExistenceOfEntity@8:PROC
EXTRN	_LoadEntity@16:PROC
EXTRN	_DropEntity@12:PROC
EXTRN	_SetCursorNextEntity@12:PROC
EXTRN	_SetCursorPrevEntity@12:PROC
EXTRN	_SetCursorFirstEntity@12:PROC
EXTRN	_SetCursorLastEntity@12:PROC
EXTRN	_GetStringFromAttribute@16:PROC
EXTRN	_GetIntegerFromAttribute@16:PROC
EXTRN	_SetAttributeFromInteger@16:PROC
EXTRN	_CountEntitiesForView@8:PROC
EXTRN	_UfFormatDateTime@12:PROC
EXTRN	_UfEditFormatDateTime@8:PROC
EXTRN	_MessageSend@24:PROC
EXTRN	_SysCompareDecimalToDecimal@8:PROC
EXTRN	_SysConvertStringToDecimal@8:PROC
EXTRN	_MiGetViewEntityForView@8:PROC
EXTRN	_SysAllocMemory@20:PROC
EXTRN	_SysFree@4:PROC
EXTRN	_SysFreeMemory@4:PROC
EXTRN	_SysGetPointerFromHandle@4:PROC
EXTRN	_SysGetTaskFromView@4:PROC
EXTRN	_SysMalloc@4:PROC
EXTRN	_SysMessageBox@16:PROC
EXTRN	_GetAddrForAttribute@16:PROC
EXTRN	_GetValueFromRecord@24:PROC
EXTRN	_StoreStringInRecord@16:PROC
EXTRN	_GetStringFromRecord@20:PROC
EXTRN	_GetAttributeFlags@16:PROC
EXTRN	_UfStringToDateTime@8:PROC
EXTRN	_UfCompareDateTimeToDateTime@8:PROC
EXTRN	__imp____stdio_common_vsprintf:PROC
EXTRN	__imp__isdigit:PROC
EXTRN	__imp__isspace:PROC
EXTRN	__imp__isalnum:PROC
EXTRN	@__security_check_cookie@4:PROC
EXTRN	___security_cookie:DWORD
_DATA	SEGMENT
COMM	?_OptionsStorage@?1??__local_stdio_printf_options@@9@9:QWORD							; `__local_stdio_printf_options'::`2'::_OptionsStorage
_DATA	ENDS
; Function compile flags: /Odtp
; File c:\10c\a\oe\kzhsqlga.c
_TEXT	SEGMENT
_pch$ = 8						; size = 4
_pDummy$ = 12						; size = 4
_fnTraceSql@8 PROC

; 7195 : {

	push	ebp
	mov	ebp, esp

; 7196 : #if 0
; 7197 :    if ( strstr( pch, "SELECT ATTENDAN" ) )  // dks debug 2005.12.13
; 7198 :    {
; 7199 :       int k = 0;
; 7200 : 
; 7201 :       k /= k;
; 7202 :       TraceLine( "fnTraceSql Cmd: 0x%08x", pch );
; 7203 :    }
; 7204 : #endif
; 7205 :    TraceLineS( "SQL>  ", pch );

	mov	eax, DWORD PTR _pch$[ebp]
	push	eax
	push	OFFSET $SG14059
	call	_TraceLineS@8

; 7206 : }

	pop	ebp
	ret	8
_fnTraceSql@8 ENDP
_TEXT	ENDS
; Function compile flags: /Odtp
; File c:\10c\a\oe\kzhsqlga.c
_TEXT	SEGMENT
tv129 = -68						; size = 4
_hMemBuffer$ = -64					; size = 4
$T1 = -60						; size = 4
tv150 = -56						; size = 4
_nParenCount$ = -52					; size = 2
_bFirstOnStmt$ = -45					; size = 1
_nTokenLth$ = -44					; size = 2
_pchToken$ = -40					; size = 4
_pchSqlCmd$ = -36					; size = 4
_pchBuffer$ = -32					; size = 4
_pchLine$ = -28						; size = 4
_pnIndentIncrement$ = -24				; size = 2
_pnErrorIdx$ = -20					; size = 2
_szTemp$2 = -16						; size = 10
__$ArrayPad$ = -4					; size = 4
_pchSqlCmdStr$ = 8					; size = 4
_pchErrorChar$ = 12					; size = 4
_pnIndentLth$ = 16					; size = 2
_pchInitString$ = 20					; size = 4
_bFirstCall$ = 24					; size = 1
_pfnWrite$ = 28						; size = 4
_pInfo$ = 32						; size = 4
_fnSqlDisplayCommand PROC

; 6864 : {

	push	ebp
	mov	ebp, esp
	sub	esp, 68					; 00000044H
	mov	eax, DWORD PTR ___security_cookie
	xor	eax, ebp
	mov	DWORD PTR __$ArrayPad$[ebp], eax

; 6865 :    zPCHAR pchBuffer;
; 6866 :    zLONG  hMemBuffer;
; 6867 :    zSHORT pnIndentIncrement;
; 6868 :    zSHORT nParenCount;
; 6869 :    zSHORT nTokenLth;
; 6870 :    zSHORT pnErrorIdx;
; 6871 :    zPCHAR pchToken;
; 6872 :    zPCHAR pchLine;
; 6873 :    zPCHAR pchSqlCmd;
; 6874 :    zBOOL  bFirstOnStmt = TRUE;

	mov	BYTE PTR _bFirstOnStmt$[ebp], 1

; 6875 : 
; 6876 :    hMemBuffer = SysAllocMemory( (zCOREMEM) &pchBuffer, MAX_SQLCMD_LENGTH, 0,

	push	0
	push	32768					; 00008000H
	push	0
	push	105000					; 00019a28H
	lea	eax, DWORD PTR _pchBuffer$[ebp]
	push	eax
	call	_SysAllocMemory@20
	mov	DWORD PTR _hMemBuffer$[ebp], eax

; 6877 :                                 zCOREMEM_ALLOC, 0 );
; 6878 :    if ( pchBuffer == 0 )

	cmp	DWORD PTR _pchBuffer$[ebp], 0
	jne	SHORT $LN14@fnSqlDispl

; 6879 :       return;

	jmp	$LN49@fnSqlDispl
$LN14@fnSqlDispl:

; 6880 : 
; 6881 :    pchLine = pchBuffer;

	mov	ecx, DWORD PTR _pchBuffer$[ebp]
	mov	DWORD PTR _pchLine$[ebp], ecx

; 6882 :    if ( pchInitString )

	cmp	DWORD PTR _pchInitString$[ebp], 0
	je	SHORT $LN15@fnSqlDispl

; 6883 :    {
; 6884 :       zstrcpy( pchBuffer, pchInitString );

	mov	edx, DWORD PTR _pchInitString$[ebp]
	push	edx
	mov	eax, DWORD PTR _pchBuffer$[ebp]
	push	eax
	call	_strcpy
	add	esp, 8
$LN2@fnSqlDispl:

; 6885 :       mAdvanceToNull( pchLine );

	mov	ecx, DWORD PTR _pchLine$[ebp]
	movsx	edx, BYTE PTR [ecx]
	test	edx, edx
	je	SHORT $LN3@fnSqlDispl
	mov	eax, DWORD PTR _pchLine$[ebp]
	add	eax, 1
	mov	DWORD PTR _pchLine$[ebp], eax
	jmp	SHORT $LN2@fnSqlDispl
$LN3@fnSqlDispl:

; 6886 :       pnIndentIncrement = zstrlen( pchInitString ) + 1;

	mov	ecx, DWORD PTR _pchInitString$[ebp]
	push	ecx
	call	_strlen
	add	esp, 4
	add	eax, 1
	mov	WORD PTR _pnIndentIncrement$[ebp], ax

; 6887 :    }

	jmp	SHORT $LN16@fnSqlDispl
$LN15@fnSqlDispl:

; 6888 :    else
; 6889 :       pnIndentIncrement = 0;

	xor	edx, edx
	mov	WORD PTR _pnIndentIncrement$[ebp], dx
$LN16@fnSqlDispl:

; 6890 : 
; 6891 :    nParenCount = 0;

	xor	eax, eax
	mov	WORD PTR _nParenCount$[ebp], ax

; 6892 :    pnErrorIdx   = 0;

	xor	ecx, ecx
	mov	WORD PTR _pnErrorIdx$[ebp], cx

; 6893 : 
; 6894 :    // Loop through, copying each character from pchSqlCmd to pchBuffer for
; 6895 :    // printing.
; 6896 :    pchSqlCmd = *pchSqlCmdStr;

	mov	edx, DWORD PTR _pchSqlCmdStr$[ebp]
	mov	eax, DWORD PTR [edx]
	mov	DWORD PTR _pchSqlCmd$[ebp], eax
$LN4@fnSqlDispl:

; 6897 :    while ( *pchSqlCmd )

	mov	ecx, DWORD PTR _pchSqlCmd$[ebp]
	movsx	edx, BYTE PTR [ecx]
	test	edx, edx
	je	$LN5@fnSqlDispl
$LN6@fnSqlDispl:

; 6898 :    {
; 6899 :       // Skip spaces.
; 6900 :       while ( zisspace( *pchSqlCmd ) )

	mov	eax, DWORD PTR _pchSqlCmd$[ebp]
	movsx	ecx, BYTE PTR [eax]
	push	ecx
	call	DWORD PTR __imp__isspace
	add	esp, 4
	test	eax, eax
	je	SHORT $LN7@fnSqlDispl

; 6901 :          pchSqlCmd++;

	mov	edx, DWORD PTR _pchSqlCmd$[ebp]
	add	edx, 1
	mov	DWORD PTR _pchSqlCmd$[ebp], edx
	jmp	SHORT $LN6@fnSqlDispl
$LN7@fnSqlDispl:

; 6902 : 
; 6903 :       // Get next token.
; 6904 :       pchToken = pchSqlCmd;

	mov	eax, DWORD PTR _pchSqlCmd$[ebp]
	mov	DWORD PTR _pchToken$[ebp], eax
$LN8@fnSqlDispl:

; 6905 :       while ( *pchSqlCmd )

	mov	ecx, DWORD PTR _pchSqlCmd$[ebp]
	movsx	edx, BYTE PTR [ecx]
	test	edx, edx
	je	$LN9@fnSqlDispl

; 6906 :       {
; 6907 :          if ( zisspace( *pchSqlCmd ) )

	mov	eax, DWORD PTR _pchSqlCmd$[ebp]
	movsx	ecx, BYTE PTR [eax]
	push	ecx
	call	DWORD PTR __imp__isspace
	add	esp, 4
	test	eax, eax
	je	SHORT $LN17@fnSqlDispl

; 6908 :             break;

	jmp	SHORT $LN9@fnSqlDispl
$LN17@fnSqlDispl:

; 6909 : 
; 6910 :          // If the character is a single quote, skip everything until ending
; 6911 :          // single quote is found.
; 6912 :          if ( *pchSqlCmd++ == '\'' )

	mov	edx, DWORD PTR _pchSqlCmd$[ebp]
	movsx	eax, BYTE PTR [edx]
	mov	DWORD PTR tv129[ebp], eax
	mov	ecx, DWORD PTR _pchSqlCmd$[ebp]
	add	ecx, 1
	mov	DWORD PTR _pchSqlCmd$[ebp], ecx
	cmp	DWORD PTR tv129[ebp], 39		; 00000027H
	jne	SHORT $LN18@fnSqlDispl
$LN10@fnSqlDispl:

; 6913 :          {
; 6914 :             while ( *pchSqlCmd )

	mov	edx, DWORD PTR _pchSqlCmd$[ebp]
	movsx	eax, BYTE PTR [edx]
	test	eax, eax
	je	SHORT $LN11@fnSqlDispl

; 6915 :             {
; 6916 :                if ( *pchSqlCmd == '\'' && pchSqlCmd[ 1 ] != '\'' )

	mov	ecx, DWORD PTR _pchSqlCmd$[ebp]
	movsx	edx, BYTE PTR [ecx]
	cmp	edx, 39					; 00000027H
	jne	SHORT $LN19@fnSqlDispl
	mov	eax, 1
	shl	eax, 0
	mov	ecx, DWORD PTR _pchSqlCmd$[ebp]
	movsx	edx, BYTE PTR [ecx+eax]
	cmp	edx, 39					; 00000027H
	je	SHORT $LN19@fnSqlDispl

; 6917 :                   break;

	jmp	SHORT $LN11@fnSqlDispl
$LN19@fnSqlDispl:

; 6918 : 
; 6919 :                if ( *pchSqlCmd == '\'' )

	mov	eax, DWORD PTR _pchSqlCmd$[ebp]
	movsx	ecx, BYTE PTR [eax]
	cmp	ecx, 39					; 00000027H
	jne	SHORT $LN20@fnSqlDispl

; 6920 :                   pchSqlCmd++;

	mov	edx, DWORD PTR _pchSqlCmd$[ebp]
	add	edx, 1
	mov	DWORD PTR _pchSqlCmd$[ebp], edx
$LN20@fnSqlDispl:

; 6921 : 
; 6922 :                pchSqlCmd++;

	mov	eax, DWORD PTR _pchSqlCmd$[ebp]
	add	eax, 1
	mov	DWORD PTR _pchSqlCmd$[ebp], eax

; 6923 :             }

	jmp	SHORT $LN10@fnSqlDispl
$LN11@fnSqlDispl:

; 6924 : 
; 6925 :             if ( *pchSqlCmd == '\'' )

	mov	ecx, DWORD PTR _pchSqlCmd$[ebp]
	movsx	edx, BYTE PTR [ecx]
	cmp	edx, 39					; 00000027H
	jne	SHORT $LN18@fnSqlDispl

; 6926 :                pchSqlCmd++;

	mov	eax, DWORD PTR _pchSqlCmd$[ebp]
	add	eax, 1
	mov	DWORD PTR _pchSqlCmd$[ebp], eax
$LN18@fnSqlDispl:

; 6927 :          }
; 6928 :       }

	jmp	$LN8@fnSqlDispl
$LN9@fnSqlDispl:

; 6929 : 
; 6930 :       nTokenLth = (zSHORT) (pchSqlCmd - pchToken);

	mov	ecx, DWORD PTR _pchSqlCmd$[ebp]
	sub	ecx, DWORD PTR _pchToken$[ebp]
	mov	WORD PTR _nTokenLth$[ebp], cx

; 6931 : 
; 6932 :       if ( pchLine != pchBuffer )

	mov	edx, DWORD PTR _pchLine$[ebp]
	cmp	edx, DWORD PTR _pchBuffer$[ebp]
	je	SHORT $LN22@fnSqlDispl

; 6933 :          *pchLine++ = ' ';

	mov	eax, DWORD PTR _pchLine$[ebp]
	mov	BYTE PTR [eax], 32			; 00000020H
	mov	ecx, DWORD PTR _pchLine$[ebp]
	add	ecx, 1
	mov	DWORD PTR _pchLine$[ebp], ecx
$LN22@fnSqlDispl:

; 6934 : 
; 6935 : #if DBG_DISPLAY
; 6936 :       {
; 6937 :          zCHAR s[ 100 ];
; 6938 : 
; 6939 :          zstrncpy( s, pchToken, nTokenLth );
; 6940 :          s[ nTokenLth ] = 0;
; 6941 :          TraceLineS( "DBG Token> ", s );
; 6942 :       }
; 6943 : #endif
; 6944 : 
; 6945 :       switch ( *pchToken )

	mov	edx, DWORD PTR _pchToken$[ebp]
	movsx	eax, BYTE PTR [edx]
	mov	DWORD PTR tv150[ebp], eax
	mov	ecx, DWORD PTR tv150[ebp]
	sub	ecx, 40					; 00000028H
	mov	DWORD PTR tv150[ebp], ecx
	cmp	DWORD PTR tv150[ebp], 47		; 0000002fH
	ja	$LN47@fnSqlDispl
	mov	edx, DWORD PTR tv150[ebp]
	movzx	eax, BYTE PTR $LN52@fnSqlDispl[edx]
	jmp	DWORD PTR $LN53@fnSqlDispl[eax*4]
$LN23@fnSqlDispl:

; 6946 :       {
; 6947 :          case '(':
; 6948 :             nParenCount++;

	mov	cx, WORD PTR _nParenCount$[ebp]
	add	cx, 1
	mov	WORD PTR _nParenCount$[ebp], cx

; 6949 :             pnIndentIncrement += 2;

	movsx	edx, WORD PTR _pnIndentIncrement$[ebp]
	add	edx, 2
	mov	WORD PTR _pnIndentIncrement$[ebp], dx

; 6950 :             fnSqlCopyToken( pchToken, nTokenLth, &pchLine, pchErrorChar,

	lea	eax, DWORD PTR _pnErrorIdx$[ebp]
	push	eax
	mov	ecx, DWORD PTR _pchBuffer$[ebp]
	push	ecx
	mov	edx, DWORD PTR _pchErrorChar$[ebp]
	push	edx
	lea	eax, DWORD PTR _pchLine$[ebp]
	push	eax
	movzx	ecx, WORD PTR _nTokenLth$[ebp]
	push	ecx
	mov	edx, DWORD PTR _pchToken$[ebp]
	push	edx
	call	_fnSqlCopyToken
	add	esp, 24					; 00000018H

; 6951 :                             pchBuffer, &pnErrorIdx );
; 6952 :             break;

	jmp	$LN12@fnSqlDispl
$LN24@fnSqlDispl:

; 6953 : 
; 6954 :          case ')':
; 6955 :             nParenCount--;

	mov	ax, WORD PTR _nParenCount$[ebp]
	sub	ax, 1
	mov	WORD PTR _nParenCount$[ebp], ax

; 6956 :             pnIndentIncrement -= 2;

	movsx	ecx, WORD PTR _pnIndentIncrement$[ebp]
	sub	ecx, 2
	mov	WORD PTR _pnIndentIncrement$[ebp], cx

; 6957 :             fnSqlCopyToken( pchToken, nTokenLth, &pchLine, pchErrorChar,

	lea	edx, DWORD PTR _pnErrorIdx$[ebp]
	push	edx
	mov	eax, DWORD PTR _pchBuffer$[ebp]
	push	eax
	mov	ecx, DWORD PTR _pchErrorChar$[ebp]
	push	ecx
	lea	edx, DWORD PTR _pchLine$[ebp]
	push	edx
	movzx	eax, WORD PTR _nTokenLth$[ebp]
	push	eax
	mov	ecx, DWORD PTR _pchToken$[ebp]
	push	ecx
	call	_fnSqlCopyToken
	add	esp, 24					; 00000018H

; 6958 :                             pchBuffer, &pnErrorIdx );
; 6959 : 
; 6960 :             // If paren count is 0 and we are in a recursive call
; 6961 :             // then get out of recursive call.
; 6962 :             if ( nParenCount == 0 && bFirstCall == FALSE )

	movsx	edx, WORD PTR _nParenCount$[ebp]
	test	edx, edx
	jne	SHORT $LN25@fnSqlDispl
	movzx	eax, BYTE PTR _bFirstCall$[ebp]
	test	eax, eax
	jne	SHORT $LN25@fnSqlDispl

; 6963 :             {
; 6964 :               fnSqlPrintLine( pchBuffer, &pchLine, &pnIndentLth,

	mov	ecx, DWORD PTR _pInfo$[ebp]
	push	ecx
	mov	edx, DWORD PTR _pfnWrite$[ebp]
	push	edx
	lea	eax, DWORD PTR _pnErrorIdx$[ebp]
	push	eax
	lea	ecx, DWORD PTR _pnIndentIncrement$[ebp]
	push	ecx
	lea	edx, DWORD PTR _pnIndentLth$[ebp]
	push	edx
	lea	eax, DWORD PTR _pchLine$[ebp]
	push	eax
	mov	ecx, DWORD PTR _pchBuffer$[ebp]
	push	ecx
	call	_fnSqlPrintLine
	add	esp, 28					; 0000001cH

; 6965 :                               &pnIndentIncrement, &pnErrorIdx,
; 6966 :                               pfnWrite, pInfo );
; 6967 :               *pchSqlCmdStr = pchSqlCmd;

	mov	edx, DWORD PTR _pchSqlCmdStr$[ebp]
	mov	eax, DWORD PTR _pchSqlCmd$[ebp]
	mov	DWORD PTR [edx], eax

; 6968 :               SysFreeMemory( hMemBuffer );

	mov	ecx, DWORD PTR _hMemBuffer$[ebp]
	push	ecx
	call	_SysFreeMemory@4

; 6969 :               return;

	jmp	$LN49@fnSqlDispl
$LN25@fnSqlDispl:

; 6970 :             }
; 6971 : 
; 6972 :             break;

	jmp	$LN12@fnSqlDispl
$LN26@fnSqlDispl:

; 6973 : 
; 6974 :          case ',':
; 6975 :             fnSqlCopyToken( pchToken, nTokenLth, &pchLine, pchErrorChar,

	lea	edx, DWORD PTR _pnErrorIdx$[ebp]
	push	edx
	mov	eax, DWORD PTR _pchBuffer$[ebp]
	push	eax
	mov	ecx, DWORD PTR _pchErrorChar$[ebp]
	push	ecx
	lea	edx, DWORD PTR _pchLine$[ebp]
	push	edx
	movzx	eax, WORD PTR _nTokenLth$[ebp]
	push	eax
	mov	ecx, DWORD PTR _pchToken$[ebp]
	push	ecx
	call	_fnSqlCopyToken
	add	esp, 24					; 00000018H

; 6976 :                             pchBuffer, &pnErrorIdx );
; 6977 :             fnSqlPrintLine( pchBuffer, &pchLine, &pnIndentLth,

	mov	edx, DWORD PTR _pInfo$[ebp]
	push	edx
	mov	eax, DWORD PTR _pfnWrite$[ebp]
	push	eax
	lea	ecx, DWORD PTR _pnErrorIdx$[ebp]
	push	ecx
	lea	edx, DWORD PTR _pnIndentIncrement$[ebp]
	push	edx
	lea	eax, DWORD PTR _pnIndentLth$[ebp]
	push	eax
	lea	ecx, DWORD PTR _pchLine$[ebp]
	push	ecx
	mov	edx, DWORD PTR _pchBuffer$[ebp]
	push	edx
	call	_fnSqlPrintLine
	add	esp, 28					; 0000001cH

; 6978 :                             &pnIndentIncrement, &pnErrorIdx,
; 6979 :                             pfnWrite, pInfo );
; 6980 :             break;

	jmp	$LN12@fnSqlDispl
$LN27@fnSqlDispl:

; 6981 : 
; 6982 :          case 'A':
; 6983 :          case 'O':
; 6984 :             if ( zstrncmpi( pchToken, "ON ", 3 ) == 0 )

	push	3
	push	OFFSET $SG14009
	mov	eax, DWORD PTR _pchToken$[ebp]
	push	eax
	call	DWORD PTR __imp___strnicmp
	add	esp, 12					; 0000000cH
	test	eax, eax
	jne	SHORT $LN28@fnSqlDispl

; 6985 :             {
; 6986 :                fnSqlPrintLine( pchBuffer, &pchLine, &pnIndentLth,

	mov	ecx, DWORD PTR _pInfo$[ebp]
	push	ecx
	mov	edx, DWORD PTR _pfnWrite$[ebp]
	push	edx
	lea	eax, DWORD PTR _pnErrorIdx$[ebp]
	push	eax
	lea	ecx, DWORD PTR _pnIndentIncrement$[ebp]
	push	ecx
	lea	edx, DWORD PTR _pnIndentLth$[ebp]
	push	edx
	lea	eax, DWORD PTR _pchLine$[ebp]
	push	eax
	mov	ecx, DWORD PTR _pchBuffer$[ebp]
	push	ecx
	call	_fnSqlPrintLine
	add	esp, 28					; 0000001cH

; 6987 :                                &pnIndentIncrement, &pnErrorIdx,
; 6988 :                                pfnWrite, pInfo );
; 6989 : 
; 6990 :                // pnIndentLth will be reset during the "WHERE" clause.
; 6991 :                if ( bFirstOnStmt )

	movzx	edx, BYTE PTR _bFirstOnStmt$[ebp]
	test	edx, edx
	je	SHORT $LN29@fnSqlDispl

; 6992 :                   pnIndentLth += 5;

	movsx	eax, WORD PTR _pnIndentLth$[ebp]
	add	eax, 5
	mov	WORD PTR _pnIndentLth$[ebp], ax
$LN29@fnSqlDispl:

; 6993 : 
; 6994 :                bFirstOnStmt = FALSE;

	mov	BYTE PTR _bFirstOnStmt$[ebp], 0
$LN28@fnSqlDispl:

; 6995 :             }
; 6996 : 
; 6997 :             fnSqlCopyToken( pchToken, nTokenLth, &pchLine, pchErrorChar,

	lea	ecx, DWORD PTR _pnErrorIdx$[ebp]
	push	ecx
	mov	edx, DWORD PTR _pchBuffer$[ebp]
	push	edx
	mov	eax, DWORD PTR _pchErrorChar$[ebp]
	push	eax
	lea	ecx, DWORD PTR _pchLine$[ebp]
	push	ecx
	movzx	edx, WORD PTR _nTokenLth$[ebp]
	push	edx
	mov	eax, DWORD PTR _pchToken$[ebp]
	push	eax
	call	_fnSqlCopyToken
	add	esp, 24					; 00000018H

; 6998 :                             pchBuffer, &pnErrorIdx );
; 6999 : 
; 7000 :             if ( zstrncmpi( pchToken, "AND ", 4 ) == 0 ||

	push	4
	push	OFFSET $SG14013
	mov	ecx, DWORD PTR _pchToken$[ebp]
	push	ecx
	call	DWORD PTR __imp___strnicmp
	add	esp, 12					; 0000000cH
	test	eax, eax
	je	SHORT $LN31@fnSqlDispl
	push	3
	push	OFFSET $SG14014
	mov	edx, DWORD PTR _pchToken$[ebp]
	push	edx
	call	DWORD PTR __imp___strnicmp
	add	esp, 12					; 0000000cH
	test	eax, eax
	jne	SHORT $LN30@fnSqlDispl
$LN31@fnSqlDispl:

; 7001 :                  zstrncmpi( pchToken, "OR ", 3 ) == 0 )
; 7002 :             {
; 7003 :                fnSqlPrintLine( pchBuffer, &pchLine, &pnIndentLth,

	mov	eax, DWORD PTR _pInfo$[ebp]
	push	eax
	mov	ecx, DWORD PTR _pfnWrite$[ebp]
	push	ecx
	lea	edx, DWORD PTR _pnErrorIdx$[ebp]
	push	edx
	lea	eax, DWORD PTR _pnIndentIncrement$[ebp]
	push	eax
	lea	ecx, DWORD PTR _pnIndentLth$[ebp]
	push	ecx
	lea	edx, DWORD PTR _pchLine$[ebp]
	push	edx
	mov	eax, DWORD PTR _pchBuffer$[ebp]
	push	eax
	call	_fnSqlPrintLine
	add	esp, 28					; 0000001cH
$LN30@fnSqlDispl:

; 7004 :                                &pnIndentIncrement, &pnErrorIdx,
; 7005 :                                pfnWrite, pInfo );
; 7006 :             }
; 7007 : 
; 7008 :             break;

	jmp	$LN12@fnSqlDispl
$LN32@fnSqlDispl:

; 7009 : 
; 7010 :          case 'F':
; 7011 :             if ( zstrncmpi( pchToken, "FROM ", 5 ) == 0 )

	push	5
	push	OFFSET $SG14017
	mov	ecx, DWORD PTR _pchToken$[ebp]
	push	ecx
	call	DWORD PTR __imp___strnicmp
	add	esp, 12					; 0000000cH
	test	eax, eax
	jne	SHORT $LN33@fnSqlDispl

; 7012 :             {
; 7013 :                fnSqlPrintLine( pchBuffer, &pchLine, &pnIndentLth,

	mov	edx, DWORD PTR _pInfo$[ebp]
	push	edx
	mov	eax, DWORD PTR _pfnWrite$[ebp]
	push	eax
	lea	ecx, DWORD PTR _pnErrorIdx$[ebp]
	push	ecx
	lea	edx, DWORD PTR _pnIndentIncrement$[ebp]
	push	edx
	lea	eax, DWORD PTR _pnIndentLth$[ebp]
	push	eax
	lea	ecx, DWORD PTR _pchLine$[ebp]
	push	ecx
	mov	edx, DWORD PTR _pchBuffer$[ebp]
	push	edx
	call	_fnSqlPrintLine
	add	esp, 28					; 0000001cH
$LN33@fnSqlDispl:

; 7014 :                                &pnIndentIncrement, &pnErrorIdx,
; 7015 :                                pfnWrite, pInfo );
; 7016 :             }
; 7017 : 
; 7018 :             fnSqlCopyToken( pchToken, nTokenLth, &pchLine, pchErrorChar,

	lea	eax, DWORD PTR _pnErrorIdx$[ebp]
	push	eax
	mov	ecx, DWORD PTR _pchBuffer$[ebp]
	push	ecx
	mov	edx, DWORD PTR _pchErrorChar$[ebp]
	push	edx
	lea	eax, DWORD PTR _pchLine$[ebp]
	push	eax
	movzx	ecx, WORD PTR _nTokenLth$[ebp]
	push	ecx
	mov	edx, DWORD PTR _pchToken$[ebp]
	push	edx
	call	_fnSqlCopyToken
	add	esp, 24					; 00000018H

; 7019 :                             pchBuffer, &pnErrorIdx );
; 7020 :             break;

	jmp	$LN12@fnSqlDispl
$LN34@fnSqlDispl:

; 7021 : 
; 7022 :          case 'I':
; 7023 :             if ( zstrncmpi( pchToken, "INTO ", 5 ) == 0 )

	push	5
	push	OFFSET $SG14020
	mov	eax, DWORD PTR _pchToken$[ebp]
	push	eax
	call	DWORD PTR __imp___strnicmp
	add	esp, 12					; 0000000cH
	test	eax, eax
	jne	SHORT $LN35@fnSqlDispl

; 7024 :             {
; 7025 :                fnSqlPrintLine( pchBuffer, &pchLine, &pnIndentLth,

	mov	ecx, DWORD PTR _pInfo$[ebp]
	push	ecx
	mov	edx, DWORD PTR _pfnWrite$[ebp]
	push	edx
	lea	eax, DWORD PTR _pnErrorIdx$[ebp]
	push	eax
	lea	ecx, DWORD PTR _pnIndentIncrement$[ebp]
	push	ecx
	lea	edx, DWORD PTR _pnIndentLth$[ebp]
	push	edx
	lea	eax, DWORD PTR _pchLine$[ebp]
	push	eax
	mov	ecx, DWORD PTR _pchBuffer$[ebp]
	push	ecx
	call	_fnSqlPrintLine
	add	esp, 28					; 0000001cH
$LN35@fnSqlDispl:

; 7026 :                                &pnIndentIncrement, &pnErrorIdx,
; 7027 :                                pfnWrite, pInfo );
; 7028 :             }
; 7029 : 
; 7030 :             fnSqlCopyToken( pchToken, nTokenLth, &pchLine, pchErrorChar,

	lea	edx, DWORD PTR _pnErrorIdx$[ebp]
	push	edx
	mov	eax, DWORD PTR _pchBuffer$[ebp]
	push	eax
	mov	ecx, DWORD PTR _pchErrorChar$[ebp]
	push	ecx
	lea	edx, DWORD PTR _pchLine$[ebp]
	push	edx
	movzx	eax, WORD PTR _nTokenLth$[ebp]
	push	eax
	mov	ecx, DWORD PTR _pchToken$[ebp]
	push	ecx
	call	_fnSqlCopyToken
	add	esp, 24					; 00000018H

; 7031 :                             pchBuffer, &pnErrorIdx );
; 7032 : 
; 7033 :             if ( zstrncmpi( pchToken, "IN ", 3 ) == 0 )

	push	3
	push	OFFSET $SG14022
	mov	edx, DWORD PTR _pchToken$[ebp]
	push	edx
	call	DWORD PTR __imp___strnicmp
	add	esp, 12					; 0000000cH
	test	eax, eax
	jne	SHORT $LN36@fnSqlDispl

; 7034 :             {
; 7035 :                fnSqlPrintLine( pchBuffer, &pchLine, &pnIndentLth,

	mov	eax, DWORD PTR _pInfo$[ebp]
	push	eax
	mov	ecx, DWORD PTR _pfnWrite$[ebp]
	push	ecx
	lea	edx, DWORD PTR _pnErrorIdx$[ebp]
	push	edx
	lea	eax, DWORD PTR _pnIndentIncrement$[ebp]
	push	eax
	lea	ecx, DWORD PTR _pnIndentLth$[ebp]
	push	ecx
	lea	edx, DWORD PTR _pchLine$[ebp]
	push	edx
	mov	eax, DWORD PTR _pchBuffer$[ebp]
	push	eax
	call	_fnSqlPrintLine
	add	esp, 28					; 0000001cH

; 7036 :                                &pnIndentIncrement, &pnErrorIdx,
; 7037 :                                pfnWrite, pInfo );
; 7038 :                fnSqlDisplayCommand( &pchSqlCmd, pchErrorChar,

	mov	ecx, DWORD PTR _pInfo$[ebp]
	push	ecx
	mov	edx, DWORD PTR _pfnWrite$[ebp]
	push	edx
	push	0
	push	0
	movzx	eax, WORD PTR _pnIndentLth$[ebp]
	push	eax
	mov	ecx, DWORD PTR _pchErrorChar$[ebp]
	push	ecx
	lea	edx, DWORD PTR _pchSqlCmd$[ebp]
	push	edx
	call	_fnSqlDisplayCommand
	add	esp, 28					; 0000001cH
$LN36@fnSqlDispl:

; 7039 :                                     pnIndentLth, 0, FALSE,
; 7040 :                                     pfnWrite, pInfo );
; 7041 :             }
; 7042 : 
; 7043 :             break;

	jmp	$LN12@fnSqlDispl
$LN37@fnSqlDispl:

; 7044 : 
; 7045 :          case 'S':
; 7046 :             if ( zstrncmpi( pchToken, "SELECT ", 7 ) == 0 )

	push	7
	push	OFFSET $SG14026
	mov	eax, DWORD PTR _pchToken$[ebp]
	push	eax
	call	DWORD PTR __imp___strnicmp
	add	esp, 12					; 0000000cH
	test	eax, eax
	jne	SHORT $LN38@fnSqlDispl

; 7047 :             {
; 7048 :                if ( bFirstCall == FALSE )

	movzx	ecx, BYTE PTR _bFirstCall$[ebp]
	test	ecx, ecx
	jne	SHORT $LN40@fnSqlDispl

; 7049 :                   fnSqlPrintLine( pchBuffer, &pchLine, &pnIndentLth,

	mov	edx, DWORD PTR _pInfo$[ebp]
	push	edx
	mov	eax, DWORD PTR _pfnWrite$[ebp]
	push	eax
	lea	ecx, DWORD PTR _pnErrorIdx$[ebp]
	push	ecx
	lea	edx, DWORD PTR _pnIndentIncrement$[ebp]
	push	edx
	lea	eax, DWORD PTR _pnIndentLth$[ebp]
	push	eax
	lea	ecx, DWORD PTR _pchLine$[ebp]
	push	ecx
	mov	edx, DWORD PTR _pchBuffer$[ebp]
	push	edx
	call	_fnSqlPrintLine
	add	esp, 28					; 0000001cH
$LN40@fnSqlDispl:

; 7050 :                                   &pnIndentIncrement, &pnErrorIdx,
; 7051 :                                   pfnWrite, pInfo );
; 7052 :             }

	jmp	SHORT $LN39@fnSqlDispl
$LN38@fnSqlDispl:

; 7053 :             else
; 7054 :             if ( zstrncmpi( pchToken, "SET ", 4 ) == 0 )

	push	4
	push	OFFSET $SG14029
	mov	eax, DWORD PTR _pchToken$[ebp]
	push	eax
	call	DWORD PTR __imp___strnicmp
	add	esp, 12					; 0000000cH
	test	eax, eax
	jne	SHORT $LN39@fnSqlDispl

; 7055 :             {
; 7056 :                fnSqlPrintLine( pchBuffer, &pchLine, &pnIndentLth,

	mov	ecx, DWORD PTR _pInfo$[ebp]
	push	ecx
	mov	edx, DWORD PTR _pfnWrite$[ebp]
	push	edx
	lea	eax, DWORD PTR _pnErrorIdx$[ebp]
	push	eax
	lea	ecx, DWORD PTR _pnIndentIncrement$[ebp]
	push	ecx
	lea	edx, DWORD PTR _pnIndentLth$[ebp]
	push	edx
	lea	eax, DWORD PTR _pchLine$[ebp]
	push	eax
	mov	ecx, DWORD PTR _pchBuffer$[ebp]
	push	ecx
	call	_fnSqlPrintLine
	add	esp, 28					; 0000001cH

; 7057 :                                &pnIndentIncrement, &pnErrorIdx,
; 7058 :                                pfnWrite, pInfo );
; 7059 :                pnIndentIncrement += 4;

	movsx	edx, WORD PTR _pnIndentIncrement$[ebp]
	add	edx, 4
	mov	WORD PTR _pnIndentIncrement$[ebp], dx
$LN39@fnSqlDispl:

; 7060 :             }
; 7061 : 
; 7062 :             fnSqlCopyToken( pchToken, nTokenLth, &pchLine, pchErrorChar,

	lea	eax, DWORD PTR _pnErrorIdx$[ebp]
	push	eax
	mov	ecx, DWORD PTR _pchBuffer$[ebp]
	push	ecx
	mov	edx, DWORD PTR _pchErrorChar$[ebp]
	push	edx
	lea	eax, DWORD PTR _pchLine$[ebp]
	push	eax
	movzx	ecx, WORD PTR _nTokenLth$[ebp]
	push	ecx
	mov	edx, DWORD PTR _pchToken$[ebp]
	push	edx
	call	_fnSqlCopyToken
	add	esp, 24					; 00000018H

; 7063 :                             pchBuffer, &pnErrorIdx );
; 7064 :             break;

	jmp	$LN12@fnSqlDispl
$LN42@fnSqlDispl:

; 7065 : 
; 7066 :          case 'V':
; 7067 :             if ( zstrncmpi( pchToken, "VALUES ", 7 ) == 0 )

	push	7
	push	OFFSET $SG14032
	mov	eax, DWORD PTR _pchToken$[ebp]
	push	eax
	call	DWORD PTR __imp___strnicmp
	add	esp, 12					; 0000000cH
	test	eax, eax
	jne	SHORT $LN43@fnSqlDispl

; 7068 :             {
; 7069 :                fnSqlPrintLine( pchBuffer, &pchLine, &pnIndentLth,

	mov	ecx, DWORD PTR _pInfo$[ebp]
	push	ecx
	mov	edx, DWORD PTR _pfnWrite$[ebp]
	push	edx
	lea	eax, DWORD PTR _pnErrorIdx$[ebp]
	push	eax
	lea	ecx, DWORD PTR _pnIndentIncrement$[ebp]
	push	ecx
	lea	edx, DWORD PTR _pnIndentLth$[ebp]
	push	edx
	lea	eax, DWORD PTR _pchLine$[ebp]
	push	eax
	mov	ecx, DWORD PTR _pchBuffer$[ebp]
	push	ecx
	call	_fnSqlPrintLine
	add	esp, 28					; 0000001cH

; 7070 :                                &pnIndentIncrement, &pnErrorIdx,
; 7071 :                                pfnWrite, pInfo );
; 7072 :                pnIndentIncrement += 7;

	movsx	edx, WORD PTR _pnIndentIncrement$[ebp]
	add	edx, 7
	mov	WORD PTR _pnIndentIncrement$[ebp], dx
$LN43@fnSqlDispl:

; 7073 :             }
; 7074 : 
; 7075 :             fnSqlCopyToken( pchToken, nTokenLth, &pchLine, pchErrorChar,

	lea	eax, DWORD PTR _pnErrorIdx$[ebp]
	push	eax
	mov	ecx, DWORD PTR _pchBuffer$[ebp]
	push	ecx
	mov	edx, DWORD PTR _pchErrorChar$[ebp]
	push	edx
	lea	eax, DWORD PTR _pchLine$[ebp]
	push	eax
	movzx	ecx, WORD PTR _nTokenLth$[ebp]
	push	ecx
	mov	edx, DWORD PTR _pchToken$[ebp]
	push	edx
	call	_fnSqlCopyToken
	add	esp, 24					; 00000018H

; 7076 :                             pchBuffer, &pnErrorIdx );
; 7077 :             break;

	jmp	$LN12@fnSqlDispl
$LN44@fnSqlDispl:

; 7078 : 
; 7079 :          case 'W':
; 7080 :             if ( zstrncmpi( pchToken, "WHERE ", 6 ) == 0 )

	push	6
	push	OFFSET $SG14035
	mov	eax, DWORD PTR _pchToken$[ebp]
	push	eax
	call	DWORD PTR __imp___strnicmp
	add	esp, 12					; 0000000cH
	test	eax, eax
	jne	$LN45@fnSqlDispl

; 7081 :             {
; 7082 :                zCHAR szTemp[ 10 ];
; 7083 : 
; 7084 :                fnSqlPrintLine( pchBuffer, &pchLine, &pnIndentLth,

	mov	ecx, DWORD PTR _pInfo$[ebp]
	push	ecx
	mov	edx, DWORD PTR _pfnWrite$[ebp]
	push	edx
	lea	eax, DWORD PTR _pnErrorIdx$[ebp]
	push	eax
	lea	ecx, DWORD PTR _pnIndentIncrement$[ebp]
	push	ecx
	lea	edx, DWORD PTR _pnIndentLth$[ebp]
	push	edx
	lea	eax, DWORD PTR _pchLine$[ebp]
	push	eax
	mov	ecx, DWORD PTR _pchBuffer$[ebp]
	push	ecx
	call	_fnSqlPrintLine
	add	esp, 28					; 0000001cH

; 7085 :                                &pnIndentIncrement, &pnErrorIdx,
; 7086 :                                pfnWrite, pInfo );
; 7087 : 
; 7088 :                if ( bFirstCall )

	movzx	edx, BYTE PTR _bFirstCall$[ebp]
	test	edx, edx
	je	SHORT $LN46@fnSqlDispl

; 7089 :                   pnIndentLth = 0;

	xor	eax, eax
	mov	WORD PTR _pnIndentLth$[ebp], ax
$LN46@fnSqlDispl:

; 7090 : 
; 7091 :                // Because of OpenSQL, we want to use the generated
; 7092 :                // WHERE because it might be lower-case.
; 7093 :                zstrncpy( szTemp, pchToken, 5 );

	push	5
	mov	ecx, DWORD PTR _pchToken$[ebp]
	push	ecx
	lea	edx, DWORD PTR _szTemp$2[ebp]
	push	edx
	call	DWORD PTR __imp__strncpy
	add	esp, 12					; 0000000cH

; 7094 :                szTemp[ 5 ] = 0;

	mov	eax, 1
	imul	ecx, eax, 5
	mov	DWORD PTR $T1[ebp], ecx
	cmp	DWORD PTR $T1[ebp], 10			; 0000000aH
	jae	SHORT $LN50@fnSqlDispl
	jmp	SHORT $LN51@fnSqlDispl
$LN50@fnSqlDispl:
	call	___report_rangecheckfailure
$LN51@fnSqlDispl:
	mov	edx, DWORD PTR $T1[ebp]
	mov	BYTE PTR _szTemp$2[ebp+edx], 0

; 7095 : 
; 7096 :                fnSqlDisplayCommand( &pchSqlCmd, pchErrorChar,

	mov	eax, DWORD PTR _pInfo$[ebp]
	push	eax
	mov	ecx, DWORD PTR _pfnWrite$[ebp]
	push	ecx
	push	0
	lea	edx, DWORD PTR _szTemp$2[ebp]
	push	edx
	movzx	eax, WORD PTR _pnIndentLth$[ebp]
	push	eax
	mov	ecx, DWORD PTR _pchErrorChar$[ebp]
	push	ecx
	lea	edx, DWORD PTR _pchSqlCmd$[ebp]
	push	edx
	call	_fnSqlDisplayCommand
	add	esp, 28					; 0000001cH

; 7097 :                                     pnIndentLth, szTemp, FALSE,
; 7098 :                                     pfnWrite, pInfo );
; 7099 :                break;

	jmp	SHORT $LN12@fnSqlDispl
$LN45@fnSqlDispl:

; 7100 :             }
; 7101 : 
; 7102 :             fnSqlCopyToken( pchToken, nTokenLth, &pchLine, pchErrorChar,

	lea	eax, DWORD PTR _pnErrorIdx$[ebp]
	push	eax
	mov	ecx, DWORD PTR _pchBuffer$[ebp]
	push	ecx
	mov	edx, DWORD PTR _pchErrorChar$[ebp]
	push	edx
	lea	eax, DWORD PTR _pchLine$[ebp]
	push	eax
	movzx	ecx, WORD PTR _nTokenLth$[ebp]
	push	ecx
	mov	edx, DWORD PTR _pchToken$[ebp]
	push	edx
	call	_fnSqlCopyToken
	add	esp, 24					; 00000018H

; 7103 :                             pchBuffer, &pnErrorIdx );
; 7104 :             break;

	jmp	SHORT $LN12@fnSqlDispl
$LN47@fnSqlDispl:

; 7105 : 
; 7106 :          default:
; 7107 :             fnSqlCopyToken( pchToken, nTokenLth, &pchLine, pchErrorChar,

	lea	eax, DWORD PTR _pnErrorIdx$[ebp]
	push	eax
	mov	ecx, DWORD PTR _pchBuffer$[ebp]
	push	ecx
	mov	edx, DWORD PTR _pchErrorChar$[ebp]
	push	edx
	lea	eax, DWORD PTR _pchLine$[ebp]
	push	eax
	movzx	ecx, WORD PTR _nTokenLth$[ebp]
	push	ecx
	mov	edx, DWORD PTR _pchToken$[ebp]
	push	edx
	call	_fnSqlCopyToken
	add	esp, 24					; 00000018H
$LN12@fnSqlDispl:

; 7108 :                             pchBuffer, &pnErrorIdx );
; 7109 :             break;
; 7110 : 
; 7111 :       } // switch ( *pchToken )...
; 7112 : 
; 7113 :    } // while ( *pchSqlCmd )...

	jmp	$LN4@fnSqlDispl
$LN5@fnSqlDispl:

; 7114 : 
; 7115 :    if ( pchLine > pchBuffer )

	mov	eax, DWORD PTR _pchLine$[ebp]
	cmp	eax, DWORD PTR _pchBuffer$[ebp]
	jbe	SHORT $LN48@fnSqlDispl

; 7116 :       fnSqlPrintLine( pchBuffer, &pchLine, &pnIndentLth,

	mov	ecx, DWORD PTR _pInfo$[ebp]
	push	ecx
	mov	edx, DWORD PTR _pfnWrite$[ebp]
	push	edx
	lea	eax, DWORD PTR _pnErrorIdx$[ebp]
	push	eax
	lea	ecx, DWORD PTR _pnIndentIncrement$[ebp]
	push	ecx
	lea	edx, DWORD PTR _pnIndentLth$[ebp]
	push	edx
	lea	eax, DWORD PTR _pchLine$[ebp]
	push	eax
	mov	ecx, DWORD PTR _pchBuffer$[ebp]
	push	ecx
	call	_fnSqlPrintLine
	add	esp, 28					; 0000001cH
$LN48@fnSqlDispl:

; 7117 :                       &pnIndentIncrement, &pnErrorIdx, pfnWrite, pInfo );
; 7118 : 
; 7119 :    *pchSqlCmdStr = pchSqlCmd;

	mov	edx, DWORD PTR _pchSqlCmdStr$[ebp]
	mov	eax, DWORD PTR _pchSqlCmd$[ebp]
	mov	DWORD PTR [edx], eax

; 7120 :    SysFreeMemory( hMemBuffer );

	mov	ecx, DWORD PTR _hMemBuffer$[ebp]
	push	ecx
	call	_SysFreeMemory@4
$LN49@fnSqlDispl:

; 7121 : 
; 7122 : }  /* fnSqlDisplayCommand */

	mov	ecx, DWORD PTR __$ArrayPad$[ebp]
	xor	ecx, ebp
	call	@__security_check_cookie@4
	mov	esp, ebp
	pop	ebp
	ret	0
	npad	1
$LN53@fnSqlDispl:
	DD	$LN23@fnSqlDispl
	DD	$LN24@fnSqlDispl
	DD	$LN26@fnSqlDispl
	DD	$LN27@fnSqlDispl
	DD	$LN32@fnSqlDispl
	DD	$LN34@fnSqlDispl
	DD	$LN37@fnSqlDispl
	DD	$LN42@fnSqlDispl
	DD	$LN44@fnSqlDispl
	DD	$LN47@fnSqlDispl
$LN52@fnSqlDispl:
	DB	0
	DB	1
	DB	9
	DB	9
	DB	2
	DB	9
	DB	9
	DB	9
	DB	9
	DB	9
	DB	9
	DB	9
	DB	9
	DB	9
	DB	9
	DB	9
	DB	9
	DB	9
	DB	9
	DB	9
	DB	9
	DB	9
	DB	9
	DB	9
	DB	9
	DB	3
	DB	9
	DB	9
	DB	9
	DB	9
	DB	4
	DB	9
	DB	9
	DB	5
	DB	9
	DB	9
	DB	9
	DB	9
	DB	9
	DB	3
	DB	9
	DB	9
	DB	9
	DB	6
	DB	9
	DB	9
	DB	7
	DB	8
_fnSqlDisplayCommand ENDP
_TEXT	ENDS
; Function compile flags: /Odtp
; File c:\10c\a\oe\kzhsqlga.c
_TEXT	SEGMENT
_n$ = -4						; size = 2
_pchToken$ = 8						; size = 4
_nTokenLth$ = 12					; size = 2
_ppchLine$ = 16						; size = 4
_pchErrorChar$ = 20					; size = 4
_pchBuffer$ = 24					; size = 4
_ppnErrorIdx$ = 28					; size = 4
_fnSqlCopyToken PROC

; 6828 :  {

	push	ebp
	mov	ebp, esp
	push	ecx

; 6829 :    zSHORT n;
; 6830 : 
; 6831 :    for ( n = 0; n < nTokenLth; n++ )

	xor	eax, eax
	mov	WORD PTR _n$[ebp], ax
	jmp	SHORT $LN4@fnSqlCopyT
$LN2@fnSqlCopyT:
	mov	cx, WORD PTR _n$[ebp]
	add	cx, 1
	mov	WORD PTR _n$[ebp], cx
$LN4@fnSqlCopyT:
	movsx	edx, WORD PTR _n$[ebp]
	movsx	eax, WORD PTR _nTokenLth$[ebp]
	cmp	edx, eax
	jge	SHORT $LN1@fnSqlCopyT

; 6832 :    {
; 6833 :       // Copy the n'th character from pchToken to **ppchLine.
; 6834 :       **ppchLine = pchToken[ n ];

	movsx	ecx, WORD PTR _n$[ebp]
	mov	edx, DWORD PTR _ppchLine$[ebp]
	mov	eax, DWORD PTR [edx]
	mov	edx, DWORD PTR _pchToken$[ebp]
	mov	cl, BYTE PTR [edx+ecx]
	mov	BYTE PTR [eax], cl

; 6835 : 
; 6836 :       // If the current character in pchToken is the ErrorChar then set
; 6837 :       // pnErrorIdx to be the offset of the character in pchBuffer.
; 6838 :       if ( pchToken + n == pchErrorChar )

	movsx	edx, WORD PTR _n$[ebp]
	add	edx, DWORD PTR _pchToken$[ebp]
	cmp	edx, DWORD PTR _pchErrorChar$[ebp]
	jne	SHORT $LN5@fnSqlCopyT

; 6839 :          *ppnErrorIdx = *ppchLine - pchBuffer;

	mov	eax, DWORD PTR _ppchLine$[ebp]
	mov	ecx, DWORD PTR [eax]
	sub	ecx, DWORD PTR _pchBuffer$[ebp]
	mov	edx, DWORD PTR _ppnErrorIdx$[ebp]
	mov	WORD PTR [edx], cx
$LN5@fnSqlCopyT:

; 6840 : 
; 6841 :       (*ppchLine)++;

	mov	eax, DWORD PTR _ppchLine$[ebp]
	mov	ecx, DWORD PTR [eax]
	add	ecx, 1
	mov	edx, DWORD PTR _ppchLine$[ebp]
	mov	DWORD PTR [edx], ecx

; 6842 :    }

	jmp	SHORT $LN2@fnSqlCopyT
$LN1@fnSqlCopyT:

; 6843 : } /* fnSqlCopyToken */

	mov	esp, ebp
	pop	ebp
	ret	0
_fnSqlCopyToken ENDP
_TEXT	ENDS
; Function compile flags: /Odtp
; File c:\10c\a\oe\kzhsqlga.c
_TEXT	SEGMENT
_pfnWrite$ = -20					; size = 4
_pchIndentStr$ = -16					; size = 4
_pchPtr$ = -12						; size = 4
_nParenIndent$ = -8					; size = 2
_n$ = -4						; size = 2
_pchBuffer$ = 8						; size = 4
_ppchLine$ = 12						; size = 4
_pnIndentLth$ = 16					; size = 4
_pnIndentIncrement$ = 20				; size = 4
_pnErrorIdx$ = 24					; size = 4
_pfn$ = 28						; size = 4
_pInfo$ = 32						; size = 4
_fnSqlPrintLine PROC

; 6748 : {

	push	ebp
	mov	ebp, esp
	sub	esp, 20					; 00000014H

; 6749 :    zSHORT n;
; 6750 :    zSHORT nParenIndent;
; 6751 :    zPCHAR pchPtr;
; 6752 :    zPCHAR pchIndentStr;
; 6753 :    void (POPERATION pfnWrite)( zPCHAR, zPVOID ) =

	mov	eax, DWORD PTR _pfn$[ebp]
	mov	DWORD PTR _pfnWrite$[ebp], eax

; 6754 :                                (void (POPERATION )( zPCHAR, zPVOID )) pfn;
; 6755 : 
; 6756 :    // Terminate ppchLine string.
; 6757 :    **ppchLine = 0;

	mov	ecx, DWORD PTR _ppchLine$[ebp]
	mov	edx, DWORD PTR [ecx]
	mov	BYTE PTR [edx], 0

; 6758 : 
; 6759 :    pchIndentStr = SysMalloc( zstrlen( pchBuffer ) + 1000 );

	mov	eax, DWORD PTR _pchBuffer$[ebp]
	push	eax
	call	_strlen
	add	esp, 4
	add	eax, 1000				; 000003e8H
	push	eax
	call	_SysMalloc@4
	mov	DWORD PTR _pchIndentStr$[ebp], eax

; 6760 : 
; 6761 :    // If the first character is a right paren ( ')' ) then un-indent two
; 6762 :    // spaces for each right paren.
; 6763 :    pchPtr = pchBuffer;

	mov	ecx, DWORD PTR _pchBuffer$[ebp]
	mov	DWORD PTR _pchPtr$[ebp], ecx

; 6764 :    nParenIndent = 0;

	xor	edx, edx
	mov	WORD PTR _nParenIndent$[ebp], dx
$LN2@fnSqlPrint:

; 6765 :    while ( *pchPtr )

	mov	eax, DWORD PTR _pchPtr$[ebp]
	movsx	ecx, BYTE PTR [eax]
	test	ecx, ecx
	je	SHORT $LN3@fnSqlPrint

; 6766 :    {
; 6767 :       if ( *pchPtr == ')' )

	mov	edx, DWORD PTR _pchPtr$[ebp]
	movsx	eax, BYTE PTR [edx]
	cmp	eax, 41					; 00000029H
	jne	SHORT $LN12@fnSqlPrint

; 6768 :          nParenIndent += 2;

	movsx	ecx, WORD PTR _nParenIndent$[ebp]
	add	ecx, 2
	mov	WORD PTR _nParenIndent$[ebp], cx
	jmp	SHORT $LN13@fnSqlPrint
$LN12@fnSqlPrint:

; 6769 :       else
; 6770 :       if ( *pchPtr != ' ' && nParenIndent == 0 )

	mov	edx, DWORD PTR _pchPtr$[ebp]
	movsx	eax, BYTE PTR [edx]
	cmp	eax, 32					; 00000020H
	je	SHORT $LN13@fnSqlPrint
	movsx	ecx, WORD PTR _nParenIndent$[ebp]
	test	ecx, ecx
	jne	SHORT $LN13@fnSqlPrint

; 6771 :          break;

	jmp	SHORT $LN3@fnSqlPrint
$LN13@fnSqlPrint:

; 6772 : 
; 6773 :       pchPtr++;

	mov	edx, DWORD PTR _pchPtr$[ebp]
	add	edx, 1
	mov	DWORD PTR _pchPtr$[ebp], edx

; 6774 :    }

	jmp	SHORT $LN2@fnSqlPrint
$LN3@fnSqlPrint:

; 6775 : 
; 6776 :    // Set up indent string.
; 6777 :    pchPtr = pchIndentStr;

	mov	eax, DWORD PTR _pchIndentStr$[ebp]
	mov	DWORD PTR _pchPtr$[ebp], eax

; 6778 :    for ( n = 0; n < (*pnIndentLth - nParenIndent); n++ )

	xor	ecx, ecx
	mov	WORD PTR _n$[ebp], cx
	jmp	SHORT $LN6@fnSqlPrint
$LN4@fnSqlPrint:
	mov	dx, WORD PTR _n$[ebp]
	add	dx, 1
	mov	WORD PTR _n$[ebp], dx
$LN6@fnSqlPrint:
	movsx	eax, WORD PTR _n$[ebp]
	mov	ecx, DWORD PTR _pnIndentLth$[ebp]
	movsx	edx, WORD PTR [ecx]
	movsx	ecx, WORD PTR _nParenIndent$[ebp]
	sub	edx, ecx
	cmp	eax, edx
	jge	SHORT $LN5@fnSqlPrint

; 6779 :       *pchPtr++ = ' ';

	mov	edx, DWORD PTR _pchPtr$[ebp]
	mov	BYTE PTR [edx], 32			; 00000020H
	mov	eax, DWORD PTR _pchPtr$[ebp]
	add	eax, 1
	mov	DWORD PTR _pchPtr$[ebp], eax
	jmp	SHORT $LN4@fnSqlPrint
$LN5@fnSqlPrint:

; 6780 : 
; 6781 :    *pchPtr = 0;

	mov	ecx, DWORD PTR _pchPtr$[ebp]
	mov	BYTE PTR [ecx], 0

; 6782 : 
; 6783 :    zstrcat( pchIndentStr, pchBuffer );

	mov	edx, DWORD PTR _pchBuffer$[ebp]
	push	edx
	mov	eax, DWORD PTR _pchIndentStr$[ebp]
	push	eax
	call	_strcat
	add	esp, 8

; 6784 :    (*pfnWrite)( pchIndentStr, pInfo );

	mov	ecx, DWORD PTR _pInfo$[ebp]
	push	ecx
	mov	edx, DWORD PTR _pchIndentStr$[ebp]
	push	edx
	call	DWORD PTR _pfnWrite$[ebp]

; 6785 : 
; 6786 :    if ( *pnErrorIdx )

	mov	eax, DWORD PTR _pnErrorIdx$[ebp]
	movsx	ecx, WORD PTR [eax]
	test	ecx, ecx
	je	$LN15@fnSqlPrint

; 6787 :    {
; 6788 :       zstrcpy( pchIndentStr, "ERR>  " );

	push	OFFSET $SG13931
	mov	edx, DWORD PTR _pchIndentStr$[ebp]
	push	edx
	call	_strcpy
	add	esp, 8

; 6789 :       pchPtr = pchIndentStr;

	mov	eax, DWORD PTR _pchIndentStr$[ebp]
	mov	DWORD PTR _pchPtr$[ebp], eax
$LN7@fnSqlPrint:

; 6790 :       mAdvanceToNull( pchPtr );

	mov	ecx, DWORD PTR _pchPtr$[ebp]
	movsx	edx, BYTE PTR [ecx]
	test	edx, edx
	je	SHORT $LN8@fnSqlPrint
	mov	eax, DWORD PTR _pchPtr$[ebp]
	add	eax, 1
	mov	DWORD PTR _pchPtr$[ebp], eax
	jmp	SHORT $LN7@fnSqlPrint
$LN8@fnSqlPrint:

; 6791 :       for ( n = 0; n < (*pnIndentLth + *pnErrorIdx); n++ )

	xor	ecx, ecx
	mov	WORD PTR _n$[ebp], cx
	jmp	SHORT $LN11@fnSqlPrint
$LN9@fnSqlPrint:
	mov	dx, WORD PTR _n$[ebp]
	add	dx, 1
	mov	WORD PTR _n$[ebp], dx
$LN11@fnSqlPrint:
	movsx	eax, WORD PTR _n$[ebp]
	mov	ecx, DWORD PTR _pnIndentLth$[ebp]
	movsx	edx, WORD PTR [ecx]
	mov	ecx, DWORD PTR _pnErrorIdx$[ebp]
	movsx	ecx, WORD PTR [ecx]
	add	edx, ecx
	cmp	eax, edx
	jge	SHORT $LN10@fnSqlPrint

; 6792 :          *pchPtr++ = ' ';

	mov	edx, DWORD PTR _pchPtr$[ebp]
	mov	BYTE PTR [edx], 32			; 00000020H
	mov	eax, DWORD PTR _pchPtr$[ebp]
	add	eax, 1
	mov	DWORD PTR _pchPtr$[ebp], eax
	jmp	SHORT $LN9@fnSqlPrint
$LN10@fnSqlPrint:

; 6793 : 
; 6794 :       *pchPtr = 0;

	mov	ecx, DWORD PTR _pchPtr$[ebp]
	mov	BYTE PTR [ecx], 0

; 6795 :       TraceLineS( pchIndentStr, "^" );

	push	OFFSET $SG13932
	mov	edx, DWORD PTR _pchIndentStr$[ebp]
	push	edx
	call	_TraceLineS@8

; 6796 :       *pnErrorIdx = 0;

	xor	eax, eax
	mov	ecx, DWORD PTR _pnErrorIdx$[ebp]
	mov	WORD PTR [ecx], ax
$LN15@fnSqlPrint:

; 6797 :    }
; 6798 : 
; 6799 :    *ppchLine     = pchBuffer;

	mov	edx, DWORD PTR _ppchLine$[ebp]
	mov	eax, DWORD PTR _pchBuffer$[ebp]
	mov	DWORD PTR [edx], eax

; 6800 :    *pnIndentLth = *pnIndentLth + *pnIndentIncrement;

	mov	ecx, DWORD PTR _pnIndentLth$[ebp]
	movsx	edx, WORD PTR [ecx]
	mov	eax, DWORD PTR _pnIndentIncrement$[ebp]
	movsx	ecx, WORD PTR [eax]
	add	edx, ecx
	mov	eax, DWORD PTR _pnIndentLth$[ebp]
	mov	WORD PTR [eax], dx

; 6801 :    *pnIndentIncrement = 0;

	xor	ecx, ecx
	mov	edx, DWORD PTR _pnIndentIncrement$[ebp]
	mov	WORD PTR [edx], cx

; 6802 : 
; 6803 :    SysFree( pchIndentStr );

	mov	eax, DWORD PTR _pchIndentStr$[ebp]
	push	eax
	call	_SysFree@4

; 6804 : 
; 6805 : } /* fnSqlPrintLine */

	mov	esp, ebp
	pop	ebp
	ret	0
_fnSqlPrintLine ENDP
_TEXT	ENDS
; Function compile flags: /Odtp
; File c:\10c\a\oe\kzhsqlga.c
_TEXT	SEGMENT
_lpFirstDataField$1 = -1428				; size = 4
_lpViewOD$2 = -1424					; size = 4
_pchOptions$ = -1420					; size = 4
tv290 = -1416						; size = 4
tv289 = -1412						; size = 4
$T3 = -1408						; size = 4
_pchAttrList$4 = -1404					; size = 4
tv138 = -1400						; size = 4
tv137 = -1396						; size = 4
_lpViewAttrib$5 = -1392					; size = 4
_hMem$ = -1388						; size = 4
_lpDataRecord$ = -1384					; size = 4
_lpQualAttrib$6 = -1380					; size = 4
_lpViewAttrib$7 = -1376					; size = 4
_lpDataField$8 = -1372					; size = 4
_pchEntityName$ = -1368					; size = 4
_nAttrListCount$9 = -1364				; size = 2
_lpViewEntity$ = -1360					; size = 4
_nAttrLth$10 = -1356					; size = 2
_nRC$ = -1352						; size = 2
_pch$11 = -1348						; size = 4
_lpQualEntity$ = -1344					; size = 4
_szMsg$12 = -1340					; size = 500
_szMsg$13 = -840					; size = 500
_szMsg$14 = -340					; size = 300
_szAttrName$15 = -40					; size = 33
__$ArrayPad$ = -4					; size = 4
_lpView$ = 8						; size = 4
_lpQualView$ = 12					; size = 4
_lpViewOD$ = 16						; size = 4
_lpFirstQualEntity$ = 20				; size = 4
_lpBoundList$ = 24					; size = 4
_fnSqlRetrieveQualObject PROC

; 6439 : {

	push	ebp
	mov	ebp, esp
	sub	esp, 1428				; 00000594H
	mov	eax, DWORD PTR ___security_cookie
	xor	eax, ebp
	mov	DWORD PTR __$ArrayPad$[ebp], eax

; 6440 :    LPQUALENTITY lpQualEntity;
; 6441 :    LPVIEWENTITY lpViewEntity;
; 6442 :    LPDATARECORD lpDataRecord;
; 6443 :    zPCHAR       pchOptions;
; 6444 :    zPCHAR       pchEntityName;
; 6445 :    zLONG        hMem;
; 6446 :    zSHORT       nRC;
; 6447 : 
; 6448 :    *lpFirstQualEntity = 0;

	mov	eax, DWORD PTR _lpFirstQualEntity$[ebp]
	mov	DWORD PTR [eax], 0

; 6449 : 
; 6450 :    // Copy each of the EntitySpec entities to the qualification chain.
; 6451 :    for ( nRC = SetCursorFirstEntity( lpQualView, szlEntitySpec, 0 );

	push	0
	push	OFFSET _szlEntitySpec
	mov	ecx, DWORD PTR _lpQualView$[ebp]
	push	ecx
	call	_SetCursorFirstEntity@12
	mov	WORD PTR _nRC$[ebp], ax
	jmp	SHORT $LN4@fnSqlRetri
$LN2@fnSqlRetri:

; 6453 :          nRC = SetCursorNextEntity( lpQualView, szlEntitySpec, 0 ) )

	push	0
	push	OFFSET _szlEntitySpec
	mov	edx, DWORD PTR _lpQualView$[ebp]
	push	edx
	call	_SetCursorNextEntity@12
	mov	WORD PTR _nRC$[ebp], ax
$LN4@fnSqlRetri:

; 6452 :          nRC >= zCURSOR_SET;

	movsx	eax, WORD PTR _nRC$[ebp]
	test	eax, eax
	jl	$LN3@fnSqlRetri

; 6454 :    {
; 6455 :       hMem = SysAllocMemory( (zPVOID) &lpQualEntity,

	push	0
	push	32768					; 00008000H
	push	0
	push	32					; 00000020H
	lea	ecx, DWORD PTR _lpQualEntity$[ebp]
	push	ecx
	call	_SysAllocMemory@20
	mov	DWORD PTR _hMem$[ebp], eax

; 6456 :                              sizeof( QualEntityRecord ), 0, zCOREMEM_ALLOC, 0 );
; 6457 :       if ( lpQualEntity == 0 )

	cmp	DWORD PTR _lpQualEntity$[ebp], 0
	jne	SHORT $LN21@fnSqlRetri

; 6458 :       {
; 6459 :          fnSqlDisplayQualMsg( lpView, lpQualView,

	push	0
	push	0
	push	OFFSET $SG13838
	mov	edx, DWORD PTR _lpQualView$[ebp]
	push	edx
	mov	eax, DWORD PTR _lpView$[ebp]
	push	eax
	call	_fnSqlDisplayQualMsg
	add	esp, 20					; 00000014H

; 6460 :                               "Cannot allocate memory", zERROR, 0 );
; 6461 :          return( zCALL_ERROR );

	mov	eax, -16				; fffffff0H
	jmp	$LN46@fnSqlRetri
$LN21@fnSqlRetri:

; 6462 :       }
; 6463 : 
; 6464 :       // Add lpQualEntity to beginning of chain.
; 6465 :       zmemset( (zPVOID) lpQualEntity, 0, sizeof( QualEntityRecord ) );

	push	32					; 00000020H
	push	0
	mov	ecx, DWORD PTR _lpQualEntity$[ebp]
	push	ecx
	call	_memset
	add	esp, 12					; 0000000cH

; 6466 :       lpQualEntity->hMem = hMem;

	mov	edx, DWORD PTR _lpQualEntity$[ebp]
	mov	eax, DWORD PTR _hMem$[ebp]
	mov	DWORD PTR [edx], eax

; 6467 :       lpQualEntity->lpNextQualEntity = *lpFirstQualEntity;

	mov	ecx, DWORD PTR _lpQualEntity$[ebp]
	mov	edx, DWORD PTR _lpFirstQualEntity$[ebp]
	mov	eax, DWORD PTR [edx]
	mov	DWORD PTR [ecx+4], eax

; 6468 :       *lpFirstQualEntity = lpQualEntity;

	mov	ecx, DWORD PTR _lpFirstQualEntity$[ebp]
	mov	edx, DWORD PTR _lpQualEntity$[ebp]
	mov	DWORD PTR [ecx], edx

; 6469 : 
; 6470 :       // Find the view entity that matches the qual entity.
; 6471 :       GetAddrForAttribute( &pchEntityName, lpQualView, szlEntitySpec,

	push	OFFSET $SG13839
	push	OFFSET _szlEntitySpec
	mov	eax, DWORD PTR _lpQualView$[ebp]
	push	eax
	lea	ecx, DWORD PTR _pchEntityName$[ebp]
	push	ecx
	call	_GetAddrForAttribute@16

; 6472 :                            "EntityName" );
; 6473 :       if ( zstrcmp( pchEntityName, "*root*" ) == 0 )

	mov	edx, DWORD PTR _pchEntityName$[ebp]
	movsx	eax, BYTE PTR [edx]
	movsx	ecx, BYTE PTR $SG13842
	cmp	eax, ecx
	jne	SHORT $LN49@fnSqlRetri
	push	OFFSET $SG13843
	mov	edx, DWORD PTR _pchEntityName$[ebp]
	push	edx
	call	_strcmp
	add	esp, 8
	mov	DWORD PTR tv138[ebp], eax
	jmp	SHORT $LN50@fnSqlRetri
$LN49@fnSqlRetri:
	mov	eax, DWORD PTR _pchEntityName$[ebp]
	movsx	ecx, BYTE PTR [eax]
	movsx	edx, BYTE PTR $SG13844
	sub	ecx, edx
	test	ecx, ecx
	jle	SHORT $LN47@fnSqlRetri
	mov	DWORD PTR tv137[ebp], 1
	jmp	SHORT $LN48@fnSqlRetri
$LN47@fnSqlRetri:
	mov	DWORD PTR tv137[ebp], -1
$LN48@fnSqlRetri:
	mov	eax, DWORD PTR tv137[ebp]
	mov	DWORD PTR tv138[ebp], eax
$LN50@fnSqlRetri:
	cmp	DWORD PTR tv138[ebp], 0
	jne	SHORT $LN22@fnSqlRetri

; 6474 :       {
; 6475 :          LPVIEWOD lpViewOD;
; 6476 : 
; 6477 :          // User specified they want to use the root.  Just get the entity
; 6478 :          // name.
; 6479 :          lpViewOD = (LPVIEWOD) MiGetViewEntityForView( lpView, 0 );

	push	0
	mov	ecx, DWORD PTR _lpView$[ebp]
	push	ecx
	call	_MiGetViewEntityForView@8
	mov	DWORD PTR _lpViewOD$2[ebp], eax

; 6480 :          lpViewEntity = (LPVIEWENTITY) zGETPTR( lpViewOD->hFirstOD_Entity );

	mov	edx, DWORD PTR _lpViewOD$2[ebp]
	mov	eax, DWORD PTR [edx+224]
	push	eax
	call	_SysGetPointerFromHandle@4
	mov	DWORD PTR _lpViewEntity$[ebp], eax

; 6481 :       }

	jmp	SHORT $LN23@fnSqlRetri
$LN22@fnSqlRetri:

; 6482 :       else
; 6483 :          lpViewEntity = MiGetViewEntityForView( lpView, pchEntityName );

	mov	ecx, DWORD PTR _pchEntityName$[ebp]
	push	ecx
	mov	edx, DWORD PTR _lpView$[ebp]
	push	edx
	call	_MiGetViewEntityForView@8
	mov	DWORD PTR _lpViewEntity$[ebp], eax
$LN23@fnSqlRetri:

; 6484 : 
; 6485 :       // If no view entity was found to match entity name in qual entity
; 6486 :       // then issue an error and exit.
; 6487 :       if ( lpViewEntity == 0 )

	cmp	DWORD PTR _lpViewEntity$[ebp], 0
	jne	SHORT $LN24@fnSqlRetri

; 6488 :       {
; 6489 :          zCHAR szMsg[ 500 ];
; 6490 : 
; 6491 :          zsprintf( szMsg, "Entity '%s' does not exist in Object '%s'",

	mov	eax, DWORD PTR _lpViewOD$[ebp]
	add	eax, 10					; 0000000aH
	push	eax
	mov	ecx, DWORD PTR _pchEntityName$[ebp]
	push	ecx
	push	OFFSET $SG13846
	lea	edx, DWORD PTR _szMsg$13[ebp]
	push	edx
	call	_sprintf
	add	esp, 16					; 00000010H

; 6492 :                    pchEntityName, lpViewOD->szName );
; 6493 :          fnSqlDisplayQualMsg( lpView, lpQualView, szMsg,

	push	OFFSET _szlEntitySpec
	push	0
	lea	eax, DWORD PTR _szMsg$13[ebp]
	push	eax
	mov	ecx, DWORD PTR _lpQualView$[ebp]
	push	ecx
	mov	edx, DWORD PTR _lpView$[ebp]
	push	edx
	call	_fnSqlDisplayQualMsg
	add	esp, 20					; 00000014H

; 6494 :                               zERROR, szlEntitySpec );
; 6495 :          return( zCALL_ERROR );

	mov	eax, -16				; fffffff0H
	jmp	$LN46@fnSqlRetri
$LN24@fnSqlRetri:

; 6496 :       }
; 6497 : 
; 6498 :       if ( lpViewEntity->bDerived || lpViewEntity->bDerivedPath ||

	mov	eax, DWORD PTR _lpViewEntity$[ebp]
	mov	ecx, DWORD PTR [eax+235]
	shr	ecx, 13					; 0000000dH
	and	ecx, 1
	jne	SHORT $LN26@fnSqlRetri
	mov	edx, DWORD PTR _lpViewEntity$[ebp]
	mov	eax, DWORD PTR [edx+235]
	shr	eax, 14					; 0000000eH
	and	eax, 1
	jne	SHORT $LN26@fnSqlRetri
	mov	ecx, DWORD PTR _lpViewEntity$[ebp]
	cmp	DWORD PTR [ecx+191], 0
	jne	SHORT $LN25@fnSqlRetri
$LN26@fnSqlRetri:

; 6499 :            lpViewEntity->hFirstDataRecord == 0 )
; 6500 :       {
; 6501 :          zCHAR szMsg[ 500 ];
; 6502 : 
; 6503 :          zsprintf( szMsg, "Entity '%s' in Object '%s' is a work or derived entity "

	mov	edx, DWORD PTR _lpViewOD$[ebp]
	add	edx, 10					; 0000000aH
	push	edx
	mov	eax, DWORD PTR _pchEntityName$[ebp]
	push	eax
	push	OFFSET $SG13849
	lea	ecx, DWORD PTR _szMsg$12[ebp]
	push	ecx
	call	_sprintf
	add	esp, 16					; 00000010H

; 6504 :                    "and is not allowed for entity qualification during an "
; 6505 :                    "Activate", pchEntityName, lpViewOD->szName );
; 6506 :          fnSqlDisplayQualMsg( lpView, lpQualView, szMsg,

	push	OFFSET _szlEntitySpec
	push	0
	lea	edx, DWORD PTR _szMsg$12[ebp]
	push	edx
	mov	eax, DWORD PTR _lpQualView$[ebp]
	push	eax
	mov	ecx, DWORD PTR _lpView$[ebp]
	push	ecx
	call	_fnSqlDisplayQualMsg
	add	esp, 20					; 00000014H

; 6507 :                               zERROR, szlEntitySpec );
; 6508 :          return( zCALL_ERROR );

	mov	eax, -16				; fffffff0H
	jmp	$LN46@fnSqlRetri
$LN25@fnSqlRetri:

; 6509 :       }
; 6510 : 
; 6511 :       GetAddrForAttribute( &lpQualEntity->pszOpenSQL,

	push	OFFSET $SG13850
	push	OFFSET _szlEntitySpec
	mov	edx, DWORD PTR _lpQualView$[ebp]
	push	edx
	mov	eax, DWORD PTR _lpQualEntity$[ebp]
	add	eax, 16					; 00000010H
	push	eax
	call	_GetAddrForAttribute@16

; 6512 :                            lpQualView, szlEntitySpec, "OpenSQL" );
; 6513 :       if ( lpQualEntity->pszOpenSQL && *lpQualEntity->pszOpenSQL == 0 )

	mov	ecx, DWORD PTR _lpQualEntity$[ebp]
	cmp	DWORD PTR [ecx+16], 0
	je	SHORT $LN27@fnSqlRetri
	mov	edx, DWORD PTR _lpQualEntity$[ebp]
	mov	eax, DWORD PTR [edx+16]
	movsx	ecx, BYTE PTR [eax]
	test	ecx, ecx
	jne	SHORT $LN27@fnSqlRetri

; 6514 :          lpQualEntity->pszOpenSQL = 0;

	mov	edx, DWORD PTR _lpQualEntity$[ebp]
	mov	DWORD PTR [edx+16], 0
$LN27@fnSqlRetri:

; 6515 : 
; 6516 :       // Check to see if there is OpenSQL statement.
; 6517 :       if ( lpQualEntity->pszOpenSQL )

	mov	eax, DWORD PTR _lpQualEntity$[ebp]
	cmp	DWORD PTR [eax+16], 0
	je	$LN28@fnSqlRetri

; 6518 :       {
; 6519 :          zPCHAR       pchAttrList;
; 6520 :          zPCHAR       pch;
; 6521 :          zSHORT       nAttrListCount;
; 6522 :          LPDATAFIELD  lpFirstDataField;
; 6523 : 
; 6524 :          lpQualEntity->bUniqueQualification = FALSE;

	mov	ecx, DWORD PTR _lpQualEntity$[ebp]
	mov	edx, DWORD PTR [ecx+28]
	and	edx, -17				; ffffffefH
	mov	eax, DWORD PTR _lpQualEntity$[ebp]
	mov	DWORD PTR [eax+28], edx

; 6525 : 
; 6526 :          // We have an OpenSQL select statement.  Now make sure that the
; 6527 :          // attribute list is specified.
; 6528 :          GetAddrForAttribute( &pchAttrList, lpQualView,

	push	OFFSET $SG13853
	push	OFFSET _szlEntitySpec
	mov	ecx, DWORD PTR _lpQualView$[ebp]
	push	ecx
	lea	edx, DWORD PTR _pchAttrList$4[ebp]
	push	edx
	call	_GetAddrForAttribute@16

; 6529 :                               szlEntitySpec, "OpenSQL_AttributeList" );
; 6530 :          if ( pchAttrList == 0 )

	cmp	DWORD PTR _pchAttrList$4[ebp], 0
	jne	SHORT $LN29@fnSqlRetri

; 6531 :          {
; 6532 :             fnSqlDisplayQualMsg( lpView, lpQualView,

	push	OFFSET _szlEntitySpec
	push	0
	push	OFFSET $SG13855
	mov	eax, DWORD PTR _lpQualView$[ebp]
	push	eax
	mov	ecx, DWORD PTR _lpView$[ebp]
	push	ecx
	call	_fnSqlDisplayQualMsg
	add	esp, 20					; 00000014H

; 6533 :                                  "OpenSQL is specified but not "
; 6534 :                                  "OpenSQL_AttributeList.",
; 6535 :                                  zERROR, szlEntitySpec );
; 6536 :             return( zCALL_ERROR );

	mov	eax, -16				; fffffff0H
	jmp	$LN46@fnSqlRetri
$LN29@fnSqlRetri:

; 6537 :          }
; 6538 : 
; 6539 :          // Make sure the entity has data records.
; 6540 :          lpDataRecord = zGETPTR( lpViewEntity->hFirstDataRecord );

	mov	edx, DWORD PTR _lpViewEntity$[ebp]
	mov	eax, DWORD PTR [edx+191]
	push	eax
	call	_SysGetPointerFromHandle@4
	mov	DWORD PTR _lpDataRecord$[ebp], eax

; 6541 :          if ( lpDataRecord == 0 ||

	cmp	DWORD PTR _lpDataRecord$[ebp], 0
	je	SHORT $LN31@fnSqlRetri
	mov	ecx, DWORD PTR _lpDataRecord$[ebp]
	cmp	DWORD PTR [ecx+10], 0
	jne	SHORT $LN30@fnSqlRetri
$LN31@fnSqlRetri:

; 6542 :               lpDataRecord->hFirstDataField == 0 )
; 6543 :          {
; 6544 :             fnSqlDisplayQualMsg( lpView, lpQualView,

	push	OFFSET _szlEntitySpec
	push	0
	push	OFFSET $SG13858
	mov	edx, DWORD PTR _lpQualView$[ebp]
	push	edx
	mov	eax, DWORD PTR _lpView$[ebp]
	push	eax
	call	_fnSqlDisplayQualMsg
	add	esp, 20					; 00000014H

; 6545 :                                  "OpenSQL is specified but entity does not "
; 6546 :                                  "have DB information for attributes.",
; 6547 :                                  zERROR, szlEntitySpec );
; 6548 :             return( zCALL_ERROR );

	mov	eax, -16				; fffffff0H
	jmp	$LN46@fnSqlRetri
$LN30@fnSqlRetri:

; 6549 :          }
; 6550 : 
; 6551 :          lpFirstDataField = zGETPTR( lpDataRecord->hFirstDataField );

	mov	ecx, DWORD PTR _lpDataRecord$[ebp]
	mov	edx, DWORD PTR [ecx+10]
	push	edx
	call	_SysGetPointerFromHandle@4
	mov	DWORD PTR _lpFirstDataField$1[ebp], eax

; 6552 : 
; 6553 :          // Retrieve the attribute list and convert the list to a table of
; 6554 :          // data records.
; 6555 :          hMem = SysAllocMemory( (zPVOID) &lpQualEntity->lpDataField,

	push	0
	push	32768					; 00008000H
	push	0
	push	2000					; 000007d0H
	mov	eax, DWORD PTR _lpQualEntity$[ebp]
	add	eax, 20					; 00000014H
	push	eax
	call	_SysAllocMemory@20
	mov	DWORD PTR _hMem$[ebp], eax

; 6556 :                                 sizeof( LPDATAFIELD ) * zMAX_OPENSQL_ATTRS,
; 6557 :                                 0, zCOREMEM_ALLOC, 0 );
; 6558 :          if ( lpQualEntity->lpDataField == 0 )

	mov	ecx, DWORD PTR _lpQualEntity$[ebp]
	cmp	DWORD PTR [ecx+20], 0
	jne	SHORT $LN32@fnSqlRetri

; 6559 :          {
; 6560 :             fnSqlDisplayQualMsg( lpView, lpQualView,

	push	0
	push	0
	push	OFFSET $SG13860
	mov	edx, DWORD PTR _lpQualView$[ebp]
	push	edx
	mov	eax, DWORD PTR _lpView$[ebp]
	push	eax
	call	_fnSqlDisplayQualMsg
	add	esp, 20					; 00000014H

; 6561 :                                  "Cannot allocate memory",
; 6562 :                                  zERROR, 0 );
; 6563 :             return( zCALL_ERROR );

	mov	eax, -16				; fffffff0H
	jmp	$LN46@fnSqlRetri
$LN32@fnSqlRetri:

; 6564 :          }
; 6565 : 
; 6566 :          lpQualEntity->hAttrListMem = hMem;

	mov	ecx, DWORD PTR _lpQualEntity$[ebp]
	mov	edx, DWORD PTR _hMem$[ebp]
	mov	DWORD PTR [ecx+24], edx

; 6567 : 
; 6568 :          zmemset( (zPVOID) lpQualEntity->lpDataField, 0,

	push	2000					; 000007d0H
	push	0
	mov	eax, DWORD PTR _lpQualEntity$[ebp]
	mov	ecx, DWORD PTR [eax+20]
	push	ecx
	call	_memset
	add	esp, 12					; 0000000cH

; 6569 :                   sizeof( LPDATAFIELD ) * zMAX_OPENSQL_ATTRS );
; 6570 : 
; 6571 :          // Parse through the attribute list.  For each attribute, find the
; 6572 :          // cooresponding DataRecord and add it to the data record list.
; 6573 :          nAttrListCount = 0;

	xor	edx, edx
	mov	WORD PTR _nAttrListCount$9[ebp], dx

; 6574 :          pch = pchAttrList;

	mov	eax, DWORD PTR _pchAttrList$4[ebp]
	mov	DWORD PTR _pch$11[ebp], eax
$LN5@fnSqlRetri:

; 6575 :          while ( *pch )

	mov	ecx, DWORD PTR _pch$11[ebp]
	movsx	edx, BYTE PTR [ecx]
	test	edx, edx
	je	$LN28@fnSqlRetri
$LN7@fnSqlRetri:

; 6576 :          {
; 6577 :             zCHAR        szAttrName[ 33 ];
; 6578 :             zSHORT       nAttrLth;
; 6579 :             LPDATAFIELD  lpDataField;
; 6580 : 
; 6581 :             // Skip non-alphanumeric chars.
; 6582 :             while ( *pch && !IS_VALID_ID_CHAR( *pch ) )

	mov	eax, DWORD PTR _pch$11[ebp]
	movsx	ecx, BYTE PTR [eax]
	test	ecx, ecx
	je	SHORT $LN8@fnSqlRetri
	mov	edx, DWORD PTR _pch$11[ebp]
	movsx	eax, BYTE PTR [edx]
	push	eax
	call	DWORD PTR __imp__isalnum
	add	esp, 4
	test	eax, eax
	jne	SHORT $LN8@fnSqlRetri
	mov	ecx, DWORD PTR _pch$11[ebp]
	movsx	edx, BYTE PTR [ecx]
	cmp	edx, 95					; 0000005fH
	je	SHORT $LN8@fnSqlRetri

; 6583 :                pch++;

	mov	eax, DWORD PTR _pch$11[ebp]
	add	eax, 1
	mov	DWORD PTR _pch$11[ebp], eax
	jmp	SHORT $LN7@fnSqlRetri
$LN8@fnSqlRetri:

; 6584 : 
; 6585 :             if ( pch[ 0 ] == 0 )

	mov	ecx, 1
	imul	edx, ecx, 0
	mov	eax, DWORD PTR _pch$11[ebp]
	movsx	ecx, BYTE PTR [eax+edx]
	test	ecx, ecx
	jne	SHORT $LN33@fnSqlRetri

; 6586 :                break;

	jmp	$LN28@fnSqlRetri
$LN33@fnSqlRetri:

; 6587 : 
; 6588 :             // Copy current attr name in list to variable.
; 6589 :             for ( nAttrLth = 0; IS_VALID_ID_CHAR( *pch ); )

	xor	edx, edx
	mov	WORD PTR _nAttrLth$10[ebp], dx
$LN11@fnSqlRetri:
	mov	eax, DWORD PTR _pch$11[ebp]
	movsx	ecx, BYTE PTR [eax]
	push	ecx
	call	DWORD PTR __imp__isalnum
	add	esp, 4
	test	eax, eax
	jne	SHORT $LN34@fnSqlRetri
	mov	edx, DWORD PTR _pch$11[ebp]
	movsx	eax, BYTE PTR [edx]
	cmp	eax, 95					; 0000005fH
	jne	SHORT $LN10@fnSqlRetri
$LN34@fnSqlRetri:

; 6590 :                szAttrName[ nAttrLth++ ] = *pch++;

	movsx	ecx, WORD PTR _nAttrLth$10[ebp]
	mov	edx, DWORD PTR _pch$11[ebp]
	mov	al, BYTE PTR [edx]
	mov	BYTE PTR _szAttrName$15[ebp+ecx], al
	mov	cx, WORD PTR _nAttrLth$10[ebp]
	add	cx, 1
	mov	WORD PTR _nAttrLth$10[ebp], cx
	mov	edx, DWORD PTR _pch$11[ebp]
	add	edx, 1
	mov	DWORD PTR _pch$11[ebp], edx
	jmp	SHORT $LN11@fnSqlRetri
$LN10@fnSqlRetri:

; 6591 : 
; 6592 :             szAttrName[ nAttrLth ] = 0;

	movsx	eax, WORD PTR _nAttrLth$10[ebp]
	mov	DWORD PTR $T3[ebp], eax
	cmp	DWORD PTR $T3[ebp], 33			; 00000021H
	jae	SHORT $LN51@fnSqlRetri
	jmp	SHORT $LN52@fnSqlRetri
$LN51@fnSqlRetri:
	call	___report_rangecheckfailure
$LN52@fnSqlRetri:
	mov	ecx, DWORD PTR $T3[ebp]
	mov	BYTE PTR _szAttrName$15[ebp+ecx], 0

; 6593 : 
; 6594 :             // Now look for the attribute that matches szAttrName.
; 6595 :             for ( lpDataField = lpFirstDataField;

	mov	edx, DWORD PTR _lpFirstDataField$1[ebp]
	mov	DWORD PTR _lpDataField$8[ebp], edx
	jmp	SHORT $LN14@fnSqlRetri
$LN12@fnSqlRetri:

; 6597 :                   lpDataField = zGETPTR( lpDataField->hNextDataField ) )

	mov	eax, DWORD PTR _lpDataField$8[ebp]
	mov	ecx, DWORD PTR [eax+2]
	push	ecx
	call	_SysGetPointerFromHandle@4
	mov	DWORD PTR _lpDataField$8[ebp], eax
$LN14@fnSqlRetri:

; 6596 :                   lpDataField;

	cmp	DWORD PTR _lpDataField$8[ebp], 0
	je	$LN13@fnSqlRetri

; 6598 :             {
; 6599 :                LPVIEWATTRIB lpViewAttrib = zGETPTR( lpDataField->hViewAttrib );

	mov	edx, DWORD PTR _lpDataField$8[ebp]
	mov	eax, DWORD PTR [edx+6]
	push	eax
	call	_SysGetPointerFromHandle@4
	mov	DWORD PTR _lpViewAttrib$5[ebp], eax

; 6600 :                if ( zstrcmp( szAttrName, lpViewAttrib->szName ) == 0 )

	movsx	ecx, BYTE PTR _szAttrName$15[ebp]
	mov	edx, DWORD PTR _lpViewAttrib$5[ebp]
	movsx	eax, BYTE PTR [edx+10]
	cmp	ecx, eax
	jne	SHORT $LN55@fnSqlRetri
	mov	ecx, DWORD PTR _lpViewAttrib$5[ebp]
	add	ecx, 10					; 0000000aH
	push	ecx
	lea	edx, DWORD PTR _szAttrName$15[ebp]
	push	edx
	call	_strcmp
	add	esp, 8
	mov	DWORD PTR tv290[ebp], eax
	jmp	SHORT $LN56@fnSqlRetri
$LN55@fnSqlRetri:
	movsx	eax, BYTE PTR _szAttrName$15[ebp]
	mov	ecx, DWORD PTR _lpViewAttrib$5[ebp]
	movsx	edx, BYTE PTR [ecx+10]
	sub	eax, edx
	test	eax, eax
	jle	SHORT $LN53@fnSqlRetri
	mov	DWORD PTR tv289[ebp], 1
	jmp	SHORT $LN54@fnSqlRetri
$LN53@fnSqlRetri:
	mov	DWORD PTR tv289[ebp], -1
$LN54@fnSqlRetri:
	mov	eax, DWORD PTR tv289[ebp]
	mov	DWORD PTR tv290[ebp], eax
$LN56@fnSqlRetri:
	cmp	DWORD PTR tv290[ebp], 0
	jne	SHORT $LN35@fnSqlRetri

; 6601 :                {
; 6602 :                   // We found the attribute we were looking for.  Copy the
; 6603 :                   // data field pointer to the attr list table and break.
; 6604 :                   lpQualEntity->lpDataField[ nAttrListCount++ ] = lpDataField;

	movsx	ecx, WORD PTR _nAttrListCount$9[ebp]
	mov	edx, DWORD PTR _lpQualEntity$[ebp]
	mov	eax, DWORD PTR [edx+20]
	mov	edx, DWORD PTR _lpDataField$8[ebp]
	mov	DWORD PTR [eax+ecx*4], edx
	mov	ax, WORD PTR _nAttrListCount$9[ebp]
	add	ax, 1
	mov	WORD PTR _nAttrListCount$9[ebp], ax

; 6605 :                   break;

	jmp	SHORT $LN13@fnSqlRetri
$LN35@fnSqlRetri:

; 6606 :                }
; 6607 :             }

	jmp	$LN12@fnSqlRetri
$LN13@fnSqlRetri:

; 6608 : 
; 6609 :             // If lpDataField is 0, then we didn't find szAttrName in the
; 6610 :             // attribute list.
; 6611 :             if ( lpDataField == 0 )

	cmp	DWORD PTR _lpDataField$8[ebp], 0
	jne	SHORT $LN36@fnSqlRetri

; 6612 :             {
; 6613 :                zCHAR szMsg[ 300 ];
; 6614 : 
; 6615 :                zsprintf( szMsg, "Attribute name '%s' specified in "

	mov	ecx, DWORD PTR _lpViewEntity$[ebp]
	add	ecx, 14					; 0000000eH
	push	ecx
	lea	edx, DWORD PTR _szAttrName$15[ebp]
	push	edx
	push	OFFSET $SG13865
	lea	eax, DWORD PTR _szMsg$14[ebp]
	push	eax
	call	_sprintf
	add	esp, 16					; 00000010H

; 6616 :                          "OpenSQL_AttributeList does not exist for entity '%s'",
; 6617 :                          szAttrName, lpViewEntity->szName );
; 6618 :                fnSqlDisplayQualMsg( lpView, lpQualView,

	push	OFFSET _szlEntitySpec
	push	0
	lea	ecx, DWORD PTR _szMsg$14[ebp]
	push	ecx
	mov	edx, DWORD PTR _lpQualView$[ebp]
	push	edx
	mov	eax, DWORD PTR _lpView$[ebp]
	push	eax
	call	_fnSqlDisplayQualMsg
	add	esp, 20					; 00000014H

; 6619 :                                     szMsg, zERROR, szlEntitySpec );
; 6620 :                return( zCALL_ERROR );

	mov	eax, -16				; fffffff0H
	jmp	$LN46@fnSqlRetri
$LN36@fnSqlRetri:

; 6621 :             }
; 6622 : 
; 6623 :          } // for ( nAttrListCount... )

	jmp	$LN5@fnSqlRetri
$LN28@fnSqlRetri:

; 6624 : 
; 6625 :       } // if ( lpQualEntity->pszOpenSQL )...
; 6626 : 
; 6627 :       // Check for the different options.
; 6628 :       GetAddrForAttribute( &pchOptions, lpQualView, szlEntitySpec, "Options" );

	push	OFFSET $SG13866
	push	OFFSET _szlEntitySpec
	mov	ecx, DWORD PTR _lpQualView$[ebp]
	push	ecx
	lea	edx, DWORD PTR _pchOptions$[ebp]
	push	edx
	call	_GetAddrForAttribute@16

; 6629 :       if ( *pchOptions )

	mov	eax, DWORD PTR _pchOptions$[ebp]
	movsx	ecx, BYTE PTR [eax]
	test	ecx, ecx
	je	SHORT $LN37@fnSqlRetri

; 6630 :       {
; 6631 :          if ( zstrstr( pchOptions, "NOJOIN" ) != 0 )

	push	OFFSET $SG13869
	mov	edx, DWORD PTR _pchOptions$[ebp]
	push	edx
	call	DWORD PTR __imp__strstr
	add	esp, 8
	test	eax, eax
	je	SHORT $LN37@fnSqlRetri

; 6632 :             lpQualEntity->bOptionsNoJoins = TRUE;

	mov	eax, DWORD PTR _lpQualEntity$[ebp]
	mov	ecx, DWORD PTR [eax+28]
	or	ecx, 8
	mov	edx, DWORD PTR _lpQualEntity$[ebp]
	mov	DWORD PTR [edx+28], ecx
$LN37@fnSqlRetri:

; 6633 :       }
; 6634 : 
; 6635 :       lpQualEntity->lpViewEntity         = lpViewEntity;

	mov	eax, DWORD PTR _lpQualEntity$[ebp]
	mov	ecx, DWORD PTR _lpViewEntity$[ebp]
	mov	DWORD PTR [eax+8], ecx

; 6636 :       lpQualEntity->bUniqueQualification = TRUE;

	mov	edx, DWORD PTR _lpQualEntity$[ebp]
	mov	eax, DWORD PTR [edx+28]
	or	eax, 16					; 00000010H
	mov	ecx, DWORD PTR _lpQualEntity$[ebp]
	mov	DWORD PTR [ecx+28], eax

; 6637 :       lpQualEntity->bContainsSubselect   = FALSE;

	mov	edx, DWORD PTR _lpQualEntity$[ebp]
	mov	eax, DWORD PTR [edx+28]
	and	eax, -3					; fffffffdH
	mov	ecx, DWORD PTR _lpQualEntity$[ebp]
	mov	DWORD PTR [ecx+28], eax

; 6638 : 
; 6639 :       // Retrieve all QualAttribs under the current EntitySpec.
; 6640 :       nRC = fnSqlRetrieveQualAttrib( lpView, lpViewOD,

	mov	edx, DWORD PTR _lpBoundList$[ebp]
	push	edx
	mov	eax, DWORD PTR _lpQualEntity$[ebp]
	add	eax, 12					; 0000000cH
	push	eax
	mov	ecx, DWORD PTR _lpQualEntity$[ebp]
	push	ecx
	mov	edx, DWORD PTR _lpQualView$[ebp]
	push	edx
	mov	eax, DWORD PTR _lpViewOD$[ebp]
	push	eax
	mov	ecx, DWORD PTR _lpView$[ebp]
	push	ecx
	call	_fnSqlRetrieveQualAttrib
	add	esp, 24					; 00000018H
	mov	WORD PTR _nRC$[ebp], ax

; 6641 :                                      lpQualView, lpQualEntity,
; 6642 :                                      &lpQualEntity->lpFirstQualAttrib,
; 6643 :                                      lpBoundList );
; 6644 :       if ( nRC < 0 )

	movsx	edx, WORD PTR _nRC$[ebp]
	test	edx, edx
	jge	SHORT $LN39@fnSqlRetri

; 6645 :          return( nRC );

	mov	ax, WORD PTR _nRC$[ebp]
	jmp	$LN46@fnSqlRetri
$LN39@fnSqlRetri:

; 6646 : 
; 6647 :       // If we are qualifying using a child entity or a subselect then we are
; 6648 :       // not qualifying using only the keys of the qual entity.
; 6649 :       if ( lpQualEntity->bQualUsesChildEntity ||

	mov	eax, DWORD PTR _lpQualEntity$[ebp]
	mov	ecx, DWORD PTR [eax+28]
	and	ecx, 1
	jne	SHORT $LN41@fnSqlRetri
	mov	edx, DWORD PTR _lpQualEntity$[ebp]
	mov	eax, DWORD PTR [edx+28]
	shr	eax, 1
	and	eax, 1
	je	SHORT $LN40@fnSqlRetri
$LN41@fnSqlRetri:

; 6650 :            lpQualEntity->bContainsSubselect )
; 6651 :       {
; 6652 :          lpQualEntity->bUniqueQualification = FALSE;

	mov	ecx, DWORD PTR _lpQualEntity$[ebp]
	mov	edx, DWORD PTR [ecx+28]
	and	edx, -17				; ffffffefH
	mov	eax, DWORD PTR _lpQualEntity$[ebp]
	mov	DWORD PTR [eax+28], edx
$LN40@fnSqlRetri:

; 6653 :       }
; 6654 : 
; 6655 :       // If we still think we are qualifying using only keys then let's check
; 6656 :       // to see if we are selecting by all the keys.  If the qualfication
; 6657 :       // contains an 'IS' oper then we don't have to worry about checking
; 6658 :       // because it automatically uses all the keys.
; 6659 :       if ( lpQualEntity->bUniqueQualification &&

	mov	ecx, DWORD PTR _lpQualEntity$[ebp]
	mov	edx, DWORD PTR [ecx+28]
	shr	edx, 4
	and	edx, 1
	je	$LN42@fnSqlRetri
	mov	eax, DWORD PTR _lpQualEntity$[ebp]
	mov	ecx, DWORD PTR [eax+28]
	shr	ecx, 2
	and	ecx, 1
	jne	$LN42@fnSqlRetri

; 6660 :            lpQualEntity->bContainsIS == FALSE )
; 6661 :       {
; 6662 :          LPVIEWATTRIB lpViewAttrib;
; 6663 :          LPQUALATTRIB lpQualAttrib;
; 6664 : 
; 6665 :          // We already know that we're qualifying using only keys with 'AND'.
; 6666 :          // Now make sure that we have all the keys.
; 6667 :          for ( lpViewAttrib = zGETPTR( lpViewEntity->hFirstOD_Attrib );

	mov	edx, DWORD PTR _lpViewEntity$[ebp]
	mov	eax, DWORD PTR [edx+179]
	push	eax
	call	_SysGetPointerFromHandle@4
	mov	DWORD PTR _lpViewAttrib$7[ebp], eax
	jmp	SHORT $LN17@fnSqlRetri
$LN15@fnSqlRetri:

; 6669 :                lpViewAttrib = zGETPTR( lpViewAttrib->hNextOD_Attrib ) )

	mov	ecx, DWORD PTR _lpViewAttrib$7[ebp]
	mov	edx, DWORD PTR [ecx+2]
	push	edx
	call	_SysGetPointerFromHandle@4
	mov	DWORD PTR _lpViewAttrib$7[ebp], eax
$LN17@fnSqlRetri:

; 6668 :                lpViewAttrib;

	cmp	DWORD PTR _lpViewAttrib$7[ebp], 0
	je	SHORT $LN42@fnSqlRetri

; 6670 :          {
; 6671 :             // We only care about keys.
; 6672 :             if ( lpViewAttrib->bKey == FALSE )

	mov	eax, DWORD PTR _lpViewAttrib$7[ebp]
	mov	ecx, DWORD PTR [eax+193]
	shr	ecx, 1
	and	ecx, 1
	jne	SHORT $LN43@fnSqlRetri

; 6673 :                continue;

	jmp	SHORT $LN15@fnSqlRetri
$LN43@fnSqlRetri:

; 6674 : 
; 6675 :             // Now see if there is a qual attrib for the key.
; 6676 :             for ( lpQualAttrib = lpQualEntity->lpFirstQualAttrib;

	mov	edx, DWORD PTR _lpQualEntity$[ebp]
	mov	eax, DWORD PTR [edx+12]
	mov	DWORD PTR _lpQualAttrib$6[ebp], eax
	jmp	SHORT $LN20@fnSqlRetri
$LN18@fnSqlRetri:

; 6678 :                   lpQualAttrib = lpQualAttrib->lpNextQualAttrib )

	mov	ecx, DWORD PTR _lpQualAttrib$6[ebp]
	mov	edx, DWORD PTR [ecx+4]
	mov	DWORD PTR _lpQualAttrib$6[ebp], edx
$LN20@fnSqlRetri:

; 6677 :                   lpQualAttrib;

	cmp	DWORD PTR _lpQualAttrib$6[ebp], 0
	je	SHORT $LN19@fnSqlRetri

; 6679 :             {
; 6680 :                if ( lpQualAttrib->lpViewAttrib == lpViewAttrib )

	mov	eax, DWORD PTR _lpQualAttrib$6[ebp]
	mov	ecx, DWORD PTR [eax+20]
	cmp	ecx, DWORD PTR _lpViewAttrib$7[ebp]
	jne	SHORT $LN44@fnSqlRetri

; 6681 :                   break;

	jmp	SHORT $LN19@fnSqlRetri
$LN44@fnSqlRetri:

; 6682 :             }

	jmp	SHORT $LN18@fnSqlRetri
$LN19@fnSqlRetri:

; 6683 : 
; 6684 :             // If we didn't find qualification for the key then break.
; 6685 :             if ( lpQualAttrib == 0 )

	cmp	DWORD PTR _lpQualAttrib$6[ebp], 0
	jne	SHORT $LN45@fnSqlRetri

; 6686 :             {
; 6687 :                lpQualEntity->bUniqueQualification = FALSE;

	mov	edx, DWORD PTR _lpQualEntity$[ebp]
	mov	eax, DWORD PTR [edx+28]
	and	eax, -17				; ffffffefH
	mov	ecx, DWORD PTR _lpQualEntity$[ebp]
	mov	DWORD PTR [ecx+28], eax

; 6688 :                break;

	jmp	SHORT $LN42@fnSqlRetri
$LN45@fnSqlRetri:

; 6689 :             }
; 6690 : 
; 6691 :          } // for ( lpViewAttrib )...

	jmp	$LN15@fnSqlRetri
$LN42@fnSqlRetri:

; 6692 :       }
; 6693 : 
; 6694 :    } // while ( nRC == zCURSOR_SET )...

	jmp	$LN2@fnSqlRetri
$LN3@fnSqlRetri:

; 6695 : 
; 6696 : #if 0  // Change 0 to 1 for debugging...
; 6697 :    // Display the QualEntity structure to trace.
; 6698 :    SqlDisplayQualEntity( *lpFirstQualEntity );
; 6699 : #endif
; 6700 : 
; 6701 :    return( 0 );

	xor	eax, eax
$LN46@fnSqlRetri:

; 6702 : }  /* fnSqlRetrieveQualObject */

	mov	ecx, DWORD PTR __$ArrayPad$[ebp]
	xor	ecx, ebp
	call	@__security_check_cookie@4
	mov	esp, ebp
	pop	ebp
	ret	0
_fnSqlRetrieveQualObject ENDP
_TEXT	ENDS
; Function compile flags: /Odtp
; File c:\10c\a\oe\kzhsqlga.c
_TEXT	SEGMENT
tv509 = -1500						; size = 4
_pl$1 = -1496						; size = 4
_lpSrcDataField$2 = -1492				; size = 4
tv1122 = -1488						; size = 4
_lpParent$3 = -1484					; size = 4
tv1064 = -1480						; size = 4
tv1024 = -1476						; size = 4
tv1023 = -1472						; size = 4
tv946 = -1468						; size = 4
tv945 = -1464						; size = 4
tv796 = -1460						; size = 4
tv659 = -1456						; size = 4
tv658 = -1452						; size = 4
_pchSrcViewName$ = -1448				; size = 4
_lKeyCount$4 = -1444					; size = 4
tv283 = -1440						; size = 4
tv282 = -1436						; size = 4
tv178 = -1432						; size = 4
tv177 = -1428						; size = 4
_hMem$ = -1424						; size = 4
_pchOper$ = -1420					; size = 4
_uLth$ = -1416						; size = 2
_lpSubQualView$5 = -1412				; size = 4
_pchSrcEntityName$ = -1408				; size = 4
_pchAttributeName$ = -1404				; size = 4
_lpSearchEntity$6 = -1400				; size = 4
_lpNewQualAttrib$7 = -1396				; size = 4
_lpRelField$8 = -1392					; size = 4
_pchSrcAttributeName$ = -1388				; size = 4
_pchPtr$ = -1384					; size = 4
_lpSourceView$ = -1380					; size = 4
_pchValue$ = -1376					; size = 4
_lpRelField$9 = -1372					; size = 4
_lpPrevQualAttrib$10 = -1368				; size = 4
_lpRelRecord$ = -1364					; size = 4
_lpSourceViewEntity$ = -1360				; size = 4
_bExists$11 = -1353					; size = 1
_k$12 = -1352						; size = 2
_pchAttEntityName$ = -1348				; size = 4
_lpDataRecord$ = -1344					; size = 4
_nParenCount$ = -1340					; size = 2
_bConvertNeeded$13 = -1336				; size = 1
_bQualUsesOR_Oper$ = -1335				; size = 1
_bContainsSubselect$14 = -1334				; size = 1
_bFirst$15 = -1333					; size = 1
_lpViewAttrib$ = -1332					; size = 4
_bUseLeftJoin$ = -1325					; size = 1
_lpDataField$ = -1324					; size = 4
_lpViewEntity$ = -1320					; size = 4
_bQualUsesChildEntity$ = -1313				; size = 1
_nRC$ = -1312						; size = 2
_lpQualAttrib$ = -1308					; size = 4
_szMsg$16 = -1304					; size = 500
_szMsg$17 = -804					; size = 500
_szStr$ = -304						; size = 300
__$ArrayPad$ = -4					; size = 4
_lpView$ = 8						; size = 4
_lpViewOD$ = 12						; size = 4
_lpQualView$ = 16					; size = 4
_lpQualEntity$ = 20					; size = 4
_lpFirstQualAttrib$ = 24				; size = 4
_lpBoundList$ = 28					; size = 4
_fnSqlRetrieveQualAttrib PROC

; 5333 :  {

	push	ebp
	mov	ebp, esp
	sub	esp, 1500				; 000005dcH
	mov	eax, DWORD PTR ___security_cookie
	xor	eax, ebp
	mov	DWORD PTR __$ArrayPad$[ebp], eax

; 5334 :    zSHORT       nParenCount;
; 5335 :    zUSHORT      uLth;
; 5336 :    zLONG        hMem;
; 5337 :    zBOOL        bQualUsesChildEntity;
; 5338 :    zBOOL        bQualUsesOR_Oper = FALSE;

	mov	BYTE PTR _bQualUsesOR_Oper$[ebp], 0

; 5339 :    zBOOL        bUseLeftJoin = FALSE;

	mov	BYTE PTR _bUseLeftJoin$[ebp], 0

; 5340 :    zPCHAR       pchAttributeName, pchAttEntityName;
; 5341 :    zPCHAR       pchOper, pchValue, pchSrcAttributeName;
; 5342 :    zPCHAR       pchSrcEntityName, pchPtr;
; 5343 :    zPCHAR       pchSrcViewName;
; 5344 :    zCHAR        szStr[ 300 ];
; 5345 :    zVIEW        lpSourceView;
; 5346 :    LPQUALATTRIB lpQualAttrib;
; 5347 :    LPVIEWENTITY lpViewEntity;
; 5348 :    LPVIEWATTRIB lpViewAttrib;
; 5349 :    LPVIEWENTITY lpSourceViewEntity;
; 5350 :    LPDATARECORD lpDataRecord;
; 5351 :    LPDATAFIELD  lpDataField;
; 5352 :    LPRELRECORD  lpRelRecord;
; 5353 :    zSHORT       nRC;
; 5354 : 
; 5355 :    // Go through each of the QualAttrib entities for EntitySpec and
; 5356 :    // copy attribute data to QualAttrib records.
; 5357 :    //
; 5358 :    // Note that we process the QualAttrib entities by going BACKWARDS,
; 5359 :    // starting with the last entity.  This is done so that adding the
; 5360 :    // lpQualAttribs to the chain is simple--we add each one to the beginning
; 5361 :    // of the chain.
; 5362 : 
; 5363 :    // =================================================================
; 5364 :    // ===
; 5365 :    // === Retrieve each of the attributes in QualAttrib and copy them to
; 5366 :    // === the record lpQualAttrib.
; 5367 :    // ===
; 5368 :    // =================================================================
; 5369 : 
; 5370 :    if ( CHECK_CALLBACK_FLAG( zSQLCALLBACK_USEJOIN ) )

	cmp	DWORD PTR _lpBoundList$[ebp], 0
	je	SHORT $LN39@fnSqlRetri
	mov	eax, DWORD PTR _lpBoundList$[ebp]
	mov	ecx, DWORD PTR [eax+14]
	and	ecx, 33554432				; 02000000H
	je	SHORT $LN39@fnSqlRetri

; 5371 :       bUseLeftJoin = TRUE;

	mov	BYTE PTR _bUseLeftJoin$[ebp], 1
$LN39@fnSqlRetri:

; 5372 : 
; 5373 :    nParenCount = 0;

	xor	edx, edx
	mov	WORD PTR _nParenCount$[ebp], dx

; 5374 :    for ( nRC = SetCursorLastEntity( lpQualView, szlQualAttrib, "" );

	push	OFFSET $SG13569
	push	OFFSET _szlQualAttrib
	mov	eax, DWORD PTR _lpQualView$[ebp]
	push	eax
	call	_SetCursorLastEntity@12
	mov	WORD PTR _nRC$[ebp], ax
	jmp	SHORT $LN4@fnSqlRetri
$LN2@fnSqlRetri:

; 5376 :          nRC = SetCursorPrevEntity( lpQualView, szlQualAttrib, "" ) )

	push	OFFSET $SG13570
	push	OFFSET _szlQualAttrib
	mov	ecx, DWORD PTR _lpQualView$[ebp]
	push	ecx
	call	_SetCursorPrevEntity@12
	mov	WORD PTR _nRC$[ebp], ax
$LN4@fnSqlRetri:

; 5375 :          nRC == zCURSOR_SET;

	movsx	edx, WORD PTR _nRC$[ebp]
	test	edx, edx
	jne	$LN3@fnSqlRetri

; 5377 :    {
; 5378 :       bQualUsesChildEntity = FALSE;

	mov	BYTE PTR _bQualUsesChildEntity$[ebp], 0

; 5379 : 
; 5380 :       // Allocate space for new QualAttrib record.
; 5381 :       hMem = SysAllocMemory( (zPVOID) &lpQualAttrib,

	push	0
	push	32768					; 00008000H
	push	0
	push	68					; 00000044H
	lea	eax, DWORD PTR _lpQualAttrib$[ebp]
	push	eax
	call	_SysAllocMemory@20
	mov	DWORD PTR _hMem$[ebp], eax

; 5382 :                              sizeof( QualAttribRecord ), 0,
; 5383 :                              zCOREMEM_ALLOC, 0 );
; 5384 :       if ( lpQualAttrib == 0 )

	cmp	DWORD PTR _lpQualAttrib$[ebp], 0
	jne	SHORT $LN40@fnSqlRetri

; 5385 :       {
; 5386 :          fnSqlDisplayQualMsg( lpView, lpQualView,

	push	0
	push	0
	push	OFFSET $SG13572
	mov	ecx, DWORD PTR _lpQualView$[ebp]
	push	ecx
	mov	edx, DWORD PTR _lpView$[ebp]
	push	edx
	call	_fnSqlDisplayQualMsg
	add	esp, 20					; 00000014H

; 5387 :                               "Cannot allocate memory",
; 5388 :                               zERROR, 0 );
; 5389 :          return( zCALL_ERROR );

	mov	eax, -16				; fffffff0H
	jmp	$LN1@fnSqlRetri
$LN40@fnSqlRetri:

; 5390 :       }
; 5391 : 
; 5392 :       // Fill new QualAttrib with zeros.
; 5393 :       zmemset( (zPVOID) lpQualAttrib, 0, sizeof( QualAttribRecord ) );

	push	68					; 00000044H
	push	0
	mov	eax, DWORD PTR _lpQualAttrib$[ebp]
	push	eax
	call	_memset
	add	esp, 12					; 0000000cH

; 5394 :       lpQualAttrib->hMem = hMem;

	mov	ecx, DWORD PTR _lpQualAttrib$[ebp]
	mov	edx, DWORD PTR _hMem$[ebp]
	mov	DWORD PTR [ecx], edx

; 5395 : 
; 5396 :       // Add lpQualAttrib as first qual attrib in chain.
; 5397 :       lpQualAttrib->lpNextQualAttrib = *lpFirstQualAttrib;

	mov	eax, DWORD PTR _lpQualAttrib$[ebp]
	mov	ecx, DWORD PTR _lpFirstQualAttrib$[ebp]
	mov	edx, DWORD PTR [ecx]
	mov	DWORD PTR [eax+4], edx

; 5398 :       *lpFirstQualAttrib = lpQualAttrib;

	mov	eax, DWORD PTR _lpFirstQualAttrib$[ebp]
	mov	ecx, DWORD PTR _lpQualAttrib$[ebp]
	mov	DWORD PTR [eax], ecx

; 5399 : 
; 5400 :       // ===
; 5401 :       // ===  QualAttrib.Oper
; 5402 :       // ===
; 5403 : 
; 5404 :       // All Qual attribs must have an Oper.
; 5405 :       GetAddrForAttribute( &pchOper, lpQualView, szlQualAttrib, "Oper" );

	push	OFFSET $SG13573
	push	OFFSET _szlQualAttrib
	mov	edx, DWORD PTR _lpQualView$[ebp]
	push	edx
	lea	eax, DWORD PTR _pchOper$[ebp]
	push	eax
	call	_GetAddrForAttribute@16

; 5406 :       if ( pchOper[ 0 ] == 0 )

	mov	ecx, 1
	imul	edx, ecx, 0
	mov	eax, DWORD PTR _pchOper$[ebp]
	movsx	ecx, BYTE PTR [eax+edx]
	test	ecx, ecx
	jne	SHORT $LN41@fnSqlRetri

; 5407 :       {
; 5408 :          fnSqlDisplayQualMsg( lpView, lpQualView,

	push	OFFSET _szlQualAttrib
	push	0
	push	OFFSET $SG13575
	mov	edx, DWORD PTR _lpQualView$[ebp]
	push	edx
	mov	eax, DWORD PTR _lpView$[ebp]
	push	eax
	call	_fnSqlDisplayQualMsg
	add	esp, 20					; 00000014H

; 5409 :                               "QualAttrib does not have an operation defined. "
; 5410 :                               " Oper is a required attribute.",
; 5411 :                               zERROR, szlQualAttrib );
; 5412 :          return( zCALL_ERROR );

	mov	eax, -16				; fffffff0H
	jmp	$LN1@fnSqlRetri
$LN41@fnSqlRetri:

; 5413 :       }
; 5414 : 
; 5415 :       // Oper was found--go through and count parens.
; 5416 :       pchPtr = pchOper;

	mov	ecx, DWORD PTR _pchOper$[ebp]
	mov	DWORD PTR _pchPtr$[ebp], ecx
$LN5@fnSqlRetri:

; 5417 :       while ( *pchPtr )

	mov	edx, DWORD PTR _pchPtr$[ebp]
	movsx	eax, BYTE PTR [edx]
	test	eax, eax
	je	SHORT $LN6@fnSqlRetri

; 5418 :       {
; 5419 :          if ( *pchPtr == '(' )

	mov	ecx, DWORD PTR _pchPtr$[ebp]
	movsx	edx, BYTE PTR [ecx]
	cmp	edx, 40					; 00000028H
	jne	SHORT $LN42@fnSqlRetri

; 5420 :             nParenCount++;

	mov	ax, WORD PTR _nParenCount$[ebp]
	add	ax, 1
	mov	WORD PTR _nParenCount$[ebp], ax
	jmp	SHORT $LN43@fnSqlRetri
$LN42@fnSqlRetri:

; 5421 :          else
; 5422 :          if ( *pchPtr == ')' )

	mov	ecx, DWORD PTR _pchPtr$[ebp]
	movsx	edx, BYTE PTR [ecx]
	cmp	edx, 41					; 00000029H
	jne	SHORT $LN43@fnSqlRetri

; 5423 :             nParenCount--;

	mov	ax, WORD PTR _nParenCount$[ebp]
	sub	ax, 1
	mov	WORD PTR _nParenCount$[ebp], ax
$LN43@fnSqlRetri:

; 5424 : 
; 5425 :          pchPtr++;

	mov	ecx, DWORD PTR _pchPtr$[ebp]
	add	ecx, 1
	mov	DWORD PTR _pchPtr$[ebp], ecx

; 5426 :       }

	jmp	SHORT $LN5@fnSqlRetri
$LN6@fnSqlRetri:

; 5427 : 
; 5428 :       fnAllocOper( lpQualAttrib, pchOper );

	mov	edx, DWORD PTR _pchOper$[ebp]
	push	edx
	mov	eax, DWORD PTR _lpQualAttrib$[ebp]
	push	eax
	call	_fnAllocOper
	add	esp, 8

; 5429 :       zstrtrim( lpQualAttrib->szOper );

	mov	ecx, DWORD PTR _lpQualAttrib$[ebp]
	mov	edx, DWORD PTR [ecx+32]
	push	edx
	call	_zstrtrim
	add	esp, 4

; 5430 : 
; 5431 :       if ( zstrcmpi( lpQualAttrib->szOper, "OR" ) == 0 )

	push	OFFSET $SG13580
	mov	eax, DWORD PTR _lpQualAttrib$[ebp]
	mov	ecx, DWORD PTR [eax+32]
	push	ecx
	call	DWORD PTR __imp___stricmp
	add	esp, 8
	test	eax, eax
	jne	SHORT $LN45@fnSqlRetri

; 5432 :       {
; 5433 :          bQualUsesOR_Oper = TRUE;

	mov	BYTE PTR _bQualUsesOR_Oper$[ebp], 1

; 5434 :          lpQualEntity->bUniqueQualification = FALSE;

	mov	edx, DWORD PTR _lpQualEntity$[ebp]
	mov	eax, DWORD PTR [edx+28]
	and	eax, -17				; ffffffefH
	mov	ecx, DWORD PTR _lpQualEntity$[ebp]
	mov	DWORD PTR [ecx+28], eax
$LN45@fnSqlRetri:

; 5435 :       }
; 5436 : 
; 5437 :       // ===
; 5438 :       // ===  QualAttrib.EntityName
; 5439 :       // ===
; 5440 : 
; 5441 :       GetAddrForAttribute( &pchAttEntityName, lpQualView, szlQualAttrib,

	push	OFFSET $SG13581
	push	OFFSET _szlQualAttrib
	mov	edx, DWORD PTR _lpQualView$[ebp]
	push	edx
	lea	eax, DWORD PTR _pchAttEntityName$[ebp]
	push	eax
	call	_GetAddrForAttribute@16

; 5442 :                            "EntityName" );
; 5443 :       if ( *pchAttEntityName )

	mov	ecx, DWORD PTR _pchAttEntityName$[ebp]
	movsx	edx, BYTE PTR [ecx]
	test	edx, edx
	je	$LN46@fnSqlRetri

; 5444 :       {
; 5445 :          LPVIEWENTITY lpSearchEntity;
; 5446 : 
; 5447 :          if ( zstrcmp( pchAttEntityName, "*root*" ) == 0 )

	mov	eax, DWORD PTR _pchAttEntityName$[ebp]
	movsx	ecx, BYTE PTR [eax]
	movsx	edx, BYTE PTR $SG13585
	cmp	ecx, edx
	jne	SHORT $LN158@fnSqlRetri
	push	OFFSET $SG13586
	mov	eax, DWORD PTR _pchAttEntityName$[ebp]
	push	eax
	call	_strcmp
	add	esp, 8
	mov	DWORD PTR tv178[ebp], eax
	jmp	SHORT $LN159@fnSqlRetri
$LN158@fnSqlRetri:
	mov	ecx, DWORD PTR _pchAttEntityName$[ebp]
	movsx	edx, BYTE PTR [ecx]
	movsx	eax, BYTE PTR $SG13587
	sub	edx, eax
	test	edx, edx
	jle	SHORT $LN156@fnSqlRetri
	mov	DWORD PTR tv177[ebp], 1
	jmp	SHORT $LN157@fnSqlRetri
$LN156@fnSqlRetri:
	mov	DWORD PTR tv177[ebp], -1
$LN157@fnSqlRetri:
	mov	ecx, DWORD PTR tv177[ebp]
	mov	DWORD PTR tv178[ebp], ecx
$LN159@fnSqlRetri:
	cmp	DWORD PTR tv178[ebp], 0
	jne	SHORT $LN47@fnSqlRetri

; 5448 :          {
; 5449 :             // User specified they want to use the root.  Just get the entity
; 5450 :             // name.
; 5451 :             lpViewEntity = (LPVIEWENTITY) zGETPTR( lpViewOD->hFirstOD_Entity );

	mov	edx, DWORD PTR _lpViewOD$[ebp]
	mov	eax, DWORD PTR [edx+224]
	push	eax
	call	_SysGetPointerFromHandle@4
	mov	DWORD PTR _lpViewEntity$[ebp], eax

; 5452 :          }

	jmp	SHORT $LN48@fnSqlRetri
$LN47@fnSqlRetri:

; 5453 :          else
; 5454 :             // Find the view entity that matches entity name.
; 5455 :             lpViewEntity = MiGetViewEntityForView( lpView, pchAttEntityName );

	mov	ecx, DWORD PTR _pchAttEntityName$[ebp]
	push	ecx
	mov	edx, DWORD PTR _lpView$[ebp]
	push	edx
	call	_MiGetViewEntityForView@8
	mov	DWORD PTR _lpViewEntity$[ebp], eax
$LN48@fnSqlRetri:

; 5456 : 
; 5457 :          // If no view entity was found to match entity name in qual entity
; 5458 :          // then issue an error and exit.
; 5459 :          if ( lpViewEntity == 0 )

	cmp	DWORD PTR _lpViewEntity$[ebp], 0
	jne	SHORT $LN49@fnSqlRetri

; 5460 :          {
; 5461 :             zsprintf( szStr, "Entity '%s' was specified in the Qualification "

	mov	eax, DWORD PTR _lpViewOD$[ebp]
	add	eax, 10					; 0000000aH
	push	eax
	mov	ecx, DWORD PTR _pchAttEntityName$[ebp]
	push	ecx
	push	OFFSET $SG13589
	lea	edx, DWORD PTR _szStr$[ebp]
	push	edx
	call	_sprintf
	add	esp, 16					; 00000010H

; 5462 :                       "object but does not exist in LOD '%s'",
; 5463 :                       pchAttEntityName, lpViewOD->szName );
; 5464 :             fnSqlDisplayQualMsg( lpView, lpQualView, szStr,

	push	OFFSET _szlQualAttrib
	push	0
	lea	eax, DWORD PTR _szStr$[ebp]
	push	eax
	mov	ecx, DWORD PTR _lpQualView$[ebp]
	push	ecx
	mov	edx, DWORD PTR _lpView$[ebp]
	push	edx
	call	_fnSqlDisplayQualMsg
	add	esp, 20					; 00000014H

; 5465 :                                  zERROR, szlQualAttrib );
; 5466 :             return( zCALL_ERROR );

	mov	eax, -16				; fffffff0H
	jmp	$LN1@fnSqlRetri
$LN49@fnSqlRetri:

; 5467 :          }
; 5468 : 
; 5469 :          // Make sure the entity is a valid one.
; 5470 :          if ( lpViewEntity->bDerived || lpViewEntity->bDerivedPath ||

	mov	eax, DWORD PTR _lpViewEntity$[ebp]
	mov	ecx, DWORD PTR [eax+235]
	shr	ecx, 13					; 0000000dH
	and	ecx, 1
	jne	SHORT $LN51@fnSqlRetri
	mov	edx, DWORD PTR _lpViewEntity$[ebp]
	mov	eax, DWORD PTR [edx+235]
	shr	eax, 14					; 0000000eH
	and	eax, 1
	jne	SHORT $LN51@fnSqlRetri
	mov	ecx, DWORD PTR _lpViewEntity$[ebp]
	cmp	DWORD PTR [ecx+191], 0
	jne	SHORT $LN50@fnSqlRetri
$LN51@fnSqlRetri:

; 5471 :               lpViewEntity->hFirstDataRecord == 0 )
; 5472 :          {
; 5473 :             zCHAR szMsg[ 500 ];
; 5474 : 
; 5475 :             zsprintf( szMsg, "Entity '%s' in Object '%s' is a work or derived entity "

	mov	edx, DWORD PTR _lpViewOD$[ebp]
	add	edx, 10					; 0000000aH
	push	edx
	mov	eax, DWORD PTR _pchAttEntityName$[ebp]
	push	eax
	push	OFFSET $SG13592
	lea	ecx, DWORD PTR _szMsg$16[ebp]
	push	ecx
	call	_sprintf
	add	esp, 16					; 00000010H

; 5476 :                       "and is not allowed for entity qualification during an "
; 5477 :                       "Activate", pchAttEntityName, lpViewOD->szName );
; 5478 :             fnSqlDisplayQualMsg( lpView, lpQualView, szMsg,

	push	OFFSET _szlEntitySpec
	push	0
	lea	edx, DWORD PTR _szMsg$16[ebp]
	push	edx
	mov	eax, DWORD PTR _lpQualView$[ebp]
	push	eax
	mov	ecx, DWORD PTR _lpView$[ebp]
	push	ecx
	call	_fnSqlDisplayQualMsg
	add	esp, 20					; 00000014H

; 5479 :                                  zERROR, szlEntitySpec );
; 5480 :             return( zCALL_ERROR );

	mov	eax, -16				; fffffff0H
	jmp	$LN1@fnSqlRetri
$LN50@fnSqlRetri:

; 5481 :          }
; 5482 : 
; 5483 :          // This entity had better be a child of the entity we are
; 5484 :          // qualifying.
; 5485 :          for ( lpSearchEntity = lpViewEntity;

	mov	edx, DWORD PTR _lpViewEntity$[ebp]
	mov	DWORD PTR _lpSearchEntity$6[ebp], edx
	jmp	SHORT $LN9@fnSqlRetri
$LN7@fnSqlRetri:

; 5487 :                lpSearchEntity = zGETPTR( lpSearchEntity->hParent ) )

	mov	eax, DWORD PTR _lpSearchEntity$6[ebp]
	mov	ecx, DWORD PTR [eax+10]
	push	ecx
	call	_SysGetPointerFromHandle@4
	mov	DWORD PTR _lpSearchEntity$6[ebp], eax
$LN9@fnSqlRetri:

; 5486 :                lpSearchEntity != lpQualEntity->lpViewEntity;

	mov	edx, DWORD PTR _lpQualEntity$[ebp]
	mov	eax, DWORD PTR _lpSearchEntity$6[ebp]
	cmp	eax, DWORD PTR [edx+8]
	je	SHORT $LN8@fnSqlRetri

; 5488 :          {
; 5489 :             if ( lpSearchEntity->hParent == 0 )

	mov	ecx, DWORD PTR _lpSearchEntity$6[ebp]
	cmp	DWORD PTR [ecx+10], 0
	jne	SHORT $LN52@fnSqlRetri

; 5490 :             {
; 5491 :                // Oops.  lpSearchEntity is the root entity of the LOD but
; 5492 :                // we haven't found a match with lpQualEntity->lpViewEntity.
; 5493 :                // Illegal qual.
; 5494 :                zCHAR szMsg[ 500 ];
; 5495 : 
; 5496 :                zsprintf( szMsg, "You cannot qualify entity '%s' using entity "

	mov	edx, DWORD PTR _lpViewOD$[ebp]
	add	edx, 10					; 0000000aH
	push	edx
	mov	eax, DWORD PTR _pchAttEntityName$[ebp]
	push	eax
	mov	ecx, DWORD PTR _lpQualEntity$[ebp]
	mov	edx, DWORD PTR [ecx+8]
	add	edx, 14					; 0000000eH
	push	edx
	push	OFFSET $SG13594
	lea	eax, DWORD PTR _szMsg$17[ebp]
	push	eax
	call	_sprintf
	add	esp, 20					; 00000014H

; 5497 :                          "'%s' in Object Definition '%s'.  Only child entities "
; 5498 :                          "may be used for qualification.",
; 5499 :                          lpQualEntity->lpViewEntity->szName,
; 5500 :                          pchAttEntityName, lpViewOD->szName );
; 5501 :                fnSqlDisplayQualMsg( lpView, lpQualView, szMsg,

	push	OFFSET _szlEntitySpec
	push	0
	lea	ecx, DWORD PTR _szMsg$17[ebp]
	push	ecx
	mov	edx, DWORD PTR _lpQualView$[ebp]
	push	edx
	mov	eax, DWORD PTR _lpView$[ebp]
	push	eax
	call	_fnSqlDisplayQualMsg
	add	esp, 20					; 00000014H

; 5502 :                                     zERROR, szlEntitySpec );
; 5503 :                return( zCALL_ERROR );

	mov	eax, -16				; fffffff0H
	jmp	$LN1@fnSqlRetri
$LN52@fnSqlRetri:

; 5504 :             }
; 5505 :          }

	jmp	$LN7@fnSqlRetri
$LN8@fnSqlRetri:

; 5506 : 
; 5507 :          // If the entity name for the attribute is not the same as the
; 5508 :          // entity name of the qual entity then the qualification uses
; 5509 :          // child entities.
; 5510 :          if ( lpQualEntity->lpViewEntity &&

	mov	ecx, DWORD PTR _lpQualEntity$[ebp]
	cmp	DWORD PTR [ecx+8], 0
	je	SHORT $LN53@fnSqlRetri
	mov	edx, DWORD PTR _lpQualEntity$[ebp]
	mov	eax, DWORD PTR [edx+8]
	cmp	eax, DWORD PTR _lpViewEntity$[ebp]
	je	SHORT $LN53@fnSqlRetri

; 5511 :               lpQualEntity->lpViewEntity != lpViewEntity )
; 5512 :             bQualUsesChildEntity = TRUE;

	mov	BYTE PTR _bQualUsesChildEntity$[ebp], 1
$LN53@fnSqlRetri:

; 5513 : 
; 5514 :          lpDataRecord = zGETPTR( lpViewEntity->hFirstDataRecord );

	mov	ecx, DWORD PTR _lpViewEntity$[ebp]
	mov	edx, DWORD PTR [ecx+191]
	push	edx
	call	_SysGetPointerFromHandle@4
	mov	DWORD PTR _lpDataRecord$[ebp], eax

; 5515 :          lpQualAttrib->lpViewEntity = lpViewEntity;

	mov	eax, DWORD PTR _lpQualAttrib$[ebp]
	mov	ecx, DWORD PTR _lpViewEntity$[ebp]
	mov	DWORD PTR [eax+12], ecx

; 5516 :          lpQualAttrib->lpDataRecord = lpDataRecord;

	mov	edx, DWORD PTR _lpQualAttrib$[ebp]
	mov	eax, DWORD PTR _lpDataRecord$[ebp]
	mov	DWORD PTR [edx+16], eax
$LN46@fnSqlRetri:

; 5517 : 
; 5518 :       } // if ( *pchAttEntityName )...
; 5519 : 
; 5520 :       // ===
; 5521 :       // ===  QualAttrib.AttributeName
; 5522 :       // ===
; 5523 : 
; 5524 :       GetAddrForAttribute( &pchAttributeName, lpQualView, szlQualAttrib,

	push	OFFSET $SG13596
	push	OFFSET _szlQualAttrib
	mov	ecx, DWORD PTR _lpQualView$[ebp]
	push	ecx
	lea	edx, DWORD PTR _pchAttributeName$[ebp]
	push	edx
	call	_GetAddrForAttribute@16

; 5525 :                            "AttributeName" );
; 5526 :       if ( *pchAttributeName )

	mov	eax, DWORD PTR _pchAttributeName$[ebp]
	movsx	ecx, BYTE PTR [eax]
	test	ecx, ecx
	je	$LN54@fnSqlRetri

; 5527 :       {
; 5528 :          // If QualAttrib entity has an AttributeName then QualAttrib
; 5529 :          // must also have a valid EntityName.
; 5530 :          if ( lpQualAttrib->lpViewEntity == 0 )

	mov	edx, DWORD PTR _lpQualAttrib$[ebp]
	cmp	DWORD PTR [edx+12], 0
	jne	SHORT $LN55@fnSqlRetri

; 5531 :          {
; 5532 :             fnSqlDisplayQualMsg( lpView, lpQualView,

	push	OFFSET _szlQualAttrib
	push	0
	push	OFFSET $SG13599
	mov	eax, DWORD PTR _lpQualView$[ebp]
	push	eax
	mov	ecx, DWORD PTR _lpView$[ebp]
	push	ecx
	call	_fnSqlDisplayQualMsg
	add	esp, 20					; 00000014H

; 5533 :                                  "QualAttrib entity has AttributeName but "
; 5534 :                                  "doesn't have EntityName.",
; 5535 :                                  zERROR, szlQualAttrib );
; 5536 :             return( zCALL_ERROR );

	mov	eax, -16				; fffffff0H
	jmp	$LN1@fnSqlRetri
$LN55@fnSqlRetri:

; 5537 :          }
; 5538 : 
; 5539 :          // Find the lpViewAttrib and DataField that matches AttribName.
; 5540 :          for ( lpDataField = zGETPTR( lpDataRecord->hFirstDataField );

	mov	edx, DWORD PTR _lpDataRecord$[ebp]
	mov	eax, DWORD PTR [edx+10]
	push	eax
	call	_SysGetPointerFromHandle@4
	mov	DWORD PTR _lpDataField$[ebp], eax
	jmp	SHORT $LN12@fnSqlRetri
$LN10@fnSqlRetri:

; 5542 :                lpDataField = zGETPTR( lpDataField->hNextDataField ) )

	mov	ecx, DWORD PTR _lpDataField$[ebp]
	mov	edx, DWORD PTR [ecx+2]
	push	edx
	call	_SysGetPointerFromHandle@4
	mov	DWORD PTR _lpDataField$[ebp], eax
$LN12@fnSqlRetri:

; 5541 :                lpDataField;

	cmp	DWORD PTR _lpDataField$[ebp], 0
	je	$LN11@fnSqlRetri

; 5543 :          {
; 5544 :             lpViewAttrib = zGETPTR( lpDataField->hViewAttrib );

	mov	eax, DWORD PTR _lpDataField$[ebp]
	mov	ecx, DWORD PTR [eax+6]
	push	ecx
	call	_SysGetPointerFromHandle@4
	mov	DWORD PTR _lpViewAttrib$[ebp], eax

; 5545 : 
; 5546 :             if ( zstrcmp( lpViewAttrib->szName, pchAttributeName ) == 0 )

	mov	edx, DWORD PTR _lpViewAttrib$[ebp]
	movsx	eax, BYTE PTR [edx+10]
	mov	ecx, DWORD PTR _pchAttributeName$[ebp]
	movsx	edx, BYTE PTR [ecx]
	cmp	eax, edx
	jne	SHORT $LN162@fnSqlRetri
	mov	eax, DWORD PTR _pchAttributeName$[ebp]
	push	eax
	mov	ecx, DWORD PTR _lpViewAttrib$[ebp]
	add	ecx, 10					; 0000000aH
	push	ecx
	call	_strcmp
	add	esp, 8
	mov	DWORD PTR tv283[ebp], eax
	jmp	SHORT $LN163@fnSqlRetri
$LN162@fnSqlRetri:
	mov	edx, DWORD PTR _lpViewAttrib$[ebp]
	movsx	eax, BYTE PTR [edx+10]
	mov	ecx, DWORD PTR _pchAttributeName$[ebp]
	movsx	edx, BYTE PTR [ecx]
	sub	eax, edx
	test	eax, eax
	jle	SHORT $LN160@fnSqlRetri
	mov	DWORD PTR tv282[ebp], 1
	jmp	SHORT $LN161@fnSqlRetri
$LN160@fnSqlRetri:
	mov	DWORD PTR tv282[ebp], -1
$LN161@fnSqlRetri:
	mov	eax, DWORD PTR tv282[ebp]
	mov	DWORD PTR tv283[ebp], eax
$LN163@fnSqlRetri:
	cmp	DWORD PTR tv283[ebp], 0
	jne	SHORT $LN56@fnSqlRetri

; 5547 :                break;

	jmp	SHORT $LN11@fnSqlRetri
$LN56@fnSqlRetri:

; 5548 :          }

	jmp	$LN10@fnSqlRetri
$LN11@fnSqlRetri:

; 5549 : 
; 5550 :          // If no view entity was found to match entity name in qual
; 5551 :          // entity then issue an error and exit.
; 5552 :          if ( lpDataField == 0 )

	cmp	DWORD PTR _lpDataField$[ebp], 0
	jne	SHORT $LN57@fnSqlRetri

; 5553 :          {
; 5554 :             fnSqlDisplayQualMsg( lpView, lpQualView,

	push	OFFSET _szlQualAttrib
	push	0
	push	OFFSET $SG13602
	mov	ecx, DWORD PTR _lpQualView$[ebp]
	push	ecx
	mov	edx, DWORD PTR _lpView$[ebp]
	push	edx
	call	_fnSqlDisplayQualMsg
	add	esp, 20					; 00000014H

; 5555 :                                  "AttributeName in QualAttrib not found in "
; 5556 :                                  "in target object definition.",
; 5557 :                                  zERROR, szlQualAttrib );
; 5558 :             return( zCALL_ERROR );

	mov	eax, -16				; fffffff0H
	jmp	$LN1@fnSqlRetri
$LN57@fnSqlRetri:

; 5559 :          }
; 5560 : 
; 5561 :          // In some cases, we might be qualifying an entity using an attribute
; 5562 :          // from a child entity.  If the child attribute is a key AND that key
; 5563 :          // is the source attribute for a many-to-one relationship then the
; 5564 :          // attribute's value is also stored in the parent entity (the entity
; 5565 :          // we are qualifying) as a foreign key.  It will be much quicker to
; 5566 :          // perform qualification on just the foreign key, so change the
; 5567 :          // qualification to reference the foreign key.
; 5568 :          lpRelRecord = zGETPTR( lpDataRecord->hFirstRelRecord );

	mov	eax, DWORD PTR _lpDataRecord$[ebp]
	mov	ecx, DWORD PTR [eax+6]
	push	ecx
	call	_SysGetPointerFromHandle@4
	mov	DWORD PTR _lpRelRecord$[ebp], eax
$LN13@fnSqlRetri:

; 5569 :          while ( lpViewAttrib->bKey &&
; 5570 :                  lpQualAttrib->lpViewEntity != lpQualEntity->lpViewEntity &&
; 5571 :                  lpRelRecord &&

	mov	edx, DWORD PTR _lpViewAttrib$[ebp]
	mov	eax, DWORD PTR [edx+193]
	shr	eax, 1
	and	eax, 1
	je	$LN14@fnSqlRetri
	mov	ecx, DWORD PTR _lpQualAttrib$[ebp]
	mov	edx, DWORD PTR _lpQualEntity$[ebp]
	mov	eax, DWORD PTR [ecx+12]
	cmp	eax, DWORD PTR [edx+8]
	je	$LN14@fnSqlRetri
	cmp	DWORD PTR _lpRelRecord$[ebp], 0
	je	$LN14@fnSqlRetri
	mov	ecx, DWORD PTR _lpRelRecord$[ebp]
	movsx	edx, BYTE PTR [ecx+10]
	cmp	edx, 77					; 0000004dH
	jne	$LN14@fnSqlRetri

; 5572 :                  lpRelRecord->cOwnerMember == zDBH_CHILD_IS_SOURCE )
; 5573 :          {
; 5574 :             LPRELFIELD   lpRelField;
; 5575 : 
; 5576 :             // Find the rel field for the qualifying attribute.
; 5577 :             for ( lpRelField = zGETPTR( lpRelRecord->hFirstRelField );

	mov	eax, DWORD PTR _lpRelRecord$[ebp]
	mov	ecx, DWORD PTR [eax+6]
	push	ecx
	call	_SysGetPointerFromHandle@4
	mov	DWORD PTR _lpRelField$9[ebp], eax
	jmp	SHORT $LN17@fnSqlRetri
$LN15@fnSqlRetri:

; 5579 :                   lpRelField = zGETPTR( lpRelField->hNextRelField ) )

	mov	edx, DWORD PTR _lpRelField$9[ebp]
	mov	eax, DWORD PTR [edx+2]
	push	eax
	call	_SysGetPointerFromHandle@4
	mov	DWORD PTR _lpRelField$9[ebp], eax
$LN17@fnSqlRetri:

; 5578 :                   lpRelField;

	cmp	DWORD PTR _lpRelField$9[ebp], 0
	je	SHORT $LN16@fnSqlRetri

; 5580 :             {
; 5581 :                LPDATAFIELD lpSrcDataField = zGETPTR( lpRelField->hSrcDataField );

	mov	ecx, DWORD PTR _lpRelField$9[ebp]
	mov	edx, DWORD PTR [ecx+10]
	push	edx
	call	_SysGetPointerFromHandle@4
	mov	DWORD PTR _lpSrcDataField$2[ebp], eax

; 5582 : 
; 5583 :                if ( lpSrcDataField->hViewAttrib == lpDataField->hViewAttrib )

	mov	eax, DWORD PTR _lpSrcDataField$2[ebp]
	mov	ecx, DWORD PTR _lpDataField$[ebp]
	mov	edx, DWORD PTR [eax+6]
	cmp	edx, DWORD PTR [ecx+6]
	jne	SHORT $LN58@fnSqlRetri

; 5584 :                   break;

	jmp	SHORT $LN16@fnSqlRetri
$LN58@fnSqlRetri:

; 5585 :             }

	jmp	SHORT $LN15@fnSqlRetri
$LN16@fnSqlRetri:

; 5586 : 
; 5587 :             if ( lpRelField == 0 )

	cmp	DWORD PTR _lpRelField$9[ebp], 0
	jne	SHORT $LN59@fnSqlRetri

; 5588 :             {
; 5589 :                fnSqlDisplayQualMsg( lpView, lpQualView,

	push	OFFSET _szlQualAttrib
	push	0
	push	OFFSET $SG13605
	mov	eax, DWORD PTR _lpQualView$[ebp]
	push	eax
	mov	ecx, DWORD PTR _lpView$[ebp]
	push	ecx
	call	_fnSqlDisplayQualMsg
	add	esp, 20					; 00000014H

; 5590 :                                     "Internal error #10--can't find RelRecord",
; 5591 :                                     zERROR, szlQualAttrib );
; 5592 :                break;

	jmp	$LN14@fnSqlRetri
$LN59@fnSqlRetri:

; 5593 :             }
; 5594 : 
; 5595 :             // Change the column we are qualifying on.
; 5596 :             lpDataField  = zGETPTR( lpRelField->hRelDataField );

	mov	edx, DWORD PTR _lpRelField$9[ebp]
	mov	eax, DWORD PTR [edx+14]
	push	eax
	call	_SysGetPointerFromHandle@4
	mov	DWORD PTR _lpDataField$[ebp], eax

; 5597 :             lpViewAttrib = zGETPTR( lpDataField->hViewAttrib );

	mov	ecx, DWORD PTR _lpDataField$[ebp]
	mov	edx, DWORD PTR [ecx+6]
	push	edx
	call	_SysGetPointerFromHandle@4
	mov	DWORD PTR _lpViewAttrib$[ebp], eax

; 5598 :             lpViewEntity = zGETPTR( lpViewAttrib->hViewEntity );

	mov	eax, DWORD PTR _lpViewAttrib$[ebp]
	mov	ecx, DWORD PTR [eax+6]
	push	ecx
	call	_SysGetPointerFromHandle@4
	mov	DWORD PTR _lpViewEntity$[ebp], eax

; 5599 :             lpDataRecord = zGETPTR( lpViewEntity->hFirstDataRecord );

	mov	edx, DWORD PTR _lpViewEntity$[ebp]
	mov	eax, DWORD PTR [edx+191]
	push	eax
	call	_SysGetPointerFromHandle@4
	mov	DWORD PTR _lpDataRecord$[ebp], eax

; 5600 :             lpRelRecord  = zGETPTR( lpDataRecord->hFirstRelRecord );

	mov	ecx, DWORD PTR _lpDataRecord$[ebp]
	mov	edx, DWORD PTR [ecx+6]
	push	edx
	call	_SysGetPointerFromHandle@4
	mov	DWORD PTR _lpRelRecord$[ebp], eax

; 5601 : 
; 5602 :             lpQualAttrib->lpViewEntity = lpViewEntity;

	mov	eax, DWORD PTR _lpQualAttrib$[ebp]
	mov	ecx, DWORD PTR _lpViewEntity$[ebp]
	mov	DWORD PTR [eax+12], ecx

; 5603 :             lpQualAttrib->lpDataRecord = lpDataRecord;

	mov	edx, DWORD PTR _lpQualAttrib$[ebp]
	mov	eax, DWORD PTR _lpDataRecord$[ebp]
	mov	DWORD PTR [edx+16], eax

; 5604 : 
; 5605 :             // If the entity name for the attribute is not the same as the
; 5606 :             // entity name of the qual entity then the qualification uses
; 5607 :             // child entities.  If we're here then we know that the entity
; 5608 :             // for the QualAttrib is not the same as the entity for
; 5609 :             // QualEntity (which means that bQualUsesChildEntity = TRUE).
; 5610 :             // Check to see if we should turn it back off.
; 5611 :             if ( lpQualEntity->lpViewEntity == lpViewEntity )

	mov	ecx, DWORD PTR _lpQualEntity$[ebp]
	mov	edx, DWORD PTR [ecx+8]
	cmp	edx, DWORD PTR _lpViewEntity$[ebp]
	jne	SHORT $LN60@fnSqlRetri

; 5612 :                bQualUsesChildEntity = FALSE;

	mov	BYTE PTR _bQualUsesChildEntity$[ebp], 0
$LN60@fnSqlRetri:

; 5613 : 
; 5614 :          } // while...

	jmp	$LN13@fnSqlRetri
$LN14@fnSqlRetri:

; 5615 : 
; 5616 :          lpQualAttrib->lpDataField  = lpDataField;

	mov	eax, DWORD PTR _lpQualAttrib$[ebp]
	mov	ecx, DWORD PTR _lpDataField$[ebp]
	mov	DWORD PTR [eax+24], ecx

; 5617 :          lpQualAttrib->lpViewAttrib = lpViewAttrib;

	mov	edx, DWORD PTR _lpQualAttrib$[ebp]
	mov	eax, DWORD PTR _lpViewAttrib$[ebp]
	mov	DWORD PTR [edx+20], eax

; 5618 :          if ( lpViewAttrib->bKey == FALSE )

	mov	ecx, DWORD PTR _lpViewAttrib$[ebp]
	mov	edx, DWORD PTR [ecx+193]
	shr	edx, 1
	and	edx, 1
	jne	SHORT $LN54@fnSqlRetri

; 5619 :             lpQualEntity->bUniqueQualification = FALSE;

	mov	eax, DWORD PTR _lpQualEntity$[ebp]
	mov	ecx, DWORD PTR [eax+28]
	and	ecx, -17				; ffffffefH
	mov	edx, DWORD PTR _lpQualEntity$[ebp]
	mov	DWORD PTR [edx+28], ecx
$LN54@fnSqlRetri:

; 5620 : 
; 5621 :       } // if ( *pchAttributeName )...
; 5622 : 
; 5623 :       // ===
; 5624 :       // ===  QualAttrib.Value
; 5625 :       // ===
; 5626 : 
; 5627 :       GetAddrForAttribute( &pchValue, lpQualView, szlQualAttrib, "Value" );

	push	OFFSET $SG13608
	push	OFFSET _szlQualAttrib
	mov	eax, DWORD PTR _lpQualView$[ebp]
	push	eax
	lea	ecx, DWORD PTR _pchValue$[ebp]
	push	ecx
	call	_GetAddrForAttribute@16

; 5628 :       if ( *pchValue )

	mov	edx, DWORD PTR _pchValue$[ebp]
	movsx	eax, BYTE PTR [edx]
	test	eax, eax
	je	$LN62@fnSqlRetri

; 5629 :       {
; 5630 :          // If Value is defined then QualAttrib must also have AttribName.
; 5631 :          if ( lpQualAttrib->lpDataField == 0 )

	mov	ecx, DWORD PTR _lpQualAttrib$[ebp]
	cmp	DWORD PTR [ecx+24], 0
	jne	SHORT $LN63@fnSqlRetri

; 5632 :          {
; 5633 :             fnSqlDisplayQualMsg( lpView, lpQualView,

	push	OFFSET _szlQualAttrib
	push	0
	push	OFFSET $SG13611
	mov	edx, DWORD PTR _lpQualView$[ebp]
	push	edx
	mov	eax, DWORD PTR _lpView$[ebp]
	push	eax
	call	_fnSqlDisplayQualMsg
	add	esp, 20					; 00000014H

; 5634 :                                  "QualAttrib entity has Value but doesn't "
; 5635 :                                  "have AttributeName.",
; 5636 :                                  zERROR, szlQualAttrib );
; 5637 :             return( zCALL_ERROR );

	mov	eax, -16				; fffffff0H
	jmp	$LN1@fnSqlRetri
$LN63@fnSqlRetri:

; 5638 :          }
; 5639 : 
; 5640 :          // If Attribute is a date/time, convert pchValue to YYYYMMDDHHMMSSTTT.
; 5641 :          if ( lpQualAttrib->lpDataField->cFldType == zTYPE_DATETIME ||
; 5642 :               lpQualAttrib->lpDataField->cFldType == zTYPE_DATE     ||

	mov	ecx, DWORD PTR _lpQualAttrib$[ebp]
	mov	edx, DWORD PTR [ecx+24]
	movsx	eax, BYTE PTR [edx+270]
	cmp	eax, 84					; 00000054H
	je	SHORT $LN65@fnSqlRetri
	mov	ecx, DWORD PTR _lpQualAttrib$[ebp]
	mov	edx, DWORD PTR [ecx+24]
	movsx	eax, BYTE PTR [edx+270]
	cmp	eax, 68					; 00000044H
	je	SHORT $LN65@fnSqlRetri
	mov	ecx, DWORD PTR _lpQualAttrib$[ebp]
	mov	edx, DWORD PTR [ecx+24]
	movsx	eax, BYTE PTR [edx+270]
	cmp	eax, 73					; 00000049H
	jne	SHORT $LN64@fnSqlRetri
$LN65@fnSqlRetri:

; 5643 :               lpQualAttrib->lpDataField->cFldType == zTYPE_TIME )
; 5644 :          {
; 5645 :             if ( fnSqlUnformatDateTimeString( szStr, pchValue ) < 0 )

	mov	ecx, DWORD PTR _pchValue$[ebp]
	push	ecx
	lea	edx, DWORD PTR _szStr$[ebp]
	push	edx
	call	_fnSqlUnformatDateTimeString
	add	esp, 8
	cwde
	test	eax, eax
	jge	SHORT $LN66@fnSqlRetri

; 5646 :             {
; 5647 :                fnSqlDisplayQualMsg( lpView, lpQualView,

	push	OFFSET _szlQualAttrib
	push	0
	push	OFFSET $SG13615
	mov	ecx, DWORD PTR _lpQualView$[ebp]
	push	ecx
	mov	edx, DWORD PTR _lpView$[ebp]
	push	edx
	call	_fnSqlDisplayQualMsg
	add	esp, 20					; 00000014H

; 5648 :                                     "QualAttrib Value invalid for DateTime.",
; 5649 :                                     zERROR, szlQualAttrib );
; 5650 :                return( zCALL_ERROR );

	mov	eax, -16				; fffffff0H
	jmp	$LN1@fnSqlRetri
$LN66@fnSqlRetri:

; 5651 :             }
; 5652 : 
; 5653 :             // Set pchValue to point to unformatted string.
; 5654 :             pchValue = szStr;

	lea	eax, DWORD PTR _szStr$[ebp]
	mov	DWORD PTR _pchValue$[ebp], eax
$LN64@fnSqlRetri:

; 5655 :          }
; 5656 : 
; 5657 :          uLth = zstrlen( pchValue ) + 1;

	mov	ecx, DWORD PTR _pchValue$[ebp]
	push	ecx
	call	_strlen
	add	esp, 4
	add	eax, 1
	mov	WORD PTR _uLth$[ebp], ax

; 5658 :          hMem = SysAllocMemory( (zPVOID) &lpQualAttrib->szValue,

	push	0
	push	32768					; 00008000H
	push	0
	movzx	edx, WORD PTR _uLth$[ebp]
	push	edx
	mov	eax, DWORD PTR _lpQualAttrib$[ebp]
	add	eax, 40					; 00000028H
	push	eax
	call	_SysAllocMemory@20
	mov	DWORD PTR _hMem$[ebp], eax

; 5659 :                                 uLth, 0, zCOREMEM_ALLOC, 0 );
; 5660 :          if ( lpQualAttrib->szValue == 0 )

	mov	ecx, DWORD PTR _lpQualAttrib$[ebp]
	cmp	DWORD PTR [ecx+40], 0
	jne	SHORT $LN67@fnSqlRetri

; 5661 :          {
; 5662 :             fnSqlDisplayQualMsg( lpView, lpQualView,

	push	0
	push	0
	push	OFFSET $SG13617
	mov	edx, DWORD PTR _lpQualView$[ebp]
	push	edx
	mov	eax, DWORD PTR _lpView$[ebp]
	push	eax
	call	_fnSqlDisplayQualMsg
	add	esp, 20					; 00000014H

; 5663 :                                  "Cannot allocate memory.", zERROR, 0 );
; 5664 :             return( zCALL_ERROR );

	mov	eax, -16				; fffffff0H
	jmp	$LN1@fnSqlRetri
$LN67@fnSqlRetri:

; 5665 :          }
; 5666 : 
; 5667 :          lpQualAttrib->hValueMem = hMem;

	mov	ecx, DWORD PTR _lpQualAttrib$[ebp]
	mov	edx, DWORD PTR _hMem$[ebp]
	mov	DWORD PTR [ecx+36], edx

; 5668 :          zstrcpy( lpQualAttrib->szValue, pchValue );

	mov	eax, DWORD PTR _pchValue$[ebp]
	push	eax
	mov	ecx, DWORD PTR _lpQualAttrib$[ebp]
	mov	edx, DWORD PTR [ecx+40]
	push	edx
	call	_strcpy
	add	esp, 8
$LN62@fnSqlRetri:

; 5669 : 
; 5670 :       } // if ( *pchValue )...
; 5671 : 
; 5672 :       // ===
; 5673 :       // ===  Check for KeyList entities.
; 5674 :       // ===
; 5675 :       if ( CheckExistenceOfEntity( lpQualView, "KeyList" ) >= zCURSOR_SET )

	push	OFFSET $SG13619
	mov	eax, DWORD PTR _lpQualView$[ebp]
	push	eax
	call	_CheckExistenceOfEntity@8
	movsx	ecx, ax
	test	ecx, ecx
	jl	$LN68@fnSqlRetri

; 5676 :       {
; 5677 :          zLONG  lKeyCount;
; 5678 :          zPLONG pl;
; 5679 :          zSHORT k;
; 5680 : 
; 5681 :          if ( *pchValue )

	mov	edx, DWORD PTR _pchValue$[ebp]
	movsx	eax, BYTE PTR [edx]
	test	eax, eax
	je	SHORT $LN69@fnSqlRetri

; 5682 :          {
; 5683 :             fnSqlDisplayQualMsg( lpView, lpQualView,

	push	OFFSET _szlQualAttrib
	push	0
	push	OFFSET $SG13621
	mov	ecx, DWORD PTR _lpQualView$[ebp]
	push	ecx
	mov	edx, DWORD PTR _lpView$[ebp]
	push	edx
	call	_fnSqlDisplayQualMsg
	add	esp, 20					; 00000014H

; 5684 :                                  "Cannot specify 'Value' and 'KeyList' on the same "
; 5685 :                                  "QualAttrib.",
; 5686 :                                  zERROR, szlQualAttrib );
; 5687 :             return( zCALL_ERROR );

	mov	eax, -16				; fffffff0H
	jmp	$LN1@fnSqlRetri
$LN69@fnSqlRetri:

; 5688 :          }
; 5689 : 
; 5690 :          // If KeyList is defined then QualAttrib must also have AttribName.
; 5691 :          if ( lpQualAttrib->lpDataField == 0 )

	mov	eax, DWORD PTR _lpQualAttrib$[ebp]
	cmp	DWORD PTR [eax+24], 0
	jne	SHORT $LN70@fnSqlRetri

; 5692 :          {
; 5693 :             fnSqlDisplayQualMsg( lpView, lpQualView,

	push	OFFSET _szlQualAttrib
	push	0
	push	OFFSET $SG13623
	mov	ecx, DWORD PTR _lpQualView$[ebp]
	push	ecx
	mov	edx, DWORD PTR _lpView$[ebp]
	push	edx
	call	_fnSqlDisplayQualMsg
	add	esp, 20					; 00000014H

; 5694 :                                  "QualAttrib entity has KeyList but doesn't "
; 5695 :                                  "have AttributeName.",
; 5696 :                                  zERROR, szlQualAttrib );
; 5697 :             return( zCALL_ERROR );

	mov	eax, -16				; fffffff0H
	jmp	$LN1@fnSqlRetri
$LN70@fnSqlRetri:

; 5698 :          }
; 5699 : 
; 5700 :          if ( lpQualAttrib->lpDataField->cFldType != zTYPE_INTEGER )

	mov	eax, DWORD PTR _lpQualAttrib$[ebp]
	mov	ecx, DWORD PTR [eax+24]
	movsx	edx, BYTE PTR [ecx+270]
	cmp	edx, 76					; 0000004cH
	je	SHORT $LN71@fnSqlRetri

; 5701 :          {
; 5702 :             fnSqlDisplayQualMsg( lpView, lpQualView,

	push	OFFSET _szlQualAttrib
	push	0
	push	OFFSET $SG13625
	mov	eax, DWORD PTR _lpQualView$[ebp]
	push	eax
	mov	ecx, DWORD PTR _lpView$[ebp]
	push	ecx
	call	_fnSqlDisplayQualMsg
	add	esp, 20					; 00000014H

; 5703 :                                  "The only datatypes supported with KeyList is "
; 5704 :                                  "Integer.",
; 5705 :                                  zERROR, szlQualAttrib );
; 5706 :             return( zCALL_ERROR );

	mov	eax, -16				; fffffff0H
	jmp	$LN1@fnSqlRetri
$LN71@fnSqlRetri:

; 5707 :          }
; 5708 : 
; 5709 :          // We only support one keylist at the moment.
; 5710 :          if ( lpQualEntity->bContainsKeyList )

	mov	edx, DWORD PTR _lpQualEntity$[ebp]
	mov	eax, DWORD PTR [edx+28]
	shr	eax, 5
	and	eax, 1
	je	SHORT $LN72@fnSqlRetri

; 5711 :          {
; 5712 :             fnSqlDisplayQualMsg( lpView, lpQualView,

	push	OFFSET _szlQualAttrib
	push	0
	push	OFFSET $SG13627
	mov	ecx, DWORD PTR _lpQualView$[ebp]
	push	ecx
	mov	edx, DWORD PTR _lpView$[ebp]
	push	edx
	call	_fnSqlDisplayQualMsg
	add	esp, 20					; 00000014H

; 5713 :                                  "Only one QualAttrib is allowed to have a KeyList "
; 5714 :                                  "specified under each QualEntity.",
; 5715 :                                  zERROR, szlQualAttrib );
; 5716 :             return( zCALL_ERROR );

	mov	eax, -16				; fffffff0H
	jmp	$LN1@fnSqlRetri
$LN72@fnSqlRetri:

; 5717 :          }
; 5718 : 
; 5719 :          // Get the number of entities in the key list.
; 5720 :          lKeyCount = CountEntitiesForView( lpQualView, "KeyList" );

	push	OFFSET $SG13628
	mov	eax, DWORD PTR _lpQualView$[ebp]
	push	eax
	call	_CountEntitiesForView@8
	mov	DWORD PTR _lKeyCount$4[ebp], eax

; 5721 : 
; 5722 :          // Alloc space to hold the keys.
; 5723 :          lpQualAttrib->lpKeyList = malloc( lKeyCount * sizeof( zLONG ) );

	mov	ecx, DWORD PTR _lKeyCount$4[ebp]
	shl	ecx, 2
	push	ecx
	call	DWORD PTR __imp__malloc
	add	esp, 4
	mov	edx, DWORD PTR _lpQualAttrib$[ebp]
	mov	DWORD PTR [edx+44], eax

; 5724 :          lpQualAttrib->lKeyCount = lKeyCount;

	mov	eax, DWORD PTR _lpQualAttrib$[ebp]
	mov	ecx, DWORD PTR _lKeyCount$4[ebp]
	mov	DWORD PTR [eax+48], ecx

; 5725 :          pl = (zPLONG) lpQualAttrib->lpKeyList;

	mov	edx, DWORD PTR _lpQualAttrib$[ebp]
	mov	eax, DWORD PTR [edx+44]
	mov	DWORD PTR _pl$1[ebp], eax

; 5726 : 
; 5727 :          // Copy the keys to the table.
; 5728 :          k = 0;

	xor	ecx, ecx
	mov	WORD PTR _k$12[ebp], cx

; 5729 :          for ( nRC = SetCursorFirstEntity( lpQualView, "KeyList", 0 );

	push	0
	push	OFFSET $SG13629
	mov	edx, DWORD PTR _lpQualView$[ebp]
	push	edx
	call	_SetCursorFirstEntity@12
	mov	WORD PTR _nRC$[ebp], ax
	jmp	SHORT $LN20@fnSqlRetri
$LN18@fnSqlRetri:

; 5731 :                nRC = SetCursorNextEntity( lpQualView, "KeyList", 0 ) )

	push	0
	push	OFFSET $SG13630
	mov	eax, DWORD PTR _lpQualView$[ebp]
	push	eax
	call	_SetCursorNextEntity@12
	mov	WORD PTR _nRC$[ebp], ax
$LN20@fnSqlRetri:

; 5730 :                nRC >= zCURSOR_SET;

	movsx	ecx, WORD PTR _nRC$[ebp]
	test	ecx, ecx
	jl	SHORT $LN19@fnSqlRetri

; 5732 :          {
; 5733 :             GetIntegerFromAttribute( &pl[ k++ ], lpQualView, "KeyList",

	movsx	edx, WORD PTR _k$12[ebp]
	mov	eax, DWORD PTR _pl$1[ebp]
	lea	ecx, DWORD PTR [eax+edx*4]
	mov	DWORD PTR tv509[ebp], ecx
	push	OFFSET $SG13631
	push	OFFSET $SG13632
	mov	edx, DWORD PTR _lpQualView$[ebp]
	push	edx
	mov	eax, DWORD PTR tv509[ebp]
	push	eax
	call	_GetIntegerFromAttribute@16
	mov	cx, WORD PTR _k$12[ebp]
	add	cx, 1
	mov	WORD PTR _k$12[ebp], cx

; 5734 :                                      "IntegerValue" );
; 5735 :          }

	jmp	SHORT $LN18@fnSqlRetri
$LN19@fnSqlRetri:

; 5736 : 
; 5737 :          lpQualEntity->bContainsKeyList = TRUE;

	mov	edx, DWORD PTR _lpQualEntity$[ebp]
	mov	eax, DWORD PTR [edx+28]
	or	eax, 32					; 00000020H
	mov	ecx, DWORD PTR _lpQualEntity$[ebp]
	mov	DWORD PTR [ecx+28], eax
$LN68@fnSqlRetri:

; 5738 :       }
; 5739 : 
; 5740 :       // ===
; 5741 :       // ===  QualAttrib.SourceViewName/SourceViewID
; 5742 :       // ===
; 5743 : 
; 5744 :       GetAddrForAttribute( &pchSrcViewName, lpQualView, szlQualAttrib,

	push	OFFSET $SG13633
	push	OFFSET _szlQualAttrib
	mov	edx, DWORD PTR _lpQualView$[ebp]
	push	edx
	lea	eax, DWORD PTR _pchSrcViewName$[ebp]
	push	eax
	call	_GetAddrForAttribute@16

; 5745 :                            "SourceViewName" );
; 5746 :       if ( *pchSrcViewName )

	mov	ecx, DWORD PTR _pchSrcViewName$[ebp]
	movsx	edx, BYTE PTR [ecx]
	test	edx, edx
	je	SHORT $LN73@fnSqlRetri

; 5747 :       {
; 5748 :          GetViewByName( &lpSourceView, pchSrcViewName, lpQualView,

	push	2
	mov	eax, DWORD PTR _lpQualView$[ebp]
	push	eax
	mov	ecx, DWORD PTR _pchSrcViewName$[ebp]
	push	ecx
	lea	edx, DWORD PTR _lpSourceView$[ebp]
	push	edx
	call	_GetViewByName@16

; 5749 :                         zLEVEL_TASK );
; 5750 :          if ( lpSourceView )

	cmp	DWORD PTR _lpSourceView$[ebp], 0
	je	SHORT $LN75@fnSqlRetri

; 5751 :          {
; 5752 :             lpQualAttrib->lpSourceView = lpSourceView;

	mov	eax, DWORD PTR _lpQualAttrib$[ebp]
	mov	ecx, DWORD PTR _lpSourceView$[ebp]
	mov	DWORD PTR [eax+60], ecx

; 5753 :             SetAttributeFromInteger( lpQualView, szlQualAttrib,

	mov	edx, DWORD PTR _lpSourceView$[ebp]
	push	edx
	push	OFFSET $SG13638
	push	OFFSET _szlQualAttrib
	mov	eax, DWORD PTR _lpQualView$[ebp]
	push	eax
	call	_SetAttributeFromInteger@16

; 5754 :                                      "SourceViewID", (zLONG) lpSourceView );
; 5755 :          }

	jmp	SHORT $LN76@fnSqlRetri
$LN75@fnSqlRetri:

; 5756 :          else
; 5757 :          {
; 5758 :             fnSqlDisplayQualMsg( lpView, lpQualView,

	push	OFFSET _szlQualAttrib
	push	0
	push	OFFSET $SG13639
	mov	ecx, DWORD PTR _lpQualView$[ebp]
	push	ecx
	mov	edx, DWORD PTR _lpView$[ebp]
	push	edx
	call	_fnSqlDisplayQualMsg
	add	esp, 20					; 00000014H

; 5759 :                                  "SourceViewName not found at TASK level.",
; 5760 :                                  zERROR, szlQualAttrib );
; 5761 :             return( zCALL_ERROR );

	mov	eax, -16				; fffffff0H
	jmp	$LN1@fnSqlRetri
$LN76@fnSqlRetri:

; 5762 :          }
; 5763 :       }

	jmp	SHORT $LN74@fnSqlRetri
$LN73@fnSqlRetri:

; 5764 :       else
; 5765 :       {
; 5766 :          // SourceViewName was not specified--see if SourceViewID was.
; 5767 :          GetIntegerFromAttribute( (zPLONG) &lpSourceView, lpQualView,

	push	OFFSET $SG13640
	push	OFFSET _szlQualAttrib
	mov	eax, DWORD PTR _lpQualView$[ebp]
	push	eax
	lea	ecx, DWORD PTR _lpSourceView$[ebp]
	push	ecx
	call	_GetIntegerFromAttribute@16

; 5768 :                                   szlQualAttrib, "SourceViewID" );
; 5769 :          if ( lpSourceView )

	cmp	DWORD PTR _lpSourceView$[ebp], 0
	je	SHORT $LN74@fnSqlRetri

; 5770 :             lpQualAttrib->lpSourceView = lpSourceView;

	mov	edx, DWORD PTR _lpQualAttrib$[ebp]
	mov	eax, DWORD PTR _lpSourceView$[ebp]
	mov	DWORD PTR [edx+60], eax
$LN74@fnSqlRetri:

; 5771 :       }
; 5772 : 
; 5773 :       // ===
; 5774 :       // ===  QualAttrib.SourceEntityName
; 5775 :       // ===
; 5776 : 
; 5777 :       GetAddrForAttribute( &pchSrcEntityName, lpQualView,

	push	OFFSET $SG13642
	push	OFFSET _szlQualAttrib
	mov	ecx, DWORD PTR _lpQualView$[ebp]
	push	ecx
	lea	edx, DWORD PTR _pchSrcEntityName$[ebp]
	push	edx
	call	_GetAddrForAttribute@16

; 5778 :                            szlQualAttrib, "SourceEntityName" );
; 5779 :       lpSourceViewEntity = 0;

	mov	DWORD PTR _lpSourceViewEntity$[ebp], 0

; 5780 :       if ( *pchSrcEntityName )

	mov	eax, DWORD PTR _pchSrcEntityName$[ebp]
	movsx	ecx, BYTE PTR [eax]
	test	ecx, ecx
	je	$LN78@fnSqlRetri

; 5781 :       {
; 5782 :          // Find the lpViewEntity for source attrib entity.
; 5783 :          if ( lpQualAttrib->lpSourceView )

	mov	edx, DWORD PTR _lpQualAttrib$[ebp]
	cmp	DWORD PTR [edx+60], 0
	je	SHORT $LN79@fnSqlRetri

; 5784 :             lpSourceViewEntity =

	mov	eax, DWORD PTR _pchSrcEntityName$[ebp]
	push	eax
	mov	ecx, DWORD PTR _lpQualAttrib$[ebp]
	mov	edx, DWORD PTR [ecx+60]
	push	edx
	call	_MiGetViewEntityForView@8
	mov	DWORD PTR _lpSourceViewEntity$[ebp], eax
	jmp	SHORT $LN80@fnSqlRetri
$LN79@fnSqlRetri:

; 5785 :                         MiGetViewEntityForView( lpQualAttrib->lpSourceView,
; 5786 :                                                 pchSrcEntityName );
; 5787 :          else
; 5788 :             lpSourceViewEntity =

	mov	eax, DWORD PTR _pchSrcEntityName$[ebp]
	push	eax
	mov	ecx, DWORD PTR _lpView$[ebp]
	push	ecx
	call	_MiGetViewEntityForView@8
	mov	DWORD PTR _lpSourceViewEntity$[ebp], eax
$LN80@fnSqlRetri:

; 5789 :                         MiGetViewEntityForView( lpView, pchSrcEntityName );
; 5790 : 
; 5791 :          // If no view entity was found to match the entity name
; 5792 :          // then issue an error and exit.
; 5793 :          if ( lpSourceViewEntity == 0 )

	cmp	DWORD PTR _lpSourceViewEntity$[ebp], 0
	jne	SHORT $LN81@fnSqlRetri

; 5794 :          {
; 5795 :             fnSqlDisplayQualMsg( lpView, lpQualView,

	push	OFFSET _szlQualAttrib
	push	0
	push	OFFSET $SG13647
	mov	edx, DWORD PTR _lpQualView$[ebp]
	push	edx
	mov	eax, DWORD PTR _lpView$[ebp]
	push	eax
	call	_fnSqlDisplayQualMsg
	add	esp, 20					; 00000014H

; 5796 :                                  "Attribute SourceEntityName not found in "
; 5797 :                                  "target object defintion.",
; 5798 :                                  zERROR, szlQualAttrib );
; 5799 :             return( zCALL_ERROR );

	mov	eax, -16				; fffffff0H
	jmp	$LN1@fnSqlRetri
$LN81@fnSqlRetri:

; 5800 :          }
; 5801 : 
; 5802 :          // If lpSourceView is defined then make sure that the
; 5803 :          // SourceViewEntity entity is defined.
; 5804 :          if ( lpQualAttrib->lpSourceView )

	mov	ecx, DWORD PTR _lpQualAttrib$[ebp]
	cmp	DWORD PTR [ecx+60], 0
	je	SHORT $LN82@fnSqlRetri

; 5805 :          {
; 5806 :             nRC = CheckExistenceOfEntity( lpQualAttrib->lpSourceView,

	mov	edx, DWORD PTR _lpSourceViewEntity$[ebp]
	add	edx, 14					; 0000000eH
	push	edx
	mov	eax, DWORD PTR _lpQualAttrib$[ebp]
	mov	ecx, DWORD PTR [eax+60]
	push	ecx
	call	_CheckExistenceOfEntity@8
	mov	WORD PTR _nRC$[ebp], ax

; 5807 :                                           lpSourceViewEntity->szName );
; 5808 :             if ( nRC != zCURSOR_SET )

	movsx	edx, WORD PTR _nRC$[ebp]
	test	edx, edx
	je	SHORT $LN84@fnSqlRetri

; 5809 :             {
; 5810 :                fnSqlDisplayQualMsg( lpView, lpQualView,

	push	OFFSET _szlQualAttrib
	push	0
	push	OFFSET $SG13651
	mov	eax, DWORD PTR _lpQualView$[ebp]
	push	eax
	mov	ecx, DWORD PTR _lpView$[ebp]
	push	ecx
	call	_fnSqlDisplayQualMsg
	add	esp, 20					; 00000014H

; 5811 :                                     "Cursor is not set properly in the Source "
; 5812 :                                     "View specified in QualAttrib.",
; 5813 :                                     zERROR, szlQualAttrib );
; 5814 :                return( zCALL_ERROR );

	mov	eax, -16				; fffffff0H
	jmp	$LN1@fnSqlRetri
$LN84@fnSqlRetri:

; 5815 :             }
; 5816 :          }

	jmp	SHORT $LN83@fnSqlRetri
$LN82@fnSqlRetri:

; 5817 :          // lpSourceView is not defined--the Source View Entity
; 5818 :          // is the view we will activate later.
; 5819 :          // Make sure that lpSourceViewEntity comes before entity spec in
; 5820 :          // hierarchical order.
; 5821 :          else
; 5822 :          if ( lpSourceViewEntity->nHierNbr >

	mov	edx, DWORD PTR _lpSourceViewEntity$[ebp]
	movsx	eax, WORD PTR [edx+217]
	mov	ecx, DWORD PTR _lpQualEntity$[ebp]
	mov	edx, DWORD PTR [ecx+8]
	movsx	ecx, WORD PTR [edx+217]
	cmp	eax, ecx
	jle	SHORT $LN83@fnSqlRetri

; 5823 :                                        lpQualEntity->lpViewEntity->nHierNbr )
; 5824 :          {
; 5825 :             fnSqlDisplayQualMsg( lpView, lpQualView,

	push	OFFSET _szlQualAttrib
	push	0
	push	OFFSET $SG13653
	mov	edx, DWORD PTR _lpQualView$[ebp]
	push	edx
	mov	eax, DWORD PTR _lpView$[ebp]
	push	eax
	call	_fnSqlDisplayQualMsg
	add	esp, 20					; 00000014H

; 5826 :                                  "SourceEntityName does not have hierarchical "
; 5827 :                                  "precidence over EntityName in EntitySpec.",
; 5828 :                                  zERROR, szlQualAttrib );
; 5829 :             return( zCALL_ERROR );

	mov	eax, -16				; fffffff0H
	jmp	$LN1@fnSqlRetri
$LN83@fnSqlRetri:

; 5830 :          }
; 5831 : 
; 5832 :          lpQualAttrib->lpSourceViewEntity = lpSourceViewEntity;

	mov	ecx, DWORD PTR _lpQualAttrib$[ebp]
	mov	edx, DWORD PTR _lpSourceViewEntity$[ebp]
	mov	DWORD PTR [ecx+52], edx
$LN78@fnSqlRetri:

; 5833 :       } // if ( *pchSrcEntityName )...
; 5834 : 
; 5835 :       // ===
; 5836 :       // ===  QualAttrib.SourceAttributeName
; 5837 :       // ===
; 5838 : 
; 5839 :       GetAddrForAttribute( &pchSrcAttributeName, lpQualView,

	push	OFFSET $SG13654
	push	OFFSET _szlQualAttrib
	mov	eax, DWORD PTR _lpQualView$[ebp]
	push	eax
	lea	ecx, DWORD PTR _pchSrcAttributeName$[ebp]
	push	ecx
	call	_GetAddrForAttribute@16

; 5840 :                            szlQualAttrib, "SourceAttributeName" );
; 5841 :       if ( *pchSrcAttributeName )

	mov	edx, DWORD PTR _pchSrcAttributeName$[ebp]
	movsx	eax, BYTE PTR [edx]
	test	eax, eax
	je	$LN86@fnSqlRetri

; 5842 :       {
; 5843 :          if ( lpQualAttrib->lpSourceViewEntity == 0 )

	mov	ecx, DWORD PTR _lpQualAttrib$[ebp]
	cmp	DWORD PTR [ecx+52], 0
	jne	SHORT $LN87@fnSqlRetri

; 5844 :          {
; 5845 :             fnSqlDisplayQualMsg( lpView, lpQualView,

	push	OFFSET _szlQualAttrib
	push	0
	push	OFFSET $SG13657
	mov	edx, DWORD PTR _lpQualView$[ebp]
	push	edx
	mov	eax, DWORD PTR _lpView$[ebp]
	push	eax
	call	_fnSqlDisplayQualMsg
	add	esp, 20					; 00000014H

; 5846 :                                  "QualAttrib has SourceAttributeName but "
; 5847 :                                  "doesn't have SourceEntityName.",
; 5848 :                                  zERROR, szlQualAttrib );
; 5849 :             return( zCALL_ERROR );

	mov	eax, -16				; fffffff0H
	jmp	$LN1@fnSqlRetri
$LN87@fnSqlRetri:

; 5850 :          }
; 5851 : 
; 5852 :          // Find the lpViewAttrib and DataField that matches
; 5853 :          // SourceAttributeName.
; 5854 :          lpDataRecord = zGETPTR( lpSourceViewEntity->hFirstDataRecord );

	mov	ecx, DWORD PTR _lpSourceViewEntity$[ebp]
	mov	edx, DWORD PTR [ecx+191]
	push	edx
	call	_SysGetPointerFromHandle@4
	mov	DWORD PTR _lpDataRecord$[ebp], eax

; 5855 :          for ( lpDataField  = zGETPTR( lpDataRecord->hFirstDataField );

	mov	eax, DWORD PTR _lpDataRecord$[ebp]
	mov	ecx, DWORD PTR [eax+10]
	push	ecx
	call	_SysGetPointerFromHandle@4
	mov	DWORD PTR _lpDataField$[ebp], eax
	jmp	SHORT $LN23@fnSqlRetri
$LN21@fnSqlRetri:

; 5857 :                lpDataField = zGETPTR( lpDataField->hNextDataField ) )

	mov	edx, DWORD PTR _lpDataField$[ebp]
	mov	eax, DWORD PTR [edx+2]
	push	eax
	call	_SysGetPointerFromHandle@4
	mov	DWORD PTR _lpDataField$[ebp], eax
$LN23@fnSqlRetri:

; 5856 :                lpDataField;

	cmp	DWORD PTR _lpDataField$[ebp], 0
	je	$LN22@fnSqlRetri

; 5858 :          {
; 5859 :             lpViewAttrib = zGETPTR( lpDataField->hViewAttrib );

	mov	ecx, DWORD PTR _lpDataField$[ebp]
	mov	edx, DWORD PTR [ecx+6]
	push	edx
	call	_SysGetPointerFromHandle@4
	mov	DWORD PTR _lpViewAttrib$[ebp], eax

; 5860 : 
; 5861 :             if ( zstrcmp( lpViewAttrib->szName, pchSrcAttributeName ) == 0 )

	mov	eax, DWORD PTR _lpViewAttrib$[ebp]
	movsx	ecx, BYTE PTR [eax+10]
	mov	edx, DWORD PTR _pchSrcAttributeName$[ebp]
	movsx	eax, BYTE PTR [edx]
	cmp	ecx, eax
	jne	SHORT $LN166@fnSqlRetri
	mov	ecx, DWORD PTR _pchSrcAttributeName$[ebp]
	push	ecx
	mov	edx, DWORD PTR _lpViewAttrib$[ebp]
	add	edx, 10					; 0000000aH
	push	edx
	call	_strcmp
	add	esp, 8
	mov	DWORD PTR tv659[ebp], eax
	jmp	SHORT $LN167@fnSqlRetri
$LN166@fnSqlRetri:
	mov	eax, DWORD PTR _lpViewAttrib$[ebp]
	movsx	ecx, BYTE PTR [eax+10]
	mov	edx, DWORD PTR _pchSrcAttributeName$[ebp]
	movsx	eax, BYTE PTR [edx]
	sub	ecx, eax
	test	ecx, ecx
	jle	SHORT $LN164@fnSqlRetri
	mov	DWORD PTR tv658[ebp], 1
	jmp	SHORT $LN165@fnSqlRetri
$LN164@fnSqlRetri:
	mov	DWORD PTR tv658[ebp], -1
$LN165@fnSqlRetri:
	mov	ecx, DWORD PTR tv658[ebp]
	mov	DWORD PTR tv659[ebp], ecx
$LN167@fnSqlRetri:
	cmp	DWORD PTR tv659[ebp], 0
	jne	SHORT $LN88@fnSqlRetri

; 5862 :                break;

	jmp	SHORT $LN22@fnSqlRetri
$LN88@fnSqlRetri:

; 5863 :          }

	jmp	$LN21@fnSqlRetri
$LN22@fnSqlRetri:

; 5864 : 
; 5865 :          // If no data field was found to match source attribute name in
; 5866 :          // target entity then issue an error and exit.
; 5867 :          if ( lpDataField == 0 )

	cmp	DWORD PTR _lpDataField$[ebp], 0
	jne	SHORT $LN89@fnSqlRetri

; 5868 :          {
; 5869 :             fnSqlDisplayQualMsg( lpView, lpQualView,

	push	OFFSET _szlQualAttrib
	push	0
	push	OFFSET $SG13660
	mov	edx, DWORD PTR _lpQualView$[ebp]
	push	edx
	mov	eax, DWORD PTR _lpView$[ebp]
	push	eax
	call	_fnSqlDisplayQualMsg
	add	esp, 20					; 00000014H

; 5870 :                                  "SourceAttributeName in QualAttrib not found "
; 5871 :                                  "in target object definition.",
; 5872 :                                  zERROR, szlQualAttrib );
; 5873 :             return( zCALL_ERROR );

	mov	eax, -16				; fffffff0H
	jmp	$LN1@fnSqlRetri
$LN89@fnSqlRetri:

; 5874 :          }
; 5875 : 
; 5876 :          lpQualAttrib->lpSourceDataField = lpDataField;

	mov	ecx, DWORD PTR _lpQualAttrib$[ebp]
	mov	edx, DWORD PTR _lpDataField$[ebp]
	mov	DWORD PTR [ecx+56], edx
$LN86@fnSqlRetri:

; 5877 :       } // if ( *pchSrcAttribteName )...
; 5878 : 
; 5879 :       // =================================================================
; 5880 :       // ===
; 5881 :       // ===  Validate Qualification attributes.
; 5882 :       // ===
; 5883 :       // =================================================================
; 5884 : 
; 5885 :       // ===
; 5886 :       // === Make sure that all attributes have been set that are needed for
; 5887 :       // === each command.
; 5888 :       // ===
; 5889 :       if ( zstrcmpi( lpQualAttrib->szOper, "EXISTS" ) == 0 ||

	push	OFFSET $SG13664
	mov	eax, DWORD PTR _lpQualAttrib$[ebp]
	mov	ecx, DWORD PTR [eax+32]
	push	ecx
	call	DWORD PTR __imp___stricmp
	add	esp, 8
	test	eax, eax
	je	SHORT $LN92@fnSqlRetri
	push	OFFSET $SG13665
	mov	edx, DWORD PTR _lpQualAttrib$[ebp]
	mov	eax, DWORD PTR [edx+32]
	push	eax
	call	DWORD PTR __imp___stricmp
	add	esp, 8
	test	eax, eax
	jne	$LN90@fnSqlRetri
$LN92@fnSqlRetri:

; 5890 :            zstrcmpi( lpQualAttrib->szOper, "NOT EXISTS" ) == 0 )
; 5891 :       {
; 5892 :          zBOOL bContainsSubselect;
; 5893 : 
; 5894 :          // Exists commands must have entity name specified.
; 5895 :          if ( lpQualAttrib->lpViewEntity == 0 )

	mov	ecx, DWORD PTR _lpQualAttrib$[ebp]
	cmp	DWORD PTR [ecx+12], 0
	jne	SHORT $LN93@fnSqlRetri

; 5896 :          {
; 5897 :             fnSqlDisplayQualMsg( lpView, lpQualView,

	push	OFFSET _szlQualAttrib
	push	0
	push	OFFSET $SG13667
	mov	edx, DWORD PTR _lpQualView$[ebp]
	push	edx
	mov	eax, DWORD PTR _lpView$[ebp]
	push	eax
	call	_fnSqlDisplayQualMsg
	add	esp, 20					; 00000014H

; 5898 :                                  "QualAttrib must specify EntityName for "
; 5899 :                                  "[NOT] EXISTS operation.",
; 5900 :                                  zERROR, szlQualAttrib );
; 5901 :             return( zCALL_ERROR );

	mov	eax, -16				; fffffff0H
	jmp	$LN1@fnSqlRetri
$LN93@fnSqlRetri:

; 5902 :          }
; 5903 : 
; 5904 :          // Check to make sure that the entity in QualEntity is a parent of
; 5905 :          // lpQualAttrib->lpViewEntity.
; 5906 :          for ( lpViewEntity = zGETPTR( lpQualAttrib->lpViewEntity->hParent );

	mov	ecx, DWORD PTR _lpQualAttrib$[ebp]
	mov	edx, DWORD PTR [ecx+12]
	mov	eax, DWORD PTR [edx+10]
	push	eax
	call	_SysGetPointerFromHandle@4
	mov	DWORD PTR _lpViewEntity$[ebp], eax
	jmp	SHORT $LN26@fnSqlRetri
$LN24@fnSqlRetri:

; 5908 :                lpViewEntity = zGETPTR( lpViewEntity->hParent ) )

	mov	ecx, DWORD PTR _lpViewEntity$[ebp]
	mov	edx, DWORD PTR [ecx+10]
	push	edx
	call	_SysGetPointerFromHandle@4
	mov	DWORD PTR _lpViewEntity$[ebp], eax
$LN26@fnSqlRetri:

; 5907 :                lpViewEntity && lpViewEntity != lpQualEntity->lpViewEntity;

	cmp	DWORD PTR _lpViewEntity$[ebp], 0
	je	SHORT $LN25@fnSqlRetri
	mov	eax, DWORD PTR _lpQualEntity$[ebp]
	mov	ecx, DWORD PTR _lpViewEntity$[ebp]
	cmp	ecx, DWORD PTR [eax+8]
	je	SHORT $LN25@fnSqlRetri

; 5909 :          {
; 5910 :             // Nothing needs to be done here.
; 5911 :          }

	jmp	SHORT $LN24@fnSqlRetri
$LN25@fnSqlRetri:

; 5912 : 
; 5913 :          if ( lpViewEntity == 0 )

	cmp	DWORD PTR _lpViewEntity$[ebp], 0
	jne	SHORT $LN94@fnSqlRetri

; 5914 :          {
; 5915 :             fnSqlDisplayQualMsg( lpView, lpQualView,

	push	OFFSET _szlQualAttrib
	push	0
	push	OFFSET $SG13669
	mov	edx, DWORD PTR _lpQualView$[ebp]
	push	edx
	mov	eax, DWORD PTR _lpView$[ebp]
	push	eax
	call	_fnSqlDisplayQualMsg
	add	esp, 20					; 00000014H

; 5916 :                                  "QualAttrib.EntityName must be a direct "
; 5917 :                                  "descendant of EntitySpec.EntityName for the "
; 5918 :                                  "[NOT] EXISTS operation.",
; 5919 :                                  zERROR, szlQualAttrib );
; 5920 :             return( zCALL_ERROR );

	mov	eax, -16				; fffffff0H
	jmp	$LN1@fnSqlRetri
$LN94@fnSqlRetri:

; 5921 :          }
; 5922 : 
; 5923 :          // If any other attributes are specified, warn user but continue.
; 5924 :          if ( lpQualAttrib->lpDataField         ||
; 5925 :               lpQualAttrib->szValue             ||
; 5926 :               lpQualAttrib->lpSourceViewEntity  ||
; 5927 :               lpQualAttrib->lpSourceDataField   ||

	mov	ecx, DWORD PTR _lpQualAttrib$[ebp]
	cmp	DWORD PTR [ecx+24], 0
	jne	SHORT $LN96@fnSqlRetri
	mov	edx, DWORD PTR _lpQualAttrib$[ebp]
	cmp	DWORD PTR [edx+40], 0
	jne	SHORT $LN96@fnSqlRetri
	mov	eax, DWORD PTR _lpQualAttrib$[ebp]
	cmp	DWORD PTR [eax+52], 0
	jne	SHORT $LN96@fnSqlRetri
	mov	ecx, DWORD PTR _lpQualAttrib$[ebp]
	cmp	DWORD PTR [ecx+56], 0
	jne	SHORT $LN96@fnSqlRetri
	mov	edx, DWORD PTR _lpQualAttrib$[ebp]
	cmp	DWORD PTR [edx+60], 0
	je	SHORT $LN95@fnSqlRetri
$LN96@fnSqlRetri:

; 5928 :               lpQualAttrib->lpSourceView )
; 5929 :          {
; 5930 :             fnSqlDisplayQualMsg( lpView, lpQualView,

	push	OFFSET _szlQualAttrib
	push	1
	push	OFFSET $SG13672
	mov	eax, DWORD PTR _lpQualView$[ebp]
	push	eax
	mov	ecx, DWORD PTR _lpView$[ebp]
	push	ecx
	call	_fnSqlDisplayQualMsg
	add	esp, 20					; 00000014H
$LN95@fnSqlRetri:

; 5931 :                                  "Extraneous attributes specified for [NOT] "
; 5932 :                                  "EXISTS operation.  Only Oper and EntityName "
; 5933 :                                  "are needed.  All others will be ignored.",
; 5934 :                                  zWARNING, szlQualAttrib );
; 5935 :          }
; 5936 : 
; 5937 :          // For now we think we will need a subselect.
; 5938 :          bContainsSubselect = TRUE;

	mov	BYTE PTR _bContainsSubselect$14[ebp], 1

; 5939 : 
; 5940 :          if ( zstrcmpi( lpQualAttrib->szOper, "EXISTS" ) == 0 )

	push	OFFSET $SG13675
	mov	edx, DWORD PTR _lpQualAttrib$[ebp]
	mov	eax, DWORD PTR [edx+32]
	push	eax
	call	DWORD PTR __imp___stricmp
	add	esp, 8
	test	eax, eax
	jne	SHORT $LN97@fnSqlRetri

; 5941 :             lpQualAttrib->bExists = TRUE;

	mov	ecx, DWORD PTR _lpQualAttrib$[ebp]
	mov	edx, DWORD PTR [ecx+64]
	or	edx, 1
	mov	eax, DWORD PTR _lpQualAttrib$[ebp]
	mov	DWORD PTR [eax+64], edx
	jmp	SHORT $LN98@fnSqlRetri
$LN97@fnSqlRetri:

; 5942 :          else
; 5943 :             lpQualAttrib->bDoesNotExist = TRUE;

	mov	ecx, DWORD PTR _lpQualAttrib$[ebp]
	mov	edx, DWORD PTR [ecx+64]
	or	edx, 2
	mov	eax, DWORD PTR _lpQualAttrib$[ebp]
	mov	DWORD PTR [eax+64], edx
$LN98@fnSqlRetri:

; 5944 : 
; 5945 :          // Check to see if the relationship with the parent is x-to-1.  If
; 5946 :          // it is then we can replace the EXISTS clause with a qualification
; 5947 :          // that uses "parent.fk_key not NULL" instead.
; 5948 :          // Note that this doesn't work if there is sub-qualification.
; 5949 :          if ( lpQualAttrib->lpViewEntity->uCardMax == 1 &&

	mov	ecx, DWORD PTR _lpQualAttrib$[ebp]
	mov	edx, DWORD PTR [ecx+12]
	movzx	eax, WORD PTR [edx+221]
	cmp	eax, 1
	jne	$LN99@fnSqlRetri
	push	OFFSET _szlSubQualAttrib
	mov	ecx, DWORD PTR _lpQualView$[ebp]
	push	ecx
	call	_CheckExistenceOfEntity@8
	movsx	edx, ax
	test	edx, edx
	je	$LN99@fnSqlRetri

; 5950 :               CheckExistenceOfEntity( lpQualView,
; 5951 :                                       szlSubQualAttrib ) != zCURSOR_SET )
; 5952 :          {
; 5953 :             // Even though the max cardinality is 1 we still need to make
; 5954 :             // sure the FKs are stored in the parent.  The only way to do
; 5955 :             // this is to check the rel record.
; 5956 :             lpDataRecord = zGETPTR( lpQualAttrib->lpViewEntity->hFirstDataRecord );

	mov	eax, DWORD PTR _lpQualAttrib$[ebp]
	mov	ecx, DWORD PTR [eax+12]
	mov	edx, DWORD PTR [ecx+191]
	push	edx
	call	_SysGetPointerFromHandle@4
	mov	DWORD PTR _lpDataRecord$[ebp], eax

; 5957 :             lpRelRecord  = zGETPTR( lpDataRecord->hFirstRelRecord );

	mov	eax, DWORD PTR _lpDataRecord$[ebp]
	mov	ecx, DWORD PTR [eax+6]
	push	ecx
	call	_SysGetPointerFromHandle@4
	mov	DWORD PTR _lpRelRecord$[ebp], eax

; 5958 :             if ( lpRelRecord->cOwnerMember == zDBH_CHILD_IS_SOURCE )

	mov	edx, DWORD PTR _lpRelRecord$[ebp]
	movsx	eax, BYTE PTR [edx+10]
	cmp	eax, 77					; 0000004dH
	jne	$LN99@fnSqlRetri

; 5959 :             {
; 5960 :                zBOOL        bFirst;
; 5961 :                zBOOL        bExists = lpQualAttrib->bExists;

	mov	ecx, DWORD PTR _lpQualAttrib$[ebp]
	mov	edx, DWORD PTR [ecx+64]
	and	edx, 1
	mov	BYTE PTR _bExists$11[ebp], dl

; 5962 :                LPRELFIELD   lpRelField;
; 5963 :                LPVIEWENTITY lpParent = zGETPTR( lpQualAttrib->lpViewEntity->hParent );

	mov	eax, DWORD PTR _lpQualAttrib$[ebp]
	mov	ecx, DWORD PTR [eax+12]
	mov	edx, DWORD PTR [ecx+10]
	push	edx
	call	_SysGetPointerFromHandle@4
	mov	DWORD PTR _lpParent$3[ebp], eax

; 5964 : 
; 5965 :                // We can change the qualification from EXISTS to check FKs.
; 5966 : 
; 5967 :                // If the parent is the same as the entity we are qualifying
; 5968 :                // then we no longer use child qualification for this
; 5969 :                // QualAttrib.
; 5970 :                if ( lpQualEntity->lpViewEntity == lpParent )

	mov	eax, DWORD PTR _lpQualEntity$[ebp]
	mov	ecx, DWORD PTR [eax+8]
	cmp	ecx, DWORD PTR _lpParent$3[ebp]
	jne	SHORT $LN101@fnSqlRetri

; 5971 :                   bQualUsesChildEntity = FALSE;

	mov	BYTE PTR _bQualUsesChildEntity$[ebp], 0
$LN101@fnSqlRetri:

; 5972 : 
; 5973 :                // Qualification no longer needs a subselect.
; 5974 :                bContainsSubselect = FALSE;

	mov	BYTE PTR _bContainsSubselect$14[ebp], 0

; 5975 : 
; 5976 :                // Keep track of the entity.
; 5977 :                lpViewEntity = lpQualAttrib->lpViewEntity;

	mov	edx, DWORD PTR _lpQualAttrib$[ebp]
	mov	eax, DWORD PTR [edx+12]
	mov	DWORD PTR _lpViewEntity$[ebp], eax

; 5978 : 
; 5979 :                // Change current qual attrib to be an close paren.  We do this
; 5980 :                // because it's possible we have more than one key attribute
; 5981 :                // and we use a close paren because we are adding the
; 5982 :                // QualAttribs *backwards*.
; 5983 :                lpQualAttrib->lpViewEntity = 0;

	mov	ecx, DWORD PTR _lpQualAttrib$[ebp]
	mov	DWORD PTR [ecx+12], 0

; 5984 :                lpQualAttrib->bExists = lpQualAttrib->bDoesNotExist = 0;

	mov	edx, DWORD PTR _lpQualAttrib$[ebp]
	mov	eax, DWORD PTR [edx+64]
	and	eax, -3					; fffffffdH
	mov	ecx, DWORD PTR _lpQualAttrib$[ebp]
	mov	DWORD PTR [ecx+64], eax
	mov	edx, DWORD PTR _lpQualAttrib$[ebp]
	mov	eax, DWORD PTR [edx+64]
	and	eax, -2					; fffffffeH
	mov	ecx, DWORD PTR _lpQualAttrib$[ebp]
	mov	DWORD PTR [ecx+64], eax

; 5985 :                zstrcpy( lpQualAttrib->szOper, ")" );

	push	OFFSET $SG13679
	mov	edx, DWORD PTR _lpQualAttrib$[ebp]
	mov	eax, DWORD PTR [edx+32]
	push	eax
	call	_strcpy
	add	esp, 8

; 5986 : 
; 5987 :                // Now we have to create a new QualAttrib for each of the FKs.
; 5988 :                bFirst = TRUE;

	mov	BYTE PTR _bFirst$15[ebp], 1

; 5989 :                for ( lpRelField = zGETPTR( lpRelRecord->hFirstRelField );

	mov	ecx, DWORD PTR _lpRelRecord$[ebp]
	mov	edx, DWORD PTR [ecx+6]
	push	edx
	call	_SysGetPointerFromHandle@4
	mov	DWORD PTR _lpRelField$8[ebp], eax
	jmp	SHORT $LN29@fnSqlRetri
$LN27@fnSqlRetri:

; 5991 :                      lpRelField = zGETPTR( lpRelField->hNextRelField ) )

	mov	eax, DWORD PTR _lpRelField$8[ebp]
	mov	ecx, DWORD PTR [eax+2]
	push	ecx
	call	_SysGetPointerFromHandle@4
	mov	DWORD PTR _lpRelField$8[ebp], eax
$LN29@fnSqlRetri:

; 5990 :                      lpRelField;

	cmp	DWORD PTR _lpRelField$8[ebp], 0
	je	$LN28@fnSqlRetri

; 5992 :                {
; 5993 :                   if ( bFirst )

	movzx	edx, BYTE PTR _bFirst$15[ebp]
	test	edx, edx
	je	SHORT $LN102@fnSqlRetri

; 5994 :                      bFirst = FALSE;

	mov	BYTE PTR _bFirst$15[ebp], 0
	jmp	SHORT $LN103@fnSqlRetri
$LN102@fnSqlRetri:

; 5995 :                   else
; 5996 :                   {
; 5997 :                      // Allocate an 'AND' qual.
; 5998 :                      if ( fnCreateQualAttrib( lpView, lpQualView,
; 5999 :                                               lpFirstQualAttrib,
; 6000 :                                               &lpQualAttrib, 0, 0, "AND",
; 6001 :                                               0 ) != 0 )

	push	0
	push	OFFSET $SG13683
	push	0
	push	0
	lea	eax, DWORD PTR _lpQualAttrib$[ebp]
	push	eax
	mov	ecx, DWORD PTR _lpFirstQualAttrib$[ebp]
	push	ecx
	mov	edx, DWORD PTR _lpQualView$[ebp]
	push	edx
	mov	eax, DWORD PTR _lpView$[ebp]
	push	eax
	call	_fnCreateQualAttrib
	add	esp, 32					; 00000020H
	movsx	ecx, ax
	test	ecx, ecx
	je	SHORT $LN103@fnSqlRetri

; 6002 :                      {
; 6003 :                         return( zCALL_ERROR );

	mov	eax, -16				; fffffff0H
	jmp	$LN1@fnSqlRetri
$LN103@fnSqlRetri:

; 6004 :                      }
; 6005 :                   }
; 6006 : 
; 6007 :                   lpDataField  = zGETPTR( lpRelField->hRelDataField );

	mov	edx, DWORD PTR _lpRelField$8[ebp]
	mov	eax, DWORD PTR [edx+14]
	push	eax
	call	_SysGetPointerFromHandle@4
	mov	DWORD PTR _lpDataField$[ebp], eax

; 6008 :                   lpViewAttrib = zGETPTR( lpDataField->hViewAttrib );

	mov	ecx, DWORD PTR _lpDataField$[ebp]
	mov	edx, DWORD PTR [ecx+6]
	push	edx
	call	_SysGetPointerFromHandle@4
	mov	DWORD PTR _lpViewAttrib$[ebp], eax

; 6009 : 
; 6010 :                   if ( fnCreateQualAttrib( lpView, lpQualView,
; 6011 :                                            lpFirstQualAttrib,
; 6012 :                                            &lpQualAttrib, lpParent,
; 6013 :                                            lpDataField,
; 6014 :                                            bExists ? "IS NOT NULL" : "IS NULL",
; 6015 :                                            0 ) != 0 )

	movzx	eax, BYTE PTR _bExists$11[ebp]
	test	eax, eax
	je	SHORT $LN168@fnSqlRetri
	mov	DWORD PTR tv796[ebp], OFFSET $SG13685
	jmp	SHORT $LN169@fnSqlRetri
$LN168@fnSqlRetri:
	mov	DWORD PTR tv796[ebp], OFFSET $SG13686
$LN169@fnSqlRetri:
	push	0
	mov	ecx, DWORD PTR tv796[ebp]
	push	ecx
	mov	edx, DWORD PTR _lpDataField$[ebp]
	push	edx
	mov	eax, DWORD PTR _lpParent$3[ebp]
	push	eax
	lea	ecx, DWORD PTR _lpQualAttrib$[ebp]
	push	ecx
	mov	edx, DWORD PTR _lpFirstQualAttrib$[ebp]
	push	edx
	mov	eax, DWORD PTR _lpQualView$[ebp]
	push	eax
	mov	ecx, DWORD PTR _lpView$[ebp]
	push	ecx
	call	_fnCreateQualAttrib
	add	esp, 32					; 00000020H
	movsx	edx, ax
	test	edx, edx
	je	SHORT $LN105@fnSqlRetri

; 6016 :                   {
; 6017 :                      return( zCALL_ERROR );

	mov	eax, -16				; fffffff0H
	jmp	$LN1@fnSqlRetri
$LN105@fnSqlRetri:

; 6018 :                   }
; 6019 : 
; 6020 :                } // for each lpRelField...

	jmp	$LN27@fnSqlRetri
$LN28@fnSqlRetri:

; 6021 : 
; 6022 :                // Add the opening paren.
; 6023 :                if ( fnCreateQualAttrib( lpView, lpQualView, lpFirstQualAttrib,
; 6024 :                                         &lpQualAttrib, 0, 0, "(", 0 ) != 0 )

	push	0
	push	OFFSET $SG13688
	push	0
	push	0
	lea	eax, DWORD PTR _lpQualAttrib$[ebp]
	push	eax
	mov	ecx, DWORD PTR _lpFirstQualAttrib$[ebp]
	push	ecx
	mov	edx, DWORD PTR _lpQualView$[ebp]
	push	edx
	mov	eax, DWORD PTR _lpView$[ebp]
	push	eax
	call	_fnCreateQualAttrib
	add	esp, 32					; 00000020H
	movsx	ecx, ax
	test	ecx, ecx
	je	SHORT $LN99@fnSqlRetri

; 6025 :                {
; 6026 :                   return( zCALL_ERROR );

	mov	eax, -16				; fffffff0H
	jmp	$LN1@fnSqlRetri
$LN99@fnSqlRetri:

; 6027 :                }
; 6028 : 
; 6029 :             } // if ( lpRelRecord->cOwnerMember == zDBH_CHILD_IS_SOURCE )...
; 6030 : 
; 6031 :          } // if ( lpQualAttrib->lpViewEntity->uCardMax == 1 )...
; 6032 : 
; 6033 :          if ( bContainsSubselect )

	movzx	edx, BYTE PTR _bContainsSubselect$14[ebp]
	test	edx, edx
	je	SHORT $LN107@fnSqlRetri

; 6034 :             lpQualEntity->bContainsSubselect = TRUE;

	mov	eax, DWORD PTR _lpQualEntity$[ebp]
	mov	ecx, DWORD PTR [eax+28]
	or	ecx, 2
	mov	edx, DWORD PTR _lpQualEntity$[ebp]
	mov	DWORD PTR [edx+28], ecx
$LN107@fnSqlRetri:

; 6035 : 
; 6036 :       } // if ( zstrcmpi( lpQualAttrib->szOper, "EXISTS" ) == 0 || ... )...

	jmp	$LN91@fnSqlRetri
$LN90@fnSqlRetri:

; 6037 :       else
; 6038 :       if ( zstrcmpi( lpQualAttrib->szOper, "IS" ) == 0 )

	push	OFFSET $SG13692
	mov	eax, DWORD PTR _lpQualAttrib$[ebp]
	mov	ecx, DWORD PTR [eax+32]
	push	ecx
	call	DWORD PTR __imp___stricmp
	add	esp, 8
	test	eax, eax
	jne	$LN108@fnSqlRetri

; 6039 :       {
; 6040 :          // IS command must have entity name specified.
; 6041 :          if ( lpQualAttrib->lpViewEntity == 0 )

	mov	edx, DWORD PTR _lpQualAttrib$[ebp]
	cmp	DWORD PTR [edx+12], 0
	jne	SHORT $LN110@fnSqlRetri

; 6042 :          {
; 6043 :             fnSqlDisplayQualMsg( lpView, lpQualView,

	push	OFFSET _szlQualAttrib
	push	0
	push	OFFSET $SG13694
	mov	eax, DWORD PTR _lpQualView$[ebp]
	push	eax
	mov	ecx, DWORD PTR _lpView$[ebp]
	push	ecx
	call	_fnSqlDisplayQualMsg
	add	esp, 20					; 00000014H

; 6044 :                                  "QualAttrib must have EntityName for IS "
; 6045 :                                  "operation.",
; 6046 :                                  zERROR, szlQualAttrib );
; 6047 :             return( zCALL_ERROR );

	mov	eax, -16				; fffffff0H
	jmp	$LN1@fnSqlRetri
$LN110@fnSqlRetri:

; 6048 :          }
; 6049 : 
; 6050 :          // IS command must have source entity name specified.
; 6051 :          if ( lpQualAttrib->lpSourceViewEntity == 0 )

	mov	edx, DWORD PTR _lpQualAttrib$[ebp]
	cmp	DWORD PTR [edx+52], 0
	jne	SHORT $LN111@fnSqlRetri

; 6052 :          {
; 6053 :             fnSqlDisplayQualMsg( lpView, lpQualView,

	push	OFFSET _szlQualAttrib
	push	0
	push	OFFSET $SG13696
	mov	eax, DWORD PTR _lpQualView$[ebp]
	push	eax
	mov	ecx, DWORD PTR _lpView$[ebp]
	push	ecx
	call	_fnSqlDisplayQualMsg
	add	esp, 20					; 00000014H

; 6054 :                                  "QualAttrib must have SourceEntityName for "
; 6055 :                                  "IS operation.",
; 6056 :                                  zERROR, szlQualAttrib );
; 6057 :             return( zCALL_ERROR );

	mov	eax, -16				; fffffff0H
	jmp	$LN1@fnSqlRetri
$LN111@fnSqlRetri:

; 6058 :          }
; 6059 : 
; 6060 :          // IS command must have source view specified.
; 6061 :          if ( lpQualAttrib->lpSourceView == 0 )

	mov	edx, DWORD PTR _lpQualAttrib$[ebp]
	cmp	DWORD PTR [edx+60], 0
	jne	SHORT $LN112@fnSqlRetri

; 6062 :          {
; 6063 :             fnSqlDisplayQualMsg( lpView, lpQualView,

	push	OFFSET _szlQualAttrib
	push	0
	push	OFFSET $SG13698
	mov	eax, DWORD PTR _lpQualView$[ebp]
	push	eax
	mov	ecx, DWORD PTR _lpView$[ebp]
	push	ecx
	call	_fnSqlDisplayQualMsg
	add	esp, 20					; 00000014H

; 6064 :                                  "QualAttrib must have SourceView for "
; 6065 :                                  "IS operation.",
; 6066 :                                  zERROR, szlQualAttrib );
; 6067 :             return( zCALL_ERROR );

	mov	eax, -16				; fffffff0H
	jmp	$LN1@fnSqlRetri
$LN112@fnSqlRetri:

; 6068 :          }
; 6069 : 
; 6070 :          // If any other attributes are specified, warn user but continue.
; 6071 :          if ( lpQualAttrib->lpDataField         ||
; 6072 :               lpQualAttrib->szValue             ||

	mov	edx, DWORD PTR _lpQualAttrib$[ebp]
	cmp	DWORD PTR [edx+24], 0
	jne	SHORT $LN114@fnSqlRetri
	mov	eax, DWORD PTR _lpQualAttrib$[ebp]
	cmp	DWORD PTR [eax+40], 0
	jne	SHORT $LN114@fnSqlRetri
	mov	ecx, DWORD PTR _lpQualAttrib$[ebp]
	cmp	DWORD PTR [ecx+56], 0
	je	SHORT $LN113@fnSqlRetri
$LN114@fnSqlRetri:

; 6073 :               lpQualAttrib->lpSourceDataField )
; 6074 :          {
; 6075 :             fnSqlDisplayQualMsg( lpView, lpQualView,

	push	OFFSET _szlQualAttrib
	push	1
	push	OFFSET $SG13701
	mov	edx, DWORD PTR _lpQualView$[ebp]
	push	edx
	mov	eax, DWORD PTR _lpView$[ebp]
	push	eax
	call	_fnSqlDisplayQualMsg
	add	esp, 20					; 00000014H
$LN113@fnSqlRetri:

; 6076 :                                  "Extraneous attributes specified for IS "
; 6077 :                                  "operation.  Only Oper, EntityName, "
; 6078 :                                  "SourceEntityName, and SourceView "
; 6079 :                                  "are needed.  All others will be ignored.",
; 6080 :                                  zWARNING, szlQualAttrib );
; 6081 :          }
; 6082 : 
; 6083 :          lpQualEntity->bContainsIS = TRUE;

	mov	ecx, DWORD PTR _lpQualEntity$[ebp]
	mov	edx, DWORD PTR [ecx+28]
	or	edx, 4
	mov	eax, DWORD PTR _lpQualEntity$[ebp]
	mov	DWORD PTR [eax+28], edx

; 6084 :          lpQualAttrib->bIs         = TRUE;

	mov	ecx, DWORD PTR _lpQualAttrib$[ebp]
	mov	edx, DWORD PTR [ecx+64]
	or	edx, 8
	mov	eax, DWORD PTR _lpQualAttrib$[ebp]
	mov	DWORD PTR [eax+64], edx

; 6085 : 
; 6086 :       } // if ( zstrcmpi( lpQualAttrib->szOper, "IS" ) == 0 )...

	jmp	$LN91@fnSqlRetri
$LN108@fnSqlRetri:

; 6087 :       else
; 6088 :       if ( zstrcmpi( lpQualAttrib->szOper, "LIKE" ) == 0 )

	push	OFFSET $SG13704
	mov	ecx, DWORD PTR _lpQualAttrib$[ebp]
	mov	edx, DWORD PTR [ecx+32]
	push	edx
	call	DWORD PTR __imp___stricmp
	add	esp, 8
	test	eax, eax
	jne	$LN115@fnSqlRetri

; 6089 :       {
; 6090 :          lpQualEntity->bUniqueQualification = FALSE;

	mov	eax, DWORD PTR _lpQualEntity$[ebp]
	mov	ecx, DWORD PTR [eax+28]
	and	ecx, -17				; ffffffefH
	mov	edx, DWORD PTR _lpQualEntity$[ebp]
	mov	DWORD PTR [edx+28], ecx

; 6091 : 
; 6092 :          // IS command must have entity name specified.
; 6093 :          if ( lpQualAttrib->lpViewAttrib == 0 )

	mov	eax, DWORD PTR _lpQualAttrib$[ebp]
	cmp	DWORD PTR [eax+20], 0
	jne	SHORT $LN117@fnSqlRetri

; 6094 :          {
; 6095 :             fnSqlDisplayQualMsg( lpView, lpQualView,

	push	OFFSET _szlQualAttrib
	push	0
	push	OFFSET $SG13706
	mov	ecx, DWORD PTR _lpQualView$[ebp]
	push	ecx
	mov	edx, DWORD PTR _lpView$[ebp]
	push	edx
	call	_fnSqlDisplayQualMsg
	add	esp, 20					; 00000014H

; 6096 :                                  "QualAttrib must have Entity.AttributeName "
; 6097 :                                  "for LIKE operation.",
; 6098 :                                  zERROR, szlQualAttrib );
; 6099 :             return( zCALL_ERROR );

	mov	eax, -16				; fffffff0H
	jmp	$LN1@fnSqlRetri
$LN117@fnSqlRetri:

; 6100 :          }
; 6101 : 
; 6102 :          // Make sure attribute is a string.
; 6103 :          if ( lpQualAttrib->lpViewAttrib->cType != zTYPE_STRING )

	mov	eax, DWORD PTR _lpQualAttrib$[ebp]
	mov	ecx, DWORD PTR [eax+20]
	movsx	edx, BYTE PTR [ecx+202]
	cmp	edx, 83					; 00000053H
	je	SHORT $LN118@fnSqlRetri

; 6104 :          {
; 6105 :             fnSqlDisplayQualMsg( lpView, lpQualView,

	push	OFFSET _szlQualAttrib
	push	0
	push	OFFSET $SG13708
	mov	eax, DWORD PTR _lpQualView$[ebp]
	push	eax
	mov	ecx, DWORD PTR _lpView$[ebp]
	push	ecx
	call	_fnSqlDisplayQualMsg
	add	esp, 20					; 00000014H

; 6106 :                                  "Entity.AttributeName for QualAttrib must be "
; 6107 :                                  "a string for the LIKE operation.",
; 6108 :                                  zERROR, szlQualAttrib );
; 6109 :             return( zCALL_ERROR );

	mov	eax, -16				; fffffff0H
	jmp	$LN1@fnSqlRetri
$LN118@fnSqlRetri:

; 6110 :          }
; 6111 : 
; 6112 :          lpQualAttrib->bLike = TRUE;

	mov	edx, DWORD PTR _lpQualAttrib$[ebp]
	mov	eax, DWORD PTR [edx+64]
	or	eax, 4
	mov	ecx, DWORD PTR _lpQualAttrib$[ebp]
	mov	DWORD PTR [ecx+64], eax

; 6113 : 
; 6114 :       } // if ( zstrcmpi( lpQualAttrib->szOper, "LIKE" ) == 0 )...

	jmp	$LN91@fnSqlRetri
$LN115@fnSqlRetri:

; 6115 :       else
; 6116 :       {
; 6117 :          // Check to see if pchValue should be changed to "NULL".
; 6118 :          if ( lpQualAttrib->lpDataField &&
; 6119 :               lpQualAttrib->szValue == 0 &&

	mov	edx, DWORD PTR _lpQualAttrib$[ebp]
	cmp	DWORD PTR [edx+24], 0
	je	$LN119@fnSqlRetri
	mov	eax, DWORD PTR _lpQualAttrib$[ebp]
	cmp	DWORD PTR [eax+40], 0
	jne	$LN119@fnSqlRetri
	mov	ecx, DWORD PTR _lpQualAttrib$[ebp]
	cmp	DWORD PTR [ecx+56], 0
	jne	$LN119@fnSqlRetri

; 6120 :               lpQualAttrib->lpSourceDataField == 0 )
; 6121 :          {
; 6122 :             if ( zstrcmp( lpQualAttrib->szOper, "=" ) == 0 )

	mov	edx, DWORD PTR _lpQualAttrib$[ebp]
	mov	eax, DWORD PTR [edx+32]
	movsx	ecx, BYTE PTR [eax]
	movsx	edx, BYTE PTR $SG13712
	cmp	ecx, edx
	jne	SHORT $LN172@fnSqlRetri
	push	OFFSET $SG13713
	mov	eax, DWORD PTR _lpQualAttrib$[ebp]
	mov	ecx, DWORD PTR [eax+32]
	push	ecx
	call	_strcmp
	add	esp, 8
	mov	DWORD PTR tv946[ebp], eax
	jmp	SHORT $LN173@fnSqlRetri
$LN172@fnSqlRetri:
	mov	edx, DWORD PTR _lpQualAttrib$[ebp]
	mov	eax, DWORD PTR [edx+32]
	movsx	ecx, BYTE PTR [eax]
	movsx	edx, BYTE PTR $SG13714
	sub	ecx, edx
	test	ecx, ecx
	jle	SHORT $LN170@fnSqlRetri
	mov	DWORD PTR tv945[ebp], 1
	jmp	SHORT $LN171@fnSqlRetri
$LN170@fnSqlRetri:
	mov	DWORD PTR tv945[ebp], -1
$LN171@fnSqlRetri:
	mov	eax, DWORD PTR tv945[ebp]
	mov	DWORD PTR tv946[ebp], eax
$LN173@fnSqlRetri:
	cmp	DWORD PTR tv946[ebp], 0
	jne	SHORT $LN120@fnSqlRetri

; 6123 :                fnAllocOper( lpQualAttrib, "IS NULL" );

	push	OFFSET $SG13715
	mov	ecx, DWORD PTR _lpQualAttrib$[ebp]
	push	ecx
	call	_fnAllocOper
	add	esp, 8
	jmp	SHORT $LN121@fnSqlRetri
$LN120@fnSqlRetri:

; 6124 :             else
; 6125 :             if ( strstr( "<> !=", lpQualAttrib->szOper ) )

	mov	edx, DWORD PTR _lpQualAttrib$[ebp]
	mov	eax, DWORD PTR [edx+32]
	push	eax
	push	OFFSET $SG13718
	call	DWORD PTR __imp__strstr
	add	esp, 8
	test	eax, eax
	je	SHORT $LN122@fnSqlRetri

; 6126 :                fnAllocOper( lpQualAttrib, "IS NOT NULL" );

	push	OFFSET $SG13719
	mov	ecx, DWORD PTR _lpQualAttrib$[ebp]
	push	ecx
	call	_fnAllocOper
	add	esp, 8
	jmp	SHORT $LN121@fnSqlRetri
$LN122@fnSqlRetri:

; 6127 :             else
; 6128 :             // QualAttrib has AttributeName specified but no Value or
; 6129 :             // SourceAttributeName.  If the operator is a comparison
; 6130 :             // operator, a Value is required.  Connection operators ( AND,
; 6131 :             // OR ) and precidence operators ( "(", ")" ) don't have values.
; 6132 :             if ( strstr( "<= =< >= =>", lpQualAttrib->szOper ) )

	mov	edx, DWORD PTR _lpQualAttrib$[ebp]
	mov	eax, DWORD PTR [edx+32]
	push	eax
	push	OFFSET $SG13721
	call	DWORD PTR __imp__strstr
	add	esp, 8
	test	eax, eax
	je	SHORT $LN121@fnSqlRetri

; 6133 :             {
; 6134 :                fnSqlDisplayQualMsg( lpView, lpQualView,

	push	OFFSET _szlQualAttrib
	push	0
	push	OFFSET $SG13722
	mov	ecx, DWORD PTR _lpQualView$[ebp]
	push	ecx
	mov	edx, DWORD PTR _lpView$[ebp]
	push	edx
	call	_fnSqlDisplayQualMsg
	add	esp, 20					; 00000014H

; 6135 :                                     "QualAttrib has AttributeName but does "
; 6136 :                                     "not have Value or SourceAttributeName, "
; 6137 :                                     "which are needed for the following comparison "
; 6138 :                                     "opererators: '<', '<=', '>', and'>='.",
; 6139 :                                     zERROR, szlQualAttrib );
; 6140 :                return( zCALL_ERROR );

	mov	eax, -16				; fffffff0H
	jmp	$LN1@fnSqlRetri
$LN121@fnSqlRetri:

; 6141 :             }
; 6142 : 
; 6143 :             // For databases that allow LEFT JOINs, qualification using a child
; 6144 :             // will be added via a join.  If the child qualification uses a
; 6145 :             // "IS NULL" on a non-key, the resulting join will create a match
; 6146 :             // for child entities that do not exist.  To fix this, we will also
; 6147 :             // make sure a key is non-null.
; 6148 :             if ( bUseLeftJoin &&
; 6149 :                  lpQualAttrib->lpViewEntity &&
; 6150 :                  lpQualAttrib->lpViewEntity != lpQualEntity->lpViewEntity &&
; 6151 :                  lpQualAttrib->lpViewEntity->uCardMin == 0 &&

	movzx	eax, BYTE PTR _bUseLeftJoin$[ebp]
	test	eax, eax
	je	$LN119@fnSqlRetri
	mov	ecx, DWORD PTR _lpQualAttrib$[ebp]
	cmp	DWORD PTR [ecx+12], 0
	je	SHORT $LN119@fnSqlRetri
	mov	edx, DWORD PTR _lpQualAttrib$[ebp]
	mov	eax, DWORD PTR _lpQualEntity$[ebp]
	mov	ecx, DWORD PTR [edx+12]
	cmp	ecx, DWORD PTR [eax+8]
	je	SHORT $LN119@fnSqlRetri
	mov	edx, DWORD PTR _lpQualAttrib$[ebp]
	mov	eax, DWORD PTR [edx+12]
	movzx	ecx, WORD PTR [eax+219]
	test	ecx, ecx
	jne	SHORT $LN119@fnSqlRetri
	mov	edx, DWORD PTR _lpQualAttrib$[ebp]
	mov	eax, DWORD PTR [edx+20]
	mov	ecx, DWORD PTR [eax+193]
	shr	ecx, 1
	and	ecx, 1
	jne	SHORT $LN119@fnSqlRetri

; 6152 :                  lpQualAttrib->lpViewAttrib->bKey == FALSE )
; 6153 :             {
; 6154 :                if ( zstrstr( "IS NULL", lpQualAttrib->szOper ) )

	mov	edx, DWORD PTR _lpQualAttrib$[ebp]
	mov	eax, DWORD PTR [edx+32]
	push	eax
	push	OFFSET $SG13725
	call	DWORD PTR __imp__strstr
	add	esp, 8
	test	eax, eax
	je	SHORT $LN119@fnSqlRetri

; 6155 :                {
; 6156 :                   fnAddCheckForNullKey( lpView, lpQualView, lpQualEntity,

	mov	ecx, DWORD PTR _lpFirstQualAttrib$[ebp]
	push	ecx
	mov	edx, DWORD PTR _lpQualAttrib$[ebp]
	push	edx
	mov	eax, DWORD PTR _lpQualEntity$[ebp]
	push	eax
	mov	ecx, DWORD PTR _lpQualView$[ebp]
	push	ecx
	mov	edx, DWORD PTR _lpView$[ebp]
	push	edx
	call	_fnAddCheckForNullKey
	add	esp, 20					; 00000014H
$LN119@fnSqlRetri:

; 6157 :                                         lpQualAttrib, lpFirstQualAttrib );
; 6158 :                }
; 6159 :             }
; 6160 :          }
; 6161 : 
; 6162 :          if ( lpQualAttrib->lpDataField == 0 &&

	mov	eax, DWORD PTR _lpQualAttrib$[ebp]
	cmp	DWORD PTR [eax+24], 0
	jne	SHORT $LN127@fnSqlRetri
	mov	ecx, DWORD PTR _lpQualAttrib$[ebp]
	cmp	DWORD PTR [ecx+40], 0
	jne	SHORT $LN128@fnSqlRetri
	mov	edx, DWORD PTR _lpQualAttrib$[ebp]
	cmp	DWORD PTR [edx+56], 0
	je	SHORT $LN127@fnSqlRetri
$LN128@fnSqlRetri:

; 6163 :               (lpQualAttrib->szValue || lpQualAttrib->lpSourceDataField) )
; 6164 :          {
; 6165 :             fnSqlDisplayQualMsg( lpView, lpQualView,

	push	OFFSET _szlQualAttrib
	push	0
	push	OFFSET $SG13728
	mov	eax, DWORD PTR _lpQualView$[ebp]
	push	eax
	mov	ecx, DWORD PTR _lpView$[ebp]
	push	ecx
	call	_fnSqlDisplayQualMsg
	add	esp, 20					; 00000014H

; 6166 :                                  "QualAttrib has Value or SourceAttributeName"
; 6167 :                                  " but does not have AttributeName.",
; 6168 :                                  zERROR, szlQualAttrib );
; 6169 :             return( zCALL_ERROR );

	mov	eax, -16				; fffffff0H
	jmp	$LN1@fnSqlRetri
$LN127@fnSqlRetri:

; 6170 :          }
; 6171 : 
; 6172 :          // If we're still think we have a unique qualification check to make
; 6173 :          // sure that the oper is '='.
; 6174 :          if ( lpQualEntity->bUniqueQualification )

	mov	edx, DWORD PTR _lpQualEntity$[ebp]
	mov	eax, DWORD PTR [edx+28]
	shr	eax, 4
	and	eax, 1
	je	$LN91@fnSqlRetri

; 6175 :          {
; 6176 :             if ( zstrcmp( lpQualAttrib->szOper, "=" ) != 0 )

	mov	ecx, DWORD PTR _lpQualAttrib$[ebp]
	mov	edx, DWORD PTR [ecx+32]
	movsx	eax, BYTE PTR [edx]
	movsx	ecx, BYTE PTR $SG13731
	cmp	eax, ecx
	jne	SHORT $LN176@fnSqlRetri
	push	OFFSET $SG13732
	mov	edx, DWORD PTR _lpQualAttrib$[ebp]
	mov	eax, DWORD PTR [edx+32]
	push	eax
	call	_strcmp
	add	esp, 8
	mov	DWORD PTR tv1024[ebp], eax
	jmp	SHORT $LN177@fnSqlRetri
$LN176@fnSqlRetri:
	mov	ecx, DWORD PTR _lpQualAttrib$[ebp]
	mov	edx, DWORD PTR [ecx+32]
	movsx	eax, BYTE PTR [edx]
	movsx	ecx, BYTE PTR $SG13733
	sub	eax, ecx
	test	eax, eax
	jle	SHORT $LN174@fnSqlRetri
	mov	DWORD PTR tv1023[ebp], 1
	jmp	SHORT $LN175@fnSqlRetri
$LN174@fnSqlRetri:
	mov	DWORD PTR tv1023[ebp], -1
$LN175@fnSqlRetri:
	mov	edx, DWORD PTR tv1023[ebp]
	mov	DWORD PTR tv1024[ebp], edx
$LN177@fnSqlRetri:
	cmp	DWORD PTR tv1024[ebp], 0
	je	SHORT $LN91@fnSqlRetri

; 6177 :                lpQualEntity->bUniqueQualification = FALSE;

	mov	eax, DWORD PTR _lpQualEntity$[ebp]
	mov	ecx, DWORD PTR [eax+28]
	and	ecx, -17				; ffffffefH
	mov	edx, DWORD PTR _lpQualEntity$[ebp]
	mov	DWORD PTR [edx+28], ecx
$LN91@fnSqlRetri:

; 6178 :          }
; 6179 :       }
; 6180 : 
; 6181 :       // =================================================================
; 6182 :       // ===
; 6183 :       // === Check to see if there are sub-qualifications for the current
; 6184 :       // === QualAttrib.  Retrieve the sub-qualifications if they are there.
; 6185 :       // ===
; 6186 :       // =================================================================
; 6187 :       if ( CheckExistenceOfEntity( lpQualView,
; 6188 :                                    szlSubQualAttrib ) == zCURSOR_SET )

	push	OFFSET _szlSubQualAttrib
	mov	eax, DWORD PTR _lpQualView$[ebp]
	push	eax
	call	_CheckExistenceOfEntity@8
	movsx	ecx, ax
	test	ecx, ecx
	jne	$LN131@fnSqlRetri

; 6189 :       {
; 6190 :          zVIEW lpSubQualView;
; 6191 : 
; 6192 :          CreateViewFromViewForTask( &lpSubQualView, lpQualView, 0 );

	push	0
	mov	edx, DWORD PTR _lpQualView$[ebp]
	push	edx
	lea	eax, DWORD PTR _lpSubQualView$5[ebp]
	push	eax
	call	_CreateViewFromViewForTask@12

; 6193 :          nRC = SetViewToSubobject( lpSubQualView, szlSubQualAttrib );

	push	OFFSET _szlSubQualAttrib
	mov	ecx, DWORD PTR _lpSubQualView$5[ebp]
	push	ecx
	call	_SetViewToSubobject@8
	mov	WORD PTR _nRC$[ebp], ax

; 6194 :          if ( nRC < 0 )

	movsx	edx, WORD PTR _nRC$[ebp]
	test	edx, edx
	jge	SHORT $LN132@fnSqlRetri

; 6195 :          {
; 6196 :             fnSqlDisplayQualMsg( lpView, lpQualView,

	push	OFFSET _szlQualAttrib
	push	0
	push	OFFSET $SG13736
	mov	eax, DWORD PTR _lpQualView$[ebp]
	push	eax
	mov	ecx, DWORD PTR _lpView$[ebp]
	push	ecx
	call	_fnSqlDisplayQualMsg
	add	esp, 20					; 00000014H

; 6197 :                                  "Internal error setting view to Subobject.",
; 6198 :                                  zERROR, szlQualAttrib );
; 6199 :             return( zCALL_ERROR );

	mov	eax, -16				; fffffff0H
	jmp	$LN1@fnSqlRetri
$LN132@fnSqlRetri:

; 6200 :          }
; 6201 : 
; 6202 :          // Call fnSqlRetrieveQualAttrib recursivly to load sub-qual.
; 6203 :          nRC = fnSqlRetrieveQualAttrib( lpView, lpViewOD,

	mov	edx, DWORD PTR _lpBoundList$[ebp]
	push	edx
	mov	eax, DWORD PTR _lpQualAttrib$[ebp]
	add	eax, 8
	push	eax
	mov	ecx, DWORD PTR _lpQualEntity$[ebp]
	push	ecx
	mov	edx, DWORD PTR _lpSubQualView$5[ebp]
	push	edx
	mov	eax, DWORD PTR _lpViewOD$[ebp]
	push	eax
	mov	ecx, DWORD PTR _lpView$[ebp]
	push	ecx
	call	_fnSqlRetrieveQualAttrib
	add	esp, 24					; 00000018H
	mov	WORD PTR _nRC$[ebp], ax

; 6204 :                                         lpSubQualView, lpQualEntity,
; 6205 :                                         &lpQualAttrib->lpFirstSubQualAttrib,
; 6206 :                                         lpBoundList );
; 6207 :          DropView( lpSubQualView ); // Don't need view anymore.

	mov	edx, DWORD PTR _lpSubQualView$5[ebp]
	push	edx
	call	_DropView@4

; 6208 :          if ( nRC < 0 )

	movsx	eax, WORD PTR _nRC$[ebp]
	test	eax, eax
	jge	SHORT $LN131@fnSqlRetri

; 6209 :             return( nRC );

	mov	ax, WORD PTR _nRC$[ebp]
	jmp	$LN1@fnSqlRetri
$LN131@fnSqlRetri:

; 6210 :       }
; 6211 : 
; 6212 :       // Turn on bQualUsesChildEntity.
; 6213 :       lpQualEntity->bQualUsesChildEntity =

	mov	ecx, DWORD PTR _lpQualEntity$[ebp]
	mov	edx, DWORD PTR [ecx+28]
	and	edx, 1
	jne	SHORT $LN178@fnSqlRetri
	movzx	eax, BYTE PTR _bQualUsesChildEntity$[ebp]
	test	eax, eax
	jne	SHORT $LN178@fnSqlRetri
	mov	DWORD PTR tv1064[ebp], 0
	jmp	SHORT $LN179@fnSqlRetri
$LN178@fnSqlRetri:
	mov	DWORD PTR tv1064[ebp], 1
$LN179@fnSqlRetri:
	mov	ecx, DWORD PTR tv1064[ebp]
	and	ecx, 1
	mov	edx, DWORD PTR _lpQualEntity$[ebp]
	mov	eax, DWORD PTR [edx+28]
	and	eax, -2					; fffffffeH
	or	eax, ecx
	mov	ecx, DWORD PTR _lpQualEntity$[ebp]
	mov	DWORD PTR [ecx+28], eax

; 6214 :                   lpQualEntity->bQualUsesChildEntity || bQualUsesChildEntity;
; 6215 : 
; 6216 :    } // for each lpQualView.QualAttrib

	jmp	$LN2@fnSqlRetri
$LN3@fnSqlRetri:

; 6217 : 
; 6218 :    // =================================================================
; 6219 :    // ===
; 6220 :    // === End of attribute loop.
; 6221 :    // ===
; 6222 :    // =================================================================
; 6223 : 
; 6224 :    // Go through all the qual attribs and check to see if any are seperated
; 6225 :    // by an "OR".  Say we have the following object:
; 6226 :    //
; 6227 :    //      A
; 6228 :    //      /\
; 6229 :    //     B  C
; 6230 :    //
; 6231 :    // (B and C have 0-to-many relationships with A).
; 6232 :    // and the user qualified A with "B.col = 1 OR C.col = 2".  This causes
; 6233 :    // the following to be generated:
; 6234 :    //
; 6235 :    //    SELECT A-columns
; 6236 :    //    FROM A, B, C
; 6237 :    //    WHERE ( (A.fk_b = B.key AND a.fk_c = C.key) AND
; 6238 :    //            (b.key = 1 OR C.key = 2) )
; 6239 :    //
; 6240 :    // This is a problem because if either B or C doesn't exist then the the
; 6241 :    // select doesn't find anything because the join fails to find any children
; 6242 :    // that match the foreign keys.
; 6243 :    //
; 6244 :    // NOTE: This is only a problem with databases that don't support LEFT
; 6245 :    // JOINs.
; 6246 :    //
; 6247 :    // To solve this we need to go through each of the qual attribs and see if:
; 6248 :    //    o  They involve qualification on multiple children.
; 6249 :    //    o  There is an "OR" operation.
; 6250 :    // Then convert each of the child quals to use an EXIST clause.
; 6251 :    if ( bUseLeftJoin == FALSE && bQualUsesChildEntity && bQualUsesOR_Oper )

	movzx	edx, BYTE PTR _bUseLeftJoin$[ebp]
	test	edx, edx
	jne	$LN134@fnSqlRetri
	movzx	eax, BYTE PTR _bQualUsesChildEntity$[ebp]
	test	eax, eax
	je	$LN134@fnSqlRetri
	movzx	ecx, BYTE PTR _bQualUsesOR_Oper$[ebp]
	test	ecx, ecx
	je	$LN134@fnSqlRetri

; 6252 :    {
; 6253 :       zBOOL        bConvertNeeded = FALSE;

	mov	BYTE PTR _bConvertNeeded$13[ebp], 0

; 6254 :       LPQUALATTRIB lpPrevQualAttrib = 0;

	mov	DWORD PTR _lpPrevQualAttrib$10[ebp], 0

; 6255 : 
; 6256 :       // We still don't know if there are multiple children.  Check for it.
; 6257 :       for ( lpQualAttrib = *lpFirstQualAttrib;

	mov	edx, DWORD PTR _lpFirstQualAttrib$[ebp]
	mov	eax, DWORD PTR [edx]
	mov	DWORD PTR _lpQualAttrib$[ebp], eax
	jmp	SHORT $LN32@fnSqlRetri
$LN30@fnSqlRetri:

; 6259 :             lpQualAttrib = lpQualAttrib->lpNextQualAttrib )

	mov	ecx, DWORD PTR _lpQualAttrib$[ebp]
	mov	edx, DWORD PTR [ecx+4]
	mov	DWORD PTR _lpQualAttrib$[ebp], edx
$LN32@fnSqlRetri:

; 6258 :             lpQualAttrib;

	cmp	DWORD PTR _lpQualAttrib$[ebp], 0
	je	SHORT $LN31@fnSqlRetri

; 6260 :       {
; 6261 :          // No entity for this qual attrib?  Skip it.
; 6262 :          if ( lpQualAttrib->lpViewEntity == 0 )

	mov	eax, DWORD PTR _lpQualAttrib$[ebp]
	cmp	DWORD PTR [eax+12], 0
	jne	SHORT $LN135@fnSqlRetri

; 6263 :             continue;

	jmp	SHORT $LN30@fnSqlRetri
$LN135@fnSqlRetri:

; 6264 : 
; 6265 :          // Entity for qual attrib is entity we are loading (i.e. the root)
; 6266 :          // then skip it (we only care about child entities).
; 6267 :          if ( lpQualAttrib->lpViewEntity == lpQualEntity->lpViewEntity )

	mov	ecx, DWORD PTR _lpQualAttrib$[ebp]
	mov	edx, DWORD PTR _lpQualEntity$[ebp]
	mov	eax, DWORD PTR [ecx+12]
	cmp	eax, DWORD PTR [edx+8]
	jne	SHORT $LN136@fnSqlRetri

; 6268 :             continue;

	jmp	SHORT $LN30@fnSqlRetri
$LN136@fnSqlRetri:

; 6269 : 
; 6270 :          // If the operation already is an EXISTS operation don't bother.
; 6271 :          if ( lpQualAttrib->bExists || lpQualAttrib->bDoesNotExist )

	mov	ecx, DWORD PTR _lpQualAttrib$[ebp]
	mov	edx, DWORD PTR [ecx+64]
	and	edx, 1
	jne	SHORT $LN138@fnSqlRetri
	mov	eax, DWORD PTR _lpQualAttrib$[ebp]
	mov	ecx, DWORD PTR [eax+64]
	shr	ecx, 1
	and	ecx, 1
	je	SHORT $LN137@fnSqlRetri
$LN138@fnSqlRetri:

; 6272 :             continue;

	jmp	SHORT $LN30@fnSqlRetri
$LN137@fnSqlRetri:

; 6273 : 
; 6274 :          // If lpPrevQualEntity is 0 then this is the first child we have
; 6275 :          // found so set it and go on to the next qual attrib.
; 6276 :          if ( lpPrevQualAttrib == 0 )

	cmp	DWORD PTR _lpPrevQualAttrib$10[ebp], 0
	jne	SHORT $LN139@fnSqlRetri

; 6277 :          {
; 6278 :             lpPrevQualAttrib = lpQualAttrib;

	mov	edx, DWORD PTR _lpQualAttrib$[ebp]
	mov	DWORD PTR _lpPrevQualAttrib$10[ebp], edx

; 6279 :             continue;

	jmp	SHORT $LN30@fnSqlRetri
$LN139@fnSqlRetri:

; 6280 :          }
; 6281 : 
; 6282 :          // If we have multiple child entities involved in the qualification
; 6283 :          // then we need to convert the QualAttrib.
; 6284 :          if ( lpPrevQualAttrib->lpViewEntity != lpQualAttrib->lpViewEntity )

	mov	eax, DWORD PTR _lpPrevQualAttrib$10[ebp]
	mov	ecx, DWORD PTR _lpQualAttrib$[ebp]
	mov	edx, DWORD PTR [eax+12]
	cmp	edx, DWORD PTR [ecx+12]
	je	SHORT $LN140@fnSqlRetri

; 6285 :          {
; 6286 :             bConvertNeeded = TRUE;

	mov	BYTE PTR _bConvertNeeded$13[ebp], 1

; 6287 :             break;

	jmp	SHORT $LN31@fnSqlRetri
$LN140@fnSqlRetri:

; 6288 :          }
; 6289 : 
; 6290 :       } // for each lpQualAttrib...

	jmp	$LN30@fnSqlRetri
$LN31@fnSqlRetri:

; 6291 : 
; 6292 :       // Now that we know if we need to convert child qualification to use
; 6293 :       // EXISTS do so now.
; 6294 :       if ( bConvertNeeded )

	movzx	eax, BYTE PTR _bConvertNeeded$13[ebp]
	test	eax, eax
	je	$LN134@fnSqlRetri

; 6295 :       {
; 6296 :          for ( lpPrevQualAttrib = 0, lpQualAttrib = *lpFirstQualAttrib;

	mov	DWORD PTR _lpPrevQualAttrib$10[ebp], 0
	mov	ecx, DWORD PTR _lpFirstQualAttrib$[ebp]
	mov	edx, DWORD PTR [ecx]
	mov	DWORD PTR _lpQualAttrib$[ebp], edx
	jmp	SHORT $LN35@fnSqlRetri
$LN33@fnSqlRetri:

; 6298 :                lpPrevQualAttrib = lpQualAttrib,

	mov	eax, DWORD PTR _lpQualAttrib$[ebp]
	mov	DWORD PTR _lpPrevQualAttrib$10[ebp], eax
	mov	ecx, DWORD PTR _lpQualAttrib$[ebp]
	mov	edx, DWORD PTR [ecx+4]
	mov	DWORD PTR _lpQualAttrib$[ebp], edx
$LN35@fnSqlRetri:

; 6297 :                lpQualAttrib;

	cmp	DWORD PTR _lpQualAttrib$[ebp], 0
	je	$LN34@fnSqlRetri

; 6299 :                  lpQualAttrib = lpQualAttrib->lpNextQualAttrib )
; 6300 :          {
; 6301 :             LPQUALATTRIB lpNewQualAttrib = 0;

	mov	DWORD PTR _lpNewQualAttrib$7[ebp], 0

; 6302 : 
; 6303 :             // No entity for this qual attrib?  Skip it.
; 6304 :             if ( lpQualAttrib->lpViewEntity == 0 )

	mov	eax, DWORD PTR _lpQualAttrib$[ebp]
	cmp	DWORD PTR [eax+12], 0
	jne	SHORT $LN142@fnSqlRetri

; 6305 :                continue;

	jmp	SHORT $LN33@fnSqlRetri
$LN142@fnSqlRetri:

; 6306 : 
; 6307 :             // Entity for qual attrib is entity we are loading (i.e. the root)
; 6308 :             // then skip it (we only care about child entities).
; 6309 :             if ( lpQualAttrib->lpViewEntity == lpQualEntity->lpViewEntity )

	mov	ecx, DWORD PTR _lpQualAttrib$[ebp]
	mov	edx, DWORD PTR _lpQualEntity$[ebp]
	mov	eax, DWORD PTR [ecx+12]
	cmp	eax, DWORD PTR [edx+8]
	jne	SHORT $LN143@fnSqlRetri

; 6310 :                continue;

	jmp	SHORT $LN33@fnSqlRetri
$LN143@fnSqlRetri:

; 6311 : 
; 6312 :             // If the operation already is and EXISTS operation don't bother.
; 6313 :             if ( lpQualAttrib->bExists || lpQualAttrib->bDoesNotExist )

	mov	ecx, DWORD PTR _lpQualAttrib$[ebp]
	mov	edx, DWORD PTR [ecx+64]
	and	edx, 1
	jne	SHORT $LN145@fnSqlRetri
	mov	eax, DWORD PTR _lpQualAttrib$[ebp]
	mov	ecx, DWORD PTR [eax+64]
	shr	ecx, 1
	and	ecx, 1
	je	SHORT $LN144@fnSqlRetri
$LN145@fnSqlRetri:

; 6314 :                continue;

	jmp	SHORT $LN33@fnSqlRetri
$LN144@fnSqlRetri:

; 6315 : 
; 6316 :             // We don't care about entities that have a min cardinality of 1
; 6317 :             // because there will always be an occurence of the child entity.
; 6318 :             if ( lpQualAttrib->lpViewEntity->uCardMin == 1 )

	mov	edx, DWORD PTR _lpQualAttrib$[ebp]
	mov	eax, DWORD PTR [edx+12]
	movzx	ecx, WORD PTR [eax+219]
	cmp	ecx, 1
	jne	SHORT $LN146@fnSqlRetri

; 6319 :                continue;

	jmp	$LN33@fnSqlRetri
$LN146@fnSqlRetri:

; 6320 : 
; 6321 :             // =========================================================
; 6322 :             // If we get here then lpQualAttrib fits all the criteria and
; 6323 :             // needs to be converted to use an EXISTS clause.
; 6324 :             // =========================================================
; 6325 : 
; 6326 :             // First create the new EXISTS qual attrib in front of the
; 6327 :             // current qual attrib.
; 6328 :             if ( fnCreateQualAttrib( lpView, lpQualView,
; 6329 :                                      lpPrevQualAttrib ?
; 6330 :                                        &lpPrevQualAttrib->lpNextQualAttrib :
; 6331 :                                        lpFirstQualAttrib,
; 6332 :                                      &lpNewQualAttrib,
; 6333 :                                      lpQualAttrib->lpViewEntity,
; 6334 :                                      0, "EXISTS", 0 ) != 0 )

	cmp	DWORD PTR _lpPrevQualAttrib$10[ebp], 0
	je	SHORT $LN180@fnSqlRetri
	mov	edx, DWORD PTR _lpPrevQualAttrib$10[ebp]
	add	edx, 4
	mov	DWORD PTR tv1122[ebp], edx
	jmp	SHORT $LN181@fnSqlRetri
$LN180@fnSqlRetri:
	mov	eax, DWORD PTR _lpFirstQualAttrib$[ebp]
	mov	DWORD PTR tv1122[ebp], eax
$LN181@fnSqlRetri:
	push	0
	push	OFFSET $SG13752
	push	0
	mov	ecx, DWORD PTR _lpQualAttrib$[ebp]
	mov	edx, DWORD PTR [ecx+12]
	push	edx
	lea	eax, DWORD PTR _lpNewQualAttrib$7[ebp]
	push	eax
	mov	ecx, DWORD PTR tv1122[ebp]
	push	ecx
	mov	edx, DWORD PTR _lpQualView$[ebp]
	push	edx
	mov	eax, DWORD PTR _lpView$[ebp]
	push	eax
	call	_fnCreateQualAttrib
	add	esp, 32					; 00000020H
	movsx	ecx, ax
	test	ecx, ecx
	je	SHORT $LN147@fnSqlRetri

; 6335 :                return( zCALL_ERROR );

	mov	eax, -16				; fffffff0H
	jmp	$LN1@fnSqlRetri
$LN147@fnSqlRetri:

; 6336 : 
; 6337 :             // Now move qual attrib so that it is a sub-qual attrib of the
; 6338 :             // exists qual attrib.
; 6339 :             lpNewQualAttrib->lpFirstSubQualAttrib = lpQualAttrib;

	mov	edx, DWORD PTR _lpNewQualAttrib$7[ebp]
	mov	eax, DWORD PTR _lpQualAttrib$[ebp]
	mov	DWORD PTR [edx+8], eax

; 6340 :             lpNewQualAttrib->lpNextQualAttrib     = lpQualAttrib->lpNextQualAttrib;

	mov	ecx, DWORD PTR _lpNewQualAttrib$7[ebp]
	mov	edx, DWORD PTR _lpQualAttrib$[ebp]
	mov	eax, DWORD PTR [edx+4]
	mov	DWORD PTR [ecx+4], eax

; 6341 :             lpQualAttrib->lpNextQualAttrib        = 0;

	mov	ecx, DWORD PTR _lpQualAttrib$[ebp]
	mov	DWORD PTR [ecx+4], 0

; 6342 : 
; 6343 :             // Qualification now uses a subselect so set flag accordingly.
; 6344 :             lpQualEntity->bContainsSubselect = TRUE;

	mov	edx, DWORD PTR _lpQualEntity$[ebp]
	mov	eax, DWORD PTR [edx+28]
	or	eax, 2
	mov	ecx, DWORD PTR _lpQualEntity$[ebp]
	mov	DWORD PTR [ecx+28], eax

; 6345 : 
; 6346 :             // Last thing...reset lpQualAttrib to lpNewQualAttrib so that the
; 6347 :             // next iteration of the 'for' loop works correctly.
; 6348 :             lpQualAttrib = lpNewQualAttrib;

	mov	edx, DWORD PTR _lpNewQualAttrib$7[ebp]
	mov	DWORD PTR _lpQualAttrib$[ebp], edx

; 6349 : 
; 6350 :          } // For each lpQualAttrib...

	jmp	$LN33@fnSqlRetri
$LN34@fnSqlRetri:

; 6351 : 
; 6352 :          // We have to go through the qual attribs again and reset the
; 6353 :          // bContainsChildQual flag.
; 6354 :          lpQualEntity->bQualUsesChildEntity = FALSE;

	mov	eax, DWORD PTR _lpQualEntity$[ebp]
	mov	ecx, DWORD PTR [eax+28]
	and	ecx, -2					; fffffffeH
	mov	edx, DWORD PTR _lpQualEntity$[ebp]
	mov	DWORD PTR [edx+28], ecx

; 6355 :          for ( lpQualAttrib = *lpFirstQualAttrib;

	mov	eax, DWORD PTR _lpFirstQualAttrib$[ebp]
	mov	ecx, DWORD PTR [eax]
	mov	DWORD PTR _lpQualAttrib$[ebp], ecx
	jmp	SHORT $LN38@fnSqlRetri
$LN36@fnSqlRetri:

; 6357 :                lpQualAttrib = lpQualAttrib->lpNextQualAttrib )

	mov	edx, DWORD PTR _lpQualAttrib$[ebp]
	mov	eax, DWORD PTR [edx+4]
	mov	DWORD PTR _lpQualAttrib$[ebp], eax
$LN38@fnSqlRetri:

; 6356 :                lpQualAttrib;

	cmp	DWORD PTR _lpQualAttrib$[ebp], 0
	je	SHORT $LN134@fnSqlRetri

; 6358 :          {
; 6359 :             // If there is no entity for the qual attrib skip it.
; 6360 :             if ( lpQualAttrib->lpViewEntity == 0 )

	mov	ecx, DWORD PTR _lpQualAttrib$[ebp]
	cmp	DWORD PTR [ecx+12], 0
	jne	SHORT $LN148@fnSqlRetri

; 6361 :                continue;

	jmp	SHORT $LN36@fnSqlRetri
$LN148@fnSqlRetri:

; 6362 : 
; 6363 :             // If entity for qual attrib is same as entity for qual entity
; 6364 :             // then qual attrib is not a child so skip it.
; 6365 :             if ( lpQualAttrib->lpViewEntity == lpQualEntity->lpViewEntity )

	mov	edx, DWORD PTR _lpQualAttrib$[ebp]
	mov	eax, DWORD PTR _lpQualEntity$[ebp]
	mov	ecx, DWORD PTR [edx+12]
	cmp	ecx, DWORD PTR [eax+8]
	jne	SHORT $LN149@fnSqlRetri

; 6366 :                continue;

	jmp	SHORT $LN36@fnSqlRetri
$LN149@fnSqlRetri:

; 6367 : 
; 6368 :             // If there is no data field for the qual attrib then the OPER
; 6369 :             // must be EXISTS or similair so skip it.
; 6370 :             if ( lpQualAttrib->lpDataField == 0 )

	mov	edx, DWORD PTR _lpQualAttrib$[ebp]
	cmp	DWORD PTR [edx+24], 0
	jne	SHORT $LN150@fnSqlRetri

; 6371 :                continue;

	jmp	SHORT $LN36@fnSqlRetri
$LN150@fnSqlRetri:

; 6372 : 
; 6373 :             lpQualEntity->bQualUsesChildEntity = TRUE;

	mov	eax, DWORD PTR _lpQualEntity$[ebp]
	mov	ecx, DWORD PTR [eax+28]
	or	ecx, 1
	mov	edx, DWORD PTR _lpQualEntity$[ebp]
	mov	DWORD PTR [edx+28], ecx

; 6374 :             break;

	jmp	SHORT $LN134@fnSqlRetri

; 6375 : 
; 6376 :          } // For each lpQualAttrib...

	jmp	SHORT $LN36@fnSqlRetri
$LN134@fnSqlRetri:

; 6377 : 
; 6378 :       } // if ( bConvertNeeded )...
; 6379 : 
; 6380 :    } // if ( bQualUsesChildEntity && bQualUsesOR_Oper )...
; 6381 : 
; 6382 :    // Now check to make sure that all the QualAttribs use the same database
; 6383 :    // as the EntitySpec.
; 6384 :    if ( *lpQualEntity->lpViewEntity->szDBName )

	mov	eax, DWORD PTR _lpQualEntity$[ebp]
	mov	ecx, DWORD PTR [eax+8]
	mov	edx, 1
	imul	eax, edx, 0
	movsx	ecx, BYTE PTR [ecx+eax+80]
	test	ecx, ecx
	je	SHORT $LN151@fnSqlRetri

; 6385 :    {
; 6386 :       // fnSqlVerifyDataBase with the DBName in lpViewEntity.
; 6387 :       nRC = fnSqlVerifyDataBase( lpQualEntity->lpFirstQualAttrib,

	push	0
	mov	edx, DWORD PTR _lpQualEntity$[ebp]
	mov	eax, DWORD PTR [edx+8]
	add	eax, 80					; 00000050H
	push	eax
	mov	ecx, DWORD PTR _lpQualEntity$[ebp]
	mov	edx, DWORD PTR [ecx+12]
	push	edx
	call	_fnSqlVerifyDataBase
	add	esp, 12					; 0000000cH
	mov	WORD PTR _nRC$[ebp], ax

; 6388 :                                  lpQualEntity->lpViewEntity->szDBName,
; 6389 :                                  FALSE );
; 6390 :    }

	jmp	SHORT $LN152@fnSqlRetri
$LN151@fnSqlRetri:

; 6391 :    else
; 6392 :       // fnSqlVerifyDataBase with the default DBName.
; 6393 :       nRC = fnSqlVerifyDataBase( lpQualEntity->lpFirstQualAttrib,

	push	1
	mov	eax, DWORD PTR _lpViewOD$[ebp]
	add	eax, 43					; 0000002bH
	push	eax
	mov	ecx, DWORD PTR _lpQualEntity$[ebp]
	mov	edx, DWORD PTR [ecx+12]
	push	edx
	call	_fnSqlVerifyDataBase
	add	esp, 12					; 0000000cH
	mov	WORD PTR _nRC$[ebp], ax
$LN152@fnSqlRetri:

; 6394 :                                  lpViewOD->szDfltDBName, TRUE );
; 6395 : 
; 6396 :    if ( nRC == 0 )

	movsx	eax, WORD PTR _nRC$[ebp]
	test	eax, eax
	jne	SHORT $LN153@fnSqlRetri

; 6397 :    {
; 6398 :       fnSqlDisplayQualMsg( lpView, lpQualView,

	push	OFFSET _szlQualAttrib
	push	0
	push	OFFSET $SG13759
	mov	ecx, DWORD PTR _lpQualView$[ebp]
	push	ecx
	mov	edx, DWORD PTR _lpView$[ebp]
	push	edx
	call	_fnSqlDisplayQualMsg
	add	esp, 20					; 00000014H

; 6399 :                            "The QualAttrib used to qualify EntitySpec "
; 6400 :                            "causes two tables from different databases "
; 6401 :                            "to be joined.  This is invalid.",
; 6402 :                            zERROR, szlQualAttrib );
; 6403 :       return( zCALL_ERROR );

	mov	eax, -16				; fffffff0H
	jmp	SHORT $LN1@fnSqlRetri
$LN153@fnSqlRetri:

; 6404 :    }
; 6405 : 
; 6406 :    // After going through all QualAttribs, the ParenCount must be zero. If
; 6407 :    // it isn't then there are too many left parens (if nParenCount > 0 )
; 6408 :    // or too may right parens (if nParenCount < 0).
; 6409 :    if ( nParenCount != 0 )

	movsx	eax, WORD PTR _nParenCount$[ebp]
	test	eax, eax
	je	SHORT $LN154@fnSqlRetri

; 6410 :    {
; 6411 :       fnSqlDisplayQualMsg( lpView, lpQualView,

	push	0
	push	0
	push	OFFSET $SG13761
	mov	ecx, DWORD PTR _lpQualView$[ebp]
	push	ecx
	mov	edx, DWORD PTR _lpView$[ebp]
	push	edx
	call	_fnSqlDisplayQualMsg
	add	esp, 20					; 00000014H

; 6412 :                            "Parens for all QualAttrib.Oper under "
; 6413 :                            "EntitySpec do not match.", zERROR, 0 );
; 6414 :       DisplayObjectInstance( lpQualView, szlEntitySpec, 0 );

	push	0
	push	OFFSET _szlEntitySpec
	mov	eax, DWORD PTR _lpQualView$[ebp]
	push	eax
	call	_DisplayObjectInstance@12

; 6415 :       return( zCALL_ERROR );

	mov	eax, -16				; fffffff0H
	jmp	SHORT $LN1@fnSqlRetri
$LN154@fnSqlRetri:

; 6416 :    }
; 6417 : 
; 6418 :    return( 0 );

	xor	eax, eax
$LN1@fnSqlRetri:

; 6419 : 
; 6420 : }  /* fnSqlRetrieveQualAttrib */

	mov	ecx, DWORD PTR __$ArrayPad$[ebp]
	xor	ecx, ebp
	call	@__security_check_cookie@4
	mov	esp, ebp
	pop	ebp
	ret	0
_fnSqlRetrieveQualAttrib ENDP
_TEXT	ENDS
; Function compile flags: /Odtp
; File c:\10c\a\oe\kzhsqlga.c
_TEXT	SEGMENT
_lpViewAttrib$ = -12					; size = 4
_lpNewQualAttrib$ = -8					; size = 4
_lpDataField$ = -4					; size = 4
_lpView$ = 8						; size = 4
_lpQualView$ = 12					; size = 4
_lpQualEntity$ = 16					; size = 4
_lpQualAttrib$ = 20					; size = 4
_lpFirstQualAttrib$ = 24				; size = 4
_fnAddCheckForNullKey PROC

; 5268 : {

	push	ebp
	mov	ebp, esp
	sub	esp, 12					; 0000000cH

; 5269 :    LPQUALATTRIB lpNewQualAttrib;
; 5270 :    LPVIEWATTRIB lpViewAttrib;
; 5271 :    LPDATAFIELD  lpDataField;
; 5272 : 
; 5273 :    // Copy the lpQualAttrib.  In a minute we're going to change lpQualAttrib
; 5274 :    // to be a closing paren.
; 5275 :    fnCreateQualAttrib( lpView, lpQualView, lpFirstQualAttrib,

	push	0
	mov	eax, DWORD PTR _lpQualAttrib$[ebp]
	mov	ecx, DWORD PTR [eax+32]
	push	ecx
	mov	edx, DWORD PTR _lpQualAttrib$[ebp]
	mov	eax, DWORD PTR [edx+24]
	push	eax
	mov	ecx, DWORD PTR _lpQualAttrib$[ebp]
	mov	edx, DWORD PTR [ecx+12]
	push	edx
	lea	eax, DWORD PTR _lpNewQualAttrib$[ebp]
	push	eax
	mov	ecx, DWORD PTR _lpFirstQualAttrib$[ebp]
	push	ecx
	mov	edx, DWORD PTR _lpQualView$[ebp]
	push	edx
	mov	eax, DWORD PTR _lpView$[ebp]
	push	eax
	call	_fnCreateQualAttrib
	add	esp, 32					; 00000020H

; 5276 :                        &lpNewQualAttrib, lpQualAttrib->lpViewEntity,
; 5277 :                        lpQualAttrib->lpDataField, lpQualAttrib->szOper, 0 );
; 5278 : 
; 5279 :    // Find a key attrib for the entity. Note that any key attrib will
; 5280 :    // do (even if it's a multi-part key) because we only need to check if
; 5281 :    // the key is NULL.
; 5282 :    for ( lpDataField = zGETPTR( lpQualAttrib->lpDataRecord->hFirstDataField );

	mov	ecx, DWORD PTR _lpQualAttrib$[ebp]
	mov	edx, DWORD PTR [ecx+16]
	mov	eax, DWORD PTR [edx+10]
	push	eax
	call	_SysGetPointerFromHandle@4
	mov	DWORD PTR _lpDataField$[ebp], eax
	jmp	SHORT $LN4@fnAddCheck
$LN2@fnAddCheck:

; 5284 :          lpDataField = zGETPTR( lpDataField->hNextDataField ) )

	mov	ecx, DWORD PTR _lpDataField$[ebp]
	mov	edx, DWORD PTR [ecx+2]
	push	edx
	call	_SysGetPointerFromHandle@4
	mov	DWORD PTR _lpDataField$[ebp], eax
$LN4@fnAddCheck:

; 5283 :          lpDataField;

	cmp	DWORD PTR _lpDataField$[ebp], 0
	je	SHORT $LN3@fnAddCheck

; 5285 :    {
; 5286 :       lpViewAttrib = zGETPTR( lpDataField->hViewAttrib );

	mov	eax, DWORD PTR _lpDataField$[ebp]
	mov	ecx, DWORD PTR [eax+6]
	push	ecx
	call	_SysGetPointerFromHandle@4
	mov	DWORD PTR _lpViewAttrib$[ebp], eax

; 5287 :       if ( lpViewAttrib->bKey )

	mov	edx, DWORD PTR _lpViewAttrib$[ebp]
	mov	eax, DWORD PTR [edx+193]
	shr	eax, 1
	and	eax, 1
	je	SHORT $LN5@fnAddCheck

; 5288 :          break;

	jmp	SHORT $LN3@fnAddCheck
$LN5@fnAddCheck:

; 5289 :    }

	jmp	SHORT $LN2@fnAddCheck
$LN3@fnAddCheck:

; 5290 : 
; 5291 :    // Change lpQualAttrib to a close paren.
; 5292 :    lpQualAttrib->lpViewEntity = 0;

	mov	ecx, DWORD PTR _lpQualAttrib$[ebp]
	mov	DWORD PTR [ecx+12], 0

; 5293 :    lpQualAttrib->lpDataRecord = 0;

	mov	edx, DWORD PTR _lpQualAttrib$[ebp]
	mov	DWORD PTR [edx+16], 0

; 5294 :    lpQualAttrib->lpViewAttrib = 0;

	mov	eax, DWORD PTR _lpQualAttrib$[ebp]
	mov	DWORD PTR [eax+20], 0

; 5295 :    lpQualAttrib->lpDataField  = 0;

	mov	ecx, DWORD PTR _lpQualAttrib$[ebp]
	mov	DWORD PTR [ecx+24], 0

; 5296 :    fnAllocOper( lpQualAttrib, ")" );

	push	OFFSET $SG13432
	mov	edx, DWORD PTR _lpQualAttrib$[ebp]
	push	edx
	call	_fnAllocOper
	add	esp, 8

; 5297 : 
; 5298 :    // Add the AND
; 5299 :    fnCreateQualAttrib( lpView, lpQualView, lpFirstQualAttrib,

	push	0
	push	OFFSET $SG13433
	push	0
	push	0
	lea	eax, DWORD PTR _lpNewQualAttrib$[ebp]
	push	eax
	mov	ecx, DWORD PTR _lpFirstQualAttrib$[ebp]
	push	ecx
	mov	edx, DWORD PTR _lpQualView$[ebp]
	push	edx
	mov	eax, DWORD PTR _lpView$[ebp]
	push	eax
	call	_fnCreateQualAttrib
	add	esp, 32					; 00000020H

; 5300 :                        &lpNewQualAttrib, 0, 0, "AND", 0 );
; 5301 : 
; 5302 :    // Add the check for a null key.
; 5303 :    fnCreateQualAttrib( lpView, lpQualView, lpFirstQualAttrib,

	push	0
	push	OFFSET $SG13434
	mov	ecx, DWORD PTR _lpDataField$[ebp]
	push	ecx
	mov	edx, DWORD PTR _lpViewAttrib$[ebp]
	mov	eax, DWORD PTR [edx+6]
	push	eax
	call	_SysGetPointerFromHandle@4
	push	eax
	lea	ecx, DWORD PTR _lpNewQualAttrib$[ebp]
	push	ecx
	mov	edx, DWORD PTR _lpFirstQualAttrib$[ebp]
	push	edx
	mov	eax, DWORD PTR _lpQualView$[ebp]
	push	eax
	mov	ecx, DWORD PTR _lpView$[ebp]
	push	ecx
	call	_fnCreateQualAttrib
	add	esp, 32					; 00000020H

; 5304 :                        &lpNewQualAttrib, zGETPTR( lpViewAttrib->hViewEntity ),
; 5305 :                        lpDataField, "IS NOT NULL", 0 );
; 5306 : 
; 5307 :    // Add the opening paren.
; 5308 :    fnCreateQualAttrib( lpView, lpQualView, lpFirstQualAttrib,

	push	0
	push	OFFSET $SG13435
	push	0
	push	0
	lea	edx, DWORD PTR _lpNewQualAttrib$[ebp]
	push	edx
	mov	eax, DWORD PTR _lpFirstQualAttrib$[ebp]
	push	eax
	mov	ecx, DWORD PTR _lpQualView$[ebp]
	push	ecx
	mov	edx, DWORD PTR _lpView$[ebp]
	push	edx
	call	_fnCreateQualAttrib
	add	esp, 32					; 00000020H

; 5309 :                        &lpNewQualAttrib, 0, 0, "(", 0 );
; 5310 : }

	mov	esp, ebp
	pop	ebp
	ret	0
_fnAddCheckForNullKey ENDP
_TEXT	ENDS
; Function compile flags: /Odtp
; File c:\10c\a\oe\kzhsqlga.c
_TEXT	SEGMENT
_uLth$ = -12						; size = 4
_hMem$ = -8						; size = 4
_lpQualAttrib$ = -4					; size = 4
_lpView$ = 8						; size = 4
_lpQualView$ = 12					; size = 4
_lpFirstQualAttrib$ = 16				; size = 4
_plpQualAttrib$ = 20					; size = 4
_lpViewEntity$ = 24					; size = 4
_lpDataField$ = 28					; size = 4
_pchOper$ = 32						; size = 4
_pchValue$ = 36						; size = 4
_fnCreateQualAttrib PROC

; 5192 : {

	push	ebp
	mov	ebp, esp
	sub	esp, 12					; 0000000cH

; 5193 :    zULONG       uLth;
; 5194 :    zLONG        hMem;
; 5195 :    LPQUALATTRIB lpQualAttrib;
; 5196 : 
; 5197 :    // Allocate space for new QualAttrib record.
; 5198 :    hMem = SysAllocMemory( (zPVOID) plpQualAttrib,

	push	0
	push	32768					; 00008000H
	push	0
	push	68					; 00000044H
	mov	eax, DWORD PTR _plpQualAttrib$[ebp]
	push	eax
	call	_SysAllocMemory@20
	mov	DWORD PTR _hMem$[ebp], eax

; 5199 :                           sizeof( QualAttribRecord ), 0,
; 5200 :                           zCOREMEM_ALLOC, 0 );
; 5201 :    if ( *plpQualAttrib == 0 )

	mov	ecx, DWORD PTR _plpQualAttrib$[ebp]
	cmp	DWORD PTR [ecx], 0
	jne	SHORT $LN2@fnCreateQu

; 5202 :    {
; 5203 :       fnSqlDisplayQualMsg( lpView, lpQualView,

	push	0
	push	0
	push	OFFSET $SG13407
	mov	edx, DWORD PTR _lpQualView$[ebp]
	push	edx
	mov	eax, DWORD PTR _lpView$[ebp]
	push	eax
	call	_fnSqlDisplayQualMsg
	add	esp, 20					; 00000014H

; 5204 :                            "Cannot allocate memory.", zERROR, 0 );
; 5205 :       return( zCALL_ERROR );

	mov	eax, -16				; fffffff0H
	jmp	$LN1@fnCreateQu
$LN2@fnCreateQu:

; 5206 :    }
; 5207 : 
; 5208 :    lpQualAttrib = *plpQualAttrib;

	mov	ecx, DWORD PTR _plpQualAttrib$[ebp]
	mov	edx, DWORD PTR [ecx]
	mov	DWORD PTR _lpQualAttrib$[ebp], edx

; 5209 : 
; 5210 :    // Fill new QualAttrib with zeros.
; 5211 :    zmemset( (zPVOID) lpQualAttrib, 0, sizeof( QualAttribRecord ) );

	push	68					; 00000044H
	push	0
	mov	eax, DWORD PTR _lpQualAttrib$[ebp]
	push	eax
	call	_memset
	add	esp, 12					; 0000000cH

; 5212 :    lpQualAttrib->hMem = hMem;

	mov	ecx, DWORD PTR _lpQualAttrib$[ebp]
	mov	edx, DWORD PTR _hMem$[ebp]
	mov	DWORD PTR [ecx], edx

; 5213 : 
; 5214 :    // Add lpQualAttrib as first qual attrib in chain.
; 5215 :    lpQualAttrib->lpNextQualAttrib = *lpFirstQualAttrib;

	mov	eax, DWORD PTR _lpQualAttrib$[ebp]
	mov	ecx, DWORD PTR _lpFirstQualAttrib$[ebp]
	mov	edx, DWORD PTR [ecx]
	mov	DWORD PTR [eax+4], edx

; 5216 :    *lpFirstQualAttrib = lpQualAttrib;

	mov	eax, DWORD PTR _lpFirstQualAttrib$[ebp]
	mov	ecx, DWORD PTR _lpQualAttrib$[ebp]
	mov	DWORD PTR [eax], ecx

; 5217 : 
; 5218 :    // Allocate space for the oper.
; 5219 :    fnAllocOper( lpQualAttrib, pchOper );

	mov	edx, DWORD PTR _pchOper$[ebp]
	push	edx
	mov	eax, DWORD PTR _lpQualAttrib$[ebp]
	push	eax
	call	_fnAllocOper
	add	esp, 8

; 5220 : 
; 5221 :    // Allocate space for the value.
; 5222 :    if ( pchValue && *pchValue )

	cmp	DWORD PTR _pchValue$[ebp], 0
	je	SHORT $LN3@fnCreateQu
	mov	ecx, DWORD PTR _pchValue$[ebp]
	movsx	edx, BYTE PTR [ecx]
	test	edx, edx
	je	SHORT $LN3@fnCreateQu

; 5223 :    {
; 5224 :       uLth = zstrlen( pchValue ) + 1;

	mov	eax, DWORD PTR _pchValue$[ebp]
	push	eax
	call	_strlen
	add	esp, 4
	add	eax, 1
	mov	DWORD PTR _uLth$[ebp], eax

; 5225 :       hMem = SysAllocMemory( (zPVOID) &lpQualAttrib->szValue,

	push	0
	push	32768					; 00008000H
	push	0
	mov	ecx, DWORD PTR _uLth$[ebp]
	push	ecx
	mov	edx, DWORD PTR _lpQualAttrib$[ebp]
	add	edx, 40					; 00000028H
	push	edx
	call	_SysAllocMemory@20
	mov	DWORD PTR _hMem$[ebp], eax

; 5226 :                              uLth, 0, zCOREMEM_ALLOC, 0 );
; 5227 :       if ( lpQualAttrib->szValue == 0 )

	mov	eax, DWORD PTR _lpQualAttrib$[ebp]
	cmp	DWORD PTR [eax+40], 0
	jne	SHORT $LN4@fnCreateQu

; 5228 :       {
; 5229 :          fnSqlDisplayQualMsg( lpView, lpQualView,

	push	0
	push	0
	push	OFFSET $SG13410
	mov	ecx, DWORD PTR _lpQualView$[ebp]
	push	ecx
	mov	edx, DWORD PTR _lpView$[ebp]
	push	edx
	call	_fnSqlDisplayQualMsg
	add	esp, 20					; 00000014H

; 5230 :                               "Cannot allocate memory.", zERROR, 0 );
; 5231 :          return( zCALL_ERROR );

	mov	eax, -16				; fffffff0H
	jmp	SHORT $LN1@fnCreateQu
$LN4@fnCreateQu:

; 5232 :       }
; 5233 : 
; 5234 :       lpQualAttrib->hValueMem = hMem;

	mov	eax, DWORD PTR _lpQualAttrib$[ebp]
	mov	ecx, DWORD PTR _hMem$[ebp]
	mov	DWORD PTR [eax+36], ecx

; 5235 :       zstrcpy( lpQualAttrib->szValue, pchValue );

	mov	edx, DWORD PTR _pchValue$[ebp]
	push	edx
	mov	eax, DWORD PTR _lpQualAttrib$[ebp]
	mov	ecx, DWORD PTR [eax+40]
	push	ecx
	call	_strcpy
	add	esp, 8
$LN3@fnCreateQu:

; 5236 :    }
; 5237 : 
; 5238 :    if ( lpViewEntity )

	cmp	DWORD PTR _lpViewEntity$[ebp], 0
	je	SHORT $LN5@fnCreateQu

; 5239 :    {
; 5240 :       lpQualAttrib->lpViewEntity = lpViewEntity;

	mov	edx, DWORD PTR _lpQualAttrib$[ebp]
	mov	eax, DWORD PTR _lpViewEntity$[ebp]
	mov	DWORD PTR [edx+12], eax

; 5241 :       lpQualAttrib->lpDataRecord = zGETPTR( lpViewEntity->hFirstDataRecord );

	mov	ecx, DWORD PTR _lpViewEntity$[ebp]
	mov	edx, DWORD PTR [ecx+191]
	push	edx
	call	_SysGetPointerFromHandle@4
	mov	ecx, DWORD PTR _lpQualAttrib$[ebp]
	mov	DWORD PTR [ecx+16], eax
$LN5@fnCreateQu:

; 5242 :    }
; 5243 : 
; 5244 :    if ( lpDataField )

	cmp	DWORD PTR _lpDataField$[ebp], 0
	je	SHORT $LN6@fnCreateQu

; 5245 :    {
; 5246 :       lpQualAttrib->lpDataField  = lpDataField;

	mov	edx, DWORD PTR _lpQualAttrib$[ebp]
	mov	eax, DWORD PTR _lpDataField$[ebp]
	mov	DWORD PTR [edx+24], eax

; 5247 :       lpQualAttrib->lpViewAttrib = zGETPTR( lpDataField->hViewAttrib );

	mov	ecx, DWORD PTR _lpDataField$[ebp]
	mov	edx, DWORD PTR [ecx+6]
	push	edx
	call	_SysGetPointerFromHandle@4
	mov	ecx, DWORD PTR _lpQualAttrib$[ebp]
	mov	DWORD PTR [ecx+20], eax
$LN6@fnCreateQu:

; 5248 :    }
; 5249 : 
; 5250 :    return( 0 );

	xor	eax, eax
$LN1@fnCreateQu:

; 5251 : }

	mov	esp, ebp
	pop	ebp
	ret	0
_fnCreateQualAttrib ENDP
_TEXT	ENDS
; Function compile flags: /Odtp
; File c:\10c\a\oe\kzhsqlga.c
_TEXT	SEGMENT
_uLth$ = -4						; size = 4
_lpQualAttrib$ = 8					; size = 4
_pchOper$ = 12						; size = 4
_fnAllocOper PROC

; 5163 : {

	push	ebp
	mov	ebp, esp
	push	ecx

; 5164 : 
; 5165 :    zULONG uLth = zstrlen( pchOper ) + 1;

	mov	eax, DWORD PTR _pchOper$[ebp]
	push	eax
	call	_strlen
	add	esp, 4
	add	eax, 1
	mov	DWORD PTR _uLth$[ebp], eax

; 5166 : 
; 5167 :    if ( lpQualAttrib->hOperMem )

	mov	ecx, DWORD PTR _lpQualAttrib$[ebp]
	cmp	DWORD PTR [ecx+28], 0
	je	SHORT $LN2@fnAllocOpe

; 5168 :    {
; 5169 :       SysFreeMemory( lpQualAttrib->hOperMem );

	mov	edx, DWORD PTR _lpQualAttrib$[ebp]
	mov	eax, DWORD PTR [edx+28]
	push	eax
	call	_SysFreeMemory@4

; 5170 :       lpQualAttrib->hOperMem = 0;

	mov	ecx, DWORD PTR _lpQualAttrib$[ebp]
	mov	DWORD PTR [ecx+28], 0

; 5171 :       lpQualAttrib->szOper = 0;

	mov	edx, DWORD PTR _lpQualAttrib$[ebp]
	mov	DWORD PTR [edx+32], 0
$LN2@fnAllocOpe:

; 5172 :    }
; 5173 : 
; 5174 :    if ( pchOper == 0 || *pchOper == 0 )

	cmp	DWORD PTR _pchOper$[ebp], 0
	je	SHORT $LN4@fnAllocOpe
	mov	eax, DWORD PTR _pchOper$[ebp]
	movsx	ecx, BYTE PTR [eax]
	test	ecx, ecx
	jne	SHORT $LN3@fnAllocOpe
$LN4@fnAllocOpe:

; 5175 :       return;

	jmp	SHORT $LN1@fnAllocOpe
$LN3@fnAllocOpe:

; 5176 : 
; 5177 :    lpQualAttrib->hOperMem = SysAllocMemory( (zPVOID) &lpQualAttrib->szOper,

	push	0
	push	32768					; 00008000H
	push	0
	mov	edx, DWORD PTR _uLth$[ebp]
	push	edx
	mov	eax, DWORD PTR _lpQualAttrib$[ebp]
	add	eax, 32					; 00000020H
	push	eax
	call	_SysAllocMemory@20
	mov	ecx, DWORD PTR _lpQualAttrib$[ebp]
	mov	DWORD PTR [ecx+28], eax

; 5178 :                                             uLth, 0, zCOREMEM_ALLOC, 0 );
; 5179 :    if ( lpQualAttrib->szOper )

	mov	edx, DWORD PTR _lpQualAttrib$[ebp]
	cmp	DWORD PTR [edx+32], 0
	je	SHORT $LN1@fnAllocOpe

; 5180 :       zstrcpy( lpQualAttrib->szOper, pchOper );

	mov	eax, DWORD PTR _pchOper$[ebp]
	push	eax
	mov	ecx, DWORD PTR _lpQualAttrib$[ebp]
	mov	edx, DWORD PTR [ecx+32]
	push	edx
	call	_strcpy
	add	esp, 8
$LN1@fnAllocOpe:

; 5181 : }

	mov	esp, ebp
	pop	ebp
	ret	0
_fnAllocOper ENDP
_TEXT	ENDS
; Function compile flags: /Odtp
; File c:\10c\a\oe\kzhsqlga.c
_TEXT	SEGMENT
_lpViewEntity$ = -8					; size = 4
_lpQualAttrib$ = -4					; size = 4
_lpFirstQualAttrib$ = 8					; size = 4
_pchDBName$ = 12					; size = 4
_bDBNameIsDefault$ = 16					; size = 1
_fnSqlVerifyDataBase PROC

; 5115 : {

	push	ebp
	mov	ebp, esp
	sub	esp, 8

; 5116 :    LPVIEWENTITY lpViewEntity;
; 5117 :    LPQUALATTRIB lpQualAttrib;
; 5118 : 
; 5119 :    for ( lpQualAttrib = lpFirstQualAttrib;

	mov	eax, DWORD PTR _lpFirstQualAttrib$[ebp]
	mov	DWORD PTR _lpQualAttrib$[ebp], eax
	jmp	SHORT $LN4@fnSqlVerif
$LN2@fnSqlVerif:

; 5121 :          lpQualAttrib = lpQualAttrib->lpNextQualAttrib )

	mov	ecx, DWORD PTR _lpQualAttrib$[ebp]
	mov	edx, DWORD PTR [ecx+4]
	mov	DWORD PTR _lpQualAttrib$[ebp], edx
$LN4@fnSqlVerif:

; 5120 :          lpQualAttrib;

	cmp	DWORD PTR _lpQualAttrib$[ebp], 0
	je	$LN3@fnSqlVerif

; 5122 :    {
; 5123 :       // If the current lpQualAttrib has a subQualAttrib then make sure
; 5124 :       // that all the sub-quals are OK.
; 5125 :       if ( lpQualAttrib->lpFirstSubQualAttrib &&

	mov	eax, DWORD PTR _lpQualAttrib$[ebp]
	cmp	DWORD PTR [eax+8], 0
	je	SHORT $LN5@fnSqlVerif
	movzx	ecx, BYTE PTR _bDBNameIsDefault$[ebp]
	push	ecx
	mov	edx, DWORD PTR _pchDBName$[ebp]
	push	edx
	mov	eax, DWORD PTR _lpQualAttrib$[ebp]
	mov	ecx, DWORD PTR [eax+8]
	push	ecx
	call	_fnSqlVerifyDataBase
	add	esp, 12					; 0000000cH
	movsx	edx, ax
	test	edx, edx
	jne	SHORT $LN5@fnSqlVerif

; 5126 :            !fnSqlVerifyDataBase( lpQualAttrib->lpFirstSubQualAttrib,
; 5127 :                                  pchDBName, bDBNameIsDefault ) )
; 5128 :       {
; 5129 :          return( FALSE );

	xor	eax, eax
	jmp	SHORT $LN1@fnSqlVerif
$LN5@fnSqlVerif:

; 5130 :       }
; 5131 : 
; 5132 :       lpViewEntity = lpQualAttrib->lpViewEntity;

	mov	eax, DWORD PTR _lpQualAttrib$[ebp]
	mov	ecx, DWORD PTR [eax+12]
	mov	DWORD PTR _lpViewEntity$[ebp], ecx

; 5133 : 
; 5134 :       // If there is no lpViewEntity, don't bother doing check.
; 5135 :       if ( lpViewEntity == 0 )

	cmp	DWORD PTR _lpViewEntity$[ebp], 0
	jne	SHORT $LN6@fnSqlVerif

; 5136 :          continue;

	jmp	SHORT $LN2@fnSqlVerif
$LN6@fnSqlVerif:

; 5137 : 
; 5138 :       // If there is no DBName for lpViewEntity then the database name for
; 5139 :       // the entity is the default.  In this case, check...
; 5140 :       if ( lpViewEntity->szDBName[ 0 ] == 0 )

	mov	edx, 1
	imul	eax, edx, 0
	mov	ecx, DWORD PTR _lpViewEntity$[ebp]
	movsx	edx, BYTE PTR [ecx+eax+80]
	test	edx, edx
	jne	SHORT $LN7@fnSqlVerif

; 5141 :       {
; 5142 :          // ...to make sure that we are using the default DBName.  If...
; 5143 :          if ( bDBNameIsDefault )

	movzx	eax, BYTE PTR _bDBNameIsDefault$[ebp]
	test	eax, eax
	je	SHORT $LN8@fnSqlVerif

; 5144 :             continue;           // ...we are then continue, otherwise...

	jmp	SHORT $LN2@fnSqlVerif
	jmp	SHORT $LN7@fnSqlVerif
$LN8@fnSqlVerif:

; 5145 :          else
; 5146 :             return( FALSE );    // ...return FALSE.

	xor	eax, eax
	jmp	SHORT $LN1@fnSqlVerif
$LN7@fnSqlVerif:

; 5147 :       }
; 5148 : 
; 5149 :       // If DBNames aren't the same then return FALSE.
; 5150 :       if ( zstrcmpi( pchDBName, lpViewEntity->szDBName ) != 0 )

	mov	ecx, DWORD PTR _lpViewEntity$[ebp]
	add	ecx, 80					; 00000050H
	push	ecx
	mov	edx, DWORD PTR _pchDBName$[ebp]
	push	edx
	call	DWORD PTR __imp___stricmp
	add	esp, 8
	test	eax, eax
	je	SHORT $LN10@fnSqlVerif

; 5151 :          return( FALSE );

	xor	eax, eax
	jmp	SHORT $LN1@fnSqlVerif
$LN10@fnSqlVerif:

; 5152 : 
; 5153 :    } // for ( lpQualAttrib... )...

	jmp	$LN2@fnSqlVerif
$LN3@fnSqlVerif:

; 5154 : 
; 5155 :    // If we got this far then all the DBNames match up OK.
; 5156 :    return( TRUE );

	mov	eax, 1
$LN1@fnSqlVerif:

; 5157 : 
; 5158 : } // fnSqlVerifyDataBase

	mov	esp, ebp
	pop	ebp
	ret	0
_fnSqlVerifyDataBase ENDP
_TEXT	ENDS
; Function compile flags: /Odtp
; File c:\10c\a\oe\kzhsqlga.c
_TEXT	SEGMENT
_lpViewOD$ = -1024					; size = 4
tv86 = -1020						; size = 4
tv77 = -1016						; size = 4
tv66 = -1012						; size = 4
_bWarning$ = -1005					; size = 1
_szText$ = -1004					; size = 1000
__$ArrayPad$ = -4					; size = 4
_lpView$ = 8						; size = 4
_lpQualView$ = 12					; size = 4
_pchMsg$ = 16						; size = 4
_nErrorOrWarning$ = 20					; size = 2
_szQualEntity$ = 24					; size = 4
_fnSqlDisplayQualMsg PROC

; 5080 : {

	push	ebp
	mov	ebp, esp
	sub	esp, 1024				; 00000400H
	mov	eax, DWORD PTR ___security_cookie
	xor	eax, ebp
	mov	DWORD PTR __$ArrayPad$[ebp], eax

; 5081 :    LPVIEWOD lpViewOD;
; 5082 :    zBOOL    bWarning = (nErrorOrWarning == zWARNING);

	movsx	eax, WORD PTR _nErrorOrWarning$[ebp]
	cmp	eax, 1
	jne	SHORT $LN4@fnSqlDispl
	mov	DWORD PTR tv66[ebp], 1
	jmp	SHORT $LN5@fnSqlDispl
$LN4@fnSqlDispl:
	mov	DWORD PTR tv66[ebp], 0
$LN5@fnSqlDispl:
	mov	cl, BYTE PTR tv66[ebp]
	mov	BYTE PTR _bWarning$[ebp], cl

; 5083 :    zCHAR    szText[ 1000 ];
; 5084 : 
; 5085 :    lpViewOD = (LPVIEWOD) MiGetViewEntityForView( lpView, 0 );

	push	0
	mov	edx, DWORD PTR _lpView$[ebp]
	push	edx
	call	_MiGetViewEntityForView@8
	mov	DWORD PTR _lpViewOD$[ebp], eax

; 5086 :    zsprintf( szText, "%s loading qualification object while activating LOD "

	movzx	eax, BYTE PTR _bWarning$[ebp]
	test	eax, eax
	je	SHORT $LN6@fnSqlDispl
	mov	DWORD PTR tv77[ebp], OFFSET $SG13341
	jmp	SHORT $LN7@fnSqlDispl
$LN6@fnSqlDispl:
	mov	DWORD PTR tv77[ebp], OFFSET $SG13342
$LN7@fnSqlDispl:
	mov	ecx, DWORD PTR _pchMsg$[ebp]
	push	ecx
	mov	edx, DWORD PTR _lpViewOD$[ebp]
	add	edx, 10					; 0000000aH
	push	edx
	mov	eax, DWORD PTR tv77[ebp]
	push	eax
	push	OFFSET $SG13343
	lea	ecx, DWORD PTR _szText$[ebp]
	push	ecx
	call	_sprintf
	add	esp, 20					; 00000014H

; 5087 :              "%s: %s", bWarning ? "Warning" : "Error", lpViewOD->szName,
; 5088 :              pchMsg );
; 5089 : 
; 5090 :    MessageSend( lpView, "KZH0201", bWarning ? "Qualification Object Warning" :

	movzx	edx, BYTE PTR _bWarning$[ebp]
	test	edx, edx
	je	SHORT $LN8@fnSqlDispl
	mov	DWORD PTR tv86[ebp], OFFSET $SG13344
	jmp	SHORT $LN9@fnSqlDispl
$LN8@fnSqlDispl:
	mov	DWORD PTR tv86[ebp], OFFSET $SG13345
$LN9@fnSqlDispl:
	push	0
	push	1000					; 000003e8H
	lea	eax, DWORD PTR _szText$[ebp]
	push	eax
	mov	ecx, DWORD PTR tv86[ebp]
	push	ecx
	push	OFFSET $SG13346
	mov	edx, DWORD PTR _lpView$[ebp]
	push	edx
	call	_MessageSend@24

; 5091 :                                               "Qualification Object Error",
; 5092 :                 szText, zMSGQ_SYSTEM_ERROR, 0 );
; 5093 : 
; 5094 :    TraceLineS( szText, "" );

	push	OFFSET $SG13347
	lea	eax, DWORD PTR _szText$[ebp]
	push	eax
	call	_TraceLineS@8

; 5095 : 
; 5096 :    if ( szQualEntity && szQualEntity[ 0 ] )

	cmp	DWORD PTR _szQualEntity$[ebp], 0
	je	SHORT $LN1@fnSqlDispl
	mov	ecx, 1
	imul	edx, ecx, 0
	mov	eax, DWORD PTR _szQualEntity$[ebp]
	movsx	ecx, BYTE PTR [eax+edx]
	test	ecx, ecx
	je	SHORT $LN1@fnSqlDispl

; 5097 :       DisplayEntityInstancePath( lpQualView, szQualEntity );

	mov	edx, DWORD PTR _szQualEntity$[ebp]
	push	edx
	mov	eax, DWORD PTR _lpQualView$[ebp]
	push	eax
	call	_DisplayEntityInstancePath@8
$LN1@fnSqlDispl:

; 5098 : 
; 5099 : }  /* fnSqlDisplayQualMsg */

	mov	ecx, DWORD PTR __$ArrayPad$[ebp]
	xor	ecx, ebp
	call	@__security_check_cookie@4
	mov	esp, ebp
	pop	ebp
	ret	0
_fnSqlDisplayQualMsg ENDP
_TEXT	ENDS
; Function compile flags: /Odtp
; File c:\10c\a\oe\kzhsqlga.c
_TEXT	SEGMENT
_lpQualAttrib$ = -4					; size = 4
_lpFirstQualAttrib$ = 8					; size = 4
_fnSqlFreeQualAttrib PROC

; 5023 : {

	push	ebp
	mov	ebp, esp
	push	ecx
$LN2@fnSqlFreeQ:

; 5024 :    LPQUALATTRIB lpQualAttrib;
; 5025 : 
; 5026 :    while ( lpFirstQualAttrib )

	cmp	DWORD PTR _lpFirstQualAttrib$[ebp], 0
	je	SHORT $LN1@fnSqlFreeQ

; 5027 :    {
; 5028 :       fnSqlFreeQualAttrib( lpFirstQualAttrib->lpFirstSubQualAttrib );

	mov	eax, DWORD PTR _lpFirstQualAttrib$[ebp]
	mov	ecx, DWORD PTR [eax+8]
	push	ecx
	call	_fnSqlFreeQualAttrib
	add	esp, 4

; 5029 : 
; 5030 :       lpQualAttrib = lpFirstQualAttrib;

	mov	edx, DWORD PTR _lpFirstQualAttrib$[ebp]
	mov	DWORD PTR _lpQualAttrib$[ebp], edx

; 5031 :       lpFirstQualAttrib = lpFirstQualAttrib->lpNextQualAttrib;

	mov	eax, DWORD PTR _lpFirstQualAttrib$[ebp]
	mov	ecx, DWORD PTR [eax+4]
	mov	DWORD PTR _lpFirstQualAttrib$[ebp], ecx

; 5032 : 
; 5033 :       if ( lpQualAttrib->hOperMem )

	mov	edx, DWORD PTR _lpQualAttrib$[ebp]
	cmp	DWORD PTR [edx+28], 0
	je	SHORT $LN4@fnSqlFreeQ

; 5034 :          SysFreeMemory( lpQualAttrib->hOperMem );

	mov	eax, DWORD PTR _lpQualAttrib$[ebp]
	mov	ecx, DWORD PTR [eax+28]
	push	ecx
	call	_SysFreeMemory@4
$LN4@fnSqlFreeQ:

; 5035 : 
; 5036 :       if ( lpQualAttrib->hValueMem )

	mov	edx, DWORD PTR _lpQualAttrib$[ebp]
	cmp	DWORD PTR [edx+36], 0
	je	SHORT $LN5@fnSqlFreeQ

; 5037 :          SysFreeMemory( lpQualAttrib->hValueMem );

	mov	eax, DWORD PTR _lpQualAttrib$[ebp]
	mov	ecx, DWORD PTR [eax+36]
	push	ecx
	call	_SysFreeMemory@4
$LN5@fnSqlFreeQ:

; 5038 : 
; 5039 :       if ( lpQualAttrib->lpKeyList )

	mov	edx, DWORD PTR _lpQualAttrib$[ebp]
	cmp	DWORD PTR [edx+44], 0
	je	SHORT $LN6@fnSqlFreeQ

; 5040 :          free( lpQualAttrib->lpKeyList );

	mov	eax, DWORD PTR _lpQualAttrib$[ebp]
	mov	ecx, DWORD PTR [eax+44]
	push	ecx
	call	DWORD PTR __imp__free
	add	esp, 4
$LN6@fnSqlFreeQ:

; 5041 : 
; 5042 :       SysFreeMemory( lpQualAttrib->hMem );

	mov	edx, DWORD PTR _lpQualAttrib$[ebp]
	mov	eax, DWORD PTR [edx]
	push	eax
	call	_SysFreeMemory@4

; 5043 :    }

	jmp	SHORT $LN2@fnSqlFreeQ
$LN1@fnSqlFreeQ:

; 5044 : }  /* fnSqlFreeQualAttrib */

	mov	esp, ebp
	pop	ebp
	ret	0
_fnSqlFreeQualAttrib ENDP
_TEXT	ENDS
; Function compile flags: /Odtp
; File c:\10c\a\oe\kzhsqlga.c
_TEXT	SEGMENT
_lpViewAttrib$1 = -244					; size = 4
$T2 = -240						; size = 4
$T3 = -236						; size = 4
$T4 = -232						; size = 4
$T5 = -228						; size = 4
$T6 = -224						; size = 4
$T7 = -220						; size = 4
$T8 = -216						; size = 4
$T9 = -212						; size = 4
_n$ = -208						; size = 2
_szStr$ = -204						; size = 200
__$ArrayPad$ = -4					; size = 4
_lpQualAttrib$ = 8					; size = 4
_nIndent$ = 12						; size = 2
_fnSqlDisplayQualAttrib PROC

; 4904 : {

	push	ebp
	mov	ebp, esp
	sub	esp, 244				; 000000f4H
	mov	eax, DWORD PTR ___security_cookie
	xor	eax, ebp
	mov	DWORD PTR __$ArrayPad$[ebp], eax

; 4905 :    zCHAR  szStr[ 200 ];
; 4906 :    zSHORT n;
; 4907 : 
; 4908 :    if ( lpQualAttrib == 0 )

	cmp	DWORD PTR _lpQualAttrib$[ebp], 0
	jne	SHORT $LN7@fnSqlDispl

; 4909 :       return;

	jmp	$LN14@fnSqlDispl
$LN7@fnSqlDispl:

; 4910 : 
; 4911 :    nIndent += 5;

	movsx	eax, WORD PTR _nIndent$[ebp]
	add	eax, 5
	mov	WORD PTR _nIndent$[ebp], ax

; 4912 :    for ( n = 0; n < nIndent; n++ )

	xor	ecx, ecx
	mov	WORD PTR _n$[ebp], cx
	jmp	SHORT $LN4@fnSqlDispl
$LN2@fnSqlDispl:
	mov	dx, WORD PTR _n$[ebp]
	add	dx, 1
	mov	WORD PTR _n$[ebp], dx
$LN4@fnSqlDispl:
	movsx	eax, WORD PTR _n$[ebp]
	movsx	ecx, WORD PTR _nIndent$[ebp]
	cmp	eax, ecx
	jge	SHORT $LN3@fnSqlDispl

; 4913 :       szStr[ n ] = ' ';

	movsx	edx, WORD PTR _n$[ebp]
	mov	BYTE PTR _szStr$[ebp+edx], 32		; 00000020H
	jmp	SHORT $LN2@fnSqlDispl
$LN3@fnSqlDispl:

; 4914 :    szStr[ n ] = 0;

	movsx	eax, WORD PTR _n$[ebp]
	mov	DWORD PTR $T9[ebp], eax
	cmp	DWORD PTR $T9[ebp], 200			; 000000c8H
	jae	SHORT $LN15@fnSqlDispl
	jmp	SHORT $LN16@fnSqlDispl
$LN15@fnSqlDispl:
	call	___report_rangecheckfailure
$LN16@fnSqlDispl:
	mov	ecx, DWORD PTR $T9[ebp]
	mov	BYTE PTR _szStr$[ebp+ecx], 0
$LN5@fnSqlDispl:

; 4915 : 
; 4916 :    while ( lpQualAttrib )

	cmp	DWORD PTR _lpQualAttrib$[ebp], 0
	je	$LN14@fnSqlDispl

; 4917 :    {
; 4918 :       TraceLineS( "", "" );

	push	OFFSET $SG13260
	push	OFFSET $SG13261
	call	_TraceLineS@8

; 4919 :       TraceLineS( szStr, "--- QualAttrib ---" );

	push	OFFSET $SG13262
	lea	edx, DWORD PTR _szStr$[ebp]
	push	edx
	call	_TraceLineS@8

; 4920 : 
; 4921 :       if ( lpQualAttrib->lpViewEntity )

	mov	eax, DWORD PTR _lpQualAttrib$[ebp]
	cmp	DWORD PTR [eax+12], 0
	je	SHORT $LN8@fnSqlDispl

; 4922 :       {
; 4923 :          zstrcat( szStr, "Entity name: " );

	push	OFFSET $SG13264
	lea	ecx, DWORD PTR _szStr$[ebp]
	push	ecx
	call	_strcat
	add	esp, 8

; 4924 :          TraceLineS( szStr, lpQualAttrib->lpViewEntity->szName );

	mov	edx, DWORD PTR _lpQualAttrib$[ebp]
	mov	eax, DWORD PTR [edx+12]
	add	eax, 14					; 0000000eH
	push	eax
	lea	ecx, DWORD PTR _szStr$[ebp]
	push	ecx
	call	_TraceLineS@8

; 4925 :          szStr[ n ] = 0;

	movsx	edx, WORD PTR _n$[ebp]
	mov	DWORD PTR $T8[ebp], edx
	cmp	DWORD PTR $T8[ebp], 200			; 000000c8H
	jae	SHORT $LN17@fnSqlDispl
	jmp	SHORT $LN18@fnSqlDispl
$LN17@fnSqlDispl:
	call	___report_rangecheckfailure
$LN18@fnSqlDispl:
	mov	eax, DWORD PTR $T8[ebp]
	mov	BYTE PTR _szStr$[ebp+eax], 0
$LN8@fnSqlDispl:

; 4926 :       }
; 4927 : 
; 4928 :       if ( lpQualAttrib->lpViewAttrib )

	mov	ecx, DWORD PTR _lpQualAttrib$[ebp]
	cmp	DWORD PTR [ecx+20], 0
	je	SHORT $LN9@fnSqlDispl

; 4929 :       {
; 4930 :          zstrcat( szStr, "Attrib name: " );

	push	OFFSET $SG13266
	lea	edx, DWORD PTR _szStr$[ebp]
	push	edx
	call	_strcat
	add	esp, 8

; 4931 :          TraceLineS( szStr, lpQualAttrib->lpViewAttrib->szName );

	mov	eax, DWORD PTR _lpQualAttrib$[ebp]
	mov	ecx, DWORD PTR [eax+20]
	add	ecx, 10					; 0000000aH
	push	ecx
	lea	edx, DWORD PTR _szStr$[ebp]
	push	edx
	call	_TraceLineS@8

; 4932 :          szStr[ n ] = 0;

	movsx	eax, WORD PTR _n$[ebp]
	mov	DWORD PTR $T7[ebp], eax
	cmp	DWORD PTR $T7[ebp], 200			; 000000c8H
	jae	SHORT $LN19@fnSqlDispl
	jmp	SHORT $LN20@fnSqlDispl
$LN19@fnSqlDispl:
	call	___report_rangecheckfailure
$LN20@fnSqlDispl:
	mov	ecx, DWORD PTR $T7[ebp]
	mov	BYTE PTR _szStr$[ebp+ecx], 0
$LN9@fnSqlDispl:

; 4933 :       }
; 4934 : 
; 4935 :       zstrcat( szStr, "Oper       : " );

	push	OFFSET $SG13267
	lea	edx, DWORD PTR _szStr$[ebp]
	push	edx
	call	_strcat
	add	esp, 8

; 4936 :       TraceLineS( szStr, lpQualAttrib->szOper );

	mov	eax, DWORD PTR _lpQualAttrib$[ebp]
	mov	ecx, DWORD PTR [eax+32]
	push	ecx
	lea	edx, DWORD PTR _szStr$[ebp]
	push	edx
	call	_TraceLineS@8

; 4937 :       szStr[ n ] = 0;

	movsx	eax, WORD PTR _n$[ebp]
	mov	DWORD PTR $T6[ebp], eax
	cmp	DWORD PTR $T6[ebp], 200			; 000000c8H
	jae	SHORT $LN21@fnSqlDispl
	jmp	SHORT $LN22@fnSqlDispl
$LN21@fnSqlDispl:
	call	___report_rangecheckfailure
$LN22@fnSqlDispl:
	mov	ecx, DWORD PTR $T6[ebp]
	mov	BYTE PTR _szStr$[ebp+ecx], 0

; 4938 : 
; 4939 :       if ( lpQualAttrib->szValue )

	mov	edx, DWORD PTR _lpQualAttrib$[ebp]
	cmp	DWORD PTR [edx+40], 0
	je	SHORT $LN10@fnSqlDispl

; 4940 :       {
; 4941 :          zstrcat( szStr, "Value      : " );

	push	OFFSET $SG13269
	lea	eax, DWORD PTR _szStr$[ebp]
	push	eax
	call	_strcat
	add	esp, 8

; 4942 :          TraceLineS( szStr, lpQualAttrib->szValue );

	mov	ecx, DWORD PTR _lpQualAttrib$[ebp]
	mov	edx, DWORD PTR [ecx+40]
	push	edx
	lea	eax, DWORD PTR _szStr$[ebp]
	push	eax
	call	_TraceLineS@8

; 4943 :          szStr[ n ] = 0;

	movsx	ecx, WORD PTR _n$[ebp]
	mov	DWORD PTR $T5[ebp], ecx
	cmp	DWORD PTR $T5[ebp], 200			; 000000c8H
	jae	SHORT $LN23@fnSqlDispl
	jmp	SHORT $LN24@fnSqlDispl
$LN23@fnSqlDispl:
	call	___report_rangecheckfailure
$LN24@fnSqlDispl:
	mov	edx, DWORD PTR $T5[ebp]
	mov	BYTE PTR _szStr$[ebp+edx], 0
$LN10@fnSqlDispl:

; 4944 :       }
; 4945 : 
; 4946 :       if ( lpQualAttrib->lpSourceViewEntity )

	mov	eax, DWORD PTR _lpQualAttrib$[ebp]
	cmp	DWORD PTR [eax+52], 0
	je	SHORT $LN11@fnSqlDispl

; 4947 :       {
; 4948 :          zstrcat( szStr, "Source Entity name: " );

	push	OFFSET $SG13271
	lea	ecx, DWORD PTR _szStr$[ebp]
	push	ecx
	call	_strcat
	add	esp, 8

; 4949 :          TraceLineS( szStr, lpQualAttrib->lpSourceViewEntity->szName );

	mov	edx, DWORD PTR _lpQualAttrib$[ebp]
	mov	eax, DWORD PTR [edx+52]
	add	eax, 14					; 0000000eH
	push	eax
	lea	ecx, DWORD PTR _szStr$[ebp]
	push	ecx
	call	_TraceLineS@8

; 4950 :          szStr[ n ] = 0;

	movsx	edx, WORD PTR _n$[ebp]
	mov	DWORD PTR $T4[ebp], edx
	cmp	DWORD PTR $T4[ebp], 200			; 000000c8H
	jae	SHORT $LN25@fnSqlDispl
	jmp	SHORT $LN26@fnSqlDispl
$LN25@fnSqlDispl:
	call	___report_rangecheckfailure
$LN26@fnSqlDispl:
	mov	eax, DWORD PTR $T4[ebp]
	mov	BYTE PTR _szStr$[ebp+eax], 0
$LN11@fnSqlDispl:

; 4951 :       }
; 4952 : 
; 4953 :       if ( lpQualAttrib->lpSourceDataField )

	mov	ecx, DWORD PTR _lpQualAttrib$[ebp]
	cmp	DWORD PTR [ecx+56], 0
	je	SHORT $LN12@fnSqlDispl

; 4954 :       {
; 4955 :          LPVIEWATTRIB lpViewAttrib =

	mov	edx, DWORD PTR _lpQualAttrib$[ebp]
	mov	eax, DWORD PTR [edx+56]
	mov	ecx, DWORD PTR [eax+6]
	push	ecx
	call	_SysGetPointerFromHandle@4
	mov	DWORD PTR _lpViewAttrib$1[ebp], eax

; 4956 :                      zGETPTR( lpQualAttrib->lpSourceDataField->hViewAttrib );
; 4957 : 
; 4958 :          zstrcat( szStr, "Source Attrib name: " );

	push	OFFSET $SG13273
	lea	edx, DWORD PTR _szStr$[ebp]
	push	edx
	call	_strcat
	add	esp, 8

; 4959 :          TraceLineS( szStr, lpViewAttrib->szName );

	mov	eax, DWORD PTR _lpViewAttrib$1[ebp]
	add	eax, 10					; 0000000aH
	push	eax
	lea	ecx, DWORD PTR _szStr$[ebp]
	push	ecx
	call	_TraceLineS@8

; 4960 :          szStr[ n ] = 0;

	movsx	edx, WORD PTR _n$[ebp]
	mov	DWORD PTR $T3[ebp], edx
	cmp	DWORD PTR $T3[ebp], 200			; 000000c8H
	jae	SHORT $LN27@fnSqlDispl
	jmp	SHORT $LN28@fnSqlDispl
$LN27@fnSqlDispl:
	call	___report_rangecheckfailure
$LN28@fnSqlDispl:
	mov	eax, DWORD PTR $T3[ebp]
	mov	BYTE PTR _szStr$[ebp+eax], 0
$LN12@fnSqlDispl:

; 4961 :       }
; 4962 : 
; 4963 :       if ( lpQualAttrib->lpSourceView )

	mov	ecx, DWORD PTR _lpQualAttrib$[ebp]
	cmp	DWORD PTR [ecx+60], 0
	je	SHORT $LN13@fnSqlDispl

; 4964 :       {
; 4965 :          TraceLineS( szStr, "SourceView is defined" );

	push	OFFSET $SG13275
	lea	edx, DWORD PTR _szStr$[ebp]
	push	edx
	call	_TraceLineS@8

; 4966 :          szStr[ n ] = 0;

	movsx	eax, WORD PTR _n$[ebp]
	mov	DWORD PTR $T2[ebp], eax
	cmp	DWORD PTR $T2[ebp], 200			; 000000c8H
	jae	SHORT $LN29@fnSqlDispl
	jmp	SHORT $LN30@fnSqlDispl
$LN29@fnSqlDispl:
	call	___report_rangecheckfailure
$LN30@fnSqlDispl:
	mov	ecx, DWORD PTR $T2[ebp]
	mov	BYTE PTR _szStr$[ebp+ecx], 0
$LN13@fnSqlDispl:

; 4967 :       }
; 4968 : 
; 4969 :       fnSqlDisplayQualAttrib( lpQualAttrib->lpFirstSubQualAttrib, nIndent );

	movzx	edx, WORD PTR _nIndent$[ebp]
	push	edx
	mov	eax, DWORD PTR _lpQualAttrib$[ebp]
	mov	ecx, DWORD PTR [eax+8]
	push	ecx
	call	_fnSqlDisplayQualAttrib
	add	esp, 8

; 4970 :       lpQualAttrib = lpQualAttrib->lpNextQualAttrib;

	mov	edx, DWORD PTR _lpQualAttrib$[ebp]
	mov	eax, DWORD PTR [edx+4]
	mov	DWORD PTR _lpQualAttrib$[ebp], eax

; 4971 :    }

	jmp	$LN5@fnSqlDispl
$LN14@fnSqlDispl:

; 4972 : 
; 4973 : }  /* fnSqlDisplayQualAttrib */

	mov	ecx, DWORD PTR __$ArrayPad$[ebp]
	xor	ecx, ebp
	call	@__security_check_cookie@4
	mov	esp, ebp
	pop	ebp
	ret	0
_fnSqlDisplayQualAttrib ENDP
_TEXT	ENDS
; Function compile flags: /Odtp
; File c:\10c\a\oe\kzhsqlga.c
_TEXT	SEGMENT
_lpDataRecord$ = -632					; size = 4
tv214 = -628						; size = 4
tv213 = -624						; size = 4
tv185 = -620						; size = 4
tv184 = -616						; size = 4
$T1 = -612						; size = 4
$T2 = -608						; size = 4
_lpViewAttrib$3 = -604					; size = 4
_lpDataField$ = -600					; size = 4
_nRC$ = -596						; size = 2
_lpSrchEntity$ = -592					; size = 4
_pchTgt$ = -588						; size = 4
_k$ = -584						; size = 2
_pchSrc$ = -580						; size = 4
_szTempStr$ = -576					; size = 500
_szAttributeName$ = -76					; size = 33
_szEntityName$ = -40					; size = 33
__$ArrayPad$ = -4					; size = 4
_lpView$ = 8						; size = 4
_lpViewOD$ = 12						; size = 4
_lpViewEntity$ = 16					; size = 4
_lpQualEntity$ = 20					; size = 4
_pchSqlCmd$ = 24					; size = 4
_lpBoundList$ = 28					; size = 4
_fnSqlBuildOpenSQL PROC

; 3899 : {

	push	ebp
	mov	ebp, esp
	sub	esp, 632				; 00000278H
	mov	eax, DWORD PTR ___security_cookie
	xor	eax, ebp
	mov	DWORD PTR __$ArrayPad$[ebp], eax

; 3900 :    zPCHAR       pchSrc;    // Points to current char in OpenSQL statement.
; 3901 :    zPCHAR       pchTgt;    // Points to current char in pchSqlCmd.
; 3902 :    zCHAR        szTempStr[ 500 ];
; 3903 :    zCHAR        szEntityName[ 33 ];
; 3904 :    zCHAR        szAttributeName[ 33 ];
; 3905 :    LPDATAFIELD  lpDataField;
; 3906 :    LPVIEWENTITY lpSrchEntity;
; 3907 :    LPDATARECORD lpDataRecord;
; 3908 :    zSHORT       k;
; 3909 :    zSHORT       nRC;
; 3910 : 
; 3911 :    pchSrc = lpQualEntity->pszOpenSQL;

	mov	eax, DWORD PTR _lpQualEntity$[ebp]
	mov	ecx, DWORD PTR [eax+16]
	mov	DWORD PTR _pchSrc$[ebp], ecx

; 3912 :    pchTgt = pchSqlCmd;

	mov	edx, DWORD PTR _pchSqlCmd$[ebp]
	mov	DWORD PTR _pchTgt$[ebp], edx
$LN2@fnSqlBuild:

; 3913 : 
; 3914 :    while ( *pchSrc )

	mov	eax, DWORD PTR _pchSrc$[ebp]
	movsx	ecx, BYTE PTR [eax]
	test	ecx, ecx
	je	$LN3@fnSqlBuild

; 3915 :    {
; 3916 :       // If the current char isn't a '@', then just copy the char and continue.
; 3917 :       if ( *pchSrc != '@' )

	mov	edx, DWORD PTR _pchSrc$[ebp]
	movsx	eax, BYTE PTR [edx]
	cmp	eax, 64					; 00000040H
	je	SHORT $LN16@fnSqlBuild

; 3918 :       {
; 3919 :          *pchTgt++ = *pchSrc++;

	mov	ecx, DWORD PTR _pchTgt$[ebp]
	mov	edx, DWORD PTR _pchSrc$[ebp]
	mov	al, BYTE PTR [edx]
	mov	BYTE PTR [ecx], al
	mov	ecx, DWORD PTR _pchTgt$[ebp]
	add	ecx, 1
	mov	DWORD PTR _pchTgt$[ebp], ecx
	mov	edx, DWORD PTR _pchSrc$[ebp]
	add	edx, 1
	mov	DWORD PTR _pchSrc$[ebp], edx

; 3920 :          continue;

	jmp	SHORT $LN2@fnSqlBuild
$LN16@fnSqlBuild:

; 3921 :       }
; 3922 : 
; 3923 :       // If the next char is also a '@', then copy '@@' as '@' and continue.
; 3924 :       if ( pchSrc[ 1 ] == '@' )

	mov	eax, 1
	shl	eax, 0
	mov	ecx, DWORD PTR _pchSrc$[ebp]
	movsx	edx, BYTE PTR [ecx+eax]
	cmp	edx, 64					; 00000040H
	jne	SHORT $LN17@fnSqlBuild

; 3925 :       {
; 3926 :          *pchTgt++ = *pchSrc++;     // Copy '@'.

	mov	eax, DWORD PTR _pchTgt$[ebp]
	mov	ecx, DWORD PTR _pchSrc$[ebp]
	mov	dl, BYTE PTR [ecx]
	mov	BYTE PTR [eax], dl
	mov	eax, DWORD PTR _pchTgt$[ebp]
	add	eax, 1
	mov	DWORD PTR _pchTgt$[ebp], eax
	mov	ecx, DWORD PTR _pchSrc$[ebp]
	add	ecx, 1
	mov	DWORD PTR _pchSrc$[ebp], ecx

; 3927 :          pchSrc++;                  // Skip second '@'.

	mov	edx, DWORD PTR _pchSrc$[ebp]
	add	edx, 1
	mov	DWORD PTR _pchSrc$[ebp], edx

; 3928 :          continue;

	jmp	$LN2@fnSqlBuild
$LN17@fnSqlBuild:

; 3929 :       }
; 3930 : 
; 3931 :       // We should now be pointing to a string with the form @EntName.Attr.
; 3932 :       // Get the Entity name.
; 3933 : 
; 3934 :       pchSrc++;   // Skip the '@'.

	mov	eax, DWORD PTR _pchSrc$[ebp]
	add	eax, 1
	mov	DWORD PTR _pchSrc$[ebp], eax

; 3935 :       k = 0;

	xor	ecx, ecx
	mov	WORD PTR _k$[ebp], cx
$LN4@fnSqlBuild:

; 3936 :       while ( *pchSrc && IS_VALID_ID_CHAR( *pchSrc ) )

	mov	edx, DWORD PTR _pchSrc$[ebp]
	movsx	eax, BYTE PTR [edx]
	test	eax, eax
	je	SHORT $LN5@fnSqlBuild
	mov	ecx, DWORD PTR _pchSrc$[ebp]
	movsx	edx, BYTE PTR [ecx]
	push	edx
	call	DWORD PTR __imp__isalnum
	add	esp, 4
	test	eax, eax
	jne	SHORT $LN18@fnSqlBuild
	mov	eax, DWORD PTR _pchSrc$[ebp]
	movsx	ecx, BYTE PTR [eax]
	cmp	ecx, 95					; 0000005fH
	jne	SHORT $LN5@fnSqlBuild
$LN18@fnSqlBuild:

; 3937 :          szEntityName[ k++ ] = *pchSrc++;

	movsx	edx, WORD PTR _k$[ebp]
	mov	eax, DWORD PTR _pchSrc$[ebp]
	mov	cl, BYTE PTR [eax]
	mov	BYTE PTR _szEntityName$[ebp+edx], cl
	mov	dx, WORD PTR _k$[ebp]
	add	dx, 1
	mov	WORD PTR _k$[ebp], dx
	mov	eax, DWORD PTR _pchSrc$[ebp]
	add	eax, 1
	mov	DWORD PTR _pchSrc$[ebp], eax
	jmp	SHORT $LN4@fnSqlBuild
$LN5@fnSqlBuild:

; 3938 : 
; 3939 :       szEntityName[ k ] = 0;

	movsx	ecx, WORD PTR _k$[ebp]
	mov	DWORD PTR $T2[ebp], ecx
	cmp	DWORD PTR $T2[ebp], 33			; 00000021H
	jae	SHORT $LN26@fnSqlBuild
	jmp	SHORT $LN27@fnSqlBuild
$LN26@fnSqlBuild:
	call	___report_rangecheckfailure
$LN27@fnSqlBuild:
	mov	edx, DWORD PTR $T2[ebp]
	mov	BYTE PTR _szEntityName$[ebp+edx], 0

; 3940 : 
; 3941 :       if ( *pchSrc )

	mov	eax, DWORD PTR _pchSrc$[ebp]
	movsx	ecx, BYTE PTR [eax]
	test	ecx, ecx
	je	SHORT $LN19@fnSqlBuild

; 3942 :          pchSrc++;  // Skip the '.'.

	mov	edx, DWORD PTR _pchSrc$[ebp]
	add	edx, 1
	mov	DWORD PTR _pchSrc$[ebp], edx
$LN19@fnSqlBuild:

; 3943 : 
; 3944 :       k = 0;

	xor	eax, eax
	mov	WORD PTR _k$[ebp], ax
$LN6@fnSqlBuild:

; 3945 :       while ( *pchSrc && IS_VALID_ID_CHAR( *pchSrc ) )

	mov	ecx, DWORD PTR _pchSrc$[ebp]
	movsx	edx, BYTE PTR [ecx]
	test	edx, edx
	je	SHORT $LN7@fnSqlBuild
	mov	eax, DWORD PTR _pchSrc$[ebp]
	movsx	ecx, BYTE PTR [eax]
	push	ecx
	call	DWORD PTR __imp__isalnum
	add	esp, 4
	test	eax, eax
	jne	SHORT $LN20@fnSqlBuild
	mov	edx, DWORD PTR _pchSrc$[ebp]
	movsx	eax, BYTE PTR [edx]
	cmp	eax, 95					; 0000005fH
	jne	SHORT $LN7@fnSqlBuild
$LN20@fnSqlBuild:

; 3946 :          szAttributeName[ k++ ] = *pchSrc++;

	movsx	ecx, WORD PTR _k$[ebp]
	mov	edx, DWORD PTR _pchSrc$[ebp]
	mov	al, BYTE PTR [edx]
	mov	BYTE PTR _szAttributeName$[ebp+ecx], al
	mov	cx, WORD PTR _k$[ebp]
	add	cx, 1
	mov	WORD PTR _k$[ebp], cx
	mov	edx, DWORD PTR _pchSrc$[ebp]
	add	edx, 1
	mov	DWORD PTR _pchSrc$[ebp], edx
	jmp	SHORT $LN6@fnSqlBuild
$LN7@fnSqlBuild:

; 3947 : 
; 3948 :       szAttributeName[ k ] = 0;

	movsx	eax, WORD PTR _k$[ebp]
	mov	DWORD PTR $T1[ebp], eax
	cmp	DWORD PTR $T1[ebp], 33			; 00000021H
	jae	SHORT $LN28@fnSqlBuild
	jmp	SHORT $LN29@fnSqlBuild
$LN28@fnSqlBuild:
	call	___report_rangecheckfailure
$LN29@fnSqlBuild:
	mov	ecx, DWORD PTR $T1[ebp]
	mov	BYTE PTR _szAttributeName$[ebp+ecx], 0

; 3949 : 
; 3950 :       // Try getting the attribute value as a string.  If it failed, then
; 3951 :       // return with an error.  This call also verifies that the entity name
; 3952 :       // and attribute name are valid.
; 3953 :       nRC = GetStringFromAttribute( szTempStr, lpView, szEntityName,

	lea	edx, DWORD PTR _szAttributeName$[ebp]
	push	edx
	lea	eax, DWORD PTR _szEntityName$[ebp]
	push	eax
	mov	ecx, DWORD PTR _lpView$[ebp]
	push	ecx
	lea	edx, DWORD PTR _szTempStr$[ebp]
	push	edx
	call	_GetStringFromAttribute@16
	mov	WORD PTR _nRC$[ebp], ax

; 3954 :                                     szAttributeName );
; 3955 :       if ( nRC < -2 )

	movsx	eax, WORD PTR _nRC$[ebp]
	cmp	eax, -2					; fffffffeH
	jge	SHORT $LN21@fnSqlBuild

; 3956 :          return( zCALL_ERROR );

	mov	eax, -16				; fffffff0H
	jmp	$LN25@fnSqlBuild
	jmp	SHORT $LN22@fnSqlBuild
$LN21@fnSqlBuild:

; 3957 :       else
; 3958 :       if ( nRC == -2 )

	movsx	ecx, WORD PTR _nRC$[ebp]
	cmp	ecx, -2					; fffffffeH
	jne	SHORT $LN22@fnSqlBuild

; 3959 :       {
; 3960 :          zsprintf( szTempStr, "Cursor is NULL for attribute '@%s.%s'",

	lea	edx, DWORD PTR _szAttributeName$[ebp]
	push	edx
	lea	eax, DWORD PTR _szEntityName$[ebp]
	push	eax
	push	OFFSET $SG12887
	lea	ecx, DWORD PTR _szTempStr$[ebp]
	push	ecx
	call	_sprintf
	add	esp, 16					; 00000010H

; 3961 :                    szEntityName, szAttributeName );
; 3962 :          MessageSend( lpView, "KZH0202", "Qualification Object Error",

	push	0
	push	1000					; 000003e8H
	lea	edx, DWORD PTR _szTempStr$[ebp]
	push	edx
	push	OFFSET $SG12888
	push	OFFSET $SG12889
	mov	eax, DWORD PTR _lpView$[ebp]
	push	eax
	call	_MessageSend@24

; 3963 :                       szTempStr, zMSGQ_SYSTEM_ERROR, 0 );
; 3964 :          return( zCALL_ERROR );

	mov	eax, -16				; fffffff0H
	jmp	$LN25@fnSqlBuild
$LN22@fnSqlBuild:

; 3965 :       }
; 3966 : 
; 3967 :       // Find the lpViewEntity that matches szEntityName.
; 3968 :       for ( lpSrchEntity = zGETPTR( lpViewOD->hFirstOD_Entity );

	mov	ecx, DWORD PTR _lpViewOD$[ebp]
	mov	edx, DWORD PTR [ecx+224]
	push	edx
	call	_SysGetPointerFromHandle@4
	mov	DWORD PTR _lpSrchEntity$[ebp], eax
	jmp	SHORT $LN10@fnSqlBuild
$LN8@fnSqlBuild:

; 3970 :             lpSrchEntity = zGETPTR( lpSrchEntity->hNextHier ) )

	mov	eax, DWORD PTR _lpSrchEntity$[ebp]
	mov	ecx, DWORD PTR [eax+2]
	push	ecx
	call	_SysGetPointerFromHandle@4
	mov	DWORD PTR _lpSrchEntity$[ebp], eax
$LN10@fnSqlBuild:

; 3969 :             zstrcmp( lpSrchEntity->szName, szEntityName ) != 0;

	mov	edx, DWORD PTR _lpSrchEntity$[ebp]
	movsx	eax, BYTE PTR [edx+14]
	movsx	ecx, BYTE PTR _szEntityName$[ebp]
	cmp	eax, ecx
	jne	SHORT $LN32@fnSqlBuild
	lea	edx, DWORD PTR _szEntityName$[ebp]
	push	edx
	mov	eax, DWORD PTR _lpSrchEntity$[ebp]
	add	eax, 14					; 0000000eH
	push	eax
	call	_strcmp
	add	esp, 8
	mov	DWORD PTR tv185[ebp], eax
	jmp	SHORT $LN33@fnSqlBuild
$LN32@fnSqlBuild:
	mov	ecx, DWORD PTR _lpSrchEntity$[ebp]
	movsx	edx, BYTE PTR [ecx+14]
	movsx	eax, BYTE PTR _szEntityName$[ebp]
	sub	edx, eax
	test	edx, edx
	jle	SHORT $LN30@fnSqlBuild
	mov	DWORD PTR tv184[ebp], 1
	jmp	SHORT $LN31@fnSqlBuild
$LN30@fnSqlBuild:
	mov	DWORD PTR tv184[ebp], -1
$LN31@fnSqlBuild:
	mov	ecx, DWORD PTR tv184[ebp]
	mov	DWORD PTR tv185[ebp], ecx
$LN33@fnSqlBuild:
	cmp	DWORD PTR tv185[ebp], 0
	je	SHORT $LN9@fnSqlBuild

; 3971 :       {
; 3972 :          ; // Nothing needs to be done here.
; 3973 :       }

	jmp	$LN8@fnSqlBuild
$LN9@fnSqlBuild:

; 3974 : 
; 3975 :       // Now find the data field for the attribute.
; 3976 :       lpDataRecord = zGETPTR( lpSrchEntity->hFirstDataRecord );

	mov	edx, DWORD PTR _lpSrchEntity$[ebp]
	mov	eax, DWORD PTR [edx+191]
	push	eax
	call	_SysGetPointerFromHandle@4
	mov	DWORD PTR _lpDataRecord$[ebp], eax

; 3977 :       for ( lpDataField = zGETPTR( lpDataRecord->hFirstDataField );

	mov	ecx, DWORD PTR _lpDataRecord$[ebp]
	mov	edx, DWORD PTR [ecx+10]
	push	edx
	call	_SysGetPointerFromHandle@4
	mov	DWORD PTR _lpDataField$[ebp], eax
	jmp	SHORT $LN13@fnSqlBuild
$LN11@fnSqlBuild:

; 3979 :             lpDataField = zGETPTR( lpDataField->hNextDataField ) )

	mov	eax, DWORD PTR _lpDataField$[ebp]
	mov	ecx, DWORD PTR [eax+2]
	push	ecx
	call	_SysGetPointerFromHandle@4
	mov	DWORD PTR _lpDataField$[ebp], eax
$LN13@fnSqlBuild:

; 3978 :             lpDataField;

	cmp	DWORD PTR _lpDataField$[ebp], 0
	je	$LN12@fnSqlBuild

; 3980 :       {
; 3981 :          LPVIEWATTRIB lpViewAttrib = zGETPTR( lpDataField->hViewAttrib );

	mov	edx, DWORD PTR _lpDataField$[ebp]
	mov	eax, DWORD PTR [edx+6]
	push	eax
	call	_SysGetPointerFromHandle@4
	mov	DWORD PTR _lpViewAttrib$3[ebp], eax

; 3982 : 
; 3983 :          if ( zstrcmp( szAttributeName, lpViewAttrib->szName ) == 0 )

	movsx	ecx, BYTE PTR _szAttributeName$[ebp]
	mov	edx, DWORD PTR _lpViewAttrib$3[ebp]
	movsx	eax, BYTE PTR [edx+10]
	cmp	ecx, eax
	jne	SHORT $LN36@fnSqlBuild
	mov	ecx, DWORD PTR _lpViewAttrib$3[ebp]
	add	ecx, 10					; 0000000aH
	push	ecx
	lea	edx, DWORD PTR _szAttributeName$[ebp]
	push	edx
	call	_strcmp
	add	esp, 8
	mov	DWORD PTR tv214[ebp], eax
	jmp	SHORT $LN37@fnSqlBuild
$LN36@fnSqlBuild:
	movsx	eax, BYTE PTR _szAttributeName$[ebp]
	mov	ecx, DWORD PTR _lpViewAttrib$3[ebp]
	movsx	edx, BYTE PTR [ecx+10]
	sub	eax, edx
	test	eax, eax
	jle	SHORT $LN34@fnSqlBuild
	mov	DWORD PTR tv213[ebp], 1
	jmp	SHORT $LN35@fnSqlBuild
$LN34@fnSqlBuild:
	mov	DWORD PTR tv213[ebp], -1
$LN35@fnSqlBuild:
	mov	eax, DWORD PTR tv213[ebp]
	mov	DWORD PTR tv214[ebp], eax
$LN37@fnSqlBuild:
	cmp	DWORD PTR tv214[ebp], 0
	jne	SHORT $LN24@fnSqlBuild

; 3984 :             break;

	jmp	SHORT $LN12@fnSqlBuild
$LN24@fnSqlBuild:

; 3985 :       }

	jmp	$LN11@fnSqlBuild
$LN12@fnSqlBuild:

; 3986 : 
; 3987 :       // Convert the string value to a string the DB understands.
; 3988 :       fnSqlConvertStringToSqlString ( lpDataField, szTempStr, pchTgt,

	mov	ecx, DWORD PTR _lpBoundList$[ebp]
	push	ecx
	mov	edx, DWORD PTR _pchTgt$[ebp]
	push	edx
	lea	eax, DWORD PTR _szTempStr$[ebp]
	push	eax
	mov	ecx, DWORD PTR _lpDataField$[ebp]
	push	ecx
	call	_fnSqlConvertStringToSqlString
	add	esp, 16					; 00000010H
$LN14@fnSqlBuild:

; 3989 :                                       lpBoundList );
; 3990 :       mAdvanceToNull( pchTgt );

	mov	edx, DWORD PTR _pchTgt$[ebp]
	movsx	eax, BYTE PTR [edx]
	test	eax, eax
	je	SHORT $LN15@fnSqlBuild
	mov	ecx, DWORD PTR _pchTgt$[ebp]
	add	ecx, 1
	mov	DWORD PTR _pchTgt$[ebp], ecx
	jmp	SHORT $LN14@fnSqlBuild
$LN15@fnSqlBuild:

; 3991 : 
; 3992 :    } // while ( *pchSrc )...

	jmp	$LN2@fnSqlBuild
$LN3@fnSqlBuild:

; 3993 : 
; 3994 :    *pchTgt = 0;

	mov	edx, DWORD PTR _pchTgt$[ebp]
	mov	BYTE PTR [edx], 0

; 3995 : 
; 3996 :    return( 0 );

	xor	eax, eax
$LN25@fnSqlBuild:

; 3997 : 
; 3998 : } // fnSqlBuildOpenSQL

	mov	ecx, DWORD PTR __$ArrayPad$[ebp]
	xor	ecx, ebp
	call	@__security_check_cookie@4
	mov	esp, ebp
	pop	ebp
	ret	0
_fnSqlBuildOpenSQL ENDP
_TEXT	ENDS
; Function compile flags: /Odtp
; File c:\10c\a\oe\kzhsqlga.c
_TEXT	SEGMENT
_lpDataRecord$ = -20					; size = 4
_pchEntityJoinTable$ = -16				; size = 4
_lpChildEntity$ = -12					; size = 4
_nRC$ = -8						; size = 2
_bFirst$ = -1						; size = 1
_lpSql$ = 8						; size = 4
_lpViewEntity$ = 12					; size = 4
_fnSqlAddChildEntities PROC

; 3841 : {

	push	ebp
	mov	ebp, esp
	sub	esp, 20					; 00000014H
	push	esi

; 3842 :    zBOOL        bFirst;
; 3843 :    LPVIEWENTITY lpChildEntity = zGETPTR( lpViewEntity->hNextHier );

	mov	eax, DWORD PTR _lpViewEntity$[ebp]
	mov	ecx, DWORD PTR [eax+2]
	push	ecx
	call	_SysGetPointerFromHandle@4
	mov	DWORD PTR _lpChildEntity$[ebp], eax

; 3844 :    LPDATARECORD lpDataRecord;
; 3845 :    zSHORT       nRC = 0;

	xor	edx, edx
	mov	WORD PTR _nRC$[ebp], dx

; 3846 :    zPCHAR       pchEntityJoinTable = lpSql->lpBoundList->pchEntityJoinTable;

	mov	eax, DWORD PTR _lpSql$[ebp]
	mov	ecx, DWORD PTR [eax+1886]
	mov	edx, DWORD PTR [ecx+18]
	mov	DWORD PTR _pchEntityJoinTable$[ebp], edx

; 3847 : 
; 3848 :    // Loop through all the children of lpViewEntity.
; 3849 :    lpChildEntity = 0;

	mov	DWORD PTR _lpChildEntity$[ebp], 0

; 3850 :    bFirst = TRUE;

	mov	BYTE PTR _bFirst$[ebp], 1
$LN2@fnSqlAddCh:

; 3851 :    while ( SqlFindNextJoinableChild( lpViewEntity, &lpChildEntity,

	mov	eax, DWORD PTR _lpSql$[ebp]
	mov	ecx, DWORD PTR [eax+1886]
	push	ecx
	mov	edx, DWORD PTR _lpSql$[ebp]
	mov	eax, DWORD PTR [edx+72]
	push	eax
	mov	ecx, DWORD PTR _lpSql$[ebp]
	mov	edx, DWORD PTR [ecx+68]
	push	edx
	lea	eax, DWORD PTR _lpChildEntity$[ebp]
	push	eax
	mov	ecx, DWORD PTR _lpViewEntity$[ebp]
	push	ecx
	call	_SqlFindNextJoinableChild@20
	movsx	edx, ax
	test	edx, edx
	je	$LN3@fnSqlAddCh

; 3852 :                                      lpSql->lpLoadViewEntity,
; 3853 :                                      lpSql->lpFirstQualEntity, lpSql->lpBoundList ) )
; 3854 :    {
; 3855 :       // Ok, we now have to add this entity to the select statement as a join.
; 3856 :       // First, add the table name.
; 3857 :       lpDataRecord = zGETPTR( lpChildEntity->hFirstDataRecord );

	mov	eax, DWORD PTR _lpChildEntity$[ebp]
	mov	ecx, DWORD PTR [eax+191]
	push	ecx
	call	_SysGetPointerFromHandle@4
	mov	DWORD PTR _lpDataRecord$[ebp], eax

; 3858 :       fnAddTableToFrom( lpSql, 0, lpChildEntity, 0 );

	push	0
	mov	edx, DWORD PTR _lpChildEntity$[ebp]
	push	edx
	push	0
	mov	eax, DWORD PTR _lpSql$[ebp]
	push	eax
	call	_fnAddTableToFrom
	add	esp, 16					; 00000010H

; 3859 : 
; 3860 :       // Set a flag to tell the dbhandler that this entity will be loaded via
; 3861 :       // a join.
; 3862 :       if ( pchEntityJoinTable )

	cmp	DWORD PTR _pchEntityJoinTable$[ebp], 0
	je	SHORT $LN4@fnSqlAddCh

; 3863 :          pchEntityJoinTable[ lpChildEntity->nHierNbr ] |= zSELECT_JOINEDWITHPARENT;

	mov	ecx, DWORD PTR _lpChildEntity$[ebp]
	movsx	edx, WORD PTR [ecx+217]
	mov	eax, DWORD PTR _pchEntityJoinTable$[ebp]
	movsx	ecx, BYTE PTR [eax+edx]
	or	ecx, 1
	mov	edx, DWORD PTR _lpChildEntity$[ebp]
	movsx	eax, WORD PTR [edx+217]
	mov	edx, DWORD PTR _pchEntityJoinTable$[ebp]
	mov	BYTE PTR [edx+eax], cl
$LN4@fnSqlAddCh:

; 3864 : 
; 3865 :       // Now add the column names.  Since we know that we've already added the
; 3866 :       // column names of the parent (lpViewEntity) then add a ',' to the table
; 3867 :       // name list.
; 3868 :       fnSqlAddStringToSql( lpSql, ", " );

	push	OFFSET $SG12823
	mov	eax, DWORD PTR _lpSql$[ebp]
	mov	ecx, DWORD PTR [eax+16]
	push	ecx
	call	_strcat
	add	esp, 8
	mov	esi, eax
	mov	edx, DWORD PTR _lpSql$[ebp]
	mov	eax, DWORD PTR [edx+16]
	push	eax
	call	_strlen
	add	esp, 4
	add	esi, eax
	mov	ecx, DWORD PTR _lpSql$[ebp]
	mov	DWORD PTR [ecx+16], esi

; 3869 :       fnSqlBuildColumnList( lpChildEntity, lpSql,

	push	5
	mov	edx, DWORD PTR _lpSql$[ebp]
	push	edx
	mov	eax, DWORD PTR _lpChildEntity$[ebp]
	push	eax
	call	_fnSqlBuildColumnList
	add	esp, 12					; 0000000cH

; 3870 :                             zFULLY_QUALIFIED | zNO_HIDDEN );
; 3871 : 
; 3872 :       nRC = 1; // indicate that Joins were generated

	mov	ecx, 1
	mov	WORD PTR _nRC$[ebp], cx

; 3873 :    }

	jmp	$LN2@fnSqlAddCh
$LN3@fnSqlAddCh:

; 3874 : 
; 3875 :    if ( bFirst == FALSE && lpViewEntity->hParent )

	movzx	edx, BYTE PTR _bFirst$[ebp]
	test	edx, edx
	jne	SHORT $LN5@fnSqlAddCh
	mov	eax, DWORD PTR _lpViewEntity$[ebp]
	cmp	DWORD PTR [eax+10], 0
	je	SHORT $LN5@fnSqlAddCh

; 3876 :       fnSqlAddStringToWhere( lpSql, " AND " );

	push	OFFSET $SG12825
	mov	ecx, DWORD PTR _lpSql$[ebp]
	mov	edx, DWORD PTR [ecx+44]
	push	edx
	call	_strcat
	add	esp, 8
	mov	esi, eax
	mov	eax, DWORD PTR _lpSql$[ebp]
	mov	ecx, DWORD PTR [eax+44]
	push	ecx
	call	_strlen
	add	esp, 4
	add	esi, eax
	mov	edx, DWORD PTR _lpSql$[ebp]
	mov	DWORD PTR [edx+44], esi
$LN5@fnSqlAddCh:

; 3877 : 
; 3878 :    return( nRC );

	mov	ax, WORD PTR _nRC$[ebp]

; 3879 : }

	pop	esi
	mov	esp, ebp
	pop	ebp
	ret	0
_fnSqlAddChildEntities ENDP
_TEXT	ENDS
; Function compile flags: /Odtp
; File c:\10c\a\oe\kzhsqlga.c
_TEXT	SEGMENT
_lpBoundList$ = -28					; size = 4
_lpView$ = -24						; size = 4
_lpViewAttrib$ = -20					; size = 4
_lpDataRecord$ = -16					; size = 4
_lpViewEntity$ = -12					; size = 4
_lpDataField$ = -8					; size = 4
_nKeyCnt$ = -4						; size = 2
_lpQualEntity$ = 8					; size = 4
_lpQualAttrib$ = 12					; size = 4
_lpSql$ = 16						; size = 4
_fnSqlBuildIS_Clause PROC

; 3270 : {

	push	ebp
	mov	ebp, esp
	sub	esp, 28					; 0000001cH
	push	esi

; 3271 :    LPVIEWENTITY lpViewEntity;
; 3272 :    LPVIEWATTRIB lpViewAttrib;
; 3273 :    LPDATARECORD lpDataRecord;
; 3274 :    LPDATAFIELD  lpDataField;
; 3275 :    LPBOUNDLIST  lpBoundList = lpSql->lpBoundList;

	mov	eax, DWORD PTR _lpSql$[ebp]
	mov	ecx, DWORD PTR [eax+1886]
	mov	DWORD PTR _lpBoundList$[ebp], ecx

; 3276 :    zVIEW        lpView;
; 3277 :    zSHORT       nKeyCnt;
; 3278 : 
; 3279 :    nKeyCnt      = 0;

	xor	edx, edx
	mov	WORD PTR _nKeyCnt$[ebp], dx

; 3280 :    lpView       = lpQualAttrib->lpSourceView;

	mov	eax, DWORD PTR _lpQualAttrib$[ebp]
	mov	ecx, DWORD PTR [eax+60]
	mov	DWORD PTR _lpView$[ebp], ecx

; 3281 :    lpViewEntity = lpQualAttrib->lpSourceViewEntity;

	mov	edx, DWORD PTR _lpQualAttrib$[ebp]
	mov	eax, DWORD PTR [edx+52]
	mov	DWORD PTR _lpViewEntity$[ebp], eax

; 3282 :    lpDataRecord = zGETPTR( lpViewEntity->hFirstDataRecord );

	mov	ecx, DWORD PTR _lpViewEntity$[ebp]
	mov	edx, DWORD PTR [ecx+191]
	push	edx
	call	_SysGetPointerFromHandle@4
	mov	DWORD PTR _lpDataRecord$[ebp], eax

; 3283 : 
; 3284 :    for ( lpDataField  = zGETPTR( lpDataRecord->hFirstDataField );

	mov	eax, DWORD PTR _lpDataRecord$[ebp]
	mov	ecx, DWORD PTR [eax+10]
	push	ecx
	call	_SysGetPointerFromHandle@4
	mov	DWORD PTR _lpDataField$[ebp], eax
	jmp	SHORT $LN4@fnSqlBuild
$LN2@fnSqlBuild:

; 3286 :          lpDataField = zGETPTR( lpDataField->hNextDataField ) )

	mov	edx, DWORD PTR _lpDataField$[ebp]
	mov	eax, DWORD PTR [edx+2]
	push	eax
	call	_SysGetPointerFromHandle@4
	mov	DWORD PTR _lpDataField$[ebp], eax
$LN4@fnSqlBuild:

; 3285 :          lpDataField;

	cmp	DWORD PTR _lpDataField$[ebp], 0
	je	$LN3@fnSqlBuild

; 3287 :    {
; 3288 :       lpViewAttrib = zGETPTR( lpDataField->hViewAttrib );

	mov	ecx, DWORD PTR _lpDataField$[ebp]
	mov	edx, DWORD PTR [ecx+6]
	push	edx
	call	_SysGetPointerFromHandle@4
	mov	DWORD PTR _lpViewAttrib$[ebp], eax

; 3289 :       if ( lpViewAttrib->bKey == FALSE )

	mov	eax, DWORD PTR _lpViewAttrib$[ebp]
	mov	ecx, DWORD PTR [eax+193]
	shr	ecx, 1
	and	ecx, 1
	jne	SHORT $LN5@fnSqlBuild

; 3290 :          continue;

	jmp	SHORT $LN2@fnSqlBuild
$LN5@fnSqlBuild:

; 3291 : 
; 3292 :       if ( nKeyCnt > 0 )

