; Listing generated by Microsoft (R) Optimizing Compiler Version 19.00.24213.1 

	TITLE	c:\10c\A\oe\KZOEEIAA.C
	.686P
	.XMM
	include listing.inc
	.model	flat

INCLUDELIB MSVCRTD
INCLUDELIB OLDNAMES

_BSS	SEGMENT
$SG13721 DB	01H DUP (?)
_BSS	ENDS
_DATA	SEGMENT
$SG14403 DB	'fnCreateEntity ERROR locating RecursViewEntity for lpVie'
	DB	'wSubobject: 0x%08x', 00H
	ORG $+1
$SG14482 DB	'KZOEE119 - Invalid View, View is Read Only for Entity: ', 00H
$SG14486 DB	'KZOEE253 - Entity cursor is NULL for Entity: ', 00H
	ORG $+2
$SG14490 DB	'KZOEE252 - Root of view has been deleted for Entity: ', 00H
	ORG $+2
$SG14497 DB	'KZOEE253 - Entity cursor is NULL for Entity: ', 00H
	ORG $+2
$SG14499 DB	'(DGC) View   Cursor   = ', 00H
	ORG $+3
$SG14500 DB	'(DGC) Entity Cursor   = ', 00H
	ORG $+3
$SG14501 DB	'(DGC) Entity Instance = ', 00H
	ORG $+3
$SG14502 DB	'Invalid Table ID for entity instance', 00H
	ORG $+3
$SG14503 DB	'DGC', 00H
$SG13484 DB	'Entity Creation not allowed', 00H
$SG14514 DB	'KZOEE253 - Entity cursor is NULL for Entity: ', 00H
	ORG $+2
$SG14515 DB	'KZOEE254 - Entity cursor is undefined for Entity: ', 00H
	ORG $+1
$SG13517 DB	'Entity Creation not allowed', 00H
$SG14519 DB	'KZOEE255 - Attempt to update a previous entity version f'
	DB	'or Entity: ', 00H
$SG13714 DB	'Entity Deletion not allowed', 00H
$SG14523 DB	'KZOEE264 - Invalid Operation for Hierarchical processing'
	DB	' for Entity: ', 00H
	ORG $+2
$SG13720 DB	'Can''t delete entity %s because of Restrict constraint o'
	DB	'n child entity %s', 00H
	ORG $+3
$SG13722 DB	'Entity Deletion not allowed - child is restricted', 00H
	ORG $+2
$SG13836 DB	'Entity Exclusion not allowed', 00H
	ORG $+3
$SG13916 DB	'Source Entity not includeble', 00H
	ORG $+3
$SG13918 DB	'The following LODs are out of sync and should be re-buil'
	DB	't', 00H
	ORG $+2
$SG13919 DB	'ERROR: ', 00H
$SG13920 DB	'Out-of-sync error. Target LOD = %s, date = %s', 00H
	ORG $+2
$SG13921 DB	'   ==> ', 00H
$SG13922 DB	'Out-of-sync error. Source LOD = %s, date = %s', 00H
	ORG $+2
$SG13923 DB	'   ==> ', 00H
$SG13924 DB	'SyncER/LOD', 00H
	ORG $+1
$SG13925 DB	'[Workstation]', 00H
	ORG $+2
$SG13927 DB	'LODs are potentially out of sync.  See trace for more.', 00H
	ORG $+1
$SG15064 DB	' dks 2007.04.23', 00H
$SG15065 DB	'RemoveAllTemporal skipping break:', 00H
	ORG $+2
$SG14232 DB	'Entity Instance key is NULL', 00H
$SG14233 DB	'Internal Zeidon Error', 00H
_DATA	ENDS
PUBLIC	_CheckExistenceOfEntity@8
PUBLIC	_CheckEntityInView@8
PUBLIC	_CreateEntity@12
PUBLIC	_GetEntityKey@8
PUBLIC	_LoadEntity@16
PUBLIC	_DeleteEntity@12
PUBLIC	_DropEntity@12
PUBLIC	_ExcludeEntity@12
PUBLIC	_CreateTemporalEntity@12
PUBLIC	_SetIncrementalUpdateFlags@12
PUBLIC	_GetIncrementalUpdateFlags@12
PUBLIC	_RelinkInstanceToInstance@16
PUBLIC	_CountEntitiesForView@8
PUBLIC	_CountEntitiesForViewUnderParent@12
PUBLIC	_fnEntityInstanceIsDead@4
PUBLIC	_fnSetEntityKey@12
PUBLIC	_fnCreateEntity@20
PUBLIC	_fnDeleteEntity
PUBLIC	_fnExcludeEntity
PUBLIC	_fnEstablishViewForInstance
PUBLIC	_fnValidateInsertPosition
PUBLIC	_fnValidateInstanceParameters
PUBLIC	_fnExcludeEntityInstance
PUBLIC	_fnSpawnCreateEntity
PUBLIC	_fnReclaimHiddenInstances@4
PUBLIC	_fnInstanceLinkedToInstance
PUBLIC	_fnInstanceVersioned
PUBLIC	_fnInstanceVersionRootMatch
PUBLIC	_fnHideLinkedChildren
PUBLIC	_fnHideExcludedDeletedInstances
PUBLIC	_fnInstanceKeysMatch
PUBLIC	_fnRelinkInstanceToInstance
PUBLIC	_fnGetEntityCnstrntOper
PUBLIC	_fnInvokeECEOperation
PUBLIC	_fnRemoveAllChildTemporalVsns
PUBLIC	_fnRemoveOtherOI_LinkedInstances
PUBLIC	_fnEntityInRecursivePath
PUBLIC	_fnFirstLevel2_ForViewEntity
PUBLIC	_fnStillPrevVersion
PUBLIC	_fnEntityContainsEntity@8
PUBLIC	___local_stdio_printf_options
PUBLIC	__vsnprintf_l
PUBLIC	__vsprintf_l
PUBLIC	_sprintf
PUBLIC	_fnInitAttributes@8
PUBLIC	_fnSameRelationshipInstance
PUBLIC	_fnValidateInstanceAttributes
EXTRN	_memcmp:PROC
EXTRN	_strcmp:PROC
EXTRN	_TraceLineX@8:PROC
EXTRN	_TraceLineS@8:PROC
EXTRN	_TraceLine:PROC
EXTRN	_IssueOE_Error@28:PROC
EXTRN	_CreateViewFromViewForTask@12:PROC
EXTRN	_DropView@4:PROC
EXTRN	_AcceptSubobject@8:PROC
EXTRN	_CancelSubobject@8:PROC
EXTRN	_SetCursorNextEntity@12:PROC
EXTRN	_SetCursorPrevEntity@12:PROC
EXTRN	_SetCursorFirstEntity@12:PROC
EXTRN	_SetCursorLastEntity@12:PROC
EXTRN	_SysGetProc@8:PROC
EXTRN	_SysGetProcessID@4:PROC
EXTRN	_SysLoadLibrary@8:PROC
EXTRN	_SysMessageBox@16:PROC
EXTRN	_SysReadZeidonIni@16:PROC
EXTRN	_StoreStringInRecord@16:PROC
EXTRN	_fnSysLockCoreMutex@4:PROC
EXTRN	_fnSysUnlockCoreMutex@4:PROC
EXTRN	_fnGetAttribFlagsPtr@8:PROC
EXTRN	_fnGetAttrAddrFromEntityInstance:PROC
EXTRN	_fnCreateAttributeRecord:PROC
EXTRN	_fnDeleteAttributeRecord:PROC
EXTRN	_fnSetUpdateIndicator:PROC
EXTRN	_fnSetEntityCursor:PROC
EXTRN	_fnValidateCursorParameters:PROC
EXTRN	_fnNullCursorForViewChildren:PROC
EXTRN	_fnResetCursorForViewChildren:PROC
EXTRN	_fnEstablishCursorForView:PROC
EXTRN	_fnAllocDataspace:PROC
EXTRN	_fnFreeDataspace:PROC
EXTRN	_fnIssueCoreError:PROC
EXTRN	_fnOperationCall:PROC
EXTRN	_fnOperationReturn:PROC
EXTRN	_fnValidViewCsr:PROC
EXTRN	_fnValidViewEntity@16:PROC
EXTRN	_fnAddEntityToDebugChange@4:PROC
EXTRN	_fnRemoveEntityFromDebugChange@4:PROC
EXTRN	_fnSetViewFromView:PROC
EXTRN	_fnDropView@4:PROC
EXTRN	_fnSetViewToSubobject:PROC
EXTRN	_fnResetView:PROC
EXTRN	__imp____stdio_common_vsprintf:PROC
EXTRN	_fnEntityNameFromCsr@4:PROC
EXTRN	@__security_check_cookie@4:PROC
EXTRN	_g_pfnGetPtr:DWORD
EXTRN	_g_pfnGetHndl:DWORD
EXTRN	_AnchorBlock:DWORD
EXTRN	___security_cookie:DWORD
_DATA	SEGMENT
COMM	?_OptionsStorage@?1??__local_stdio_printf_options@@9@9:QWORD							; `__local_stdio_printf_options'::`2'::_OptionsStorage
_DATA	ENDS
; Function compile flags: /Odtp
; File c:\10c\a\oe\kzoeeiaa.c
_TEXT	SEGMENT
_lpAttrAddr$ = -16					; size = 4
_un$ = -12						; size = 4
_lpViewAttrib$ = -8					; size = 4
_nErrorCount$ = -4					; size = 2
_lpView$ = 8						; size = 4
_lpViewEntity$ = 12					; size = 4
_lpEntityInstance$ = 16					; size = 4
_fnValidateInstanceAttributes PROC

; 4979 : {

	push	ebp
	mov	ebp, esp
	sub	esp, 16					; 00000010H

; 4980 :    LPVIEWATTRIB   lpViewAttrib;
; 4981 :    zPVOID         lpAttrAddr;
; 4982 :    zULONG         un;
; 4983 :    zSHORT         nErrorCount = 0;

	xor	eax, eax
	mov	WORD PTR _nErrorCount$[ebp], ax

; 4984 : 
; 4985 :    // User shouldn't pass us a null pointer...
; 4986 :    if ( lpEntityInstance == 0 )

	cmp	DWORD PTR _lpEntityInstance$[ebp], 0
	jne	SHORT $LN5@fnValidate

; 4987 :       return( zCALL_ERROR );

	mov	eax, -16				; fffffff0H
	jmp	$LN1@fnValidate
$LN5@fnValidate:

; 4988 : 
; 4989 :    for ( lpViewAttrib = zGETPTR( lpViewEntity->hFirstOD_Attrib );

	mov	ecx, DWORD PTR _lpViewEntity$[ebp]
	mov	edx, DWORD PTR [ecx+179]
	push	edx
	call	DWORD PTR _g_pfnGetPtr
	mov	DWORD PTR _lpViewAttrib$[ebp], eax
	jmp	SHORT $LN4@fnValidate
$LN2@fnValidate:

; 4991 :          lpViewAttrib = zGETPTR( lpViewAttrib->hNextOD_Attrib ) )

	mov	eax, DWORD PTR _lpViewAttrib$[ebp]
	mov	ecx, DWORD PTR [eax+2]
	push	ecx
	call	DWORD PTR _g_pfnGetPtr
	mov	DWORD PTR _lpViewAttrib$[ebp], eax
$LN4@fnValidate:

; 4990 :          lpViewAttrib;

	cmp	DWORD PTR _lpViewAttrib$[ebp], 0
	je	$LN3@fnValidate

; 4992 :    {
; 4993 :       // If the attribute is not required don't worry about it.
; 4994 :       // Don't worry about hidden attributes.
; 4995 :       // If the attribute is a genkey then we'll set it later so skip it.
; 4996 :       if ( lpViewAttrib->bRequired == FALSE ||
; 4997 :            lpViewAttrib->bHidden || lpViewAttrib->bGenkey )

	mov	edx, DWORD PTR _lpViewAttrib$[ebp]
	mov	eax, DWORD PTR [edx+193]
	shr	eax, 4
	and	eax, 1
	je	SHORT $LN7@fnValidate
	mov	ecx, DWORD PTR _lpViewAttrib$[ebp]
	mov	edx, DWORD PTR [ecx+193]
	shr	edx, 5
	and	edx, 1
	jne	SHORT $LN7@fnValidate
	mov	eax, DWORD PTR _lpViewAttrib$[ebp]
	mov	ecx, DWORD PTR [eax+193]
	shr	ecx, 3
	and	ecx, 1
	je	SHORT $LN6@fnValidate
$LN7@fnValidate:

; 4998 :       {
; 4999 :          continue;

	jmp	SHORT $LN2@fnValidate
$LN6@fnValidate:

; 5000 :       }
; 5001 : 
; 5002 :       // If the entity is a hanging entity then we only care about keys.
; 5003 :       if ( lpEntityInstance->u.nInd.bHangingEntity )

	mov	edx, DWORD PTR _lpEntityInstance$[ebp]
	mov	eax, DWORD PTR [edx+6]
	and	eax, 1
	je	SHORT $LN8@fnValidate

; 5004 :       {
; 5005 :          // Not a key?  Skip it.
; 5006 :          if ( lpViewAttrib->bKey == FALSE )

	mov	ecx, DWORD PTR _lpViewAttrib$[ebp]
	mov	edx, DWORD PTR [ecx+193]
	shr	edx, 1
	and	edx, 1
	jne	SHORT $LN8@fnValidate

; 5007 :             continue;

	jmp	SHORT $LN2@fnValidate
$LN8@fnValidate:

; 5008 :       }
; 5009 : 
; 5010 :       // If the attribute is NULL then we have a problem.
; 5011 :       if ( fnGetAttrAddrFromEntityInstance( (zCOREMEM) &lpAttrAddr, &un,
; 5012 :                                             lpEntityInstance,
; 5013 :                                             lpViewAttrib ) == -1 )

	mov	eax, DWORD PTR _lpViewAttrib$[ebp]
	push	eax
	mov	ecx, DWORD PTR _lpEntityInstance$[ebp]
	push	ecx
	lea	edx, DWORD PTR _un$[ebp]
	push	edx
	lea	eax, DWORD PTR _lpAttrAddr$[ebp]
	push	eax
	call	_fnGetAttrAddrFromEntityInstance
	add	esp, 16					; 00000010H
	movsx	ecx, ax
	cmp	ecx, -1
	jne	SHORT $LN10@fnValidate

; 5014 :       {
; 5015 :          // "KZOEE248 - Required attribute is null"
; 5016 :          IssueOE_Error( lpView, 8, 248,

	mov	edx, DWORD PTR _lpViewAttrib$[ebp]
	add	edx, 10					; 0000000aH
	push	edx
	mov	eax, DWORD PTR _lpViewEntity$[ebp]
	add	eax, 14					; 0000000eH
	push	eax
	push	0
	push	400					; 00000190H
	push	248					; 000000f8H
	push	8
	mov	ecx, DWORD PTR _lpView$[ebp]
	push	ecx
	call	_IssueOE_Error@28

; 5017 :                         zMSGQ_REQUIRED_DATA_ITEM_ERROR, 0,
; 5018 :                         lpViewEntity->szName,
; 5019 :                         lpViewAttrib->szName );
; 5020 : 
; 5021 :          // attribute is null...
; 5022 :          if ( nErrorCount != 32767 )

	movsx	edx, WORD PTR _nErrorCount$[ebp]
	cmp	edx, 32767				; 00007fffH
	je	SHORT $LN10@fnValidate

; 5023 :             nErrorCount++;

	mov	ax, WORD PTR _nErrorCount$[ebp]
	add	ax, 1
	mov	WORD PTR _nErrorCount$[ebp], ax
$LN10@fnValidate:

; 5024 :       }
; 5025 : 
; 5026 :    } // for...

	jmp	$LN2@fnValidate
$LN3@fnValidate:

; 5027 : 
; 5028 :    return( nErrorCount );

	mov	ax, WORD PTR _nErrorCount$[ebp]
$LN1@fnValidate:

; 5029 : }

	mov	esp, ebp
	pop	ebp
	ret	0
_fnValidateInstanceAttributes ENDP
_TEXT	ENDS
; Function compile flags: /Odtp
; File c:\10c\a\oe\kzoeeiaa.c
_TEXT	SEGMENT
_lpViewEntity2$ = -8					; size = 4
_lpViewEntity1$ = -4					; size = 4
_lpEntityInstance1$ = 8					; size = 4
_lpEntityInstance2$ = 12				; size = 4
_fnSameRelationshipInstance PROC

; 1466 : {

	push	ebp
	mov	ebp, esp
	sub	esp, 8

; 1467 :    LPVIEWENTITY lpViewEntity1;
; 1468 :    LPVIEWENTITY lpViewEntity2;
; 1469 : 
; 1470 :    if ( lpEntityInstance1 == lpEntityInstance2 )

	mov	eax, DWORD PTR _lpEntityInstance1$[ebp]
	cmp	eax, DWORD PTR _lpEntityInstance2$[ebp]
	jne	SHORT $LN2@fnSameRela

; 1471 :       return( 1 );  // Same relationship

	mov	eax, 1
	jmp	$LN1@fnSameRela
$LN2@fnSameRela:

; 1472 : 
; 1473 :    lpViewEntity1 = zGETPTR( lpEntityInstance1->hViewEntity );

	mov	ecx, DWORD PTR _lpEntityInstance1$[ebp]
	mov	edx, DWORD PTR [ecx+2]
	push	edx
	call	DWORD PTR _g_pfnGetPtr
	mov	DWORD PTR _lpViewEntity1$[ebp], eax

; 1474 :    lpViewEntity2 = zGETPTR( lpEntityInstance2->hViewEntity );

	mov	eax, DWORD PTR _lpEntityInstance2$[ebp]
	mov	ecx, DWORD PTR [eax+2]
	push	ecx
	call	DWORD PTR _g_pfnGetPtr
	mov	DWORD PTR _lpViewEntity2$[ebp], eax

; 1475 : 
; 1476 :    if ( lpViewEntity1->lERRelTok == lpViewEntity2->lERRelTok &&
; 1477 :         lpEntityInstance1->hParent && lpEntityInstance2->hParent )

	mov	edx, DWORD PTR _lpViewEntity1$[ebp]
	mov	eax, DWORD PTR _lpViewEntity2$[ebp]
	mov	ecx, DWORD PTR [edx+199]
	cmp	ecx, DWORD PTR [eax+199]
	jne	SHORT $LN3@fnSameRela
	mov	edx, DWORD PTR _lpEntityInstance1$[ebp]
	cmp	DWORD PTR [edx+30], 0
	je	SHORT $LN3@fnSameRela
	mov	eax, DWORD PTR _lpEntityInstance2$[ebp]
	cmp	DWORD PTR [eax+30], 0
	je	SHORT $LN3@fnSameRela

; 1478 :    {
; 1479 :       if ( fnInstanceKeysMatch( lpEntityInstance1, lpEntityInstance2 ) &&

	mov	ecx, DWORD PTR _lpEntityInstance2$[ebp]
	push	ecx
	mov	edx, DWORD PTR _lpEntityInstance1$[ebp]
	push	edx
	call	_fnInstanceKeysMatch
	add	esp, 8
	cwde
	test	eax, eax
	je	SHORT $LN3@fnSameRela
	mov	ecx, DWORD PTR _lpEntityInstance2$[ebp]
	mov	edx, DWORD PTR [ecx+30]
	push	edx
	call	DWORD PTR _g_pfnGetPtr
	push	eax
	mov	eax, DWORD PTR _lpEntityInstance1$[ebp]
	mov	ecx, DWORD PTR [eax+30]
	push	ecx
	call	DWORD PTR _g_pfnGetPtr
	push	eax
	call	_fnInstanceKeysMatch
	add	esp, 8
	movsx	edx, ax
	test	edx, edx
	je	SHORT $LN3@fnSameRela

; 1480 :            fnInstanceKeysMatch( zGETPTR( lpEntityInstance1->hParent ),
; 1481 :                                 zGETPTR( lpEntityInstance2->hParent ) ) )
; 1482 :       {
; 1483 :          return( 1 );

	mov	eax, 1
	jmp	SHORT $LN1@fnSameRela
$LN3@fnSameRela:

; 1484 :       }
; 1485 :    }
; 1486 : 
; 1487 :    return( 0 );  // Not the same relationship

	xor	eax, eax
$LN1@fnSameRela:

; 1488 : }

	mov	esp, ebp
	pop	ebp
	ret	0
_fnSameRelationshipInstance ENDP
_TEXT	ENDS
; Function compile flags: /Odtp
; File c:\10c\a\oe\kzoeeiaa.c
_TEXT	SEGMENT
_lpViewAttrib$ = -4					; size = 4
_lpView$ = 8						; size = 4
_lpViewEntity$ = 12					; size = 4
_fnInitAttributes@8 PROC

; 105  : {

	push	ebp
	mov	ebp, esp
	push	ecx

; 106  :    LPVIEWATTRIB lpViewAttrib;
; 107  : 
; 108  :    if ( lpViewEntity->bAttrInit == FALSE )

	mov	eax, DWORD PTR _lpViewEntity$[ebp]
	mov	ecx, DWORD PTR [eax+235]
	shr	ecx, 17					; 00000011H
	and	ecx, 1
	jne	SHORT $LN5@fnInitAttr

; 109  :       return;

	jmp	SHORT $LN1@fnInitAttr
$LN5@fnInitAttr:

; 110  : 
; 111  :    for ( lpViewAttrib = zGETPTR( lpViewEntity->hFirstOD_Attrib );

	mov	edx, DWORD PTR _lpViewEntity$[ebp]
	mov	eax, DWORD PTR [edx+179]
	push	eax
	call	DWORD PTR _g_pfnGetPtr
	mov	DWORD PTR _lpViewAttrib$[ebp], eax
	jmp	SHORT $LN4@fnInitAttr
$LN2@fnInitAttr:

; 113  :          lpViewAttrib = zGETPTR( lpViewAttrib->hNextOD_Attrib ) )

	mov	ecx, DWORD PTR _lpViewAttrib$[ebp]
	mov	edx, DWORD PTR [ecx+2]
	push	edx
	call	DWORD PTR _g_pfnGetPtr
	mov	DWORD PTR _lpViewAttrib$[ebp], eax
$LN4@fnInitAttr:

; 112  :          lpViewAttrib;

	cmp	DWORD PTR _lpViewAttrib$[ebp], 0
	je	SHORT $LN1@fnInitAttr

; 114  :    {
; 115  :       if ( lpViewAttrib->hInit )

	mov	eax, DWORD PTR _lpViewAttrib$[ebp]
	cmp	DWORD PTR [eax+209], 0
	je	SHORT $LN6@fnInitAttr

; 116  :       {
; 117  :          StoreStringInRecord( lpView, lpViewEntity, lpViewAttrib,

	mov	ecx, DWORD PTR _lpViewAttrib$[ebp]
	mov	edx, DWORD PTR [ecx+209]
	push	edx
	call	DWORD PTR _g_pfnGetPtr
	push	eax
	mov	eax, DWORD PTR _lpViewAttrib$[ebp]
	push	eax
	mov	ecx, DWORD PTR _lpViewEntity$[ebp]
	push	ecx
	mov	edx, DWORD PTR _lpView$[ebp]
	push	edx
	call	_StoreStringInRecord@16
$LN6@fnInitAttr:

; 118  :                               zGETPTR( lpViewAttrib->hInit ) );
; 119  :       }
; 120  :    }

	jmp	SHORT $LN2@fnInitAttr
$LN1@fnInitAttr:

; 121  : 
; 122  : } // fnInitAttributes

	mov	esp, ebp
	pop	ebp
	ret	8
_fnInitAttributes@8 ENDP
_TEXT	ENDS
; Function compile flags: /Odtp
; File c:\10c\a\oe\kzoeeiaa.c
_TEXT	SEGMENT
_lpViewEntity$ = -8					; size = 4
_lpLoopInstance$ = -4					; size = 4
_lpViewOI$ = 8						; size = 4
_fnCheckOIUpdated PROC

; 5502 : {

	push	ebp
	mov	ebp, esp
	sub	esp, 8

; 5503 :    LPENTITYINSTANCE lpLoopInstance;
; 5504 :    LPVIEWENTITY lpViewEntity;
; 5505 : 
; 5506 :    lpViewOI->bUpdated = lpViewOI->bUpdatedFile = FALSE;

	mov	eax, DWORD PTR _lpViewOI$[ebp]
	mov	ecx, DWORD PTR [eax+36]
	and	ecx, -33				; ffffffdfH
	mov	edx, DWORD PTR _lpViewOI$[ebp]
	mov	DWORD PTR [edx+36], ecx
	mov	eax, DWORD PTR _lpViewOI$[ebp]
	mov	ecx, DWORD PTR [eax+36]
	and	ecx, -17				; ffffffefH
	mov	edx, DWORD PTR _lpViewOI$[ebp]
	mov	DWORD PTR [edx+36], ecx

; 5507 : 
; 5508 :    // Loop through the entity instances.
; 5509 :    for ( lpLoopInstance = zGETPTR( lpViewOI->hRootEntityInstance );

	mov	eax, DWORD PTR _lpViewOI$[ebp]
	mov	ecx, DWORD PTR [eax+26]
	push	ecx
	call	DWORD PTR _g_pfnGetPtr
	mov	DWORD PTR _lpLoopInstance$[ebp], eax
	jmp	SHORT $LN4@fnCheckOIU
$LN2@fnCheckOIU:

; 5511 :          lpLoopInstance = zGETPTR( lpLoopInstance->hNextHier ) )

	mov	edx, DWORD PTR _lpLoopInstance$[ebp]
	mov	eax, DWORD PTR [edx+14]
	push	eax
	call	DWORD PTR _g_pfnGetPtr
	mov	DWORD PTR _lpLoopInstance$[ebp], eax
$LN4@fnCheckOIU:

; 5510 :          lpLoopInstance && lpViewOI->bUpdated == FALSE;

	cmp	DWORD PTR _lpLoopInstance$[ebp], 0
	je	$LN3@fnCheckOIU
	mov	ecx, DWORD PTR _lpViewOI$[ebp]
	mov	edx, DWORD PTR [ecx+36]
	shr	edx, 4
	and	edx, 1
	jne	$LN3@fnCheckOIU

; 5512 :    {
; 5513 :       // Check to see if the entity instance has been changed somehow.  If it has
; 5514 :       // then we need to flag the OI as being updated.  We ignore instances
; 5515 :       // that have a previous version because we can't tell yet if the OI will
; 5516 :       // be updated because of the versioned instance.
; 5517 :       if ( lpLoopInstance->hPrevVsn == 0 &&
; 5518 :            !fnEntityInstanceIsDead( lpLoopInstance ) &&

	mov	eax, DWORD PTR _lpLoopInstance$[ebp]
	cmp	DWORD PTR [eax+38], 0
	jne	$LN5@fnCheckOIU
	mov	ecx, DWORD PTR _lpLoopInstance$[ebp]
	push	ecx
	call	_fnEntityInstanceIsDead@4
	movsx	edx, ax
	test	edx, edx
	jne	$LN5@fnCheckOIU
	mov	eax, DWORD PTR _lpLoopInstance$[ebp]
	mov	ecx, DWORD PTR [eax+6]
	shr	ecx, 1
	and	ecx, 1
	jne	SHORT $LN6@fnCheckOIU
	mov	edx, DWORD PTR _lpLoopInstance$[ebp]
	mov	eax, DWORD PTR [edx+6]
	shr	eax, 2
	and	eax, 1
	jne	SHORT $LN6@fnCheckOIU
	mov	ecx, DWORD PTR _lpLoopInstance$[ebp]
	mov	edx, DWORD PTR [ecx+6]
	shr	edx, 3
	and	edx, 1
	jne	SHORT $LN6@fnCheckOIU
	mov	eax, DWORD PTR _lpLoopInstance$[ebp]
	mov	ecx, DWORD PTR [eax+6]
	shr	ecx, 5
	and	ecx, 1
	jne	SHORT $LN6@fnCheckOIU
	mov	edx, DWORD PTR _lpLoopInstance$[ebp]
	mov	eax, DWORD PTR [edx+6]
	shr	eax, 4
	and	eax, 1
	je	SHORT $LN5@fnCheckOIU
$LN6@fnCheckOIU:

; 5519 :            (lpLoopInstance->u.nInd.bCreated  ||
; 5520 :             lpLoopInstance->u.nInd.bUpdated  ||
; 5521 :             lpLoopInstance->u.nInd.bDeleted  ||
; 5522 :             lpLoopInstance->u.nInd.bIncluded ||
; 5523 :             lpLoopInstance->u.nInd.bExcluded) )
; 5524 :       {
; 5525 :          lpViewEntity = zGETPTR( lpLoopInstance->hViewEntity );

	mov	ecx, DWORD PTR _lpLoopInstance$[ebp]
	mov	edx, DWORD PTR [ecx+2]
	push	edx
	call	DWORD PTR _g_pfnGetPtr
	mov	DWORD PTR _lpViewEntity$[ebp], eax

; 5526 : 
; 5527 :          if ( lpViewEntity->bDerived == FALSE &&
; 5528 :               lpViewEntity->bDerivedPath == FALSE &&

	mov	eax, DWORD PTR _lpViewEntity$[ebp]
	mov	ecx, DWORD PTR [eax+235]
	shr	ecx, 13					; 0000000dH
	and	ecx, 1
	jne	SHORT $LN7@fnCheckOIU
	mov	edx, DWORD PTR _lpViewEntity$[ebp]
	mov	eax, DWORD PTR [edx+235]
	shr	eax, 14					; 0000000eH
	and	eax, 1
	jne	SHORT $LN7@fnCheckOIU
	mov	ecx, DWORD PTR _lpViewEntity$[ebp]
	cmp	DWORD PTR [ecx+191], 0
	je	SHORT $LN7@fnCheckOIU

; 5529 :               lpViewEntity->hFirstDataRecord != 0 )
; 5530 :          {
; 5531 :             // The entity is a "database" entity (not work).
; 5532 :             lpViewOI->bUpdated = TRUE;

	mov	edx, DWORD PTR _lpViewOI$[ebp]
	mov	eax, DWORD PTR [edx+36]
	or	eax, 16					; 00000010H
	mov	ecx, DWORD PTR _lpViewOI$[ebp]
	mov	DWORD PTR [ecx+36], eax
$LN7@fnCheckOIU:

; 5533 :          }
; 5534 : 
; 5535 :          lpViewOI->bUpdatedFile = TRUE;

	mov	edx, DWORD PTR _lpViewOI$[ebp]
	mov	eax, DWORD PTR [edx+36]
	or	eax, 32					; 00000020H
	mov	ecx, DWORD PTR _lpViewOI$[ebp]
	mov	DWORD PTR [ecx+36], eax
$LN5@fnCheckOIU:

; 5536 :       }
; 5537 :    }

	jmp	$LN2@fnCheckOIU
$LN3@fnCheckOIU:

; 5538 : 
; 5539 :    if ( lpViewOI->bUpdated )

	mov	edx, DWORD PTR _lpViewOI$[ebp]
	mov	eax, DWORD PTR [edx+36]
	shr	eax, 4
	and	eax, 1
	je	SHORT $LN8@fnCheckOIU

; 5540 :       return( 3 );

	mov	eax, 3
	jmp	SHORT $LN1@fnCheckOIU
	jmp	SHORT $LN1@fnCheckOIU
$LN8@fnCheckOIU:

; 5541 :    else
; 5542 :    if ( lpViewOI->bUpdatedFile )

	mov	ecx, DWORD PTR _lpViewOI$[ebp]
	mov	edx, DWORD PTR [ecx+36]
	shr	edx, 5
	and	edx, 1
	je	SHORT $LN10@fnCheckOIU

; 5543 :       return( 1 );

	mov	eax, 1
	jmp	SHORT $LN1@fnCheckOIU
	jmp	SHORT $LN1@fnCheckOIU
$LN10@fnCheckOIU:

; 5544 :    else
; 5545 :       return( 0 );

	xor	eax, eax
$LN1@fnCheckOIU:

; 5546 : }

	mov	esp, ebp
	pop	ebp
	ret	0
_fnCheckOIUpdated ENDP
_TEXT	ENDS
; Function compile flags: /Odtp
; File c:\program files (x86)\windows kits\10\include\10.0.10150.0\ucrt\stdio.h
;	COMDAT _sprintf
_TEXT	SEGMENT
__Result$ = -8						; size = 4
__ArgList$ = -4						; size = 4
__Buffer$ = 8						; size = 4
__Format$ = 12						; size = 4
_sprintf PROC						; COMDAT

; 1776 : {

	push	ebp
	mov	ebp, esp
	sub	esp, 8

; 1777 :     int _Result;
; 1778 :     va_list _ArgList;
; 1779 :     __crt_va_start(_ArgList, _Format);

	lea	eax, DWORD PTR __Format$[ebp+4]
	mov	DWORD PTR __ArgList$[ebp], eax

; 1780 : 
; 1781 :     #pragma warning(push)
; 1782 :     #pragma warning(disable: 4996) // Deprecation
; 1783 :     _Result = _vsprintf_l(_Buffer, _Format, NULL, _ArgList);

	mov	ecx, DWORD PTR __ArgList$[ebp]
	push	ecx
	push	0
	mov	edx, DWORD PTR __Format$[ebp]
	push	edx
	mov	eax, DWORD PTR __Buffer$[ebp]
	push	eax
	call	__vsprintf_l
	add	esp, 16					; 00000010H
	mov	DWORD PTR __Result$[ebp], eax

; 1784 :     #pragma warning(pop)
; 1785 : 
; 1786 :     __crt_va_end(_ArgList);

	mov	DWORD PTR __ArgList$[ebp], 0

; 1787 :     return _Result;

	mov	eax, DWORD PTR __Result$[ebp]

; 1788 : }

	mov	esp, ebp
	pop	ebp
	ret	0
_sprintf ENDP
_TEXT	ENDS
; Function compile flags: /Odtp
; File c:\program files (x86)\windows kits\10\include\10.0.10150.0\ucrt\stdio.h
;	COMDAT __vsprintf_l
_TEXT	SEGMENT
__Buffer$ = 8						; size = 4
__Format$ = 12						; size = 4
__Locale$ = 16						; size = 4
__ArgList$ = 20						; size = 4
__vsprintf_l PROC					; COMDAT

; 1455 : {

	push	ebp
	mov	ebp, esp

; 1456 :     #pragma warning(push)
; 1457 :     #pragma warning(disable: 4996) // Deprecation
; 1458 :     return _vsnprintf_l(_Buffer, (size_t)-1, _Format, _Locale, _ArgList);

	mov	eax, DWORD PTR __ArgList$[ebp]
	push	eax
	mov	ecx, DWORD PTR __Locale$[ebp]
	push	ecx
	mov	edx, DWORD PTR __Format$[ebp]
	push	edx
	push	-1
	mov	eax, DWORD PTR __Buffer$[ebp]
	push	eax
	call	__vsnprintf_l
	add	esp, 20					; 00000014H

; 1459 :     #pragma warning(pop)
; 1460 : }

	pop	ebp
	ret	0
__vsprintf_l ENDP
_TEXT	ENDS
; Function compile flags: /Odtp
; File c:\program files (x86)\windows kits\10\include\10.0.10150.0\ucrt\stdio.h
;	COMDAT __vsnprintf_l
_TEXT	SEGMENT
tv74 = -8						; size = 4
__Result$ = -4						; size = 4
__Buffer$ = 8						; size = 4
__BufferCount$ = 12					; size = 4
__Format$ = 16						; size = 4
__Locale$ = 20						; size = 4
__ArgList$ = 24						; size = 4
__vsnprintf_l PROC					; COMDAT

; 1385 : {

	push	ebp
	mov	ebp, esp
	sub	esp, 8

; 1386 :     int const _Result = __stdio_common_vsprintf(

	mov	eax, DWORD PTR __ArgList$[ebp]
	push	eax
	mov	ecx, DWORD PTR __Locale$[ebp]
	push	ecx
	mov	edx, DWORD PTR __Format$[ebp]
	push	edx
	mov	eax, DWORD PTR __BufferCount$[ebp]
	push	eax
	mov	ecx, DWORD PTR __Buffer$[ebp]
	push	ecx
	call	___local_stdio_printf_options
	mov	edx, DWORD PTR [eax]
	or	edx, 1
	mov	eax, DWORD PTR [eax+4]
	push	eax
	push	edx
	call	DWORD PTR __imp____stdio_common_vsprintf
	add	esp, 28					; 0000001cH
	mov	DWORD PTR __Result$[ebp], eax

; 1387 :         _CRT_INTERNAL_LOCAL_PRINTF_OPTIONS | _CRT_INTERNAL_PRINTF_LEGACY_VSPRINTF_NULL_TERMINATION,
; 1388 :         _Buffer, _BufferCount, _Format, _Locale, _ArgList);
; 1389 : 
; 1390 :     return _Result < 0 ? -1 : _Result;

	cmp	DWORD PTR __Result$[ebp], 0
	jge	SHORT $LN3@vsnprintf_
	mov	DWORD PTR tv74[ebp], -1
	jmp	SHORT $LN4@vsnprintf_
$LN3@vsnprintf_:
	mov	ecx, DWORD PTR __Result$[ebp]
	mov	DWORD PTR tv74[ebp], ecx
$LN4@vsnprintf_:
	mov	eax, DWORD PTR tv74[ebp]

; 1391 : }

	mov	esp, ebp
	pop	ebp
	ret	0
__vsnprintf_l ENDP
_TEXT	ENDS
; Function compile flags: /Odtp
; File c:\program files (x86)\windows kits\10\include\10.0.10150.0\ucrt\corecrt_stdio_config.h
;	COMDAT ___local_stdio_printf_options
_TEXT	SEGMENT
___local_stdio_printf_options PROC			; COMDAT

; 73   : {

	push	ebp
	mov	ebp, esp

; 74   :     static unsigned __int64 _OptionsStorage;
; 75   :     return &_OptionsStorage;

	mov	eax, OFFSET ?_OptionsStorage@?1??__local_stdio_printf_options@@9@9 ; `__local_stdio_printf_options'::`2'::_OptionsStorage

; 76   : }

	pop	ebp
	ret	0
___local_stdio_printf_options ENDP
_TEXT	ENDS
; Function compile flags: /Odtp
; File c:\10c\a\oe\kzoeeiaa.c
_TEXT	SEGMENT
_lpViewAttrib2$ = -8					; size = 4
_lpViewAttrib1$ = -4					; size = 4
_lpVE1$ = 8						; size = 4
_lpVE2$ = 12						; size = 4
_fnEntityContainsEntity@8 PROC

; 5431 : {

	push	ebp
	mov	ebp, esp
	sub	esp, 8

; 5432 :    LPVIEWATTRIB lpViewAttrib2;
; 5433 :    LPVIEWATTRIB lpViewAttrib1;
; 5434 : 
; 5435 :    // They had better be the same ER entity.
; 5436 :    if ( lpVE1->lEREntTok != lpVE2->lEREntTok )

	mov	eax, DWORD PTR _lpVE1$[ebp]
	mov	ecx, DWORD PTR _lpVE2$[ebp]
	mov	edx, DWORD PTR [eax+195]
	cmp	edx, DWORD PTR [ecx+195]
	je	SHORT $LN8@fnEntityCo

; 5437 :       return( FALSE );

	xor	al, al
	jmp	$LN1@fnEntityCo
$LN8@fnEntityCo:

; 5438 : 
; 5439 :    if ( lpVE2 == lpVE1 )

	mov	eax, DWORD PTR _lpVE2$[ebp]
	cmp	eax, DWORD PTR _lpVE1$[ebp]
	jne	SHORT $LN9@fnEntityCo

; 5440 :       return( TRUE );

	mov	al, 1
	jmp	$LN1@fnEntityCo
$LN9@fnEntityCo:

; 5441 : 
; 5442 :    if ( lpVE2->bFullPersist && lpVE1->bFullPersist )

	mov	ecx, DWORD PTR _lpVE2$[ebp]
	mov	edx, DWORD PTR [ecx+235]
	shr	edx, 22					; 00000016H
	and	edx, 1
	je	SHORT $LN10@fnEntityCo
	mov	eax, DWORD PTR _lpVE1$[ebp]
	mov	ecx, DWORD PTR [eax+235]
	shr	ecx, 22					; 00000016H
	and	ecx, 1
	je	SHORT $LN10@fnEntityCo

; 5443 :       return( TRUE );

	mov	al, 1
	jmp	$LN1@fnEntityCo
$LN10@fnEntityCo:

; 5444 : 
; 5445 :    // OK...the two enties are not the same AND one of the entities is
; 5446 :    // not fully persistent.  Look for hidden attributes.
; 5447 :    for ( lpViewAttrib2 = zGETPTR( lpVE2->hFirstOD_Attrib );

	mov	edx, DWORD PTR _lpVE2$[ebp]
	mov	eax, DWORD PTR [edx+179]
	push	eax
	call	DWORD PTR _g_pfnGetPtr
	mov	DWORD PTR _lpViewAttrib2$[ebp], eax
	jmp	SHORT $LN4@fnEntityCo
$LN2@fnEntityCo:

; 5449 :          lpViewAttrib2 = zGETPTR( lpViewAttrib2->hNextOD_Attrib ) )

	mov	ecx, DWORD PTR _lpViewAttrib2$[ebp]
	mov	edx, DWORD PTR [ecx+2]
	push	edx
	call	DWORD PTR _g_pfnGetPtr
	mov	DWORD PTR _lpViewAttrib2$[ebp], eax
$LN4@fnEntityCo:

; 5448 :          lpViewAttrib2;

	cmp	DWORD PTR _lpViewAttrib2$[ebp], 0
	je	$LN3@fnEntityCo

; 5450 :    {
; 5451 :       // We don't care if the 'source' attribute is hidden.
; 5452 :       if ( lpViewAttrib2->bHidden &&
; 5453 :            lpViewAttrib2->bKey == FALSE &&

	mov	eax, DWORD PTR _lpViewAttrib2$[ebp]
	mov	ecx, DWORD PTR [eax+193]
	shr	ecx, 5
	and	ecx, 1
	je	SHORT $LN11@fnEntityCo
	mov	edx, DWORD PTR _lpViewAttrib2$[ebp]
	mov	eax, DWORD PTR [edx+193]
	shr	eax, 1
	and	eax, 1
	jne	SHORT $LN11@fnEntityCo
	mov	ecx, DWORD PTR _lpViewAttrib2$[ebp]
	mov	edx, DWORD PTR [ecx+193]
	shr	edx, 2
	and	edx, 1
	jne	SHORT $LN11@fnEntityCo

; 5454 :            lpViewAttrib2->bForeignKey == FALSE )
; 5455 :       {
; 5456 :          continue;

	jmp	SHORT $LN2@fnEntityCo
$LN11@fnEntityCo:

; 5457 :       }
; 5458 : 
; 5459 :       // See if there is a matching attribute in the cache entity.
; 5460 :       for ( lpViewAttrib1 = zGETPTR( lpVE1->hFirstOD_Attrib );

	mov	eax, DWORD PTR _lpVE1$[ebp]
	mov	ecx, DWORD PTR [eax+179]
	push	ecx
	call	DWORD PTR _g_pfnGetPtr
	mov	DWORD PTR _lpViewAttrib1$[ebp], eax
	jmp	SHORT $LN7@fnEntityCo
$LN5@fnEntityCo:

; 5462 :             lpViewAttrib1 = zGETPTR( lpViewAttrib1->hNextOD_Attrib ) )

	mov	edx, DWORD PTR _lpViewAttrib1$[ebp]
	mov	eax, DWORD PTR [edx+2]
	push	eax
	call	DWORD PTR _g_pfnGetPtr
	mov	DWORD PTR _lpViewAttrib1$[ebp], eax
$LN7@fnEntityCo:

; 5461 :             lpViewAttrib1;

	cmp	DWORD PTR _lpViewAttrib1$[ebp], 0
	je	SHORT $LN6@fnEntityCo

; 5463 :       {
; 5464 :          if ( lpViewAttrib1->lERAttTok == lpViewAttrib2->lERAttTok )

	mov	ecx, DWORD PTR _lpViewAttrib1$[ebp]
	mov	edx, DWORD PTR _lpViewAttrib2$[ebp]
	mov	eax, DWORD PTR [ecx+177]
	cmp	eax, DWORD PTR [edx+177]
	jne	SHORT $LN12@fnEntityCo

; 5465 :             break;

	jmp	SHORT $LN6@fnEntityCo
$LN12@fnEntityCo:

; 5466 :       }

	jmp	SHORT $LN5@fnEntityCo
$LN6@fnEntityCo:

; 5467 : 
; 5468 :       // If we didn't find a matching attribute or if the attribute we
; 5469 :       // found is hidden then set compare to FALSE.
; 5470 :       if ( lpViewAttrib1 == 0 ||

	cmp	DWORD PTR _lpViewAttrib1$[ebp], 0
	je	SHORT $LN14@fnEntityCo
	mov	ecx, DWORD PTR _lpViewAttrib1$[ebp]
	mov	edx, DWORD PTR [ecx+193]
	shr	edx, 5
	and	edx, 1
	je	SHORT $LN13@fnEntityCo
	mov	eax, DWORD PTR _lpViewAttrib1$[ebp]
	mov	ecx, DWORD PTR [eax+193]
	shr	ecx, 1
	and	ecx, 1
	jne	SHORT $LN13@fnEntityCo
	mov	edx, DWORD PTR _lpViewAttrib1$[ebp]
	mov	eax, DWORD PTR [edx+193]
	shr	eax, 2
	and	eax, 1
	jne	SHORT $LN13@fnEntityCo
$LN14@fnEntityCo:

; 5471 :            (lpViewAttrib1->bHidden && lpViewAttrib1->bKey == FALSE &&
; 5472 :             lpViewAttrib1->bForeignKey == FALSE) )
; 5473 :       {
; 5474 :          // We found a non-hidden attribute in lpVE2 that is not part of
; 5475 :          // lpVE1 so return FALSE.
; 5476 :          return( FALSE );

	xor	al, al
	jmp	SHORT $LN1@fnEntityCo
$LN13@fnEntityCo:

; 5477 :       }
; 5478 : 
; 5479 :    } // for ( lpViewAttrib2 )...

	jmp	$LN2@fnEntityCo
$LN3@fnEntityCo:

; 5480 : 
; 5481 :    return( TRUE );

	mov	al, 1
$LN1@fnEntityCo:

; 5482 : }

	mov	esp, ebp
	pop	ebp
	ret	8
_fnEntityContainsEntity@8 ENDP
_TEXT	ENDS
; Function compile flags: /Odtp
; File c:\10c\a\oe\kzoeeiaa.c
_TEXT	SEGMENT
_lpLinked$ = -4						; size = 4
_lpEntityInstance$ = 8					; size = 4
_fnStillPrevVersion PROC

; 5392 : {

	push	ebp
	mov	ebp, esp
	push	ecx

; 5393 :    LPENTITYINSTANCE lpLinked;
; 5394 : 
; 5395 :    if ( lpEntityInstance->hNextVsn )

	mov	eax, DWORD PTR _lpEntityInstance$[ebp]
	cmp	DWORD PTR [eax+34], 0
	je	SHORT $LN4@fnStillPre

; 5396 :       return( 1 );

	mov	al, 1
	jmp	SHORT $LN1@fnStillPre
$LN4@fnStillPre:

; 5397 : 
; 5398 :    lpLinked = zGETPTR( lpEntityInstance->hNextLinked );

	mov	ecx, DWORD PTR _lpEntityInstance$[ebp]
	mov	edx, DWORD PTR [ecx+42]
	push	edx
	call	DWORD PTR _g_pfnGetPtr
	mov	DWORD PTR _lpLinked$[ebp], eax
$LN2@fnStillPre:

; 5399 :    while ( lpLinked && lpLinked != lpEntityInstance )

	cmp	DWORD PTR _lpLinked$[ebp], 0
	je	SHORT $LN3@fnStillPre
	mov	eax, DWORD PTR _lpLinked$[ebp]
	cmp	eax, DWORD PTR _lpEntityInstance$[ebp]
	je	SHORT $LN3@fnStillPre

; 5400 :    {
; 5401 :       if ( lpLinked->hNextVsn )

	mov	ecx, DWORD PTR _lpLinked$[ebp]
	cmp	DWORD PTR [ecx+34], 0
	je	SHORT $LN5@fnStillPre

; 5402 :          return( 1 );

	mov	al, 1
	jmp	SHORT $LN1@fnStillPre
$LN5@fnStillPre:

; 5403 : 
; 5404 :       lpLinked = zGETPTR( lpLinked->hNextLinked );

	mov	edx, DWORD PTR _lpLinked$[ebp]
	mov	eax, DWORD PTR [edx+42]
	push	eax
	call	DWORD PTR _g_pfnGetPtr
	mov	DWORD PTR _lpLinked$[ebp], eax

; 5405 :    }

	jmp	SHORT $LN2@fnStillPre
$LN3@fnStillPre:

; 5406 : 
; 5407 :    lpEntityInstance->u.nInd.bPrevVersion = FALSE;

	mov	ecx, DWORD PTR _lpEntityInstance$[ebp]
	mov	edx, DWORD PTR [ecx+6]
	and	edx, -257				; fffffeffH
	mov	eax, DWORD PTR _lpEntityInstance$[ebp]
	mov	DWORD PTR [eax+6], edx

; 5408 :    return( 0 );

	xor	al, al
$LN1@fnStillPre:

; 5409 : }

	mov	esp, ebp
	pop	ebp
	ret	0
_fnStillPrevVersion ENDP
_TEXT	ENDS
; Function compile flags: /Odtp
; File c:\10c\a\oe\kzoeeiaa.c
_TEXT	SEGMENT
_lpWkViewEntity$ = -4					; size = 4
_lpStartEntityInstance$ = 8				; size = 4
_lpViewEntity$ = 12					; size = 4
_fnFirstLevel2_ForViewEntity PROC

; 5345 : {

	push	ebp
	mov	ebp, esp
	push	ecx

; 5346 :    LPVIEWENTITY lpWkViewEntity;
; 5347 : 
; 5348 :    if ( lpViewEntity->nLevel < 2 )

	mov	eax, DWORD PTR _lpViewEntity$[ebp]
	movsx	ecx, WORD PTR [eax+215]
	cmp	ecx, 2
	jge	SHORT $LN2@fnFirstLev

; 5349 :       return( lpStartEntityInstance );

	mov	eax, DWORD PTR _lpStartEntityInstance$[ebp]
	jmp	$LN1@fnFirstLev
$LN2@fnFirstLev:

; 5350 : 
; 5351 :    while ( lpViewEntity->nLevel > 2 )

	mov	edx, DWORD PTR _lpViewEntity$[ebp]
	movsx	eax, WORD PTR [edx+215]
	cmp	eax, 2
	jle	SHORT $LN4@fnFirstLev

; 5352 :       lpViewEntity = zGETPTR( lpViewEntity->hParent );

	mov	ecx, DWORD PTR _lpViewEntity$[ebp]
	mov	edx, DWORD PTR [ecx+10]
	push	edx
	call	DWORD PTR _g_pfnGetPtr
	mov	DWORD PTR _lpViewEntity$[ebp], eax
	jmp	SHORT $LN2@fnFirstLev
$LN4@fnFirstLev:

; 5353 : 
; 5354 :    while ( lpStartEntityInstance && lpStartEntityInstance->nLevel == 1 )

	cmp	DWORD PTR _lpStartEntityInstance$[ebp], 0
	je	SHORT $LN8@fnFirstLev
	mov	eax, DWORD PTR _lpStartEntityInstance$[ebp]
	movsx	ecx, WORD PTR [eax+58]
	cmp	ecx, 1
	jne	SHORT $LN8@fnFirstLev

; 5355 :       lpStartEntityInstance = zGETPTR( lpStartEntityInstance->hNextHier );

	mov	edx, DWORD PTR _lpStartEntityInstance$[ebp]
	mov	eax, DWORD PTR [edx+14]
	push	eax
	call	DWORD PTR _g_pfnGetPtr
	mov	DWORD PTR _lpStartEntityInstance$[ebp], eax
	jmp	SHORT $LN4@fnFirstLev
$LN8@fnFirstLev:

; 5356 : 
; 5357 :    for ( ; ; )
; 5358 :    {
; 5359 :       if ( lpStartEntityInstance == 0 )

	cmp	DWORD PTR _lpStartEntityInstance$[ebp], 0
	jne	SHORT $LN10@fnFirstLev

; 5360 :          return( 0 );

	xor	eax, eax
	jmp	SHORT $LN1@fnFirstLev
$LN10@fnFirstLev:

; 5361 : 
; 5362 :       lpWkViewEntity = zGETPTR( lpStartEntityInstance->hViewEntity );

	mov	ecx, DWORD PTR _lpStartEntityInstance$[ebp]
	mov	edx, DWORD PTR [ecx+2]
	push	edx
	call	DWORD PTR _g_pfnGetPtr
	mov	DWORD PTR _lpWkViewEntity$[ebp], eax

; 5363 :       if ( lpWkViewEntity->nHierNbr < lpViewEntity->nHierNbr )

	mov	eax, DWORD PTR _lpWkViewEntity$[ebp]
	movsx	ecx, WORD PTR [eax+217]
	mov	edx, DWORD PTR _lpViewEntity$[ebp]
	movsx	eax, WORD PTR [edx+217]
	cmp	ecx, eax
	jge	SHORT $LN11@fnFirstLev

; 5364 :       {
; 5365 :          if ( lpStartEntityInstance->hNextTwin )

	mov	ecx, DWORD PTR _lpStartEntityInstance$[ebp]
	cmp	DWORD PTR [ecx+22], 0
	je	SHORT $LN13@fnFirstLev

; 5366 :             lpStartEntityInstance = zGETPTR( lpStartEntityInstance->hNextTwin );

	mov	edx, DWORD PTR _lpStartEntityInstance$[ebp]
	mov	eax, DWORD PTR [edx+22]
	push	eax
	call	DWORD PTR _g_pfnGetPtr
	mov	DWORD PTR _lpStartEntityInstance$[ebp], eax
	jmp	SHORT $LN14@fnFirstLev
$LN13@fnFirstLev:

; 5367 :          else
; 5368 :             lpStartEntityInstance = zGETPTR( lpStartEntityInstance->hNextHier );

	mov	ecx, DWORD PTR _lpStartEntityInstance$[ebp]
	mov	edx, DWORD PTR [ecx+14]
	push	edx
	call	DWORD PTR _g_pfnGetPtr
	mov	DWORD PTR _lpStartEntityInstance$[ebp], eax
$LN14@fnFirstLev:

; 5369 :       }

	jmp	SHORT $LN12@fnFirstLev
$LN11@fnFirstLev:

; 5370 :       else
; 5371 :       if ( lpWkViewEntity->nHierNbr > lpViewEntity->nHierNbr )

	mov	eax, DWORD PTR _lpWkViewEntity$[ebp]
	movsx	ecx, WORD PTR [eax+217]
	mov	edx, DWORD PTR _lpViewEntity$[ebp]
	movsx	eax, WORD PTR [edx+217]
	cmp	ecx, eax
	jle	SHORT $LN15@fnFirstLev

; 5372 :          return( 0 );

	xor	eax, eax
	jmp	SHORT $LN1@fnFirstLev
	jmp	SHORT $LN12@fnFirstLev
$LN15@fnFirstLev:

; 5373 :       else
; 5374 :          return( lpStartEntityInstance );

	mov	eax, DWORD PTR _lpStartEntityInstance$[ebp]
	jmp	SHORT $LN1@fnFirstLev
$LN12@fnFirstLev:

; 5375 :         }

	jmp	$LN8@fnFirstLev
$LN1@fnFirstLev:

; 5376 : }

	mov	esp, ebp
	pop	ebp
	ret	0
_fnFirstLevel2_ForViewEntity ENDP
_TEXT	ENDS
; Function compile flags: /Odtp
; File c:\10c\a\oe\kzoeeiaa.c
_TEXT	SEGMENT
_lpWkViewEntity$ = -4					; size = 4
_lpViewEntity$ = 8					; size = 4
_fnEntityInRecursivePath PROC

; 5293 : {

	push	ebp
	mov	ebp, esp
	push	ecx

; 5294 :    LPVIEWENTITY lpWkViewEntity;
; 5295 : 
; 5296 :    if ( lpViewEntity->bRecursive )

	mov	eax, DWORD PTR _lpViewEntity$[ebp]
	mov	ecx, DWORD PTR [eax+235]
	shr	ecx, 11					; 0000000bH
	and	ecx, 1
	je	SHORT $LN2@fnEntityIn

; 5297 :       return( 1 );

	mov	al, 1
	jmp	$LN1@fnEntityIn
$LN2@fnEntityIn:

; 5298 : 
; 5299 :    while ( lpViewEntity )

	cmp	DWORD PTR _lpViewEntity$[ebp], 0
	je	$LN3@fnEntityIn
$LN4@fnEntityIn:

; 5300 :    {
; 5301 :       while ( lpViewEntity && lpViewEntity->bRecursivePar == FALSE )

	cmp	DWORD PTR _lpViewEntity$[ebp], 0
	je	SHORT $LN5@fnEntityIn
	mov	edx, DWORD PTR _lpViewEntity$[ebp]
	mov	eax, DWORD PTR [edx+235]
	shr	eax, 29					; 0000001dH
	and	eax, 1
	jne	SHORT $LN5@fnEntityIn

; 5302 :          lpViewEntity = zGETPTR( lpViewEntity->hParent );

	mov	ecx, DWORD PTR _lpViewEntity$[ebp]
	mov	edx, DWORD PTR [ecx+10]
	push	edx
	call	DWORD PTR _g_pfnGetPtr
	mov	DWORD PTR _lpViewEntity$[ebp], eax
	jmp	SHORT $LN4@fnEntityIn
$LN5@fnEntityIn:

; 5303 : 
; 5304 :       if ( lpViewEntity )

	cmp	DWORD PTR _lpViewEntity$[ebp], 0
	je	SHORT $LN9@fnEntityIn

; 5305 :       {
; 5306 :          lpWkViewEntity = zGETPTR( lpViewEntity->hNextHier );

	mov	eax, DWORD PTR _lpViewEntity$[ebp]
	mov	ecx, DWORD PTR [eax+2]
	push	ecx
	call	DWORD PTR _g_pfnGetPtr
	mov	DWORD PTR _lpWkViewEntity$[ebp], eax
$LN6@fnEntityIn:

; 5307 : 
; 5308 :          while ( lpWkViewEntity &&

	cmp	DWORD PTR _lpWkViewEntity$[ebp], 0
	je	SHORT $LN7@fnEntityIn
	mov	edx, DWORD PTR _lpWkViewEntity$[ebp]
	movsx	eax, WORD PTR [edx+215]
	mov	ecx, DWORD PTR _lpViewEntity$[ebp]
	movsx	edx, WORD PTR [ecx+215]
	cmp	eax, edx
	jle	SHORT $LN7@fnEntityIn

; 5309 :                  lpWkViewEntity->nLevel > lpViewEntity->nLevel )
; 5310 :          {
; 5311 :             if ( lpWkViewEntity->bRecursive &&

	mov	eax, DWORD PTR _lpWkViewEntity$[ebp]
	mov	ecx, DWORD PTR [eax+235]
	shr	ecx, 11					; 0000000bH
	and	ecx, 1
	je	SHORT $LN10@fnEntityIn
	mov	edx, DWORD PTR _lpWkViewEntity$[ebp]
	mov	eax, DWORD PTR _lpViewEntity$[ebp]
	mov	ecx, DWORD PTR [edx+195]
	cmp	ecx, DWORD PTR [eax+195]
	jne	SHORT $LN10@fnEntityIn

; 5312 :                  lpWkViewEntity->lEREntTok == lpViewEntity->lEREntTok )
; 5313 :             {
; 5314 :                return( 1 );

	mov	al, 1
	jmp	SHORT $LN1@fnEntityIn
$LN10@fnEntityIn:

; 5315 :             }
; 5316 : 
; 5317 :             lpWkViewEntity = zGETPTR( lpWkViewEntity->hNextHier );

	mov	edx, DWORD PTR _lpWkViewEntity$[ebp]
	mov	eax, DWORD PTR [edx+2]
	push	eax
	call	DWORD PTR _g_pfnGetPtr
	mov	DWORD PTR _lpWkViewEntity$[ebp], eax

; 5318 :          }

	jmp	SHORT $LN6@fnEntityIn
$LN7@fnEntityIn:

; 5319 : 
; 5320 :          lpViewEntity = zGETPTR( lpViewEntity->hParent );

	mov	ecx, DWORD PTR _lpViewEntity$[ebp]
	mov	edx, DWORD PTR [ecx+10]
	push	edx
	call	DWORD PTR _g_pfnGetPtr
	mov	DWORD PTR _lpViewEntity$[ebp], eax
$LN9@fnEntityIn:

; 5321 :       }
; 5322 :    }

	jmp	$LN2@fnEntityIn
$LN3@fnEntityIn:

; 5323 : 
; 5324 :    return( 0 );

	xor	al, al
$LN1@fnEntityIn:

; 5325 : }

	mov	esp, ebp
	pop	ebp
	ret	0
_fnEntityInRecursivePath ENDP
_TEXT	ENDS
; Function compile flags: /Odtp
; File c:\10c\a\oe\kzoeeiaa.c
_TEXT	SEGMENT
_lTgtERRelTok$ = -32					; size = 4
_hSrcViewOI$ = -28					; size = 4
_hTgtViewOI$ = -24					; size = 4
_lpWkViewEntity$ = -20					; size = 4
_lpViewEntity$ = -16					; size = 4
_lpWk2$ = -12						; size = 4
_lpWk1$ = -8						; size = 4
_lpWk3$ = -4						; size = 4
_lpTgtEntityInstance$ = 8				; size = 4
_lpSrcEntityInstance$ = 12				; size = 4
_fnRemoveOtherOI_LinkedInstances PROC

; 5162 : {

	push	ebp
	mov	ebp, esp
	sub	esp, 32					; 00000020H

; 5163 :    zLONG            lTgtERRelTok;
; 5164 :    LPVIEWOI         hSrcViewOI;
; 5165 :    LPVIEWOI         hTgtViewOI;
; 5166 :    LPVIEWENTITY     lpViewEntity;
; 5167 :    LPVIEWENTITY     lpWkViewEntity;
; 5168 :    LPENTITYINSTANCE lpWk1;
; 5169 :    LPENTITYINSTANCE lpWk2;
; 5170 :    LPENTITYINSTANCE lpWk3;
; 5171 : 
; 5172 :    lpViewEntity = zGETPTR( lpTgtEntityInstance->hViewEntity );

	mov	eax, DWORD PTR _lpTgtEntityInstance$[ebp]
	mov	ecx, DWORD PTR [eax+2]
	push	ecx
	call	DWORD PTR _g_pfnGetPtr
	mov	DWORD PTR _lpViewEntity$[ebp], eax

; 5173 :    lTgtERRelTok = lpViewEntity->lERRelTok;

	mov	edx, DWORD PTR _lpViewEntity$[ebp]
	mov	eax, DWORD PTR [edx+199]
	mov	DWORD PTR _lTgtERRelTok$[ebp], eax

; 5174 :    hSrcViewOI   = lpSrcEntityInstance->hViewOI;

	mov	ecx, DWORD PTR _lpSrcEntityInstance$[ebp]
	mov	edx, DWORD PTR [ecx+10]
	mov	DWORD PTR _hSrcViewOI$[ebp], edx

; 5175 :    hTgtViewOI   = lpTgtEntityInstance->hViewOI;

	mov	eax, DWORD PTR _lpTgtEntityInstance$[ebp]
	mov	ecx, DWORD PTR [eax+10]
	mov	DWORD PTR _hTgtViewOI$[ebp], ecx

; 5176 : 
; 5177 :    // First, see if there are any entity instances linked to this
; 5178 :    // instance which are in a different ViewOI, if not so, then return.
; 5179 :    lpWk1 = zGETPTR( lpTgtEntityInstance->hNextLinked );

	mov	edx, DWORD PTR _lpTgtEntityInstance$[ebp]
	mov	eax, DWORD PTR [edx+42]
	push	eax
	call	DWORD PTR _g_pfnGetPtr
	mov	DWORD PTR _lpWk1$[ebp], eax

; 5180 :    if ( lpWk1 )

	cmp	DWORD PTR _lpWk1$[ebp], 0
	je	SHORT $LN2@fnRemoveOt

; 5181 :       lpWkViewEntity = zGETPTR( lpWk1->hViewEntity );

	mov	ecx, DWORD PTR _lpWk1$[ebp]
	mov	edx, DWORD PTR [ecx+2]
	push	edx
	call	DWORD PTR _g_pfnGetPtr
	mov	DWORD PTR _lpWkViewEntity$[ebp], eax
$LN2@fnRemoveOt:

; 5182 :    while ( lpWk1 && lpWk1 != lpTgtEntityInstance &&

	cmp	DWORD PTR _lpWk1$[ebp], 0
	je	SHORT $LN3@fnRemoveOt
	mov	eax, DWORD PTR _lpWk1$[ebp]
	cmp	eax, DWORD PTR _lpTgtEntityInstance$[ebp]
	je	SHORT $LN3@fnRemoveOt
	mov	ecx, DWORD PTR _lpWk1$[ebp]
	mov	edx, DWORD PTR [ecx+10]
	cmp	edx, DWORD PTR _hTgtViewOI$[ebp]
	je	SHORT $LN19@fnRemoveOt
	mov	eax, DWORD PTR _lpWk1$[ebp]
	mov	ecx, DWORD PTR [eax+10]
	cmp	ecx, DWORD PTR _hSrcViewOI$[ebp]
	je	SHORT $LN19@fnRemoveOt
	mov	edx, DWORD PTR _lpWkViewEntity$[ebp]
	mov	eax, DWORD PTR _lTgtERRelTok$[ebp]
	cmp	eax, DWORD PTR [edx+199]
	jne	SHORT $LN3@fnRemoveOt
$LN19@fnRemoveOt:

; 5183 :            ( lpWk1->hViewOI == hTgtViewOI ||
; 5184 :              lpWk1->hViewOI == hSrcViewOI ||
; 5185 :              lTgtERRelTok == lpWkViewEntity->lERRelTok) )
; 5186 :    {
; 5187 :       lpWk1 = zGETPTR( lpWk1->hNextLinked );

	mov	ecx, DWORD PTR _lpWk1$[ebp]
	mov	edx, DWORD PTR [ecx+42]
	push	edx
	call	DWORD PTR _g_pfnGetPtr
	mov	DWORD PTR _lpWk1$[ebp], eax

; 5188 :       lpWkViewEntity = zGETPTR( lpWk1->hViewEntity );

	mov	eax, DWORD PTR _lpWk1$[ebp]
	mov	ecx, DWORD PTR [eax+2]
	push	ecx
	call	DWORD PTR _g_pfnGetPtr
	mov	DWORD PTR _lpWkViewEntity$[ebp], eax

; 5189 :    }

	jmp	SHORT $LN2@fnRemoveOt
$LN3@fnRemoveOt:

; 5190 : 
; 5191 :    if ( lpWk1 == 0 || lpWk1 == lpTgtEntityInstance )

	cmp	DWORD PTR _lpWk1$[ebp], 0
	je	SHORT $LN21@fnRemoveOt
	mov	edx, DWORD PTR _lpWk1$[ebp]
	cmp	edx, DWORD PTR _lpTgtEntityInstance$[ebp]
	jne	SHORT $LN20@fnRemoveOt
$LN21@fnRemoveOt:

; 5192 :       return( 0 );

	xor	eax, eax
	jmp	$LN1@fnRemoveOt
$LN20@fnRemoveOt:

; 5193 : 
; 5194 :    // lpWk1 now points to the first Entity instance found which is
; 5195 :    // not part of the same object instance as the entity instance
; 5196 :    // passed, remove it from the link chain.
; 5197 :    lpWk2 = lpTgtEntityInstance;

	mov	eax, DWORD PTR _lpTgtEntityInstance$[ebp]
	mov	DWORD PTR _lpWk2$[ebp], eax
$LN4@fnRemoveOt:

; 5198 :    while ( zGETPTR( lpWk2->hNextLinked ) != lpWk1 )

	mov	ecx, DWORD PTR _lpWk2$[ebp]
	mov	edx, DWORD PTR [ecx+42]
	push	edx
	call	DWORD PTR _g_pfnGetPtr
	cmp	eax, DWORD PTR _lpWk1$[ebp]
	je	SHORT $LN5@fnRemoveOt

; 5199 :    {
; 5200 :       lpWk2 = zGETPTR( lpWk2->hNextLinked );

	mov	eax, DWORD PTR _lpWk2$[ebp]
	mov	ecx, DWORD PTR [eax+42]
	push	ecx
	call	DWORD PTR _g_pfnGetPtr
	mov	DWORD PTR _lpWk2$[ebp], eax

; 5201 :    }

	jmp	SHORT $LN4@fnRemoveOt
$LN5@fnRemoveOt:

; 5202 : 
; 5203 :    if ( zGETPTR( lpWk1->hNextLinked ) == lpWk2 )

	mov	edx, DWORD PTR _lpWk1$[ebp]
	mov	eax, DWORD PTR [edx+42]
	push	eax
	call	DWORD PTR _g_pfnGetPtr
	cmp	eax, DWORD PTR _lpWk2$[ebp]
	jne	SHORT $LN22@fnRemoveOt

; 5204 :       lpWk2->hNextLinked = 0;

	mov	ecx, DWORD PTR _lpWk2$[ebp]
	mov	DWORD PTR [ecx+42], 0
	jmp	SHORT $LN23@fnRemoveOt
$LN22@fnRemoveOt:

; 5205 :    else
; 5206 :       lpWk2->hNextLinked = lpWk1->hNextLinked;

	mov	edx, DWORD PTR _lpWk2$[ebp]
	mov	eax, DWORD PTR _lpWk1$[ebp]
	mov	ecx, DWORD PTR [eax+42]
	mov	DWORD PTR [edx+42], ecx
$LN23@fnRemoveOt:

; 5207 : 
; 5208 :    lpWk1->hNextLinked = 0;

	mov	edx, DWORD PTR _lpWk1$[ebp]
	mov	DWORD PTR [edx+42], 0
$LN8@fnRemoveOt:

; 5209 : 
; 5210 :    // Now see if we can find any more instances not in the link chain
; 5211 :    for ( ; ; )
; 5212 :    {
; 5213 :       if ( lpTgtEntityInstance->hNextLinked == 0 )

	mov	eax, DWORD PTR _lpTgtEntityInstance$[ebp]
	cmp	DWORD PTR [eax+42], 0
	jne	SHORT $LN24@fnRemoveOt

; 5214 :          break;

	jmp	$LN7@fnRemoveOt
$LN24@fnRemoveOt:

; 5215 : 
; 5216 :       lpWk2 = lpTgtEntityInstance;

	mov	ecx, DWORD PTR _lpTgtEntityInstance$[ebp]
	mov	DWORD PTR _lpWk2$[ebp], ecx

; 5217 :       lpWk3 = zGETPTR( lpWk2->hNextLinked );

	mov	edx, DWORD PTR _lpWk2$[ebp]
	mov	eax, DWORD PTR [edx+42]
	push	eax
	call	DWORD PTR _g_pfnGetPtr
	mov	DWORD PTR _lpWk3$[ebp], eax

; 5218 :       lpViewEntity = zGETPTR( lpWk3->hViewEntity );

	mov	ecx, DWORD PTR _lpWk3$[ebp]
	mov	edx, DWORD PTR [ecx+2]
	push	edx
	call	DWORD PTR _g_pfnGetPtr
	mov	DWORD PTR _lpViewEntity$[ebp], eax
$LN9@fnRemoveOt:

; 5219 :       while ( lpWk3 != lpTgtEntityInstance &&

	mov	eax, DWORD PTR _lpWk3$[ebp]
	cmp	eax, DWORD PTR _lpTgtEntityInstance$[ebp]
	je	SHORT $LN10@fnRemoveOt
	mov	ecx, DWORD PTR _lpWk3$[ebp]
	mov	edx, DWORD PTR [ecx+10]
	cmp	edx, DWORD PTR _hTgtViewOI$[ebp]
	je	SHORT $LN25@fnRemoveOt
	mov	eax, DWORD PTR _lpWk3$[ebp]
	mov	ecx, DWORD PTR [eax+10]
	cmp	ecx, DWORD PTR _hSrcViewOI$[ebp]
	je	SHORT $LN25@fnRemoveOt
	mov	edx, DWORD PTR _lpViewEntity$[ebp]
	mov	eax, DWORD PTR _lTgtERRelTok$[ebp]
	cmp	eax, DWORD PTR [edx+199]
	jne	SHORT $LN10@fnRemoveOt
$LN25@fnRemoveOt:

; 5220 :               ( lpWk3->hViewOI == hTgtViewOI ||
; 5221 :                 lpWk3->hViewOI == hSrcViewOI ||
; 5222 :                 lTgtERRelTok == lpViewEntity->lERRelTok) )
; 5223 :       {
; 5224 :          lpWk2 = lpWk3;

	mov	ecx, DWORD PTR _lpWk3$[ebp]
	mov	DWORD PTR _lpWk2$[ebp], ecx

; 5225 :          lpWk3 = zGETPTR( lpWk3->hNextLinked );

	mov	edx, DWORD PTR _lpWk3$[ebp]
	mov	eax, DWORD PTR [edx+42]
	push	eax
	call	DWORD PTR _g_pfnGetPtr
	mov	DWORD PTR _lpWk3$[ebp], eax

; 5226 :          lpViewEntity = zGETPTR( lpWk3->hViewEntity );

	mov	ecx, DWORD PTR _lpWk3$[ebp]
	mov	edx, DWORD PTR [ecx+2]
	push	edx
	call	DWORD PTR _g_pfnGetPtr
	mov	DWORD PTR _lpViewEntity$[ebp], eax

; 5227 :       }

	jmp	SHORT $LN9@fnRemoveOt
$LN10@fnRemoveOt:

; 5228 : 
; 5229 :       // If lpWk3 is in another object instance, remove it from the other
; 5230 :       // instance and link it up to lpWk1. lpWk2 is currently chained
; 5231 :       // to lpWk3 in order to make unchaining easier.
; 5232 :       if ( lpWk3 != lpTgtEntityInstance )

	mov	eax, DWORD PTR _lpWk3$[ebp]
	cmp	eax, DWORD PTR _lpTgtEntityInstance$[ebp]
	je	SHORT $LN26@fnRemoveOt

; 5233 :       {
; 5234 :          if ( lpWk3->hNextLinked == zGETHNDL( lpWk2 ) )

	mov	ecx, DWORD PTR _lpWk2$[ebp]
	push	ecx
	call	DWORD PTR _g_pfnGetHndl
	mov	edx, DWORD PTR _lpWk3$[ebp]
	cmp	DWORD PTR [edx+42], eax
	jne	SHORT $LN28@fnRemoveOt

; 5235 :             lpWk2->hNextLinked = 0;

	mov	eax, DWORD PTR _lpWk2$[ebp]
	mov	DWORD PTR [eax+42], 0
	jmp	SHORT $LN29@fnRemoveOt
$LN28@fnRemoveOt:

; 5236 :          else
; 5237 :             lpWk2->hNextLinked = lpWk3->hNextLinked;

	mov	ecx, DWORD PTR _lpWk2$[ebp]
	mov	edx, DWORD PTR _lpWk3$[ebp]
	mov	eax, DWORD PTR [edx+42]
	mov	DWORD PTR [ecx+42], eax
$LN29@fnRemoveOt:

; 5238 : 
; 5239 :          if ( lpWk1->hNextLinked == 0 )

	mov	ecx, DWORD PTR _lpWk1$[ebp]
	cmp	DWORD PTR [ecx+42], 0
	jne	SHORT $LN30@fnRemoveOt

; 5240 :             lpWk3->hNextLinked = zGETHNDL( lpWk1 );

	mov	edx, DWORD PTR _lpWk1$[ebp]
	push	edx
	call	DWORD PTR _g_pfnGetHndl
	mov	ecx, DWORD PTR _lpWk3$[ebp]
	mov	DWORD PTR [ecx+42], eax
	jmp	SHORT $LN31@fnRemoveOt
$LN30@fnRemoveOt:

; 5241 :          else
; 5242 :             lpWk3->hNextLinked = lpWk1->hNextLinked;

	mov	edx, DWORD PTR _lpWk3$[ebp]
	mov	eax, DWORD PTR _lpWk1$[ebp]
	mov	ecx, DWORD PTR [eax+42]
	mov	DWORD PTR [edx+42], ecx
$LN31@fnRemoveOt:

; 5243 : 
; 5244 :          lpWk1->hNextLinked = zGETHNDL( lpWk3 );

	mov	edx, DWORD PTR _lpWk3$[ebp]
	push	edx
	call	DWORD PTR _g_pfnGetHndl
	mov	ecx, DWORD PTR _lpWk1$[ebp]
	mov	DWORD PTR [ecx+42], eax

; 5245 :       }

	jmp	SHORT $LN27@fnRemoveOt
$LN26@fnRemoveOt:

; 5246 :       else
; 5247 :          break;

	jmp	SHORT $LN7@fnRemoveOt
$LN27@fnRemoveOt:

; 5248 :    }

	jmp	$LN8@fnRemoveOt
$LN7@fnRemoveOt:

; 5249 : 
; 5250 :    // Finally, zero all the record pointers from lpTgtEntityInstance and
; 5251 :    // its linked instances
; 5252 :    lpWk2 = lpTgtEntityInstance;

	mov	edx, DWORD PTR _lpTgtEntityInstance$[ebp]
	mov	DWORD PTR _lpWk2$[ebp], edx
$LN13@fnRemoveOt:

; 5253 :    do
; 5254 :    {
; 5255 :       lpWk3 = lpWk2;

	mov	eax, DWORD PTR _lpWk2$[ebp]
	mov	DWORD PTR _lpWk3$[ebp], eax
$LN14@fnRemoveOt:

; 5256 :       while ( lpWk3->hPrevVsn )

	mov	ecx, DWORD PTR _lpWk3$[ebp]
	cmp	DWORD PTR [ecx+38], 0
	je	SHORT $LN16@fnRemoveOt

; 5257 :          lpWk3 = zGETPTR( lpWk3->hPrevVsn );

	mov	edx, DWORD PTR _lpWk3$[ebp]
	mov	eax, DWORD PTR [edx+38]
	push	eax
	call	DWORD PTR _g_pfnGetPtr
	mov	DWORD PTR _lpWk3$[ebp], eax
	jmp	SHORT $LN14@fnRemoveOt
$LN16@fnRemoveOt:

; 5258 : 
; 5259 :       while ( lpWk3 )

	cmp	DWORD PTR _lpWk3$[ebp], 0
	je	SHORT $LN17@fnRemoveOt

; 5260 :       {
; 5261 :          if ( lpWk3->hPersistRecord == lpWk1->hPersistRecord )

	mov	ecx, DWORD PTR _lpWk3$[ebp]
	mov	edx, DWORD PTR _lpWk1$[ebp]
	mov	eax, DWORD PTR [ecx+60]
	cmp	eax, DWORD PTR [edx+60]
	jne	SHORT $LN32@fnRemoveOt

; 5262 :             lpWk3->hPersistRecord = 0;

	mov	ecx, DWORD PTR _lpWk3$[ebp]
	mov	DWORD PTR [ecx+60], 0
$LN32@fnRemoveOt:

; 5263 : 
; 5264 :          lpWk3 = zGETPTR( lpWk3->hNextVsn );

	mov	edx, DWORD PTR _lpWk3$[ebp]
	mov	eax, DWORD PTR [edx+34]
	push	eax
	call	DWORD PTR _g_pfnGetPtr
	mov	DWORD PTR _lpWk3$[ebp], eax

; 5265 :       }

	jmp	SHORT $LN16@fnRemoveOt
$LN17@fnRemoveOt:

; 5266 : 
; 5267 :       lpWk2 = zGETPTR( lpWk2->hNextLinked );

	mov	ecx, DWORD PTR _lpWk2$[ebp]
	mov	edx, DWORD PTR [ecx+42]
	push	edx
	call	DWORD PTR _g_pfnGetPtr
	mov	DWORD PTR _lpWk2$[ebp], eax

; 5268 : 
; 5269 :    }  while ( lpWk2 && lpWk2 != lpTgtEntityInstance );

	cmp	DWORD PTR _lpWk2$[ebp], 0
	je	SHORT $LN12@fnRemoveOt
	mov	eax, DWORD PTR _lpWk2$[ebp]
	cmp	eax, DWORD PTR _lpTgtEntityInstance$[ebp]
	jne	SHORT $LN13@fnRemoveOt
$LN12@fnRemoveOt:

; 5270 : 
; 5271 :    return( 0 );

	xor	eax, eax
$LN1@fnRemoveOt:

; 5272 : }

	mov	esp, ebp
	pop	ebp
	ret	0
_fnRemoveOtherOI_LinkedInstances ENDP
_TEXT	ENDS
; Function compile flags: /Odtp
; File c:\10c\a\oe\kzoeeiaa.c
_TEXT	SEGMENT
_lpTask$1 = -44						; size = 4
_lpViewCsr$ = -40					; size = 4
_lpViewEntityCsr$ = -36					; size = 4
_lpPrevVsn$2 = -32					; size = 4
_lpNextHier$3 = -28					; size = 4
_lpViewOI$ = -24					; size = 4
_lpViewEntity$ = -20					; size = 4
_vWork$ = -16						; size = 4
_lpWorkInstance$ = -12					; size = 4
_nLvl$ = -8						; size = 2
_nRC$ = -4						; size = 2
_lpView$ = 8						; size = 4
_lpEntityInstance$ = 12					; size = 4
_bAccept$ = 16						; size = 1
_fnRemoveAllChildTemporalVsns PROC

; 5050 : {

	push	ebp
	mov	ebp, esp
	sub	esp, 44					; 0000002cH

; 5051 :    LPVIEWENTITY     lpViewEntity;
; 5052 :    LPVIEWCSR        lpViewCsr;
; 5053 :    LPVIEWOI         lpViewOI;
; 5054 :    LPVIEWENTITYCSR  lpViewEntityCsr;
; 5055 :    LPENTITYINSTANCE lpWorkInstance;
; 5056 :    zVIEW            vWork;
; 5057 :    zSHORT           nLvl;
; 5058 :    zSHORT           nRC;
; 5059 : 
; 5060 :    vWork = 0;

	mov	DWORD PTR _vWork$[ebp], 0

; 5061 :    lpViewCsr = zGETPTR( lpView->hViewCsr );

	mov	eax, DWORD PTR _lpView$[ebp]
	mov	ecx, DWORD PTR [eax+10]
	push	ecx
	call	DWORD PTR _g_pfnGetPtr
	mov	DWORD PTR _lpViewCsr$[ebp], eax

; 5062 :    lpViewOI  = zGETPTR( lpViewCsr->hViewOI );

	mov	edx, DWORD PTR _lpViewCsr$[ebp]
	mov	eax, DWORD PTR [edx+10]
	push	eax
	call	DWORD PTR _g_pfnGetPtr
	mov	DWORD PTR _lpViewOI$[ebp], eax

; 5063 :    if ( lpEntityInstance == 0 || lpViewOI->nVersionedInstances == 0 )

	cmp	DWORD PTR _lpEntityInstance$[ebp], 0
	je	SHORT $LN7@fnRemoveAl
	mov	ecx, DWORD PTR _lpViewOI$[ebp]
	movsx	edx, WORD PTR [ecx+22]
	test	edx, edx
	jne	SHORT $LN6@fnRemoveAl
$LN7@fnRemoveAl:

; 5064 :       return( 0 );

	xor	eax, eax
	jmp	$LN1@fnRemoveAl
$LN6@fnRemoveAl:

; 5065 : 
; 5066 :    lpWorkInstance = lpEntityInstance;

	mov	eax, DWORD PTR _lpEntityInstance$[ebp]
	mov	DWORD PTR _lpWorkInstance$[ebp], eax

; 5067 :    nLvl = lpWorkInstance->nLevel;

	mov	ecx, DWORD PTR _lpWorkInstance$[ebp]
	mov	dx, WORD PTR [ecx+58]
	mov	WORD PTR _nLvl$[ebp], dx
$LN2@fnRemoveAl:

; 5068 :    while ( lpWorkInstance->hNextHier )

	mov	eax, DWORD PTR _lpWorkInstance$[ebp]
	cmp	DWORD PTR [eax+14], 0
	je	SHORT $LN4@fnRemoveAl

; 5069 :    {
; 5070 :       LPENTITYINSTANCE lpNextHier = zGETPTR( lpWorkInstance->hNextHier );

	mov	ecx, DWORD PTR _lpWorkInstance$[ebp]
	mov	edx, DWORD PTR [ecx+14]
	push	edx
	call	DWORD PTR _g_pfnGetPtr
	mov	DWORD PTR _lpNextHier$3[ebp], eax

; 5071 : 
; 5072 :       if ( lpNextHier->nLevel <= nLvl )

	mov	eax, DWORD PTR _lpNextHier$3[ebp]
	movsx	ecx, WORD PTR [eax+58]
	movsx	edx, WORD PTR _nLvl$[ebp]
	cmp	ecx, edx
	jg	SHORT $LN8@fnRemoveAl

; 5073 :          break;

	jmp	SHORT $LN4@fnRemoveAl
$LN8@fnRemoveAl:

; 5074 : 
; 5075 :       lpWorkInstance = lpNextHier;

	mov	eax, DWORD PTR _lpNextHier$3[ebp]
	mov	DWORD PTR _lpWorkInstance$[ebp], eax

; 5076 :    }

	jmp	SHORT $LN2@fnRemoveAl
$LN4@fnRemoveAl:

; 5077 : 
; 5078 :    // Now that we have found the last descendent of the entity instance,
; 5079 :    // go through and find all versions to accept or cancel.
; 5080 :    while ( lpWorkInstance != lpEntityInstance )

	mov	ecx, DWORD PTR _lpWorkInstance$[ebp]
	cmp	ecx, DWORD PTR _lpEntityInstance$[ebp]
	je	$LN5@fnRemoveAl

; 5081 :    {
; 5082 :       if ( lpWorkInstance->u.nInd.bTemporal || lpWorkInstance->hPrevVsn )

	mov	edx, DWORD PTR _lpWorkInstance$[ebp]
	mov	eax, DWORD PTR [edx+6]
	shr	eax, 11					; 0000000bH
	and	eax, 1
	jne	SHORT $LN10@fnRemoveAl
	mov	ecx, DWORD PTR _lpWorkInstance$[ebp]
	cmp	DWORD PTR [ecx+38], 0
	je	$LN9@fnRemoveAl
$LN10@fnRemoveAl:

; 5083 :       {
; 5084 :          LPENTITYINSTANCE lpPrevVsn = zGETPTR( lpWorkInstance->hPrevVsn );

	mov	edx, DWORD PTR _lpWorkInstance$[ebp]
	mov	eax, DWORD PTR [edx+38]
	push	eax
	call	DWORD PTR _g_pfnGetPtr
	mov	DWORD PTR _lpPrevVsn$2[ebp], eax

; 5085 : 
; 5086 :          if ( lpPrevVsn && lpPrevVsn->u.nInd.bPrevVsnRoot == FALSE )

	cmp	DWORD PTR _lpPrevVsn$2[ebp], 0
	je	SHORT $LN11@fnRemoveAl
	mov	ecx, DWORD PTR _lpPrevVsn$2[ebp]
	mov	edx, DWORD PTR [ecx+6]
	shr	edx, 9
	and	edx, 1
	jne	SHORT $LN11@fnRemoveAl

; 5087 :          {
; 5088 :             LPTASK lpTask;
; 5089 : 
; 5090 :             // Remove was requested ... why not do it???
; 5091 :             TraceLineS( "RemoveAllTemporal skipping break:", " dks 2007.04.23" );  // dks  2007.04.23

	push	OFFSET $SG15064
	push	OFFSET $SG15065
	call	_TraceLineS@8

; 5092 :             lpViewEntity = zGETPTR( lpWorkInstance->hViewEntity );

	mov	eax, DWORD PTR _lpWorkInstance$[ebp]
	mov	ecx, DWORD PTR [eax+2]
	push	ecx
	call	DWORD PTR _g_pfnGetPtr
	mov	DWORD PTR _lpViewEntity$[ebp], eax

; 5093 :             nRC = fnValidateInstanceParameters( &lpTask,

	push	-32768					; ffff8000H
	mov	edx, DWORD PTR _lpViewEntity$[ebp]
	add	edx, 14					; 0000000eH
	push	edx
	mov	eax, DWORD PTR _lpView$[ebp]
	push	eax
	push	104					; 00000068H
	lea	ecx, DWORD PTR _lpViewEntityCsr$[ebp]
	push	ecx
	lea	edx, DWORD PTR _lpViewEntity$[ebp]
	push	edx
	lea	eax, DWORD PTR _lpTask$1[ebp]
	push	eax
	call	_fnValidateInstanceParameters
	add	esp, 28					; 0000001cH
	mov	WORD PTR _nRC$[ebp], ax

; 5094 :                                                 &lpViewEntity,
; 5095 :                                                 &lpViewEntityCsr,
; 5096 :                                                 iCancelSubobject,
; 5097 :                                                 lpView,
; 5098 :                                                 lpViewEntity->szName,
; 5099 :                                                 (zSHORT) 0x8000 ); // test (no error message)
; 5100 :             if ( nRC != zCALL_ERROR )

	movsx	ecx, WORD PTR _nRC$[ebp]
	cmp	ecx, -16				; fffffff0H
	je	SHORT $LN12@fnRemoveAl

; 5101 :                fnOperationReturn( iCancelSubobject, lpTask );

	mov	edx, DWORD PTR _lpTask$1[ebp]
	push	edx
	push	104					; 00000068H
	call	_fnOperationReturn
	add	esp, 8
$LN12@fnRemoveAl:

; 5102 : 
; 5103 :             if ( nRC )

	movsx	eax, WORD PTR _nRC$[ebp]
	test	eax, eax
	je	SHORT $LN11@fnRemoveAl

; 5104 :                break;

	jmp	$LN5@fnRemoveAl
$LN11@fnRemoveAl:

; 5105 :          }
; 5106 : 
; 5107 :          if ( vWork == 0 )

	cmp	DWORD PTR _vWork$[ebp], 0
	jne	SHORT $LN14@fnRemoveAl

; 5108 :             CreateViewFromViewForTask( &vWork, lpView, 0 );

	push	0
	mov	ecx, DWORD PTR _lpView$[ebp]
	push	ecx
	lea	edx, DWORD PTR _vWork$[ebp]
	push	edx
	call	_CreateViewFromViewForTask@12
$LN14@fnRemoveAl:

; 5109 : 
; 5110 :          lpViewEntityCsr = fnEstablishViewForInstance( vWork, 0, lpWorkInstance );

	mov	eax, DWORD PTR _lpWorkInstance$[ebp]
	push	eax
	push	0
	mov	ecx, DWORD PTR _vWork$[ebp]
	push	ecx
	call	_fnEstablishViewForInstance
	add	esp, 12					; 0000000cH
	mov	DWORD PTR _lpViewEntityCsr$[ebp], eax

; 5111 :          lpViewEntity = zGETPTR( lpWorkInstance->hViewEntity );

	mov	edx, DWORD PTR _lpWorkInstance$[ebp]
	mov	eax, DWORD PTR [edx+2]
	push	eax
	call	DWORD PTR _g_pfnGetPtr
	mov	DWORD PTR _lpViewEntity$[ebp], eax

; 5112 :          if ( bAccept )

	movzx	ecx, BYTE PTR _bAccept$[ebp]
	test	ecx, ecx
	je	SHORT $LN15@fnRemoveAl

; 5113 :             nRC = AcceptSubobject( vWork, lpViewEntity->szName );

	mov	edx, DWORD PTR _lpViewEntity$[ebp]
	add	edx, 14					; 0000000eH
	push	edx
	mov	eax, DWORD PTR _vWork$[ebp]
	push	eax
	call	_AcceptSubobject@8
	mov	WORD PTR _nRC$[ebp], ax
	jmp	SHORT $LN16@fnRemoveAl
$LN15@fnRemoveAl:

; 5114 :          else
; 5115 :             nRC = CancelSubobject( vWork, lpViewEntity->szName );

	mov	ecx, DWORD PTR _lpViewEntity$[ebp]
	add	ecx, 14					; 0000000eH
	push	ecx
	mov	edx, DWORD PTR _vWork$[ebp]
	push	edx
	call	_CancelSubobject@8
	mov	WORD PTR _nRC$[ebp], ax
$LN16@fnRemoveAl:

; 5116 : 
; 5117 :          if ( nRC < zCURSOR_UNDEFINED || lpViewOI->nVersionedInstances == 0 )

	movsx	eax, WORD PTR _nRC$[ebp]
	cmp	eax, -2					; fffffffeH
	jl	SHORT $LN18@fnRemoveAl
	mov	ecx, DWORD PTR _lpViewOI$[ebp]
	movsx	edx, WORD PTR [ecx+22]
	test	edx, edx
	jne	SHORT $LN17@fnRemoveAl
$LN18@fnRemoveAl:

; 5118 :          {
; 5119 :             DropView( vWork );

	mov	eax, DWORD PTR _vWork$[ebp]
	push	eax
	call	_DropView@4

; 5120 : 
; 5121 :             if ( lpViewOI->nVersionedInstances == 0 )

	mov	ecx, DWORD PTR _lpViewOI$[ebp]
	movsx	edx, WORD PTR [ecx+22]
	test	edx, edx
	jne	SHORT $LN19@fnRemoveAl

; 5122 :                return( 0 );

	xor	eax, eax
	jmp	SHORT $LN1@fnRemoveAl
	jmp	SHORT $LN17@fnRemoveAl
$LN19@fnRemoveAl:

; 5123 :             else
; 5124 :                return( nRC );

	mov	ax, WORD PTR _nRC$[ebp]
	jmp	SHORT $LN1@fnRemoveAl
$LN17@fnRemoveAl:

; 5125 :          }
; 5126 : 
; 5127 :          // Get the instance pointer from the cursor after the accept or
; 5128 :          // cancel call.
; 5129 :          lpWorkInstance = zGETPTR( lpViewEntityCsr->hEntityInstance );

	mov	eax, DWORD PTR _lpViewEntityCsr$[ebp]
	mov	ecx, DWORD PTR [eax+26]
	push	ecx
	call	DWORD PTR _g_pfnGetPtr
	mov	DWORD PTR _lpWorkInstance$[ebp], eax
$LN9@fnRemoveAl:

; 5130 :       }
; 5131 : 
; 5132 :       lpWorkInstance = zGETPTR( lpWorkInstance->hPrevHier );

	mov	edx, DWORD PTR _lpWorkInstance$[ebp]
	mov	eax, DWORD PTR [edx+18]
	push	eax
	call	DWORD PTR _g_pfnGetPtr
	mov	DWORD PTR _lpWorkInstance$[ebp], eax

; 5133 :    }

	jmp	$LN4@fnRemoveAl
$LN5@fnRemoveAl:

; 5134 : 
; 5135 :    if ( vWork )

	cmp	DWORD PTR _vWork$[ebp], 0
	je	SHORT $LN21@fnRemoveAl

; 5136 :       DropView( vWork );

	mov	ecx, DWORD PTR _vWork$[ebp]
	push	ecx
	call	_DropView@4
$LN21@fnRemoveAl:

; 5137 : 
; 5138 :    return( 0 );

	xor	eax, eax
$LN1@fnRemoveAl:

; 5139 : }

	mov	esp, ebp
	pop	ebp
	ret	0
_fnRemoveAllChildTemporalVsns ENDP
_TEXT	ENDS
; Function compile flags: /Odtp
; File c:\10c\a\oe\kzoeeiaa.c
_TEXT	SEGMENT
_pfn$ = -4						; size = 4
_lpView$ = 8						; size = 4
_lpViewEntity$ = 12					; size = 4
_lpCurrentTask$ = 16					; size = 4
_nEvent$ = 20						; size = 2
_nState$ = 24						; size = 2
_fnInvokeECEOperation PROC

; 4947 : {

	push	ebp
	mov	ebp, esp
	push	ecx

; 4948 :    zPECEOPER   pfn;
; 4949 : 
; 4950 :    pfn = fnGetEntityCnstrntOper( lpView, lpViewEntity, lpCurrentTask );

	mov	eax, DWORD PTR _lpCurrentTask$[ebp]
	push	eax
	mov	ecx, DWORD PTR _lpViewEntity$[ebp]
	push	ecx
	mov	edx, DWORD PTR _lpView$[ebp]
	push	edx
	call	_fnGetEntityCnstrntOper
	add	esp, 12					; 0000000cH
	mov	DWORD PTR _pfn$[ebp], eax

; 4951 :    if ( pfn )

	cmp	DWORD PTR _pfn$[ebp], 0
	je	SHORT $LN2@fnInvokeEC

; 4952 :    {
; 4953 :       return( (*pfn)( lpView, lpViewEntity->szName,

	movzx	eax, WORD PTR _nState$[ebp]
	push	eax
	movzx	ecx, WORD PTR _nEvent$[ebp]
	push	ecx
	mov	edx, DWORD PTR _lpViewEntity$[ebp]
	add	edx, 14					; 0000000eH
	push	edx
	mov	eax, DWORD PTR _lpView$[ebp]
	push	eax
	call	DWORD PTR _pfn$[ebp]
	jmp	SHORT $LN1@fnInvokeEC
$LN2@fnInvokeEC:

; 4954 :                       nEvent, nState ) );
; 4955 :    }
; 4956 : 
; 4957 :    return( 0 );

	xor	eax, eax
$LN1@fnInvokeEC:

; 4958 : }

	mov	esp, ebp
	pop	ebp
	ret	0
_fnInvokeECEOperation ENDP
_TEXT	ENDS
; Function compile flags: /Odtp
; File c:\10c\a\oe\kzoeeiaa.c
_TEXT	SEGMENT
_lpLastTaskOperation$1 = -36				; size = 4
_lpViewOD$ = -32					; size = 4
_hLibrary$ = -28					; size = 4
_lProcessID$ = -24					; size = 4
_hCurrentTask$ = -20					; size = 4
_pchOperLibName$ = -16					; size = 4
_hTaskOperation$ = -12					; size = 4
_lpTaskOperation$ = -8					; size = 4
_bMutexLocked$2 = -1					; size = 1
_lpView$ = 8						; size = 4
_lpViewEntity$ = 12					; size = 4
_lpCurrentTask$ = 16					; size = 4
_fnGetEntityCnstrntOper PROC

; 4834 : {

	push	ebp
	mov	ebp, esp
	sub	esp, 36					; 00000024H

; 4835 :    LPTASK      hCurrentTask = zGETHNDL( lpCurrentTask );

	mov	eax, DWORD PTR _lpCurrentTask$[ebp]
	push	eax
	call	DWORD PTR _g_pfnGetHndl
	mov	DWORD PTR _hCurrentTask$[ebp], eax

; 4836 :    LPVIEWOD    lpViewOD;
; 4837 :    zPCHAR      pchOperLibName;
; 4838 :    LPLIBRARY   hLibrary;
; 4839 :    zPVOID      hTaskOperation;
; 4840 :    LPTASKOPER  lpTaskOperation;
; 4841 :    zLONG       lProcessID = SysGetProcessID( 0 );

	push	0
	call	_SysGetProcessID@4
	mov	DWORD PTR _lProcessID$[ebp], eax

; 4842 : 
; 4843 :    // No Object Constraint operation pointer, return 0 ==> not found.
; 4844 :    if ( lpViewEntity->szECEOpername[ 0 ] == 0 )

	mov	ecx, 1
	imul	edx, ecx, 0
	mov	eax, DWORD PTR _lpViewEntity$[ebp]
	movsx	ecx, BYTE PTR [eax+edx+146]
	test	ecx, ecx
	jne	SHORT $LN5@fnGetEntit

; 4845 :       return( 0 );

	xor	eax, eax
	jmp	$LN1@fnGetEntit
$LN5@fnGetEntit:

; 4846 : 
; 4847 :    lpViewOD = zGETPTR( lpView->hViewOD );

	mov	edx, DWORD PTR _lpView$[ebp]
	mov	eax, DWORD PTR [edx+6]
	push	eax
	call	DWORD PTR _g_pfnGetPtr
	mov	DWORD PTR _lpViewOD$[ebp], eax

; 4848 : 
; 4849 :    for ( lpTaskOperation = zGETPTR( lpViewEntity->hFirstTaskOperation );

	mov	ecx, DWORD PTR _lpViewEntity$[ebp]
	mov	edx, DWORD PTR [ecx+183]
	push	edx
	call	DWORD PTR _g_pfnGetPtr
	mov	DWORD PTR _lpTaskOperation$[ebp], eax
	jmp	SHORT $LN4@fnGetEntit
$LN2@fnGetEntit:

; 4851 :          lpTaskOperation = zGETPTR( lpTaskOperation->hNextTaskOperationForOEA ) )

	mov	eax, DWORD PTR _lpTaskOperation$[ebp]
	mov	ecx, DWORD PTR [eax+6]
	push	ecx
	call	DWORD PTR _g_pfnGetPtr
	mov	DWORD PTR _lpTaskOperation$[ebp], eax
$LN4@fnGetEntit:

; 4850 :          lpTaskOperation;

	cmp	DWORD PTR _lpTaskOperation$[ebp], 0
	je	SHORT $LN3@fnGetEntit

; 4852 :    {
; 4853 :       if ( lpTaskOperation->hTask == hCurrentTask &&

	mov	edx, DWORD PTR _lpTaskOperation$[ebp]
	mov	eax, DWORD PTR [edx+14]
	cmp	eax, DWORD PTR _hCurrentTask$[ebp]
	jne	SHORT $LN6@fnGetEntit
	mov	ecx, DWORD PTR _lpTaskOperation$[ebp]
	mov	edx, DWORD PTR [ecx+34]
	cmp	edx, DWORD PTR _lProcessID$[ebp]
	jne	SHORT $LN6@fnGetEntit

; 4854 :            lpTaskOperation->lProcessID == lProcessID )
; 4855 :       {
; 4856 :          return( (zPECEOPER) lpTaskOperation->pfnTaskOper );

	mov	eax, DWORD PTR _lpTaskOperation$[ebp]
	mov	eax, DWORD PTR [eax+30]
	jmp	$LN1@fnGetEntit
$LN6@fnGetEntit:

; 4857 :       }
; 4858 :    }

	jmp	SHORT $LN2@fnGetEntit
$LN3@fnGetEntit:

; 4859 : 
; 4860 :    // No task object oper exists yet, create one if possible.
; 4861 :    pchOperLibName = lpViewOD->szOperLibname;

	mov	ecx, DWORD PTR _lpViewOD$[ebp]
	add	ecx, 142				; 0000008eH
	mov	DWORD PTR _pchOperLibName$[ebp], ecx

; 4862 :    if ( pchOperLibName == 0 || pchOperLibName[ 0 ] == 0 )

	je	SHORT $LN8@fnGetEntit
	mov	edx, 1
	imul	eax, edx, 0
	mov	ecx, DWORD PTR _pchOperLibName$[ebp]
	movsx	edx, BYTE PTR [ecx+eax]
	test	edx, edx
	jne	SHORT $LN7@fnGetEntit
$LN8@fnGetEntit:

; 4863 :       return( 0 );

	xor	eax, eax
	jmp	$LN1@fnGetEntit
$LN7@fnGetEntit:

; 4864 : 
; 4865 :    hLibrary = SysLoadLibrary( lpView, pchOperLibName );

	mov	eax, DWORD PTR _pchOperLibName$[ebp]
	push	eax
	mov	ecx, DWORD PTR _lpView$[ebp]
	push	ecx
	call	_SysLoadLibrary@8
	mov	DWORD PTR _hLibrary$[ebp], eax

; 4866 : 
; 4867 :    if ( hLibrary )

	cmp	DWORD PTR _hLibrary$[ebp], 0
	je	$LN9@fnGetEntit

; 4868 :    {
; 4869 :       zBOOL bMutexLocked;
; 4870 : 
; 4871 :       hTaskOperation = fnAllocDataspace( AnchorBlock->hMainFirstDataHeader,

	push	10034					; 00002732H
	push	0
	push	1
	push	38					; 00000026H
	mov	edx, DWORD PTR _AnchorBlock
	mov	eax, DWORD PTR [edx+114]
	push	eax
	call	_fnAllocDataspace
	add	esp, 20					; 00000014H
	mov	DWORD PTR _hTaskOperation$[ebp], eax

; 4872 :                                          sizeof( TaskOperationRecord ), 1, 0,
; 4873 :                                          iTaskOperation );
; 4874 :       if ( hTaskOperation == 0 )

	cmp	DWORD PTR _hTaskOperation$[ebp], 0
	jne	SHORT $LN11@fnGetEntit

; 4875 :          return( 0 );

	xor	eax, eax
	jmp	$LN1@fnGetEntit
$LN11@fnGetEntit:

; 4876 : 
; 4877 :       lpTaskOperation              = zGETPTR( hTaskOperation );

	mov	ecx, DWORD PTR _hTaskOperation$[ebp]
	push	ecx
	call	DWORD PTR _g_pfnGetPtr
	mov	DWORD PTR _lpTaskOperation$[ebp], eax

; 4878 :       lpTaskOperation->hViewEntity = zGETHNDL( lpViewEntity );

	mov	edx, DWORD PTR _lpViewEntity$[ebp]
	push	edx
	call	DWORD PTR _g_pfnGetHndl
	mov	ecx, DWORD PTR _lpTaskOperation$[ebp]
	mov	DWORD PTR [ecx+22], eax

; 4879 :       lpTaskOperation->hTask       = hCurrentTask;

	mov	edx, DWORD PTR _lpTaskOperation$[ebp]
	mov	eax, DWORD PTR _hCurrentTask$[ebp]
	mov	DWORD PTR [edx+14], eax

; 4880 :       lpTaskOperation->lProcessID  = lProcessID;

	mov	ecx, DWORD PTR _lpTaskOperation$[ebp]
	mov	edx, DWORD PTR _lProcessID$[ebp]
	mov	DWORD PTR [ecx+34], edx

; 4881 : 
; 4882 :       // Set pointers for TaskOperation chain off of Task structure
; 4883 :       // Note: this is a single linked list
; 4884 :       if ( hCurrentTask == AnchorBlock->hMainTask )

	mov	eax, DWORD PTR _AnchorBlock
	mov	ecx, DWORD PTR _hCurrentTask$[ebp]
	cmp	ecx, DWORD PTR [eax+106]
	jne	SHORT $LN12@fnGetEntit

; 4885 :       {
; 4886 :          bMutexLocked = TRUE;

	mov	BYTE PTR _bMutexLocked$2[ebp], 1

; 4887 :          zLOCK_MUTEX( zMUTEX_ANCHORBLOCK );

	push	2
	call	_fnSysLockCoreMutex@4

; 4888 :       }

	jmp	SHORT $LN13@fnGetEntit
$LN12@fnGetEntit:

; 4889 :       else
; 4890 :          bMutexLocked = FALSE;

	mov	BYTE PTR _bMutexLocked$2[ebp], 0
$LN13@fnGetEntit:

; 4891 : 
; 4892 :       lpTaskOperation->hNextTaskOperationForTask =

	mov	edx, DWORD PTR _lpTaskOperation$[ebp]
	mov	eax, DWORD PTR _lpCurrentTask$[ebp]
	mov	ecx, DWORD PTR [eax+130]
	mov	DWORD PTR [edx+2], ecx

; 4893 :                                           lpCurrentTask->hFirstTaskOperation;
; 4894 :       lpCurrentTask->hFirstTaskOperation = hTaskOperation;

	mov	edx, DWORD PTR _lpCurrentTask$[ebp]
	mov	eax, DWORD PTR _hTaskOperation$[ebp]
	mov	DWORD PTR [edx+130], eax

; 4895 : 
; 4896 :       if ( bMutexLocked )

	movzx	ecx, BYTE PTR _bMutexLocked$2[ebp]
	test	ecx, ecx
	je	SHORT $LN14@fnGetEntit

; 4897 :          zUNLOCK_MUTEX( zMUTEX_ANCHORBLOCK );

	push	2
	call	_fnSysUnlockCoreMutex@4
$LN14@fnGetEntit:

; 4898 : 
; 4899 :       lpTaskOperation->pfnTaskOper = SysGetProc( hLibrary,

	mov	edx, DWORD PTR _lpViewEntity$[ebp]
	add	edx, 146				; 00000092H
	push	edx
	mov	eax, DWORD PTR _hLibrary$[ebp]
	push	eax
	call	_SysGetProc@8
	mov	ecx, DWORD PTR _lpTaskOperation$[ebp]
	mov	DWORD PTR [ecx+30], eax

; 4900 :                                                  lpViewEntity->szECEOpername );
; 4901 : 
; 4902 :       // Set pointers for TaskOperation chain off of ViewEntity structure
; 4903 :       // Note: this is a double linked list
; 4904 :       if ( lpViewEntity->hLastTaskOperation )

	mov	edx, DWORD PTR _lpViewEntity$[ebp]
	cmp	DWORD PTR [edx+187], 0
	je	SHORT $LN15@fnGetEntit

; 4905 :       {
; 4906 :          LPTASKOPER lpLastTaskOperation;
; 4907 : 
; 4908 :          lpLastTaskOperation = zGETPTR( lpViewEntity->hLastTaskOperation );

	mov	eax, DWORD PTR _lpViewEntity$[ebp]
	mov	ecx, DWORD PTR [eax+187]
	push	ecx
	call	DWORD PTR _g_pfnGetPtr
	mov	DWORD PTR _lpLastTaskOperation$1[ebp], eax

; 4909 :          lpLastTaskOperation->hNextTaskOperationForOEA = hTaskOperation;

	mov	edx, DWORD PTR _lpLastTaskOperation$1[ebp]
	mov	eax, DWORD PTR _hTaskOperation$[ebp]
	mov	DWORD PTR [edx+6], eax

; 4910 :          lpTaskOperation->hPrevTaskOperationForOEA =

	mov	ecx, DWORD PTR _lpTaskOperation$[ebp]
	mov	edx, DWORD PTR _lpViewEntity$[ebp]
	mov	eax, DWORD PTR [edx+187]
	mov	DWORD PTR [ecx+10], eax

; 4911 :                                             lpViewEntity->hLastTaskOperation;
; 4912 :          lpViewEntity->hLastTaskOperation = hTaskOperation;

	mov	ecx, DWORD PTR _lpViewEntity$[ebp]
	mov	edx, DWORD PTR _hTaskOperation$[ebp]
	mov	DWORD PTR [ecx+187], edx

; 4913 :       }

	jmp	SHORT $LN16@fnGetEntit
$LN15@fnGetEntit:

; 4914 :       else
; 4915 :       {
; 4916 :          lpViewEntity->hFirstTaskOperation = hTaskOperation;

	mov	eax, DWORD PTR _lpViewEntity$[ebp]
	mov	ecx, DWORD PTR _hTaskOperation$[ebp]
	mov	DWORD PTR [eax+183], ecx

; 4917 :          lpViewEntity->hLastTaskOperation  = hTaskOperation;

	mov	edx, DWORD PTR _lpViewEntity$[ebp]
	mov	eax, DWORD PTR _hTaskOperation$[ebp]
	mov	DWORD PTR [edx+187], eax
$LN16@fnGetEntit:

; 4918 :       }
; 4919 :    }

	jmp	SHORT $LN10@fnGetEntit
$LN9@fnGetEntit:

; 4920 :    else
; 4921 :       return( 0 );

	xor	eax, eax
	jmp	SHORT $LN1@fnGetEntit
$LN10@fnGetEntit:

; 4922 : 
; 4923 :    return( (zPECEOPER) lpTaskOperation->pfnTaskOper );

	mov	ecx, DWORD PTR _lpTaskOperation$[ebp]
	mov	eax, DWORD PTR [ecx+30]
$LN1@fnGetEntit:

; 4924 : }

	mov	esp, ebp
	pop	ebp
	ret	0
_fnGetEntityCnstrntOper ENDP
_TEXT	ENDS
; Function compile flags: /Odtp
; File c:\10c\a\oe\kzoeeiaa.c
_TEXT	SEGMENT
_hOldRecord$ = -40					; size = 4
_lpTgtViewEntity$ = -36					; size = 4
_lpSrcViewEntity$ = -32					; size = 4
_hNewRecord$1 = -28					; size = 4
_lpWorkEI$2 = -24					; size = 4
_lpWorkEI$3 = -20					; size = 4
_lpVsnEntityInstance$ = -16				; size = 4
_lpWrkEntityInstance$ = -12				; size = 4
_nRC$ = -8						; size = 2
_bCreated$ = -3						; size = 1
_bUpdated$ = -2						; size = 1
_bPrevVersion$ = -1					; size = 1
_lpTgtEntityInstance$ = 8				; size = 4
_lpSrcEntityInstance$ = 12				; size = 4
_fnRelinkInstanceToInstance PROC

; 4631 : {

	push	ebp
	mov	ebp, esp
	sub	esp, 40					; 00000028H

; 4632 :    LPVIEWENTITY     lpTgtViewEntity;
; 4633 :    LPENTITYINSTANCE lpWrkEntityInstance;
; 4634 :    LPENTITYINSTANCE lpVsnEntityInstance;
; 4635 :    zPVOID           hOldRecord;
; 4636 :    zBOOL            bCreated, bUpdated, bPrevVersion;
; 4637 :    zSHORT           nRC;
; 4638 : 
; 4639 : #ifdef DEBUG
; 4640 :    LPVIEWENTITY lpSrcViewEntity = zGETPTR( lpSrcEntityInstance->hViewEntity );

	mov	eax, DWORD PTR _lpSrcEntityInstance$[ebp]
	mov	ecx, DWORD PTR [eax+2]
	push	ecx
	call	DWORD PTR _g_pfnGetPtr
	mov	DWORD PTR _lpSrcViewEntity$[ebp], eax

; 4641 : #endif
; 4642 : 
; 4643 :    // Get the target view entity.
; 4644 :    lpTgtViewEntity = zGETPTR( lpTgtEntityInstance->hViewEntity );

	mov	edx, DWORD PTR _lpTgtEntityInstance$[ebp]
	mov	eax, DWORD PTR [edx+2]
	push	eax
	call	DWORD PTR _g_pfnGetPtr
	mov	DWORD PTR _lpTgtViewEntity$[ebp], eax

; 4645 : 
; 4646 :    // Make sure that the source and target are not already linked.
; 4647 :    if ( lpSrcEntityInstance == lpTgtEntityInstance )

	mov	ecx, DWORD PTR _lpSrcEntityInstance$[ebp]
	cmp	ecx, DWORD PTR _lpTgtEntityInstance$[ebp]
	jne	SHORT $LN18@fnRelinkIn

; 4648 :       nRC = 1;

	mov	edx, 1
	mov	WORD PTR _nRC$[ebp], dx
	jmp	$LN19@fnRelinkIn
$LN18@fnRelinkIn:

; 4649 :    else
; 4650 :    {
; 4651 :       nRC = 0;   // default return code to 0

	xor	eax, eax
	mov	WORD PTR _nRC$[ebp], ax

; 4652 :       bUpdated = lpSrcEntityInstance->u.nInd.bUpdated;

	mov	ecx, DWORD PTR _lpSrcEntityInstance$[ebp]
	mov	edx, DWORD PTR [ecx+6]
	shr	edx, 2
	and	edx, 1
	mov	BYTE PTR _bUpdated$[ebp], dl

; 4653 :       bCreated = lpSrcEntityInstance->u.nInd.bCreated;

	mov	eax, DWORD PTR _lpSrcEntityInstance$[ebp]
	mov	ecx, DWORD PTR [eax+6]
	shr	ecx, 1
	and	ecx, 1
	mov	BYTE PTR _bCreated$[ebp], cl

; 4654 :       bPrevVersion = FALSE;

	mov	BYTE PTR _bPrevVersion$[ebp], 0

; 4655 :       if ( lpSrcEntityInstance->u.nInd.bPrevVersion ||

	mov	edx, DWORD PTR _lpSrcEntityInstance$[ebp]
	mov	eax, DWORD PTR [edx+6]
	shr	eax, 8
	and	eax, 1
	jne	SHORT $LN21@fnRelinkIn
	mov	ecx, DWORD PTR _lpTgtEntityInstance$[ebp]
	mov	edx, DWORD PTR [ecx+6]
	shr	edx, 8
	and	edx, 1
	je	SHORT $LN20@fnRelinkIn
$LN21@fnRelinkIn:

; 4656 :            lpTgtEntityInstance->u.nInd.bPrevVersion )
; 4657 :       {
; 4658 :          bPrevVersion = TRUE;

	mov	BYTE PTR _bPrevVersion$[ebp], 1

; 4659 :          if ( lpSrcEntityInstance->u.nInd.bPrevVersion == FALSE )

	mov	eax, DWORD PTR _lpSrcEntityInstance$[ebp]
	mov	ecx, DWORD PTR [eax+6]
	shr	ecx, 8
	and	ecx, 1
	jne	SHORT $LN20@fnRelinkIn

; 4660 :          {
; 4661 :             lpSrcEntityInstance->u.nInd.bPrevVersion = TRUE;

	mov	edx, DWORD PTR _lpSrcEntityInstance$[ebp]
	mov	eax, DWORD PTR [edx+6]
	or	eax, 256				; 00000100H
	mov	ecx, DWORD PTR _lpSrcEntityInstance$[ebp]
	mov	DWORD PTR [ecx+6], eax

; 4662 :             lpWrkEntityInstance = zGETPTR( lpSrcEntityInstance->hNextLinked );

	mov	edx, DWORD PTR _lpSrcEntityInstance$[ebp]
	mov	eax, DWORD PTR [edx+42]
	push	eax
	call	DWORD PTR _g_pfnGetPtr
	mov	DWORD PTR _lpWrkEntityInstance$[ebp], eax
$LN2@fnRelinkIn:

; 4663 :             while ( lpWrkEntityInstance &&

	cmp	DWORD PTR _lpWrkEntityInstance$[ebp], 0
	je	SHORT $LN20@fnRelinkIn
	mov	ecx, DWORD PTR _lpWrkEntityInstance$[ebp]
	cmp	ecx, DWORD PTR _lpSrcEntityInstance$[ebp]
	je	SHORT $LN20@fnRelinkIn

; 4664 :                     lpWrkEntityInstance != lpSrcEntityInstance )
; 4665 :             {
; 4666 :                lpWrkEntityInstance->u.nInd.bPrevVersion = TRUE;

	mov	edx, DWORD PTR _lpWrkEntityInstance$[ebp]
	mov	eax, DWORD PTR [edx+6]
	or	eax, 256				; 00000100H
	mov	ecx, DWORD PTR _lpWrkEntityInstance$[ebp]
	mov	DWORD PTR [ecx+6], eax

; 4667 :                lpWrkEntityInstance = zGETPTR( lpWrkEntityInstance->hNextLinked );

	mov	edx, DWORD PTR _lpWrkEntityInstance$[ebp]
	mov	eax, DWORD PTR [edx+42]
	push	eax
	call	DWORD PTR _g_pfnGetPtr
	mov	DWORD PTR _lpWrkEntityInstance$[ebp], eax

; 4668 :             }

	jmp	SHORT $LN2@fnRelinkIn
$LN20@fnRelinkIn:

; 4669 :          }
; 4670 :       }
; 4671 : 
; 4672 :       lpWrkEntityInstance = zGETPTR( lpSrcEntityInstance->hNextLinked );

	mov	ecx, DWORD PTR _lpSrcEntityInstance$[ebp]
	mov	edx, DWORD PTR [ecx+42]
	push	edx
	call	DWORD PTR _g_pfnGetPtr
	mov	DWORD PTR _lpWrkEntityInstance$[ebp], eax
$LN4@fnRelinkIn:

; 4673 :       while ( lpWrkEntityInstance &&

	cmp	DWORD PTR _lpWrkEntityInstance$[ebp], 0
	je	SHORT $LN19@fnRelinkIn
	mov	eax, DWORD PTR _lpWrkEntityInstance$[ebp]
	cmp	eax, DWORD PTR _lpSrcEntityInstance$[ebp]
	je	SHORT $LN19@fnRelinkIn

; 4674 :               lpWrkEntityInstance != lpSrcEntityInstance )
; 4675 :       {
; 4676 :          if ( lpWrkEntityInstance == lpTgtEntityInstance )

	mov	ecx, DWORD PTR _lpWrkEntityInstance$[ebp]
	cmp	ecx, DWORD PTR _lpTgtEntityInstance$[ebp]
	jne	SHORT $LN23@fnRelinkIn

; 4677 :          {
; 4678 :             nRC = 1;

	mov	edx, 1
	mov	WORD PTR _nRC$[ebp], dx

; 4679 :             break;

	jmp	SHORT $LN19@fnRelinkIn
$LN23@fnRelinkIn:

; 4680 :          }
; 4681 : 
; 4682 :          lpWrkEntityInstance = zGETPTR( lpWrkEntityInstance->hNextLinked );

	mov	eax, DWORD PTR _lpWrkEntityInstance$[ebp]
	mov	ecx, DWORD PTR [eax+42]
	push	ecx
	call	DWORD PTR _g_pfnGetPtr
	mov	DWORD PTR _lpWrkEntityInstance$[ebp], eax

; 4683 :       }

	jmp	SHORT $LN4@fnRelinkIn
$LN19@fnRelinkIn:

; 4684 :    }
; 4685 : 
; 4686 :    // if the return code is 0, then all edits have passed and the
; 4687 :    // source and target entity instances are not currently linked,
; 4688 :    // link them now
; 4689 :    if ( nRC )

	movsx	edx, WORD PTR _nRC$[ebp]
	test	edx, edx
	je	SHORT $LN24@fnRelinkIn

; 4690 :       return( nRC );

	mov	ax, WORD PTR _nRC$[ebp]
	jmp	$LN1@fnRelinkIn
$LN24@fnRelinkIn:

; 4691 : 
; 4692 :    // Link the two instances together
; 4693 :    if ( lpSrcEntityInstance->hNextLinked == 0 )

	mov	eax, DWORD PTR _lpSrcEntityInstance$[ebp]
	cmp	DWORD PTR [eax+42], 0
	jne	$LN25@fnRelinkIn

; 4694 :    {
; 4695 :       if ( lpTgtEntityInstance->hNextLinked == 0 )

	mov	ecx, DWORD PTR _lpTgtEntityInstance$[ebp]
	cmp	DWORD PTR [ecx+42], 0
	jne	SHORT $LN27@fnRelinkIn

; 4696 :          lpSrcEntityInstance->hNextLinked = zGETHNDL( lpTgtEntityInstance );

	mov	edx, DWORD PTR _lpTgtEntityInstance$[ebp]
	push	edx
	call	DWORD PTR _g_pfnGetHndl
	mov	ecx, DWORD PTR _lpSrcEntityInstance$[ebp]
	mov	DWORD PTR [ecx+42], eax
	jmp	$LN28@fnRelinkIn
$LN27@fnRelinkIn:

; 4697 :       else
; 4698 :       {
; 4699 :          // Chain forward past target entity instance on target chain
; 4700 :          lpWrkEntityInstance = zGETPTR( lpTgtEntityInstance->hNextLinked );

	mov	edx, DWORD PTR _lpTgtEntityInstance$[ebp]
	mov	eax, DWORD PTR [edx+42]
	push	eax
	call	DWORD PTR _g_pfnGetPtr
	mov	DWORD PTR _lpWrkEntityInstance$[ebp], eax
$LN8@fnRelinkIn:

; 4701 :          for ( ; ; )
; 4702 :          {
; 4703 :             // Set the record pointer for other instances in target
; 4704 :             // link chain to point to the source record.
; 4705 :             lpWrkEntityInstance->hPersistRecord = lpSrcEntityInstance->hPersistRecord;

	mov	ecx, DWORD PTR _lpWrkEntityInstance$[ebp]
	mov	edx, DWORD PTR _lpSrcEntityInstance$[ebp]
	mov	eax, DWORD PTR [edx+60]
	mov	DWORD PTR [ecx+60], eax

; 4706 :             lpWrkEntityInstance->u.nInd.bUpdated = bUpdated;

	movzx	ecx, BYTE PTR _bUpdated$[ebp]
	and	ecx, 1
	shl	ecx, 2
	mov	edx, DWORD PTR _lpWrkEntityInstance$[ebp]
	mov	eax, DWORD PTR [edx+6]
	and	eax, -5					; fffffffbH
	or	eax, ecx
	mov	ecx, DWORD PTR _lpWrkEntityInstance$[ebp]
	mov	DWORD PTR [ecx+6], eax

; 4707 :             lpWrkEntityInstance->u.nInd.bCreated = bCreated;

	movzx	edx, BYTE PTR _bCreated$[ebp]
	and	edx, 1
	shl	edx, 1
	mov	eax, DWORD PTR _lpWrkEntityInstance$[ebp]
	mov	ecx, DWORD PTR [eax+6]
	and	ecx, -3					; fffffffdH
	or	ecx, edx
	mov	edx, DWORD PTR _lpWrkEntityInstance$[ebp]
	mov	DWORD PTR [edx+6], ecx

; 4708 :             lpWrkEntityInstance->u.nInd.bPrevVersion = bPrevVersion;

	movzx	eax, BYTE PTR _bPrevVersion$[ebp]
	and	eax, 1
	shl	eax, 8
	mov	ecx, DWORD PTR _lpWrkEntityInstance$[ebp]
	mov	edx, DWORD PTR [ecx+6]
	and	edx, -257				; fffffeffH
	or	edx, eax
	mov	eax, DWORD PTR _lpWrkEntityInstance$[ebp]
	mov	DWORD PTR [eax+6], edx

; 4709 : 
; 4710 :             if ( zGETPTR( lpWrkEntityInstance->hNextLinked ) ==

	mov	ecx, DWORD PTR _lpWrkEntityInstance$[ebp]
	mov	edx, DWORD PTR [ecx+42]
	push	edx
	call	DWORD PTR _g_pfnGetPtr
	cmp	eax, DWORD PTR _lpTgtEntityInstance$[ebp]
	jne	SHORT $LN29@fnRelinkIn

; 4711 :                                                    lpTgtEntityInstance )
; 4712 :             {
; 4713 :                break;

	jmp	SHORT $LN7@fnRelinkIn
$LN29@fnRelinkIn:

; 4714 :             }
; 4715 : 
; 4716 :             lpWrkEntityInstance = zGETPTR( lpWrkEntityInstance->hNextLinked );

	mov	eax, DWORD PTR _lpWrkEntityInstance$[ebp]
	mov	ecx, DWORD PTR [eax+42]
	push	ecx
	call	DWORD PTR _g_pfnGetPtr
	mov	DWORD PTR _lpWrkEntityInstance$[ebp], eax

; 4717 :          }

	jmp	$LN8@fnRelinkIn
$LN7@fnRelinkIn:

; 4718 : 
; 4719 :          lpSrcEntityInstance->hNextLinked = lpTgtEntityInstance->hNextLinked;

	mov	edx, DWORD PTR _lpSrcEntityInstance$[ebp]
	mov	eax, DWORD PTR _lpTgtEntityInstance$[ebp]
	mov	ecx, DWORD PTR [eax+42]
	mov	DWORD PTR [edx+42], ecx
$LN28@fnRelinkIn:

; 4720 :       }
; 4721 : 
; 4722 :       lpTgtEntityInstance->hNextLinked = zGETHNDL( lpSrcEntityInstance );

	mov	edx, DWORD PTR _lpSrcEntityInstance$[ebp]
	push	edx
	call	DWORD PTR _g_pfnGetHndl
	mov	ecx, DWORD PTR _lpTgtEntityInstance$[ebp]
	mov	DWORD PTR [ecx+42], eax

; 4723 :    }

	jmp	$LN26@fnRelinkIn
$LN25@fnRelinkIn:

; 4724 :    else
; 4725 :    {
; 4726 :       if ( lpTgtEntityInstance->hNextLinked == 0 )

	mov	edx, DWORD PTR _lpTgtEntityInstance$[ebp]
	cmp	DWORD PTR [edx+42], 0
	jne	SHORT $LN30@fnRelinkIn

; 4727 :       {
; 4728 :          lpTgtEntityInstance->hNextLinked = lpSrcEntityInstance->hNextLinked;

	mov	eax, DWORD PTR _lpTgtEntityInstance$[ebp]
	mov	ecx, DWORD PTR _lpSrcEntityInstance$[ebp]
	mov	edx, DWORD PTR [ecx+42]
	mov	DWORD PTR [eax+42], edx

; 4729 :          lpSrcEntityInstance->hNextLinked = zGETHNDL( lpTgtEntityInstance );

	mov	eax, DWORD PTR _lpTgtEntityInstance$[ebp]
	push	eax
	call	DWORD PTR _g_pfnGetHndl
	mov	ecx, DWORD PTR _lpSrcEntityInstance$[ebp]
	mov	DWORD PTR [ecx+42], eax

; 4730 :       }

	jmp	$LN26@fnRelinkIn
$LN30@fnRelinkIn:

; 4731 :       else
; 4732 :       {
; 4733 :          // Both entity instances are on two different link chains,
; 4734 :          // break the two chains and combine into one larger chain
; 4735 :          lpWrkEntityInstance = zGETPTR( lpSrcEntityInstance->hNextLinked );

	mov	edx, DWORD PTR _lpSrcEntityInstance$[ebp]
	mov	eax, DWORD PTR [edx+42]
	push	eax
	call	DWORD PTR _g_pfnGetPtr
	mov	DWORD PTR _lpWrkEntityInstance$[ebp], eax
$LN9@fnRelinkIn:

; 4736 :          while ( TRUE )

	mov	ecx, 1
	test	ecx, ecx
	je	SHORT $LN10@fnRelinkIn

; 4737 :          {
; 4738 :             LPENTITYINSTANCE lpWorkEI;
; 4739 : 
; 4740 :             lpWorkEI = zGETPTR( lpWrkEntityInstance->hNextLinked );

	mov	edx, DWORD PTR _lpWrkEntityInstance$[ebp]
	mov	eax, DWORD PTR [edx+42]
	push	eax
	call	DWORD PTR _g_pfnGetPtr
	mov	DWORD PTR _lpWorkEI$3[ebp], eax

; 4741 : 
; 4742 :             if ( lpWorkEI == lpSrcEntityInstance )

	mov	ecx, DWORD PTR _lpWorkEI$3[ebp]
	cmp	ecx, DWORD PTR _lpSrcEntityInstance$[ebp]
	jne	SHORT $LN32@fnRelinkIn

; 4743 :                break;

	jmp	SHORT $LN10@fnRelinkIn
$LN32@fnRelinkIn:

; 4744 : 
; 4745 :             lpWrkEntityInstance = lpWorkEI;

	mov	edx, DWORD PTR _lpWorkEI$3[ebp]
	mov	DWORD PTR _lpWrkEntityInstance$[ebp], edx

; 4746 :          }

	jmp	SHORT $LN9@fnRelinkIn
$LN10@fnRelinkIn:

; 4747 : 
; 4748 :          lpWrkEntityInstance->hNextLinked = zGETHNDL( lpTgtEntityInstance );

	mov	eax, DWORD PTR _lpTgtEntityInstance$[ebp]
	push	eax
	call	DWORD PTR _g_pfnGetHndl
	mov	ecx, DWORD PTR _lpWrkEntityInstance$[ebp]
	mov	DWORD PTR [ecx+42], eax

; 4749 : 
; 4750 :          // Chain forward past target entity instance on target chain
; 4751 :          lpWrkEntityInstance = zGETPTR( lpTgtEntityInstance->hNextLinked );

	mov	edx, DWORD PTR _lpTgtEntityInstance$[ebp]
	mov	eax, DWORD PTR [edx+42]
	push	eax
	call	DWORD PTR _g_pfnGetPtr
	mov	DWORD PTR _lpWrkEntityInstance$[ebp], eax
$LN13@fnRelinkIn:

; 4752 :          for ( ; ; )
; 4753 :          {
; 4754 :             LPENTITYINSTANCE lpWorkEI;
; 4755 : 
; 4756 :             // Set the record pointer for other instances in target
; 4757 :             // link chain to point to the source record
; 4758 :             lpWrkEntityInstance->hPersistRecord = lpSrcEntityInstance->hPersistRecord;

	mov	ecx, DWORD PTR _lpWrkEntityInstance$[ebp]
	mov	edx, DWORD PTR _lpSrcEntityInstance$[ebp]
	mov	eax, DWORD PTR [edx+60]
	mov	DWORD PTR [ecx+60], eax

; 4759 :             lpWrkEntityInstance->u.nInd.bUpdated = bUpdated;

	movzx	ecx, BYTE PTR _bUpdated$[ebp]
	and	ecx, 1
	shl	ecx, 2
	mov	edx, DWORD PTR _lpWrkEntityInstance$[ebp]
	mov	eax, DWORD PTR [edx+6]
	and	eax, -5					; fffffffbH
	or	eax, ecx
	mov	ecx, DWORD PTR _lpWrkEntityInstance$[ebp]
	mov	DWORD PTR [ecx+6], eax

; 4760 :             lpWrkEntityInstance->u.nInd.bCreated = bCreated;

	movzx	edx, BYTE PTR _bCreated$[ebp]
	and	edx, 1
	shl	edx, 1
	mov	eax, DWORD PTR _lpWrkEntityInstance$[ebp]
	mov	ecx, DWORD PTR [eax+6]
	and	ecx, -3					; fffffffdH
	or	ecx, edx
	mov	edx, DWORD PTR _lpWrkEntityInstance$[ebp]
	mov	DWORD PTR [edx+6], ecx

; 4761 :             lpWrkEntityInstance->u.nInd.bPrevVersion = bPrevVersion;

	movzx	eax, BYTE PTR _bPrevVersion$[ebp]
	and	eax, 1
	shl	eax, 8
	mov	ecx, DWORD PTR _lpWrkEntityInstance$[ebp]
	mov	edx, DWORD PTR [ecx+6]
	and	edx, -257				; fffffeffH
	or	edx, eax
	mov	eax, DWORD PTR _lpWrkEntityInstance$[ebp]
	mov	DWORD PTR [eax+6], edx

; 4762 : 
; 4763 :             lpWorkEI = zGETPTR( lpWrkEntityInstance->hNextLinked );

	mov	ecx, DWORD PTR _lpWrkEntityInstance$[ebp]
	mov	edx, DWORD PTR [ecx+42]
	push	edx
	call	DWORD PTR _g_pfnGetPtr
	mov	DWORD PTR _lpWorkEI$2[ebp], eax

; 4764 : 
; 4765 :             if ( lpWorkEI == lpTgtEntityInstance )

	mov	eax, DWORD PTR _lpWorkEI$2[ebp]
	cmp	eax, DWORD PTR _lpTgtEntityInstance$[ebp]
	jne	SHORT $LN33@fnRelinkIn

; 4766 :                break;

	jmp	SHORT $LN12@fnRelinkIn
$LN33@fnRelinkIn:

; 4767 : 
; 4768 :             lpWrkEntityInstance = lpWorkEI;

	mov	ecx, DWORD PTR _lpWorkEI$2[ebp]
	mov	DWORD PTR _lpWrkEntityInstance$[ebp], ecx

; 4769 :          }

	jmp	$LN13@fnRelinkIn
$LN12@fnRelinkIn:

; 4770 : 
; 4771 :          // Now that we have found the last instance in the target
; 4772 :          // link chain, chain it forward to the source instance.
; 4773 :          lpWrkEntityInstance->hNextLinked = zGETHNDL( lpSrcEntityInstance );

	mov	edx, DWORD PTR _lpSrcEntityInstance$[ebp]
	push	edx
	call	DWORD PTR _g_pfnGetHndl
	mov	ecx, DWORD PTR _lpWrkEntityInstance$[ebp]
	mov	DWORD PTR [ecx+42], eax
$LN26@fnRelinkIn:

; 4774 :       }
; 4775 :    }
; 4776 : 
; 4777 : #ifdef DEBUG
; 4778 :    lpSrcViewEntity = zGETPTR( lpSrcEntityInstance->hViewEntity );

	mov	edx, DWORD PTR _lpSrcEntityInstance$[ebp]
	mov	eax, DWORD PTR [edx+2]
	push	eax
	call	DWORD PTR _g_pfnGetPtr
	mov	DWORD PTR _lpSrcViewEntity$[ebp], eax

; 4779 : #endif
; 4780 : 
; 4781 :    // The two instances are linked together, now free up the data
; 4782 :    // record for the target entity instance and set the record
; 4783 :    // pointer from the source entity instance.
; 4784 :    hOldRecord = lpTgtEntityInstance->hPersistRecord;

	mov	ecx, DWORD PTR _lpTgtEntityInstance$[ebp]
	mov	edx, DWORD PTR [ecx+60]
	mov	DWORD PTR _hOldRecord$[ebp], edx

; 4785 :    fnDeleteAttributeRecord( lpTgtViewEntity, lpTgtEntityInstance, TRUE );

	push	1
	mov	eax, DWORD PTR _lpTgtEntityInstance$[ebp]
	push	eax
	mov	ecx, DWORD PTR _lpTgtViewEntity$[ebp]
	push	ecx
	call	_fnDeleteAttributeRecord
	add	esp, 12					; 0000000cH

; 4786 :    lpTgtEntityInstance->hPersistRecord = lpSrcEntityInstance->hPersistRecord;

	mov	edx, DWORD PTR _lpTgtEntityInstance$[ebp]
	mov	eax, DWORD PTR _lpSrcEntityInstance$[ebp]
	mov	ecx, DWORD PTR [eax+60]
	mov	DWORD PTR [edx+60], ecx

; 4787 :    lpTgtEntityInstance->u.nInd.bUpdated = bUpdated;

	movzx	edx, BYTE PTR _bUpdated$[ebp]
	and	edx, 1
	shl	edx, 2
	mov	eax, DWORD PTR _lpTgtEntityInstance$[ebp]
	mov	ecx, DWORD PTR [eax+6]
	and	ecx, -5					; fffffffbH
	or	ecx, edx
	mov	edx, DWORD PTR _lpTgtEntityInstance$[ebp]
	mov	DWORD PTR [edx+6], ecx

; 4788 :    lpTgtEntityInstance->u.nInd.bCreated = bCreated;

	movzx	eax, BYTE PTR _bCreated$[ebp]
	and	eax, 1
	shl	eax, 1
	mov	ecx, DWORD PTR _lpTgtEntityInstance$[ebp]
	mov	edx, DWORD PTR [ecx+6]
	and	edx, -3					; fffffffdH
	or	edx, eax
	mov	eax, DWORD PTR _lpTgtEntityInstance$[ebp]
	mov	DWORD PTR [eax+6], edx

; 4789 :    lpTgtEntityInstance->u.nInd.bPrevVersion = bPrevVersion;

	movzx	ecx, BYTE PTR _bPrevVersion$[ebp]
	and	ecx, 1
	shl	ecx, 8
	mov	edx, DWORD PTR _lpTgtEntityInstance$[ebp]
	mov	eax, DWORD PTR [edx+6]
	and	eax, -257				; fffffeffH
	or	eax, ecx
	mov	ecx, DWORD PTR _lpTgtEntityInstance$[ebp]
	mov	DWORD PTR [ecx+6], eax

; 4790 : 
; 4791 :    // Now that the old record has been deleted, propogate the link
; 4792 :    // record across all versions of the target instance.
; 4793 :    if ( lpTgtEntityInstance->hNextVsn )

	mov	edx, DWORD PTR _lpTgtEntityInstance$[ebp]
	cmp	DWORD PTR [edx+34], 0
	je	SHORT $LN34@fnRelinkIn

; 4794 :    {
; 4795 :       zPVOID hNewRecord;
; 4796 : 
; 4797 :       hNewRecord = lpTgtEntityInstance->hPersistRecord;

	mov	eax, DWORD PTR _lpTgtEntityInstance$[ebp]
	mov	ecx, DWORD PTR [eax+60]
	mov	DWORD PTR _hNewRecord$1[ebp], ecx

; 4798 : 
; 4799 :       lpVsnEntityInstance = zGETPTR( lpTgtEntityInstance->hNextVsn );

	mov	edx, DWORD PTR _lpTgtEntityInstance$[ebp]
	mov	eax, DWORD PTR [edx+34]
	push	eax
	call	DWORD PTR _g_pfnGetPtr
	mov	DWORD PTR _lpVsnEntityInstance$[ebp], eax
$LN14@fnRelinkIn:

; 4800 :       while ( lpVsnEntityInstance )

	cmp	DWORD PTR _lpVsnEntityInstance$[ebp], 0
	je	SHORT $LN34@fnRelinkIn

; 4801 :       {
; 4802 :          if ( lpVsnEntityInstance->hPersistRecord == hOldRecord )

	mov	ecx, DWORD PTR _lpVsnEntityInstance$[ebp]
	mov	edx, DWORD PTR [ecx+60]
	cmp	edx, DWORD PTR _hOldRecord$[ebp]
	jne	SHORT $LN35@fnRelinkIn

; 4803 :          {
; 4804 :             lpVsnEntityInstance->hPersistRecord = hNewRecord;

	mov	eax, DWORD PTR _lpVsnEntityInstance$[ebp]
	mov	ecx, DWORD PTR _hNewRecord$1[ebp]
	mov	DWORD PTR [eax+60], ecx

; 4805 :             lpWrkEntityInstance = zGETPTR( lpVsnEntityInstance->hNextLinked );

	mov	edx, DWORD PTR _lpVsnEntityInstance$[ebp]
	mov	eax, DWORD PTR [edx+42]
	push	eax
	call	DWORD PTR _g_pfnGetPtr
	mov	DWORD PTR _lpWrkEntityInstance$[ebp], eax
$LN16@fnRelinkIn:

; 4806 : 
; 4807 :             while ( lpWrkEntityInstance &&

	cmp	DWORD PTR _lpWrkEntityInstance$[ebp], 0
	je	SHORT $LN35@fnRelinkIn
	mov	ecx, DWORD PTR _lpWrkEntityInstance$[ebp]
	cmp	ecx, DWORD PTR _lpVsnEntityInstance$[ebp]
	je	SHORT $LN35@fnRelinkIn

; 4808 :                     lpWrkEntityInstance != lpVsnEntityInstance )
; 4809 :             {
; 4810 :                lpVsnEntityInstance->hPersistRecord = hNewRecord;

	mov	edx, DWORD PTR _lpVsnEntityInstance$[ebp]
	mov	eax, DWORD PTR _hNewRecord$1[ebp]
	mov	DWORD PTR [edx+60], eax

; 4811 :                lpWrkEntityInstance = zGETPTR( lpWrkEntityInstance->hNextLinked );

	mov	ecx, DWORD PTR _lpWrkEntityInstance$[ebp]
	mov	edx, DWORD PTR [ecx+42]
	push	edx
	call	DWORD PTR _g_pfnGetPtr
	mov	DWORD PTR _lpWrkEntityInstance$[ebp], eax

; 4812 :             }

	jmp	SHORT $LN16@fnRelinkIn
$LN35@fnRelinkIn:

; 4813 :          }
; 4814 : 
; 4815 :          lpVsnEntityInstance = zGETPTR( lpVsnEntityInstance->hNextVsn );

	mov	eax, DWORD PTR _lpVsnEntityInstance$[ebp]
	mov	ecx, DWORD PTR [eax+34]
	push	ecx
	call	DWORD PTR _g_pfnGetPtr
	mov	DWORD PTR _lpVsnEntityInstance$[ebp], eax

; 4816 :       }

	jmp	SHORT $LN14@fnRelinkIn
$LN34@fnRelinkIn:

; 4817 :    }
; 4818 : 
; 4819 :    return( nRC );  // return to caller

	mov	ax, WORD PTR _nRC$[ebp]
$LN1@fnRelinkIn:

; 4820 : }

	mov	esp, ebp
	pop	ebp
	ret	0
_fnRelinkInstanceToInstance ENDP
_TEXT	ENDS
; Function compile flags: /Odtp
; File c:\10c\a\oe\kzoeeiaa.c
_TEXT	SEGMENT
tv91 = -48						; size = 4
_lpViewEntity$ = -44					; size = 4
tv156 = -40						; size = 4
tv155 = -36						; size = 4
_ulOffset$ = -32					; size = 4
_lpTgtRecord$ = -28					; size = 4
_lpSrcRecord$ = -24					; size = 4
_lpExternalP$ = -20					; size = 4
_lpViewAttrib$ = -16					; size = 4
_lpSrcData$ = -12					; size = 4
_lpTgtData$ = -8					; size = 4
_bKeyFound$ = -1					; size = 1
_lpTgtEntityInstance$ = 8				; size = 4
_lpSrcEntityInstance$ = 12				; size = 4
_fnInstanceKeysMatch PROC

; 4544 : {

	push	ebp
	mov	ebp, esp
	sub	esp, 48					; 00000030H

; 4545 :    zBOOL        bKeyFound;
; 4546 :    zULONG       ulOffset;
; 4547 :    LPVIEWENTITY lpViewEntity;
; 4548 :    LPVIEWATTRIB lpViewAttrib;
; 4549 :    zPCHAR       lpSrcRecord;
; 4550 :    zPCHAR       lpTgtRecord;
; 4551 :    zPCHAR       lpSrcData;
; 4552 :    zPCHAR       lpTgtData;
; 4553 :    zCOREMEM     lpExternalP;
; 4554 : 
; 4555 :    bKeyFound = 0;

	mov	BYTE PTR _bKeyFound$[ebp], 0

; 4556 :    lpTgtRecord = (zPCHAR) zGETPTR( lpTgtEntityInstance->hPersistRecord );

	mov	eax, DWORD PTR _lpTgtEntityInstance$[ebp]
	mov	ecx, DWORD PTR [eax+60]
	push	ecx
	call	DWORD PTR _g_pfnGetPtr
	mov	DWORD PTR _lpTgtRecord$[ebp], eax

; 4557 :    lpSrcRecord = (zPCHAR) zGETPTR( lpSrcEntityInstance->hPersistRecord );

	mov	edx, DWORD PTR _lpSrcEntityInstance$[ebp]
	mov	eax, DWORD PTR [edx+60]
	push	eax
	call	DWORD PTR _g_pfnGetPtr
	mov	DWORD PTR _lpSrcRecord$[ebp], eax

; 4558 :    if ( lpSrcRecord && lpTgtRecord )

	cmp	DWORD PTR _lpSrcRecord$[ebp], 0
	je	$LN6@fnInstance
	cmp	DWORD PTR _lpTgtRecord$[ebp], 0
	je	$LN6@fnInstance

; 4559 :    {
; 4560 :       lpViewEntity = zGETPTR( lpTgtEntityInstance->hViewEntity );

	mov	ecx, DWORD PTR _lpTgtEntityInstance$[ebp]
	mov	edx, DWORD PTR [ecx+2]
	push	edx
	call	DWORD PTR _g_pfnGetPtr
	mov	DWORD PTR _lpViewEntity$[ebp], eax

; 4561 :       lpViewAttrib = zGETPTR( lpViewEntity->hFirstOD_Attrib );

	mov	eax, DWORD PTR _lpViewEntity$[ebp]
	mov	ecx, DWORD PTR [eax+179]
	push	ecx
	call	DWORD PTR _g_pfnGetPtr
	mov	DWORD PTR _lpViewAttrib$[ebp], eax
$LN2@fnInstance:

; 4562 :       while ( lpViewAttrib )

	cmp	DWORD PTR _lpViewAttrib$[ebp], 0
	je	$LN6@fnInstance

; 4563 :       {
; 4564 :          if ( lpViewAttrib->bKey && lpViewAttrib->bPersist )

	mov	edx, DWORD PTR _lpViewAttrib$[ebp]
	mov	eax, DWORD PTR [edx+193]
	shr	eax, 1
	and	eax, 1
	je	$LN7@fnInstance
	mov	ecx, DWORD PTR _lpViewAttrib$[ebp]
	mov	edx, DWORD PTR [ecx+193]
	and	edx, 1
	je	$LN7@fnInstance

; 4565 :          {
; 4566 :             bKeyFound = TRUE;

	mov	BYTE PTR _bKeyFound$[ebp], 1

; 4567 :             ulOffset = lpViewAttrib->ulRecordOffset;

	mov	eax, DWORD PTR _lpViewAttrib$[ebp]
	mov	ecx, DWORD PTR [eax+250]
	mov	DWORD PTR _ulOffset$[ebp], ecx

; 4568 :             lpSrcData = lpSrcRecord + ulOffset;

	mov	edx, DWORD PTR _lpSrcRecord$[ebp]
	add	edx, DWORD PTR _ulOffset$[ebp]
	mov	DWORD PTR _lpSrcData$[ebp], edx

; 4569 :             lpTgtData = lpTgtRecord + ulOffset;

	mov	eax, DWORD PTR _lpTgtRecord$[ebp]
	add	eax, DWORD PTR _ulOffset$[ebp]
	mov	DWORD PTR _lpTgtData$[ebp], eax

; 4570 :             switch ( lpViewAttrib->cType )

	mov	ecx, DWORD PTR _lpViewAttrib$[ebp]
	mov	dl, BYTE PTR [ecx+202]
	mov	BYTE PTR tv91[ebp], dl
	cmp	BYTE PTR tv91[ebp], 83			; 00000053H
	je	SHORT $LN8@fnInstance
	jmp	$LN12@fnInstance
$LN8@fnInstance:

; 4571 :             {
; 4572 :                case 'S':
; 4573 :                   if ( lpSrcData[ 0 ] == (zCHAR) '\xff' &&

	mov	eax, 1
	imul	ecx, eax, 0
	mov	edx, DWORD PTR _lpSrcData$[ebp]
	movsx	eax, BYTE PTR [edx+ecx]
	cmp	eax, -1
	jne	SHORT $LN9@fnInstance
	mov	ecx, 1
	imul	edx, ecx, 0
	mov	eax, DWORD PTR _lpTgtData$[ebp]
	movsx	ecx, BYTE PTR [eax+edx]
	cmp	ecx, -1
	jne	SHORT $LN9@fnInstance

; 4574 :                        lpTgtData[ 0 ] == (zCHAR) '\xff' )
; 4575 :                   {
; 4576 :                      lpExternalP = (zCOREMEM) (lpSrcData + 1);

	mov	edx, DWORD PTR _lpSrcData$[ebp]
	add	edx, 1
	mov	DWORD PTR _lpExternalP$[ebp], edx

; 4577 :                      lpSrcData   = zGETPTR( *lpExternalP );

	mov	eax, DWORD PTR _lpExternalP$[ebp]
	mov	ecx, DWORD PTR [eax]
	push	ecx
	call	DWORD PTR _g_pfnGetPtr
	mov	DWORD PTR _lpSrcData$[ebp], eax

; 4578 :                      lpExternalP = (zCOREMEM) (lpTgtData + 1);

	mov	edx, DWORD PTR _lpTgtData$[ebp]
	add	edx, 1
	mov	DWORD PTR _lpExternalP$[ebp], edx

; 4579 :                      lpTgtData   = zGETPTR( *lpExternalP );

	mov	eax, DWORD PTR _lpExternalP$[ebp]
	mov	ecx, DWORD PTR [eax]
	push	ecx
	call	DWORD PTR _g_pfnGetPtr
	mov	DWORD PTR _lpTgtData$[ebp], eax
$LN9@fnInstance:

; 4580 :                   }
; 4581 : 
; 4582 :                   if ( lpSrcData[ 0 ] != lpTgtData[ 0 ] ||

	mov	edx, 1
	imul	eax, edx, 0
	mov	ecx, DWORD PTR _lpSrcData$[ebp]
	movsx	edx, BYTE PTR [ecx+eax]
	mov	eax, 1
	imul	ecx, eax, 0
	mov	eax, DWORD PTR _lpTgtData$[ebp]
	movsx	ecx, BYTE PTR [eax+ecx]
	cmp	edx, ecx
	jne	SHORT $LN11@fnInstance
	mov	edx, DWORD PTR _lpSrcData$[ebp]
	movsx	eax, BYTE PTR [edx]
	mov	ecx, DWORD PTR _lpTgtData$[ebp]
	movsx	edx, BYTE PTR [ecx]
	cmp	eax, edx
	jne	SHORT $LN18@fnInstance
	mov	eax, DWORD PTR _lpTgtData$[ebp]
	push	eax
	mov	ecx, DWORD PTR _lpSrcData$[ebp]
	push	ecx
	call	_strcmp
	add	esp, 8
	mov	DWORD PTR tv156[ebp], eax
	jmp	SHORT $LN19@fnInstance
$LN18@fnInstance:
	mov	edx, DWORD PTR _lpSrcData$[ebp]
	movsx	eax, BYTE PTR [edx]
	mov	ecx, DWORD PTR _lpTgtData$[ebp]
	movsx	edx, BYTE PTR [ecx]
	sub	eax, edx
	test	eax, eax
	jle	SHORT $LN16@fnInstance
	mov	DWORD PTR tv155[ebp], 1
	jmp	SHORT $LN17@fnInstance
$LN16@fnInstance:
	mov	DWORD PTR tv155[ebp], -1
$LN17@fnInstance:
	mov	eax, DWORD PTR tv155[ebp]
	mov	DWORD PTR tv156[ebp], eax
$LN19@fnInstance:
	cmp	DWORD PTR tv156[ebp], 0
	je	SHORT $LN10@fnInstance
$LN11@fnInstance:

; 4583 :                        zstrcmp( lpSrcData, lpTgtData ) != 0 )
; 4584 :                   {
; 4585 :                      return( 0 );

	xor	eax, eax
	jmp	SHORT $LN1@fnInstance
$LN10@fnInstance:

; 4586 :                   }
; 4587 : 
; 4588 :                   break;

	jmp	SHORT $LN7@fnInstance
$LN12@fnInstance:

; 4589 : 
; 4590 :                default:
; 4591 :                   if ( zmemcmp( lpSrcData, lpTgtData,
; 4592 :                                 lpViewAttrib->ulLth ) != 0 )

	mov	ecx, DWORD PTR _lpViewAttrib$[ebp]
	mov	edx, DWORD PTR [ecx+203]
	push	edx
	mov	eax, DWORD PTR _lpTgtData$[ebp]
	push	eax
	mov	ecx, DWORD PTR _lpSrcData$[ebp]
	push	ecx
	call	_memcmp
	add	esp, 12					; 0000000cH
	test	eax, eax
	je	SHORT $LN7@fnInstance

; 4593 :                   {
; 4594 :                      return( 0 );

	xor	eax, eax
	jmp	SHORT $LN1@fnInstance
$LN7@fnInstance:

; 4595 :                   }
; 4596 :             }
; 4597 :          }
; 4598 : 
; 4599 :          lpViewAttrib = zGETPTR( lpViewAttrib->hNextOD_Attrib );

	mov	edx, DWORD PTR _lpViewAttrib$[ebp]
	mov	eax, DWORD PTR [edx+2]
	push	eax
	call	DWORD PTR _g_pfnGetPtr
	mov	DWORD PTR _lpViewAttrib$[ebp], eax

; 4600 :       }

	jmp	$LN2@fnInstance
$LN6@fnInstance:

; 4601 :    }
; 4602 : 
; 4603 :    // If we get here and a key was found, then the records match ...
; 4604 :    // return success.
; 4605 :    if ( bKeyFound )

	movzx	ecx, BYTE PTR _bKeyFound$[ebp]
	test	ecx, ecx
	je	SHORT $LN14@fnInstance

; 4606 :       return( 1 );

	mov	eax, 1
	jmp	SHORT $LN1@fnInstance
$LN14@fnInstance:

; 4607 : 
; 4608 :    // If a key was not found or a record does not exist, then they can't
; 4609 :    // match ... return failure.
; 4610 :    return( 0 );  // default is no match

	xor	eax, eax
$LN1@fnInstance:

; 4611 : }

	mov	esp, ebp
	pop	ebp
	ret	0
_fnInstanceKeysMatch ENDP
_TEXT	ENDS
; Function compile flags: /Odtp
; File c:\10c\a\oe\kzoeeiaa.c
_TEXT	SEGMENT
_nLevel$ = -8						; size = 2
_nHidden$ = -4						; size = 2
_lpStartEntityInstance$ = 8				; size = 4
_bMarkExcluded$ = 12					; size = 2
_fnHideExcludedDeletedInstances PROC

; 3809 : {

	push	ebp
	mov	ebp, esp
	sub	esp, 8

; 3810 :    zSHORT            nHidden;
; 3811 :    zSHORT            nLevel;
; 3812 : 
; 3813 :    nHidden = 0;

	xor	eax, eax
	mov	WORD PTR _nHidden$[ebp], ax

; 3814 :    nLevel = lpStartEntityInstance->nLevel;

	mov	ecx, DWORD PTR _lpStartEntityInstance$[ebp]
	mov	dx, WORD PTR [ecx+58]
	mov	WORD PTR _nLevel$[ebp], dx
$LN4@fnHideExcl:

; 3815 : 
; 3816 :    do
; 3817 :    {
; 3818 :       if ( lpStartEntityInstance->u.nInd.bHidden == FALSE )

	mov	eax, DWORD PTR _lpStartEntityInstance$[ebp]
	mov	ecx, DWORD PTR [eax+6]
	shr	ecx, 10					; 0000000aH
	and	ecx, 1
	jne	SHORT $LN5@fnHideExcl

; 3819 :       {
; 3820 :          lpStartEntityInstance->u.nInd.bHidden = TRUE;

	mov	edx, DWORD PTR _lpStartEntityInstance$[ebp]
	mov	eax, DWORD PTR [edx+6]
	or	eax, 1024				; 00000400H
	mov	ecx, DWORD PTR _lpStartEntityInstance$[ebp]
	mov	DWORD PTR [ecx+6], eax

; 3821 :          nHidden++;

	mov	dx, WORD PTR _nHidden$[ebp]
	add	dx, 1
	mov	WORD PTR _nHidden$[ebp], dx

; 3822 : 
; 3823 :          // Call the recursive function to mark any linked instances
; 3824 :          // as hidden which were deleted or excluded by the calling
; 3825 :          // operation
; 3826 :          if ( (lpStartEntityInstance->u.nInd.bDeleted ||
; 3827 :                lpStartEntityInstance->u.nInd.bExcluded) &&

	mov	eax, DWORD PTR _lpStartEntityInstance$[ebp]
	mov	ecx, DWORD PTR [eax+6]
	shr	ecx, 3
	and	ecx, 1
	jne	SHORT $LN7@fnHideExcl
	mov	edx, DWORD PTR _lpStartEntityInstance$[ebp]
	mov	eax, DWORD PTR [edx+6]
	shr	eax, 4
	and	eax, 1
	je	SHORT $LN6@fnHideExcl
$LN7@fnHideExcl:
	mov	ecx, DWORD PTR _lpStartEntityInstance$[ebp]
	cmp	DWORD PTR [ecx+42], 0
	je	SHORT $LN6@fnHideExcl

; 3828 :               lpStartEntityInstance->hNextLinked )
; 3829 :          {
; 3830 :             nHidden += fnHideLinkedChildren( lpStartEntityInstance,

	movzx	edx, WORD PTR _bMarkExcluded$[ebp]
	push	edx
	mov	eax, DWORD PTR _lpStartEntityInstance$[ebp]
	push	eax
	call	_fnHideLinkedChildren
	add	esp, 8
	movsx	ecx, ax
	movsx	edx, WORD PTR _nHidden$[ebp]
	add	edx, ecx
	mov	WORD PTR _nHidden$[ebp], dx
$LN6@fnHideExcl:

; 3831 :                                              bMarkExcluded );
; 3832 :          }
; 3833 : 
; 3834 :          if ( bMarkExcluded == FALSE )

	movsx	eax, WORD PTR _bMarkExcluded$[ebp]
	test	eax, eax
	jne	SHORT $LN5@fnHideExcl

; 3835 :             lpStartEntityInstance->u.nInd.bExcluded = FALSE;

	mov	ecx, DWORD PTR _lpStartEntityInstance$[ebp]
	mov	edx, DWORD PTR [ecx+6]
	and	edx, -17				; ffffffefH
	mov	eax, DWORD PTR _lpStartEntityInstance$[ebp]
	mov	DWORD PTR [eax+6], edx
$LN5@fnHideExcl:

; 3836 :       }
; 3837 : 
; 3838 :       lpStartEntityInstance = zGETPTR( lpStartEntityInstance->hNextHier );

	mov	ecx, DWORD PTR _lpStartEntityInstance$[ebp]
	mov	edx, DWORD PTR [ecx+14]
	push	edx
	call	DWORD PTR _g_pfnGetPtr
	mov	DWORD PTR _lpStartEntityInstance$[ebp], eax

; 3839 : 
; 3840 :    }  while ( lpStartEntityInstance &&

	cmp	DWORD PTR _lpStartEntityInstance$[ebp], 0
	je	SHORT $LN3@fnHideExcl
	mov	eax, DWORD PTR _lpStartEntityInstance$[ebp]
	movsx	ecx, WORD PTR [eax+58]
	movsx	edx, WORD PTR _nLevel$[ebp]
	cmp	ecx, edx
	jg	$LN4@fnHideExcl
$LN3@fnHideExcl:

; 3841 :               lpStartEntityInstance->nLevel > nLevel );
; 3842 : 
; 3843 :    return( nHidden );

	mov	ax, WORD PTR _nHidden$[ebp]

; 3844 : }

	mov	esp, ebp
	pop	ebp
	ret	0
_fnHideExcludedDeletedInstances ENDP
_TEXT	ENDS
; Function compile flags: /Odtp
; File c:\10c\a\oe\kzoeeiaa.c
_TEXT	SEGMENT
_lpNextHier$ = -16					; size = 4
_lpLinked$ = -12					; size = 4
_nLevel$ = -8						; size = 2
_nHidden$ = -4						; size = 2
_lpStartEntityInstance$ = 8				; size = 4
_bMarkExcluded$ = 12					; size = 2
_fnHideLinkedChildren PROC

; 3740 : {

	push	ebp
	mov	ebp, esp
	sub	esp, 16					; 00000010H

; 3741 :    zSHORT            nHidden;
; 3742 :    zSHORT            nLevel;
; 3743 :    LPENTITYINSTANCE  lpLinked;
; 3744 :    LPENTITYINSTANCE  lpNextHier;
; 3745 : 
; 3746 :    nHidden  = 0;

	xor	eax, eax
	mov	WORD PTR _nHidden$[ebp], ax

; 3747 :    nLevel   = lpStartEntityInstance->nLevel;

	mov	ecx, DWORD PTR _lpStartEntityInstance$[ebp]
	mov	dx, WORD PTR [ecx+58]
	mov	WORD PTR _nLevel$[ebp], dx

; 3748 :    lpLinked = zGETPTR( lpStartEntityInstance->hNextLinked );

	mov	eax, DWORD PTR _lpStartEntityInstance$[ebp]
	mov	ecx, DWORD PTR [eax+42]
	push	ecx
	call	DWORD PTR _g_pfnGetPtr
	mov	DWORD PTR _lpLinked$[ebp], eax
$LN2@fnHideLink:

; 3749 : 
; 3750 :    // For every linked instance to the starting instance passed,
; 3751 :    // mark it and all its children as hidden IF they are not already hidden
; 3752 :    // and they are marked either for delete or exclude. Recursively call
; 3753 :    // ourself for every child of a linked instance marked for delete which
; 3754 :    // is itself also marked for delete.
; 3755 :    while ( lpLinked && lpLinked != lpStartEntityInstance )

	cmp	DWORD PTR _lpLinked$[ebp], 0
	je	$LN3@fnHideLink
	mov	edx, DWORD PTR _lpLinked$[ebp]
	cmp	edx, DWORD PTR _lpStartEntityInstance$[ebp]
	je	$LN3@fnHideLink

; 3756 :    {
; 3757 :       if ( lpLinked->u.nInd.bHidden == FALSE &&

	mov	eax, DWORD PTR _lpLinked$[ebp]
	mov	ecx, DWORD PTR [eax+6]
	shr	ecx, 10					; 0000000aH
	and	ecx, 1
	jne	$LN6@fnHideLink
	mov	edx, DWORD PTR _lpLinked$[ebp]
	mov	eax, DWORD PTR [edx+6]
	shr	eax, 4
	and	eax, 1
	jne	SHORT $LN7@fnHideLink
	mov	ecx, DWORD PTR _lpLinked$[ebp]
	mov	edx, DWORD PTR [ecx+6]
	shr	edx, 3
	and	edx, 1
	je	$LN6@fnHideLink
$LN7@fnHideLink:

; 3758 :            (lpLinked->u.nInd.bExcluded || lpLinked->u.nInd.bDeleted) )
; 3759 :       {
; 3760 :          lpLinked->u.nInd.bHidden = TRUE;

	mov	eax, DWORD PTR _lpLinked$[ebp]
	mov	ecx, DWORD PTR [eax+6]
	or	ecx, 1024				; 00000400H
	mov	edx, DWORD PTR _lpLinked$[ebp]
	mov	DWORD PTR [edx+6], ecx

; 3761 :          if ( bMarkExcluded == FALSE )

	movsx	eax, WORD PTR _bMarkExcluded$[ebp]
	test	eax, eax
	jne	SHORT $LN8@fnHideLink

; 3762 :             lpLinked->u.nInd.bExcluded = FALSE;

	mov	ecx, DWORD PTR _lpLinked$[ebp]
	mov	edx, DWORD PTR [ecx+6]
	and	edx, -17				; ffffffefH
	mov	eax, DWORD PTR _lpLinked$[ebp]
	mov	DWORD PTR [eax+6], edx
$LN8@fnHideLink:

; 3763 : 
; 3764 :          nHidden++;

	mov	cx, WORD PTR _nHidden$[ebp]
	add	cx, 1
	mov	WORD PTR _nHidden$[ebp], cx

; 3765 :          lpNextHier = zGETPTR( lpLinked->hNextHier );

	mov	edx, DWORD PTR _lpLinked$[ebp]
	mov	eax, DWORD PTR [edx+14]
	push	eax
	call	DWORD PTR _g_pfnGetPtr
	mov	DWORD PTR _lpNextHier$[ebp], eax
$LN4@fnHideLink:

; 3766 :          while ( lpNextHier && lpNextHier->nLevel > lpLinked->nLevel )

	cmp	DWORD PTR _lpNextHier$[ebp], 0
	je	$LN6@fnHideLink
	mov	ecx, DWORD PTR _lpNextHier$[ebp]
	movsx	edx, WORD PTR [ecx+58]
	mov	eax, DWORD PTR _lpLinked$[ebp]
	movsx	ecx, WORD PTR [eax+58]
	cmp	edx, ecx
	jle	$LN6@fnHideLink

; 3767 :          {
; 3768 :             if ( lpNextHier->u.nInd.bHidden == FALSE )

	mov	edx, DWORD PTR _lpNextHier$[ebp]
	mov	eax, DWORD PTR [edx+6]
	shr	eax, 10					; 0000000aH
	and	eax, 1
	jne	SHORT $LN9@fnHideLink

; 3769 :             {
; 3770 :                if ( lpNextHier->hNextLinked &&

	mov	ecx, DWORD PTR _lpNextHier$[ebp]
	cmp	DWORD PTR [ecx+42], 0
	je	SHORT $LN10@fnHideLink
	mov	edx, DWORD PTR _lpNextHier$[ebp]
	mov	eax, DWORD PTR [edx+6]
	shr	eax, 4
	and	eax, 1
	jne	SHORT $LN11@fnHideLink
	mov	ecx, DWORD PTR _lpNextHier$[ebp]
	mov	edx, DWORD PTR [ecx+6]
	shr	edx, 3
	and	edx, 1
	je	SHORT $LN10@fnHideLink
$LN11@fnHideLink:

; 3771 :                     (lpNextHier->u.nInd.bExcluded ||
; 3772 :                      lpNextHier->u.nInd.bDeleted) )
; 3773 :                {
; 3774 :                   nHidden += fnHideLinkedChildren( lpNextHier,

	movzx	eax, WORD PTR _bMarkExcluded$[ebp]
	push	eax
	mov	ecx, DWORD PTR _lpNextHier$[ebp]
	push	ecx
	call	_fnHideLinkedChildren
	add	esp, 8
	movsx	edx, ax
	movsx	eax, WORD PTR _nHidden$[ebp]
	add	eax, edx
	mov	WORD PTR _nHidden$[ebp], ax
$LN10@fnHideLink:

; 3775 :                                                    bMarkExcluded );
; 3776 :                }
; 3777 : 
; 3778 :                lpNextHier->u.nInd.bHidden = TRUE;

	mov	ecx, DWORD PTR _lpNextHier$[ebp]
	mov	edx, DWORD PTR [ecx+6]
	or	edx, 1024				; 00000400H
	mov	eax, DWORD PTR _lpNextHier$[ebp]
	mov	DWORD PTR [eax+6], edx

; 3779 :                nHidden++;

	mov	cx, WORD PTR _nHidden$[ebp]
	add	cx, 1
	mov	WORD PTR _nHidden$[ebp], cx
$LN9@fnHideLink:

; 3780 :             }
; 3781 : 
; 3782 :             lpNextHier = zGETPTR( lpNextHier->hNextHier );

	mov	edx, DWORD PTR _lpNextHier$[ebp]
	mov	eax, DWORD PTR [edx+14]
	push	eax
	call	DWORD PTR _g_pfnGetPtr
	mov	DWORD PTR _lpNextHier$[ebp], eax

; 3783 :          }

	jmp	$LN4@fnHideLink
$LN6@fnHideLink:

; 3784 :       }
; 3785 : 
; 3786 :       lpLinked = zGETPTR( lpLinked->hNextLinked );

	mov	ecx, DWORD PTR _lpLinked$[ebp]
	mov	edx, DWORD PTR [ecx+42]
	push	edx
	call	DWORD PTR _g_pfnGetPtr
	mov	DWORD PTR _lpLinked$[ebp], eax

; 3787 :    }

	jmp	$LN2@fnHideLink
$LN3@fnHideLink:

; 3788 : 
; 3789 :    // Return number of instances hidden
; 3790 :    return( nHidden );

	mov	ax, WORD PTR _nHidden$[ebp]

; 3791 : }

	mov	esp, ebp
	pop	ebp
	ret	0
_fnHideLinkedChildren ENDP
_TEXT	ENDS
; Function compile flags: /Odtp
; File c:\10c\a\oe\kzoeeiaa.c
_TEXT	SEGMENT
_lpPrevVsn$1 = -16					; size = 4
_lpPrevVsn$2 = -12					; size = 4
_lpViewOI$ = -8						; size = 4
tv130 = -4						; size = 4
_lpTgtEntityInstance$ = 8				; size = 4
_lpSrcEntityInstance$ = 12				; size = 4
_fnInstanceVersionRootMatch PROC

; 4484 : {

	push	ebp
	mov	ebp, esp
	sub	esp, 16					; 00000010H

; 4485 :    LPVIEWOI lpViewOI = zGETPTR( lpSrcEntityInstance->hViewOI );

	mov	eax, DWORD PTR _lpSrcEntityInstance$[ebp]
	mov	ecx, DWORD PTR [eax+10]
	push	ecx
	call	DWORD PTR _g_pfnGetPtr
	mov	DWORD PTR _lpViewOI$[ebp], eax

; 4486 : 
; 4487 :    // If no temporal entities or subobject versions exist for either
; 4488 :    // viewoi, then the answer is same version.
; 4489 :    if ( lpViewOI->nVersionedInstances == 0 )

	mov	edx, DWORD PTR _lpViewOI$[ebp]
	movsx	eax, WORD PTR [edx+22]
	test	eax, eax
	jne	SHORT $LN2@fnInstance

; 4490 :       return( 1 );

	mov	al, 1
	jmp	$LN1@fnInstance
$LN2@fnInstance:

; 4491 : 
; 4492 :    // Determine the source root version for the source entity instance.
; 4493 :    while ( lpSrcEntityInstance )

	cmp	DWORD PTR _lpSrcEntityInstance$[ebp], 0
	je	SHORT $LN3@fnInstance

; 4494 :    {
; 4495 :       if ( lpSrcEntityInstance->hPrevVsn )

	mov	ecx, DWORD PTR _lpSrcEntityInstance$[ebp]
	cmp	DWORD PTR [ecx+38], 0
	je	SHORT $LN7@fnInstance

; 4496 :       {
; 4497 :          LPENTITYINSTANCE lpPrevVsn = zGETPTR( lpSrcEntityInstance->hPrevVsn );

	mov	edx, DWORD PTR _lpSrcEntityInstance$[ebp]
	mov	eax, DWORD PTR [edx+38]
	push	eax
	call	DWORD PTR _g_pfnGetPtr
	mov	DWORD PTR _lpPrevVsn$2[ebp], eax

; 4498 : 
; 4499 :          if ( lpPrevVsn->u.nInd.bPrevVsnRoot )

	mov	ecx, DWORD PTR _lpPrevVsn$2[ebp]
	mov	edx, DWORD PTR [ecx+6]
	shr	edx, 9
	and	edx, 1
	je	SHORT $LN7@fnInstance

; 4500 :             break;

	jmp	SHORT $LN3@fnInstance
$LN7@fnInstance:

; 4501 :       }
; 4502 : 
; 4503 :       lpSrcEntityInstance = zGETPTR( lpSrcEntityInstance->hParent );

	mov	eax, DWORD PTR _lpSrcEntityInstance$[ebp]
	mov	ecx, DWORD PTR [eax+30]
	push	ecx
	call	DWORD PTR _g_pfnGetPtr
	mov	DWORD PTR _lpSrcEntityInstance$[ebp], eax

; 4504 :    }

	jmp	SHORT $LN2@fnInstance
$LN3@fnInstance:

; 4505 : 
; 4506 :    if ( lpSrcEntityInstance == 0 )

	cmp	DWORD PTR _lpSrcEntityInstance$[ebp], 0
	jne	SHORT $LN4@fnInstance

; 4507 :       return( 1 );

	mov	al, 1
	jmp	SHORT $LN1@fnInstance
$LN4@fnInstance:

; 4508 : 
; 4509 :    // Determine the source root version for the target entity instance.
; 4510 :    while ( lpTgtEntityInstance )

	cmp	DWORD PTR _lpTgtEntityInstance$[ebp], 0
	je	SHORT $LN5@fnInstance

; 4511 :    {
; 4512 :       if ( lpTgtEntityInstance->hPrevVsn )

	mov	edx, DWORD PTR _lpTgtEntityInstance$[ebp]
	cmp	DWORD PTR [edx+38], 0
	je	SHORT $LN10@fnInstance

; 4513 :       {
; 4514 :          LPENTITYINSTANCE lpPrevVsn = zGETPTR( lpTgtEntityInstance->hPrevVsn );

	mov	eax, DWORD PTR _lpTgtEntityInstance$[ebp]
	mov	ecx, DWORD PTR [eax+38]
	push	ecx
	call	DWORD PTR _g_pfnGetPtr
	mov	DWORD PTR _lpPrevVsn$1[ebp], eax

; 4515 : 
; 4516 :          if ( lpPrevVsn->u.nInd.bPrevVsnRoot )

	mov	edx, DWORD PTR _lpPrevVsn$1[ebp]
	mov	eax, DWORD PTR [edx+6]
	shr	eax, 9
	and	eax, 1
	je	SHORT $LN10@fnInstance

; 4517 :             break;

	jmp	SHORT $LN5@fnInstance
$LN10@fnInstance:

; 4518 :       }
; 4519 : 
; 4520 :       lpTgtEntityInstance = zGETPTR( lpTgtEntityInstance->hParent );

	mov	ecx, DWORD PTR _lpTgtEntityInstance$[ebp]
	mov	edx, DWORD PTR [ecx+30]
	push	edx
	call	DWORD PTR _g_pfnGetPtr
	mov	DWORD PTR _lpTgtEntityInstance$[ebp], eax

; 4521 :    }

	jmp	SHORT $LN4@fnInstance
$LN5@fnInstance:

; 4522 : 
; 4523 :    // Return the comparison of the source and target version root.
; 4524 :    return( lpSrcEntityInstance == lpTgtEntityInstance );

	mov	eax, DWORD PTR _lpSrcEntityInstance$[ebp]
	cmp	eax, DWORD PTR _lpTgtEntityInstance$[ebp]
	jne	SHORT $LN13@fnInstance
	mov	DWORD PTR tv130[ebp], 1
	jmp	SHORT $LN14@fnInstance
$LN13@fnInstance:
	mov	DWORD PTR tv130[ebp], 0
$LN14@fnInstance:
	mov	al, BYTE PTR tv130[ebp]
$LN1@fnInstance:

; 4525 : }

	mov	esp, ebp
	pop	ebp
	ret	0
_fnInstanceVersionRootMatch ENDP
_TEXT	ENDS
; Function compile flags: /Odtp
; File c:\10c\a\oe\kzoeeiaa.c
_TEXT	SEGMENT
_lpViewOI$ = -4						; size = 4
_lpEntityInstance$ = 8					; size = 4
_fnInstanceVersioned PROC

; 4440 : {

	push	ebp
	mov	ebp, esp
	push	ecx

; 4441 :    LPVIEWOI lpViewOI = zGETPTR( lpEntityInstance->hViewOI );

	mov	eax, DWORD PTR _lpEntityInstance$[ebp]
	mov	ecx, DWORD PTR [eax+10]
	push	ecx
	call	DWORD PTR _g_pfnGetPtr
	mov	DWORD PTR _lpViewOI$[ebp], eax

; 4442 : 
; 4443 :    // If the ViewOI has no versioned instances, return 0.
; 4444 :    if ( lpViewOI->nVersionedInstances == 0 )

	mov	edx, DWORD PTR _lpViewOI$[ebp]
	movsx	eax, WORD PTR [edx+22]
	test	eax, eax
	jne	SHORT $LN2@fnInstance

; 4445 :       return( 0 );

	xor	al, al
	jmp	SHORT $LN1@fnInstance
$LN2@fnInstance:

; 4446 : 
; 4447 :    // We look for either a temporal entity or a versioned instance up the
; 4448 :    // parent chain to see if the instance is versioned.
; 4449 :    while ( lpEntityInstance )

	cmp	DWORD PTR _lpEntityInstance$[ebp], 0
	je	SHORT $LN3@fnInstance

; 4450 :    {
; 4451 :       if ( lpEntityInstance->u.nInd.bTemporal || lpEntityInstance->hPrevVsn )

	mov	ecx, DWORD PTR _lpEntityInstance$[ebp]
	mov	edx, DWORD PTR [ecx+6]
	shr	edx, 11					; 0000000bH
	and	edx, 1
	jne	SHORT $LN6@fnInstance
	mov	eax, DWORD PTR _lpEntityInstance$[ebp]
	cmp	DWORD PTR [eax+38], 0
	je	SHORT $LN5@fnInstance
$LN6@fnInstance:

; 4452 :          return( 1 ); // the instance is versioned

	mov	al, 1
	jmp	SHORT $LN1@fnInstance
$LN5@fnInstance:

; 4453 : 
; 4454 :       lpEntityInstance = zGETPTR( lpEntityInstance->hParent );

	mov	ecx, DWORD PTR _lpEntityInstance$[ebp]
	mov	edx, DWORD PTR [ecx+30]
	push	edx
	call	DWORD PTR _g_pfnGetPtr
	mov	DWORD PTR _lpEntityInstance$[ebp], eax

; 4455 :    }

	jmp	SHORT $LN2@fnInstance
$LN3@fnInstance:

; 4456 : 
; 4457 :    return( 0 ); // instance is not part of a newer version

	xor	al, al
$LN1@fnInstance:

; 4458 : }

	mov	esp, ebp
	pop	ebp
	ret	0
_fnInstanceVersioned ENDP
_TEXT	ENDS
; Function compile flags: /Odtp
; File c:\10c\a\oe\kzoeeiaa.c
_TEXT	SEGMENT
_lpWrkInstance$ = -4					; size = 4
_lpSrcInstance$ = 8					; size = 4
_lpTgtInstance$ = 12					; size = 4
_fnInstanceLinkedToInstance PROC

; 4403 : {

	push	ebp
	mov	ebp, esp
	push	ecx

; 4404 :    LPENTITYINSTANCE lpWrkInstance;
; 4405 : 
; 4406 :    if ( lpSrcInstance == 0 || lpTgtInstance == 0 ||
; 4407 :         lpSrcInstance->hNextLinked == 0 || lpTgtInstance->hNextLinked == 0 )

	cmp	DWORD PTR _lpSrcInstance$[ebp], 0
	je	SHORT $LN5@fnInstance
	cmp	DWORD PTR _lpTgtInstance$[ebp], 0
	je	SHORT $LN5@fnInstance
	mov	eax, DWORD PTR _lpSrcInstance$[ebp]
	cmp	DWORD PTR [eax+42], 0
	je	SHORT $LN5@fnInstance
	mov	ecx, DWORD PTR _lpTgtInstance$[ebp]
	cmp	DWORD PTR [ecx+42], 0
	jne	SHORT $LN4@fnInstance
$LN5@fnInstance:

; 4408 :    {
; 4409 :       return( 0 );

	xor	al, al
	jmp	SHORT $LN1@fnInstance
$LN4@fnInstance:

; 4410 :    }
; 4411 : 
; 4412 :    lpWrkInstance = zGETPTR( lpSrcInstance->hNextLinked );

	mov	edx, DWORD PTR _lpSrcInstance$[ebp]
	mov	eax, DWORD PTR [edx+42]
	push	eax
	call	DWORD PTR _g_pfnGetPtr
	mov	DWORD PTR _lpWrkInstance$[ebp], eax
$LN2@fnInstance:

; 4413 :    while ( lpWrkInstance != lpTgtInstance && lpWrkInstance != lpSrcInstance )

	mov	ecx, DWORD PTR _lpWrkInstance$[ebp]
	cmp	ecx, DWORD PTR _lpTgtInstance$[ebp]
	je	SHORT $LN3@fnInstance
	mov	edx, DWORD PTR _lpWrkInstance$[ebp]
	cmp	edx, DWORD PTR _lpSrcInstance$[ebp]
	je	SHORT $LN3@fnInstance

; 4414 :    {
; 4415 :       lpWrkInstance = zGETPTR( lpWrkInstance->hNextLinked );

	mov	eax, DWORD PTR _lpWrkInstance$[ebp]
	mov	ecx, DWORD PTR [eax+42]
	push	ecx
	call	DWORD PTR _g_pfnGetPtr
	mov	DWORD PTR _lpWrkInstance$[ebp], eax

; 4416 :    }

	jmp	SHORT $LN2@fnInstance
$LN3@fnInstance:

; 4417 : 
; 4418 :    if ( lpWrkInstance == lpTgtInstance )

	mov	edx, DWORD PTR _lpWrkInstance$[ebp]
	cmp	edx, DWORD PTR _lpTgtInstance$[ebp]
	jne	SHORT $LN6@fnInstance

; 4419 :       return( 1 );

	mov	al, 1
	jmp	SHORT $LN1@fnInstance
	jmp	SHORT $LN1@fnInstance
$LN6@fnInstance:

; 4420 :    else
; 4421 :       return( 0 );

	xor	al, al
$LN1@fnInstance:

; 4422 : }

	mov	esp, ebp
	pop	ebp
	ret	0
_fnInstanceLinkedToInstance ENDP
_TEXT	ENDS
; Function compile flags: /Odtp
; File c:\10c\a\oe\kzoeeiaa.c
_TEXT	SEGMENT
_hNextHier$1 = -60					; size = 4
tv69 = -56						; size = 4
_lpPrevHier$2 = -52					; size = 4
_lpSearchLink$3 = -48					; size = 4
_lpViewEntityRP$ = -44					; size = 4
_lpViewCsr$ = -40					; size = 4
_lpWork$4 = -36						; size = 4
_lpViewEntityCsr$ = -32					; size = 4
_lpViewEntity$ = -28					; size = 4
_hEntityInstance$ = -24					; size = 4
_lpEntityInstance$ = -20				; size = 4
_nLevel$5 = -16						; size = 2
_nHierLvl1$ = -12					; size = 2
_nHierLvl2$ = -8					; size = 2
_bGetNext$ = -1						; size = 1
_lpViewOI$ = 8						; size = 4
_fnReclaimHiddenInstances@4 PROC

; 4248 : {

	push	ebp
	mov	ebp, esp
	sub	esp, 60					; 0000003cH

; 4249 :    LPENTITYINSTANCE lpEntityInstance;
; 4250 :    LPENTITYINSTANCE hEntityInstance;
; 4251 :    LPVIEWCSR        lpViewCsr;
; 4252 :    LPVIEWENTITYCSR  lpViewEntityCsr;
; 4253 :    LPVIEWENTITY     lpViewEntity, lpViewEntityRP;
; 4254 :    zSHORT           nHierLvl1, nHierLvl2;
; 4255 :    zBOOL            bGetNext;
; 4256 : 
; 4257 :    hEntityInstance = lpViewOI->hRootEntityInstance;

	mov	eax, DWORD PTR _lpViewOI$[ebp]
	mov	ecx, DWORD PTR [eax+26]
	mov	DWORD PTR _hEntityInstance$[ebp], ecx

; 4258 :    if ( hEntityInstance == 0 )

	cmp	DWORD PTR _hEntityInstance$[ebp], 0
	jne	SHORT $LN15@fnReclaimH

; 4259 :       return;

	jmp	$LN1@fnReclaimH
$LN15@fnReclaimH:

; 4260 : 
; 4261 :    // Loop through each of the entity instances.  We use bGetNext to control
; 4262 :    // whether we get the next entity.  If bGetNext is FALSE then it's already
; 4263 :    // been done in the body of the loop.
; 4264 :    for ( ;

	jmp	SHORT $LN4@fnReclaimH
$LN2@fnReclaimH:

; 4266 :          hEntityInstance = bGetNext ? lpEntityInstance->hNextHier : hEntityInstance )

	movzx	edx, BYTE PTR _bGetNext$[ebp]
	test	edx, edx
	je	SHORT $LN34@fnReclaimH
	mov	eax, DWORD PTR _lpEntityInstance$[ebp]
	mov	ecx, DWORD PTR [eax+14]
	mov	DWORD PTR tv69[ebp], ecx
	jmp	SHORT $LN35@fnReclaimH
$LN34@fnReclaimH:
	mov	edx, DWORD PTR _hEntityInstance$[ebp]
	mov	DWORD PTR tv69[ebp], edx
$LN35@fnReclaimH:
	mov	eax, DWORD PTR tv69[ebp]
	mov	DWORD PTR _hEntityInstance$[ebp], eax
$LN4@fnReclaimH:

; 4265 :          hEntityInstance;

	cmp	DWORD PTR _hEntityInstance$[ebp], 0
	je	$LN3@fnReclaimH

; 4267 :    {
; 4268 :       LPENTITYINSTANCE lpPrevHier;
; 4269 :       LPENTITYINSTANCE hNextHier;
; 4270 :       LPENTITYINSTANCE lpWork;
; 4271 :       zSHORT           nLevel;
; 4272 : 
; 4273 :       lpEntityInstance = zGETPTR( hEntityInstance );

	mov	ecx, DWORD PTR _hEntityInstance$[ebp]
	push	ecx
	call	DWORD PTR _g_pfnGetPtr
	mov	DWORD PTR _lpEntityInstance$[ebp], eax

; 4274 :       bGetNext = TRUE;

	mov	BYTE PTR _bGetNext$[ebp], 1

; 4275 : 
; 4276 :       // We only try to reclaim dead entity instances.
; 4277 :       if ( !fnEntityInstanceIsDead( lpEntityInstance ) )

	mov	edx, DWORD PTR _lpEntityInstance$[ebp]
	push	edx
	call	_fnEntityInstanceIsDead@4
	cwde
	test	eax, eax
	jne	SHORT $LN16@fnReclaimH

; 4278 :          continue;

	jmp	SHORT $LN2@fnReclaimH
$LN16@fnReclaimH:

; 4279 : 
; 4280 :       // First see if instance is referenced by a cursor
; 4281 :       lpViewEntity = zGETPTR( lpEntityInstance->hViewEntity );

	mov	ecx, DWORD PTR _lpEntityInstance$[ebp]
	mov	edx, DWORD PTR [ecx+2]
	push	edx
	call	DWORD PTR _g_pfnGetPtr
	mov	DWORD PTR _lpViewEntity$[ebp], eax

; 4282 :       nHierLvl2 = 0;

	xor	eax, eax
	mov	WORD PTR _nHierLvl2$[ebp], ax

; 4283 :       if ( lpViewEntity->bRecursive )

	mov	ecx, DWORD PTR _lpViewEntity$[ebp]
	mov	edx, DWORD PTR [ecx+235]
	shr	edx, 11					; 0000000bH
	and	edx, 1
	je	SHORT $LN17@fnReclaimH

; 4284 :       {
; 4285 :          nHierLvl2 = lpViewEntity->nHierNbr - 1;

	mov	eax, DWORD PTR _lpViewEntity$[ebp]
	movsx	ecx, WORD PTR [eax+217]
	sub	ecx, 1
	mov	WORD PTR _nHierLvl2$[ebp], cx

; 4286 :          lpViewEntityRP = zGETPTR( lpViewEntity->hParent );

	mov	edx, DWORD PTR _lpViewEntity$[ebp]
	mov	eax, DWORD PTR [edx+10]
	push	eax
	call	DWORD PTR _g_pfnGetPtr
	mov	DWORD PTR _lpViewEntityRP$[ebp], eax
$LN5@fnReclaimH:

; 4287 :          while ( lpViewEntityRP->lEREntTok != lpViewEntity->lEREntTok )

	mov	ecx, DWORD PTR _lpViewEntityRP$[ebp]
	mov	edx, DWORD PTR _lpViewEntity$[ebp]
	mov	eax, DWORD PTR [ecx+195]
	cmp	eax, DWORD PTR [edx+195]
	je	SHORT $LN6@fnReclaimH

; 4288 :             lpViewEntityRP = zGETPTR( lpViewEntityRP->hParent );

	mov	ecx, DWORD PTR _lpViewEntityRP$[ebp]
	mov	edx, DWORD PTR [ecx+10]
	push	edx
	call	DWORD PTR _g_pfnGetPtr
	mov	DWORD PTR _lpViewEntityRP$[ebp], eax
	jmp	SHORT $LN5@fnReclaimH
$LN6@fnReclaimH:

; 4289 : 
; 4290 :          nHierLvl1 = lpViewEntityRP->nHierNbr - 1;

	mov	eax, DWORD PTR _lpViewEntityRP$[ebp]
	movsx	ecx, WORD PTR [eax+217]
	sub	ecx, 1
	mov	WORD PTR _nHierLvl1$[ebp], cx

; 4291 :       }

	jmp	SHORT $LN18@fnReclaimH
$LN17@fnReclaimH:

; 4292 :       else
; 4293 :          nHierLvl1 = lpViewEntity->nHierNbr - 1;

	mov	edx, DWORD PTR _lpViewEntity$[ebp]
	movsx	eax, WORD PTR [edx+217]
	sub	eax, 1
	mov	WORD PTR _nHierLvl1$[ebp], ax
$LN18@fnReclaimH:

; 4294 : 
; 4295 :       // Now go through the view cursors and see if any is referencing
; 4296 :       // the entity instance in question.
; 4297 :       for ( lpViewCsr = zGETPTR( lpViewOI->hFirstViewCsr );

	mov	ecx, DWORD PTR _lpViewOI$[ebp]
	mov	edx, DWORD PTR [ecx+10]
	push	edx
	call	DWORD PTR _g_pfnGetPtr
	mov	DWORD PTR _lpViewCsr$[ebp], eax
	jmp	SHORT $LN9@fnReclaimH
$LN7@fnReclaimH:

; 4299 :             lpViewCsr = zGETPTR( lpViewCsr->hNextViewCsr ) )

	mov	eax, DWORD PTR _lpViewCsr$[ebp]
	mov	ecx, DWORD PTR [eax+2]
	push	ecx
	call	DWORD PTR _g_pfnGetPtr
	mov	DWORD PTR _lpViewCsr$[ebp], eax
$LN9@fnReclaimH:

; 4298 :             lpViewCsr;

	cmp	DWORD PTR _lpViewCsr$[ebp], 0
	je	SHORT $LN8@fnReclaimH

; 4300 :       {
; 4301 :          lpViewEntityCsr = zGETPTR( lpViewCsr->hFirstOD_EntityCsr );  // blew on this line 2006.06.30 dks

	mov	edx, DWORD PTR _lpViewCsr$[ebp]
	mov	eax, DWORD PTR [edx+14]
	push	eax
	call	DWORD PTR _g_pfnGetPtr
	mov	DWORD PTR _lpViewEntityCsr$[ebp], eax

; 4302 :          lpViewEntityCsr += nHierLvl1;

	movsx	ecx, WORD PTR _nHierLvl1$[ebp]
	imul	edx, ecx, 30
	add	edx, DWORD PTR _lpViewEntityCsr$[ebp]
	mov	DWORD PTR _lpViewEntityCsr$[ebp], edx

; 4303 :          if ( lpViewEntityCsr->hEntityInstance == hEntityInstance )

	mov	eax, DWORD PTR _lpViewEntityCsr$[ebp]
	mov	ecx, DWORD PTR [eax+26]
	cmp	ecx, DWORD PTR _hEntityInstance$[ebp]
	jne	SHORT $LN19@fnReclaimH

; 4304 :             break;

	jmp	SHORT $LN8@fnReclaimH
$LN19@fnReclaimH:

; 4305 : 
; 4306 :          if ( nHierLvl2 )

	movsx	edx, WORD PTR _nHierLvl2$[ebp]
	test	edx, edx
	je	SHORT $LN20@fnReclaimH

; 4307 :          {
; 4308 :             lpViewEntityCsr = zGETPTR( lpViewCsr->hFirstOD_EntityCsr );

	mov	eax, DWORD PTR _lpViewCsr$[ebp]
	mov	ecx, DWORD PTR [eax+14]
	push	ecx
	call	DWORD PTR _g_pfnGetPtr
	mov	DWORD PTR _lpViewEntityCsr$[ebp], eax

; 4309 :             lpViewEntityCsr += nHierLvl2;

	movsx	edx, WORD PTR _nHierLvl2$[ebp]
	imul	eax, edx, 30
	add	eax, DWORD PTR _lpViewEntityCsr$[ebp]
	mov	DWORD PTR _lpViewEntityCsr$[ebp], eax

; 4310 :             if ( lpViewEntityCsr->hEntityInstance == hEntityInstance )

	mov	ecx, DWORD PTR _lpViewEntityCsr$[ebp]
	mov	edx, DWORD PTR [ecx+26]
	cmp	edx, DWORD PTR _hEntityInstance$[ebp]
	jne	SHORT $LN20@fnReclaimH

; 4311 :                break;

	jmp	SHORT $LN8@fnReclaimH
$LN20@fnReclaimH:

; 4312 :          }
; 4313 :       }

	jmp	SHORT $LN7@fnReclaimH
$LN8@fnReclaimH:

; 4314 : 
; 4315 :       // If no cursor was found, delete the entity instance and
; 4316 :       // all of its subordinates.
; 4317 :       if ( lpViewCsr )

	cmp	DWORD PTR _lpViewCsr$[ebp], 0
	je	SHORT $LN22@fnReclaimH

; 4318 :          continue;     // Continue with next entity instance.

	jmp	$LN2@fnReclaimH
$LN22@fnReclaimH:

; 4319 : 
; 4320 :       nLevel = lpEntityInstance->nLevel;

	mov	eax, DWORD PTR _lpEntityInstance$[ebp]
	mov	cx, WORD PTR [eax+58]
	mov	WORD PTR _nLevel$5[ebp], cx

; 4321 :       lpPrevHier = zGETPTR( lpEntityInstance->hPrevHier );

	mov	edx, DWORD PTR _lpEntityInstance$[ebp]
	mov	eax, DWORD PTR [edx+18]
	push	eax
	call	DWORD PTR _g_pfnGetPtr
	mov	DWORD PTR _lpPrevHier$2[ebp], eax

; 4322 :       if ( lpEntityInstance->hNextTwin )

	mov	ecx, DWORD PTR _lpEntityInstance$[ebp]
	cmp	DWORD PTR [ecx+22], 0
	je	SHORT $LN23@fnReclaimH

; 4323 :       {
; 4324 :          lpWork = zGETPTR( lpEntityInstance->hNextTwin );

	mov	edx, DWORD PTR _lpEntityInstance$[ebp]
	mov	eax, DWORD PTR [edx+22]
	push	eax
	call	DWORD PTR _g_pfnGetPtr
	mov	DWORD PTR _lpWork$4[ebp], eax

; 4325 :          lpWork->hPrevTwin = lpEntityInstance->hPrevTwin;

	mov	ecx, DWORD PTR _lpWork$4[ebp]
	mov	edx, DWORD PTR _lpEntityInstance$[ebp]
	mov	eax, DWORD PTR [edx+26]
	mov	DWORD PTR [ecx+26], eax
$LN23@fnReclaimH:

; 4326 :       }
; 4327 : 
; 4328 :       if ( lpEntityInstance->hPrevTwin )

	mov	ecx, DWORD PTR _lpEntityInstance$[ebp]
	cmp	DWORD PTR [ecx+26], 0
	je	SHORT $LN24@fnReclaimH

; 4329 :       {
; 4330 :          lpWork = zGETPTR( lpEntityInstance->hPrevTwin );

	mov	edx, DWORD PTR _lpEntityInstance$[ebp]
	mov	eax, DWORD PTR [edx+26]
	push	eax
	call	DWORD PTR _g_pfnGetPtr
	mov	DWORD PTR _lpWork$4[ebp], eax

; 4331 :          lpWork->hNextTwin = lpEntityInstance->hNextTwin;

	mov	ecx, DWORD PTR _lpWork$4[ebp]
	mov	edx, DWORD PTR _lpEntityInstance$[ebp]
	mov	eax, DWORD PTR [edx+22]
	mov	DWORD PTR [ecx+22], eax
$LN24@fnReclaimH:

; 4332 :       }
; 4333 : 
; 4334 :       // Indicate that we'll end up with the next entity instance.
; 4335 :       bGetNext = FALSE;

	mov	BYTE PTR _bGetNext$[ebp], 0

; 4336 : 
; 4337 :       // Check to see if we are removing the root entity instance.
; 4338 :       if ( lpViewOI->hRootEntityInstance == hEntityInstance )

	mov	ecx, DWORD PTR _lpViewOI$[ebp]
	mov	edx, DWORD PTR [ecx+26]
	cmp	edx, DWORD PTR _hEntityInstance$[ebp]
	jne	SHORT $LN12@fnReclaimH

; 4339 :          lpViewOI->hRootEntityInstance = lpEntityInstance->hNextTwin;

	mov	eax, DWORD PTR _lpViewOI$[ebp]
	mov	ecx, DWORD PTR _lpEntityInstance$[ebp]
	mov	edx, DWORD PTR [ecx+22]
	mov	DWORD PTR [eax+26], edx
$LN12@fnReclaimH:

; 4340 : 
; 4341 :       // Clear this entity instance and all of its children.
; 4342 :       do
; 4343 :       {
; 4344 :          lpViewEntity = zGETPTR( lpEntityInstance->hViewEntity );

	mov	eax, DWORD PTR _lpEntityInstance$[ebp]
	mov	ecx, DWORD PTR [eax+2]
	push	ecx
	call	DWORD PTR _g_pfnGetPtr
	mov	DWORD PTR _lpViewEntity$[ebp], eax

; 4345 :          hNextHier    = lpEntityInstance->hNextHier;

	mov	edx, DWORD PTR _lpEntityInstance$[ebp]
	mov	eax, DWORD PTR [edx+14]
	mov	DWORD PTR _hNextHier$1[ebp], eax

; 4346 :          if ( lpEntityInstance->hNextLinked )

	mov	ecx, DWORD PTR _lpEntityInstance$[ebp]
	cmp	DWORD PTR [ecx+42], 0
	je	SHORT $LN26@fnReclaimH

; 4347 :          {
; 4348 :             lpWork = zGETPTR( lpEntityInstance->hNextLinked );

	mov	edx, DWORD PTR _lpEntityInstance$[ebp]
	mov	eax, DWORD PTR [edx+42]
	push	eax
	call	DWORD PTR _g_pfnGetPtr
	mov	DWORD PTR _lpWork$4[ebp], eax

; 4349 :             if ( lpWork->hNextLinked == hEntityInstance )

	mov	ecx, DWORD PTR _lpWork$4[ebp]
	mov	edx, DWORD PTR [ecx+42]
	cmp	edx, DWORD PTR _hEntityInstance$[ebp]
	jne	SHORT $LN28@fnReclaimH

; 4350 :                lpWork->hNextLinked = 0;

	mov	eax, DWORD PTR _lpWork$4[ebp]
	mov	DWORD PTR [eax+42], 0
	jmp	SHORT $LN29@fnReclaimH
$LN28@fnReclaimH:

; 4351 :             else
; 4352 :             {
; 4353 :                LPENTITYINSTANCE lpSearchLink;
; 4354 : 
; 4355 :                lpSearchLink = lpWork;

	mov	ecx, DWORD PTR _lpWork$4[ebp]
	mov	DWORD PTR _lpSearchLink$3[ebp], ecx
$LN13@fnReclaimH:

; 4356 :                while ( lpSearchLink->hNextLinked != hEntityInstance )

	mov	edx, DWORD PTR _lpSearchLink$3[ebp]
	mov	eax, DWORD PTR [edx+42]
	cmp	eax, DWORD PTR _hEntityInstance$[ebp]
	je	SHORT $LN14@fnReclaimH

; 4357 :                   lpSearchLink = zGETPTR( lpSearchLink->hNextLinked );

	mov	ecx, DWORD PTR _lpSearchLink$3[ebp]
	mov	edx, DWORD PTR [ecx+42]
	push	edx
	call	DWORD PTR _g_pfnGetPtr
	mov	DWORD PTR _lpSearchLink$3[ebp], eax
	jmp	SHORT $LN13@fnReclaimH
$LN14@fnReclaimH:

; 4358 : 
; 4359 :                lpSearchLink->hNextLinked = lpEntityInstance->hNextLinked;

	mov	eax, DWORD PTR _lpSearchLink$3[ebp]
	mov	ecx, DWORD PTR _lpEntityInstance$[ebp]
	mov	edx, DWORD PTR [ecx+42]
	mov	DWORD PTR [eax+42], edx
$LN29@fnReclaimH:

; 4360 :             }
; 4361 :          }

	jmp	SHORT $LN27@fnReclaimH
$LN26@fnReclaimH:

; 4362 :          else
; 4363 :             fnDeleteAttributeRecord( lpViewEntity, lpEntityInstance, TRUE );

	push	1
	mov	eax, DWORD PTR _lpEntityInstance$[ebp]
	push	eax
	mov	ecx, DWORD PTR _lpViewEntity$[ebp]
	push	ecx
	call	_fnDeleteAttributeRecord
	add	esp, 12					; 0000000cH
$LN27@fnReclaimH:

; 4364 : 
; 4365 :          fnDeleteAttributeRecord( lpViewEntity, lpEntityInstance, FALSE );

	push	0
	mov	edx, DWORD PTR _lpEntityInstance$[ebp]
	push	edx
	mov	eax, DWORD PTR _lpViewEntity$[ebp]
	push	eax
	call	_fnDeleteAttributeRecord
	add	esp, 12					; 0000000cH

; 4366 :          fnRemoveEntityFromDebugChange( lpEntityInstance );

	mov	ecx, DWORD PTR _lpEntityInstance$[ebp]
	push	ecx
	call	_fnRemoveEntityFromDebugChange@4

; 4367 :          fnFreeDataspace( lpEntityInstance );

	mov	edx, DWORD PTR _lpEntityInstance$[ebp]
	push	edx
	call	_fnFreeDataspace
	add	esp, 4

; 4368 : 
; 4369 :          // Get next instance.
; 4370 :          hEntityInstance  = hNextHier;

	mov	eax, DWORD PTR _hNextHier$1[ebp]
	mov	DWORD PTR _hEntityInstance$[ebp], eax

; 4371 :          lpEntityInstance = zGETPTR( hEntityInstance );

	mov	ecx, DWORD PTR _hEntityInstance$[ebp]
	push	ecx
	call	DWORD PTR _g_pfnGetPtr
	mov	DWORD PTR _lpEntityInstance$[ebp], eax

; 4372 : 
; 4373 :       }  while ( lpEntityInstance && lpEntityInstance->nLevel > nLevel );

	cmp	DWORD PTR _lpEntityInstance$[ebp], 0
	je	SHORT $LN11@fnReclaimH
	mov	edx, DWORD PTR _lpEntityInstance$[ebp]
	movsx	eax, WORD PTR [edx+58]
	movsx	ecx, WORD PTR _nLevel$5[ebp]
	cmp	eax, ecx
	jg	$LN12@fnReclaimH
$LN11@fnReclaimH:

; 4374 : 
; 4375 :       if ( lpPrevHier )

	cmp	DWORD PTR _lpPrevHier$2[ebp], 0
	je	SHORT $LN31@fnReclaimH

; 4376 :          lpPrevHier->hNextHier = hEntityInstance;

	mov	edx, DWORD PTR _lpPrevHier$2[ebp]
	mov	eax, DWORD PTR _hEntityInstance$[ebp]
	mov	DWORD PTR [edx+14], eax
$LN31@fnReclaimH:

; 4377 : 
; 4378 :       if ( lpEntityInstance )

	cmp	DWORD PTR _lpEntityInstance$[ebp], 0
	je	SHORT $LN32@fnReclaimH

; 4379 :          lpEntityInstance->hPrevHier = zGETHNDL( lpPrevHier );

	mov	ecx, DWORD PTR _lpPrevHier$2[ebp]
	push	ecx
	call	DWORD PTR _g_pfnGetHndl
	mov	edx, DWORD PTR _lpEntityInstance$[ebp]
	mov	DWORD PTR [edx+18], eax
$LN32@fnReclaimH:

; 4380 : 
; 4381 :    } // for each lpEntityInstance...

	jmp	$LN2@fnReclaimH
$LN3@fnReclaimH:

; 4382 : 
; 4383 :    // We're all done, clear the hidden count.
; 4384 :    lpViewOI->nHiddenCount = 0;    // clear hidden count

	xor	eax, eax
	mov	ecx, DWORD PTR _lpViewOI$[ebp]
	mov	WORD PTR [ecx+24], ax
$LN1@fnReclaimH:

; 4385 : }

	mov	esp, ebp
	pop	ebp
	ret	4
_fnReclaimHiddenInstances@4 ENDP
_TEXT	ENDS
; Function compile flags: /Odtp
; File c:\10c\a\oe\kzoeeiaa.c
_TEXT	SEGMENT
_lpWorkInstance$1 = -76					; size = 4
_lpTask$2 = -72						; size = 4
_lpPrevTwin$3 = -68					; size = 4
_lpNextTwin$4 = -64					; size = 4
_lpLinkedFirstViewCsr$5 = -60				; size = 4
_lpLinkedOI$6 = -56					; size = 4
_lpRecursViewEntity$7 = -52				; size = 4
_lpParentInstance$ = -48				; size = 4
_lpViewEntity$ = -44					; size = 4
_lpSpawnView$8 = -40					; size = 4
_lpSearchViewEntityCsr$9 = -36				; size = 4
_lpSpawnedInstance$10 = -32				; size = 4
_lpWorkViewEntityCsr$11 = -28				; size = 4
_lpSearchViewEntity$12 = -24				; size = 4
_lpParentViewEntity$13 = -20				; size = 4
_lpLinkedInstance$ = -16				; size = 4
_lpLinkedTwin$14 = -12					; size = 4
_nSpawnPosition$15 = -8					; size = 2
_nRC$ = -4						; size = 2
_lpView$ = 8						; size = 4
_lpEntityInstance$ = 12					; size = 4
_fnSpawnCreateEntity PROC

; 3984 : {

	push	ebp
	mov	ebp, esp
	sub	esp, 76					; 0000004cH

; 3985 :    LPENTITYINSTANCE lpParentInstance;
; 3986 :    LPENTITYINSTANCE lpLinkedInstance;
; 3987 :    LPVIEWENTITY     lpViewEntity = zGETPTR( lpEntityInstance->hViewEntity );

	mov	eax, DWORD PTR _lpEntityInstance$[ebp]
	mov	ecx, DWORD PTR [eax+2]
	push	ecx
	call	DWORD PTR _g_pfnGetPtr
	mov	DWORD PTR _lpViewEntity$[ebp], eax

; 3988 :    zSHORT           nRC = 0;

	xor	edx, edx
	mov	WORD PTR _nRC$[ebp], dx

; 3989 : 
; 3990 :    // START OF CREATE ENTITY SPAWNING CODE
; 3991 :    // Now that the entity has been created, see if we need to call
; 3992 :    // fnCreateEntity to spawn the create of this same entity under a
; 3993 :    // different parent in the same view object. To do this, we check all
; 3994 :    // linked instances of the parent entity type from the same object
; 3995 :    // instance and see if that linked instance has a definition level
; 3996 :    // non-derived child entity type representing the current entity type.
; 3997 :    // If we find a spawn condition, we create a new view for spawning,
; 3998 :    // create the spawned instance in the appropriate position and
; 3999 :    // link it to the newly created instance.
; 4000 :    if ( lpEntityInstance->hParent == 0 || lpViewEntity->bDerived )

	mov	eax, DWORD PTR _lpEntityInstance$[ebp]
	cmp	DWORD PTR [eax+30], 0
	je	SHORT $LN22@fnSpawnCre
	mov	ecx, DWORD PTR _lpViewEntity$[ebp]
	mov	edx, DWORD PTR [ecx+235]
	shr	edx, 13					; 0000000dH
	and	edx, 1
	je	SHORT $LN21@fnSpawnCre
$LN22@fnSpawnCre:

; 4001 :       return( nRC );

	mov	ax, WORD PTR _nRC$[ebp]
	jmp	$LN1@fnSpawnCre
$LN21@fnSpawnCre:

; 4002 : 
; 4003 :    lpParentInstance = zGETPTR( lpEntityInstance->hParent );

	mov	eax, DWORD PTR _lpEntityInstance$[ebp]
	mov	ecx, DWORD PTR [eax+30]
	push	ecx
	call	DWORD PTR _g_pfnGetPtr
	mov	DWORD PTR _lpParentInstance$[ebp], eax

; 4004 :    for ( lpLinkedInstance = zGETPTR( lpParentInstance->hNextLinked );

	mov	edx, DWORD PTR _lpParentInstance$[ebp]
	mov	eax, DWORD PTR [edx+42]
	push	eax
	call	DWORD PTR _g_pfnGetPtr
	mov	DWORD PTR _lpLinkedInstance$[ebp], eax
	jmp	SHORT $LN4@fnSpawnCre
$LN2@fnSpawnCre:

; 4006 :          lpLinkedInstance = zGETPTR( lpLinkedInstance->hNextLinked ) )

	mov	ecx, DWORD PTR _lpLinkedInstance$[ebp]
	mov	edx, DWORD PTR [ecx+42]
	push	edx
	call	DWORD PTR _g_pfnGetPtr
	mov	DWORD PTR _lpLinkedInstance$[ebp], eax
$LN4@fnSpawnCre:

; 4005 :          nRC == 0 && lpLinkedInstance && lpLinkedInstance != lpParentInstance;

	movsx	eax, WORD PTR _nRC$[ebp]
	test	eax, eax
	jne	$LN3@fnSpawnCre
	cmp	DWORD PTR _lpLinkedInstance$[ebp], 0
	je	$LN3@fnSpawnCre
	mov	ecx, DWORD PTR _lpLinkedInstance$[ebp]
	cmp	ecx, DWORD PTR _lpParentInstance$[ebp]
	je	$LN3@fnSpawnCre

; 4007 :    {
; 4008 :       LPVIEWENTITY lpParentViewEntity;
; 4009 :       LPVIEWENTITY lpRecursViewEntity;
; 4010 :       LPVIEWENTITY lpSearchViewEntity;
; 4011 : 
; 4012 :       if ( lpLinkedInstance->u.nInd.bHidden )

	mov	edx, DWORD PTR _lpLinkedInstance$[ebp]
	mov	eax, DWORD PTR [edx+6]
	shr	eax, 10					; 0000000aH
	and	eax, 1
	je	SHORT $LN23@fnSpawnCre

; 4013 :          continue;

	jmp	SHORT $LN2@fnSpawnCre
$LN23@fnSpawnCre:

; 4014 : 
; 4015 :       // If we find a linked parent in ANY object instance, go through the
; 4016 :       // child entity types of the linked parent and see if one exists which
; 4017 :       // matches the current entity type.
; 4018 :       lpParentViewEntity = zGETPTR( lpLinkedInstance->hViewEntity );

	mov	ecx, DWORD PTR _lpLinkedInstance$[ebp]
	mov	edx, DWORD PTR [ecx+2]
	push	edx
	call	DWORD PTR _g_pfnGetPtr
	mov	DWORD PTR _lpParentViewEntity$13[ebp], eax

; 4019 :       lpRecursViewEntity = lpParentViewEntity;

	mov	eax, DWORD PTR _lpParentViewEntity$13[ebp]
	mov	DWORD PTR _lpRecursViewEntity$7[ebp], eax

; 4020 :       if ( lpParentViewEntity->bRecursive )

	mov	ecx, DWORD PTR _lpParentViewEntity$13[ebp]
	mov	edx, DWORD PTR [ecx+235]
	shr	edx, 11					; 0000000bH
	and	edx, 1
	je	SHORT $LN24@fnSpawnCre
$LN7@fnSpawnCre:

; 4021 :       {
; 4022 :          do
; 4023 :          {
; 4024 :             lpParentViewEntity = zGETPTR( lpParentViewEntity->hParent );

	mov	eax, DWORD PTR _lpParentViewEntity$13[ebp]
	mov	ecx, DWORD PTR [eax+10]
	push	ecx
	call	DWORD PTR _g_pfnGetPtr
	mov	DWORD PTR _lpParentViewEntity$13[ebp], eax

; 4025 :          }  while ( lpParentViewEntity->lEREntTok !=

	mov	edx, DWORD PTR _lpParentViewEntity$13[ebp]
	mov	eax, DWORD PTR _lpRecursViewEntity$7[ebp]
	mov	ecx, DWORD PTR [edx+195]
	cmp	ecx, DWORD PTR [eax+195]
	jne	SHORT $LN7@fnSpawnCre
$LN24@fnSpawnCre:

; 4026 :                                               lpRecursViewEntity->lEREntTok );
; 4027 :       }
; 4028 : 
; 4029 :       for ( lpSearchViewEntity = zGETPTR( lpParentViewEntity->hNextHier );

	mov	edx, DWORD PTR _lpParentViewEntity$13[ebp]
	mov	eax, DWORD PTR [edx+2]
	push	eax
	call	DWORD PTR _g_pfnGetPtr
	mov	DWORD PTR _lpSearchViewEntity$12[ebp], eax
	jmp	SHORT $LN10@fnSpawnCre
$LN8@fnSpawnCre:

; 4031 :                lpSearchViewEntity->nLevel > lpParentViewEntity->nLevel;
; 4032 :             lpSearchViewEntity = zGETPTR( lpSearchViewEntity->hNextHier ) )

	mov	ecx, DWORD PTR _lpSearchViewEntity$12[ebp]
	mov	edx, DWORD PTR [ecx+2]
	push	edx
	call	DWORD PTR _g_pfnGetPtr
	mov	DWORD PTR _lpSearchViewEntity$12[ebp], eax
$LN10@fnSpawnCre:

; 4030 :             lpSearchViewEntity &&

	cmp	DWORD PTR _lpSearchViewEntity$12[ebp], 0
	je	$LN9@fnSpawnCre
	mov	eax, DWORD PTR _lpSearchViewEntity$12[ebp]
	movsx	ecx, WORD PTR [eax+215]
	mov	edx, DWORD PTR _lpParentViewEntity$13[ebp]
	movsx	eax, WORD PTR [edx+215]
	cmp	ecx, eax
	jle	$LN9@fnSpawnCre

; 4033 :       {
; 4034 :          zVIEW            lpSpawnView;
; 4035 :          LPVIEWOI         lpLinkedOI;
; 4036 :          LPVIEWCSR        lpLinkedFirstViewCsr;
; 4037 :          zSHORT           nSpawnPosition;
; 4038 :          LPVIEWENTITYCSR  lpSearchViewEntityCsr;
; 4039 :          LPVIEWENTITYCSR  lpWorkViewEntityCsr;
; 4040 :          LPENTITYINSTANCE lpLinkedTwin;
; 4041 :          LPENTITYINSTANCE lpSpawnedInstance;
; 4042 : 
; 4043 :          if ( zGETPTR( lpSearchViewEntity->hParent ) != lpParentViewEntity )

	mov	ecx, DWORD PTR _lpSearchViewEntity$12[ebp]
	mov	edx, DWORD PTR [ecx+10]
	push	edx
	call	DWORD PTR _g_pfnGetPtr
	cmp	eax, DWORD PTR _lpParentViewEntity$13[ebp]
	je	SHORT $LN25@fnSpawnCre

; 4044 :             continue;

	jmp	SHORT $LN8@fnSpawnCre
$LN25@fnSpawnCre:

; 4045 : 
; 4046 :          if ( lpSearchViewEntity->bDerived )

	mov	eax, DWORD PTR _lpSearchViewEntity$12[ebp]
	mov	ecx, DWORD PTR [eax+235]
	shr	ecx, 13					; 0000000dH
	and	ecx, 1
	je	SHORT $LN26@fnSpawnCre

; 4047 :             continue;

	jmp	SHORT $LN8@fnSpawnCre
$LN26@fnSpawnCre:

; 4048 : 
; 4049 :          if ( lpSearchViewEntity->lERRelTok != lpViewEntity->lERRelTok )

	mov	edx, DWORD PTR _lpSearchViewEntity$12[ebp]
	mov	eax, DWORD PTR _lpViewEntity$[ebp]
	mov	ecx, DWORD PTR [edx+199]
	cmp	ecx, DWORD PTR [eax+199]
	je	SHORT $LN27@fnSpawnCre

; 4050 :             continue;

	jmp	SHORT $LN8@fnSpawnCre
$LN27@fnSpawnCre:

; 4051 : 
; 4052 :          if ( lpSearchViewEntity->bRelLink1 != lpViewEntity->bRelLink1 )

	mov	edx, DWORD PTR _lpSearchViewEntity$12[ebp]
	mov	eax, DWORD PTR [edx+235]
	shr	eax, 28					; 0000001cH
	and	eax, 1
	mov	ecx, DWORD PTR _lpViewEntity$[ebp]
	mov	edx, DWORD PTR [ecx+235]
	shr	edx, 28					; 0000001cH
	and	edx, 1
	cmp	eax, edx
	je	SHORT $LN28@fnSpawnCre

; 4053 :             continue;

	jmp	$LN8@fnSpawnCre
$LN28@fnSpawnCre:

; 4054 : 
; 4055 :          if ( !fnInstanceVersionRootMatch( lpParentInstance, lpLinkedInstance ) )

	mov	eax, DWORD PTR _lpLinkedInstance$[ebp]
	push	eax
	mov	ecx, DWORD PTR _lpParentInstance$[ebp]
	push	ecx
	call	_fnInstanceVersionRootMatch
	add	esp, 8
	movzx	edx, al
	test	edx, edx
	jne	SHORT $LN29@fnSpawnCre

; 4056 :             continue;

	jmp	$LN8@fnSpawnCre
$LN29@fnSpawnCre:

; 4057 : 
; 4058 :          lpLinkedOI = zGETPTR( lpLinkedInstance->hViewOI );

	mov	eax, DWORD PTR _lpLinkedInstance$[ebp]
	mov	ecx, DWORD PTR [eax+10]
	push	ecx
	call	DWORD PTR _g_pfnGetPtr
	mov	DWORD PTR _lpLinkedOI$6[ebp], eax

; 4059 :          lpLinkedFirstViewCsr = zGETPTR( lpLinkedOI->hFirstViewCsr );

	mov	edx, DWORD PTR _lpLinkedOI$6[ebp]
	mov	eax, DWORD PTR [edx+10]
	push	eax
	call	DWORD PTR _g_pfnGetPtr
	mov	DWORD PTR _lpLinkedFirstViewCsr$5[ebp], eax

; 4060 : 
; 4061 :          // We've found a spawn condition, create a spawn view and do the spawn.
; 4062 :          nRC = CreateViewFromViewForTask( &lpSpawnView,

	push	0
	mov	ecx, DWORD PTR _lpLinkedFirstViewCsr$5[ebp]
	mov	edx, DWORD PTR [ecx+6]
	push	edx
	call	DWORD PTR _g_pfnGetPtr
	push	eax
	lea	eax, DWORD PTR _lpSpawnView$8[ebp]
	push	eax
	call	_CreateViewFromViewForTask@12
	mov	WORD PTR _nRC$[ebp], ax

; 4063 :                                           zGETPTR( lpLinkedFirstViewCsr->hView ), 0 );
; 4064 :          if ( nRC )

	movsx	ecx, WORD PTR _nRC$[ebp]
	test	ecx, ecx
	je	SHORT $LN30@fnSpawnCre

; 4065 :             continue;

	jmp	$LN8@fnSpawnCre
$LN30@fnSpawnCre:

; 4066 : 
; 4067 :          // Establish target cursors up the parent chain.
; 4068 :          lpSearchViewEntityCsr =

	mov	edx, DWORD PTR _lpLinkedInstance$[ebp]
	push	edx
	push	0
	mov	eax, DWORD PTR _lpSpawnView$8[ebp]
	push	eax
	call	_fnEstablishViewForInstance
	add	esp, 12					; 0000000cH
	mov	DWORD PTR _lpSearchViewEntityCsr$9[ebp], eax

; 4069 :                fnEstablishViewForInstance( lpSpawnView, 0, lpLinkedInstance );
; 4070 :          if ( lpParentViewEntity != lpRecursViewEntity )

	mov	ecx, DWORD PTR _lpParentViewEntity$13[ebp]
	cmp	ecx, DWORD PTR _lpRecursViewEntity$7[ebp]
	je	SHORT $LN31@fnSpawnCre

; 4071 :          {
; 4072 :             fnSetViewToSubobject( lpSpawnView,

	mov	edx, DWORD PTR _lpSearchViewEntityCsr$9[ebp]
	push	edx
	mov	eax, DWORD PTR _lpRecursViewEntity$7[ebp]
	push	eax
	mov	ecx, DWORD PTR _lpSpawnView$8[ebp]
	push	ecx
	call	_fnSetViewToSubobject
	add	esp, 12					; 0000000cH
$LN11@fnSpawnCre:

; 4073 :                                   lpRecursViewEntity,
; 4074 :                                   lpSearchViewEntityCsr );
; 4075 :             while ( zGETPTR( lpSearchViewEntityCsr->hViewEntity ) != lpParentViewEntity )

	mov	edx, DWORD PTR _lpSearchViewEntityCsr$9[ebp]
	mov	eax, DWORD PTR [edx+14]
	push	eax
	call	DWORD PTR _g_pfnGetPtr
	cmp	eax, DWORD PTR _lpParentViewEntity$13[ebp]
	je	SHORT $LN31@fnSpawnCre

; 4076 :             {
; 4077 :                lpSearchViewEntityCsr = zGETPTR( lpSearchViewEntityCsr->hParent );

	mov	ecx, DWORD PTR _lpSearchViewEntityCsr$9[ebp]
	mov	edx, DWORD PTR [ecx+10]
	push	edx
	call	DWORD PTR _g_pfnGetPtr
	mov	DWORD PTR _lpSearchViewEntityCsr$9[ebp], eax

; 4078 :             }

	jmp	SHORT $LN11@fnSpawnCre
$LN31@fnSpawnCre:

; 4079 :          }
; 4080 : 
; 4081 :          // Now that the cursors are established up the parent chain, create a
; 4082 :          // cursor for the twin of the current instance under the linked parent.
; 4083 :          // First, find the view cursor for the target of the spawned create.
; 4084 :          lpWorkViewEntityCsr = zGETPTR( lpSearchViewEntityCsr->hNextHier );

	mov	eax, DWORD PTR _lpSearchViewEntityCsr$9[ebp]
	mov	ecx, DWORD PTR [eax+2]
	push	ecx
	call	DWORD PTR _g_pfnGetPtr
	mov	DWORD PTR _lpWorkViewEntityCsr$11[ebp], eax
$LN13@fnSpawnCre:

; 4085 :          while ( zGETPTR( lpWorkViewEntityCsr->hViewEntity ) !=

	mov	edx, DWORD PTR _lpWorkViewEntityCsr$11[ebp]
	mov	eax, DWORD PTR [edx+14]
	push	eax
	call	DWORD PTR _g_pfnGetPtr
	cmp	eax, DWORD PTR _lpSearchViewEntity$12[ebp]
	je	SHORT $LN14@fnSpawnCre

; 4086 :                                                          lpSearchViewEntity )
; 4087 :          {
; 4088 :             lpWorkViewEntityCsr = zGETPTR( lpWorkViewEntityCsr->hNextHier );

	mov	ecx, DWORD PTR _lpWorkViewEntityCsr$11[ebp]
	mov	edx, DWORD PTR [ecx+2]
	push	edx
	call	DWORD PTR _g_pfnGetPtr
	mov	DWORD PTR _lpWorkViewEntityCsr$11[ebp], eax

; 4089 :          }

	jmp	SHORT $LN13@fnSpawnCre
$LN14@fnSpawnCre:

; 4090 : 
; 4091 :          nSpawnPosition = zPOS_AFTER;

	mov	eax, 3
	mov	WORD PTR _nSpawnPosition$15[ebp], ax

; 4092 :          if ( lpEntityInstance->hNextTwin )

	mov	ecx, DWORD PTR _lpEntityInstance$[ebp]
	cmp	DWORD PTR [ecx+22], 0
	je	$LN32@fnSpawnCre

; 4093 :          {
; 4094 :             LPENTITYINSTANCE lpNextTwin;
; 4095 : 
; 4096 :             lpNextTwin   = zGETPTR( lpEntityInstance->hNextTwin );

	mov	edx, DWORD PTR _lpEntityInstance$[ebp]
	mov	eax, DWORD PTR [edx+22]
	push	eax
	call	DWORD PTR _g_pfnGetPtr
	mov	DWORD PTR _lpNextTwin$4[ebp], eax

; 4097 :             lpLinkedTwin = zGETPTR( lpNextTwin->hNextLinked );

	mov	ecx, DWORD PTR _lpNextTwin$4[ebp]
	mov	edx, DWORD PTR [ecx+42]
	push	edx
	call	DWORD PTR _g_pfnGetPtr
	mov	DWORD PTR _lpLinkedTwin$14[ebp], eax
$LN15@fnSpawnCre:

; 4098 :             while ( lpLinkedTwin )

	cmp	DWORD PTR _lpLinkedTwin$14[ebp], 0
	je	SHORT $LN16@fnSpawnCre

; 4099 :             {
; 4100 :                if ( zGETPTR( lpLinkedTwin->hParent ) == lpLinkedInstance )

	mov	eax, DWORD PTR _lpLinkedTwin$14[ebp]
	mov	ecx, DWORD PTR [eax+30]
	push	ecx
	call	DWORD PTR _g_pfnGetPtr
	cmp	eax, DWORD PTR _lpLinkedInstance$[ebp]
	jne	SHORT $LN34@fnSpawnCre

; 4101 :                   break;

	jmp	SHORT $LN16@fnSpawnCre
$LN34@fnSpawnCre:

; 4102 : 
; 4103 :                if ( lpLinkedTwin->hNextLinked == lpEntityInstance->hNextTwin )

	mov	edx, DWORD PTR _lpLinkedTwin$14[ebp]
	mov	eax, DWORD PTR _lpEntityInstance$[ebp]
	mov	ecx, DWORD PTR [edx+42]
	cmp	ecx, DWORD PTR [eax+22]
	jne	SHORT $LN35@fnSpawnCre

; 4104 :                {
; 4105 :                   lpLinkedTwin = 0;

	mov	DWORD PTR _lpLinkedTwin$14[ebp], 0

; 4106 :                   break;

	jmp	SHORT $LN16@fnSpawnCre
$LN35@fnSpawnCre:

; 4107 :                }
; 4108 : 
; 4109 :                lpLinkedTwin = zGETPTR( lpLinkedTwin->hNextLinked );

	mov	edx, DWORD PTR _lpLinkedTwin$14[ebp]
	mov	eax, DWORD PTR [edx+42]
	push	eax
	call	DWORD PTR _g_pfnGetPtr
	mov	DWORD PTR _lpLinkedTwin$14[ebp], eax

; 4110 :             }

	jmp	SHORT $LN15@fnSpawnCre
$LN16@fnSpawnCre:

; 4111 : 
; 4112 :             if ( lpLinkedTwin )

	cmp	DWORD PTR _lpLinkedTwin$14[ebp], 0
	je	SHORT $LN36@fnSpawnCre

; 4113 :             {
; 4114 :                lpWorkViewEntityCsr->hEntityInstance = zGETHNDL( lpLinkedTwin );

	mov	ecx, DWORD PTR _lpLinkedTwin$14[ebp]
	push	ecx
	call	DWORD PTR _g_pfnGetHndl
	mov	edx, DWORD PTR _lpWorkViewEntityCsr$11[ebp]
	mov	DWORD PTR [edx+26], eax

; 4115 :             // if ( lpWorkViewEntityCsr->hEntityInstance == UNSET_CSR )
; 4116 :             //    SysMessageBox( 0, "fnSpawnCreateEntity", "UNSET_CSR", -1 );
; 4117 : 
; 4118 :                nSpawnPosition = zPOS_BEFORE;

	mov	eax, 4
	mov	WORD PTR _nSpawnPosition$15[ebp], ax
$LN36@fnSpawnCre:

; 4119 :             }
; 4120 :          }

	jmp	$LN33@fnSpawnCre
$LN32@fnSpawnCre:

; 4121 :          else
; 4122 :          if ( lpEntityInstance->hPrevTwin )

	mov	ecx, DWORD PTR _lpEntityInstance$[ebp]
	cmp	DWORD PTR [ecx+26], 0
	je	SHORT $LN33@fnSpawnCre

; 4123 :          {
; 4124 :             LPENTITYINSTANCE lpPrevTwin;
; 4125 : 
; 4126 :             lpPrevTwin   = zGETPTR( lpEntityInstance->hPrevTwin );

	mov	edx, DWORD PTR _lpEntityInstance$[ebp]
	mov	eax, DWORD PTR [edx+26]
	push	eax
	call	DWORD PTR _g_pfnGetPtr
	mov	DWORD PTR _lpPrevTwin$3[ebp], eax

; 4127 :             lpLinkedTwin = zGETPTR( lpPrevTwin->hNextLinked );

	mov	ecx, DWORD PTR _lpPrevTwin$3[ebp]
	mov	edx, DWORD PTR [ecx+42]
	push	edx
	call	DWORD PTR _g_pfnGetPtr
	mov	DWORD PTR _lpLinkedTwin$14[ebp], eax
$LN17@fnSpawnCre:

; 4128 :             while ( lpLinkedTwin )

	cmp	DWORD PTR _lpLinkedTwin$14[ebp], 0
	je	SHORT $LN18@fnSpawnCre

; 4129 :             {
; 4130 :                if ( zGETPTR( lpLinkedTwin->hParent ) == lpLinkedInstance )

	mov	eax, DWORD PTR _lpLinkedTwin$14[ebp]
	mov	ecx, DWORD PTR [eax+30]
	push	ecx
	call	DWORD PTR _g_pfnGetPtr
	cmp	eax, DWORD PTR _lpLinkedInstance$[ebp]
	jne	SHORT $LN38@fnSpawnCre

; 4131 :                   break;

	jmp	SHORT $LN18@fnSpawnCre
$LN38@fnSpawnCre:

; 4132 : 
; 4133 :                if ( lpLinkedTwin->hNextLinked == lpEntityInstance->hPrevTwin )

	mov	edx, DWORD PTR _lpLinkedTwin$14[ebp]
	mov	eax, DWORD PTR _lpEntityInstance$[ebp]
	mov	ecx, DWORD PTR [edx+42]
	cmp	ecx, DWORD PTR [eax+26]
	jne	SHORT $LN39@fnSpawnCre

; 4134 :                {
; 4135 :                   lpLinkedTwin = 0;

	mov	DWORD PTR _lpLinkedTwin$14[ebp], 0

; 4136 :                   break;

	jmp	SHORT $LN18@fnSpawnCre
$LN39@fnSpawnCre:

; 4137 :                }
; 4138 : 
; 4139 :                lpLinkedTwin = zGETPTR( lpLinkedTwin->hNextLinked );

	mov	edx, DWORD PTR _lpLinkedTwin$14[ebp]
	mov	eax, DWORD PTR [edx+42]
	push	eax
	call	DWORD PTR _g_pfnGetPtr
	mov	DWORD PTR _lpLinkedTwin$14[ebp], eax

; 4140 :             }

	jmp	SHORT $LN17@fnSpawnCre
$LN18@fnSpawnCre:

; 4141 : 
; 4142 :             if ( lpLinkedTwin )

	cmp	DWORD PTR _lpLinkedTwin$14[ebp], 0
	je	SHORT $LN33@fnSpawnCre

; 4143 :             {
; 4144 :                lpWorkViewEntityCsr->hEntityInstance = zGETHNDL( lpLinkedTwin );

	mov	ecx, DWORD PTR _lpLinkedTwin$14[ebp]
	push	ecx
	call	DWORD PTR _g_pfnGetHndl
	mov	edx, DWORD PTR _lpWorkViewEntityCsr$11[ebp]
	mov	DWORD PTR [edx+26], eax
$LN33@fnSpawnCre:

; 4145 :             // if ( lpWorkViewEntityCsr->hEntityInstance == UNSET_CSR )
; 4146 :             //    SysMessageBox( 0, "fnSpawnCreateEntity2", "UNSET_CSR", -1 );
; 4147 :             }
; 4148 :          }
; 4149 : 
; 4150 :          // For now, we do not support creation spawning in recursive levels of
; 4151 :          // the object instance.  So if the level does not match, issue an error
; 4152 :          // and get out.  NOTE, this should not happen if fnEstablishViewForInstance
; 4153 :          // is called above.  It removes the recursive spawning restriction!!
; 4154 :          if ( lpSearchViewEntityCsr->nLevel != lpLinkedInstance->nLevel )

	mov	eax, DWORD PTR _lpSearchViewEntityCsr$9[ebp]
	movsx	ecx, WORD PTR [eax+22]
	mov	edx, DWORD PTR _lpLinkedInstance$[ebp]
	movsx	eax, WORD PTR [edx+58]
	cmp	ecx, eax
	je	SHORT $LN41@fnSpawnCre

; 4155 :          {
; 4156 :             LPTASK lpTask = zGETPTR( lpSpawnView->hTask );

	mov	ecx, DWORD PTR _lpSpawnView$8[ebp]
	mov	edx, DWORD PTR [ecx+14]
	push	edx
	call	DWORD PTR _g_pfnGetPtr
	mov	DWORD PTR _lpTask$2[ebp], eax

; 4157 :             // "KZOEE139 - Error establishing cursor for "
; 4158 :             // "CreateEntity spawn"
; 4159 :             fnIssueCoreError( lpTask, lpView, 8, 139, 0,

	push	0
	mov	eax, DWORD PTR _lpSearchViewEntity$12[ebp]
	add	eax, 14					; 0000000eH
	push	eax
	push	0
	push	139					; 0000008bH
	push	8
	mov	ecx, DWORD PTR _lpView$[ebp]
	push	ecx
	mov	edx, DWORD PTR _lpTask$2[ebp]
	push	edx
	call	_fnIssueCoreError
	add	esp, 28					; 0000001cH

; 4160 :                               lpSearchViewEntity->szName, 0 );
; 4161 :             nRC = zCALL_ERROR;

	mov	eax, -16				; fffffff0H
	mov	WORD PTR _nRC$[ebp], ax

; 4162 :          }

	jmp	$LN42@fnSpawnCre
$LN41@fnSpawnCre:

; 4163 :          else
; 4164 :          {
; 4165 :             // We've established the cursors in the spawn view for spawning
; 4166 :             // the create, now call fnCreateEntity to spawn the create.
; 4167 :             nRC = fnCreateEntity( lpSpawnView,

	push	0
	movzx	ecx, WORD PTR _nSpawnPosition$15[ebp]
	push	ecx
	mov	edx, DWORD PTR _lpWorkViewEntityCsr$11[ebp]
	push	edx
	mov	eax, DWORD PTR _lpWorkViewEntityCsr$11[ebp]
	mov	ecx, DWORD PTR [eax+14]
	push	ecx
	call	DWORD PTR _g_pfnGetPtr
	push	eax
	mov	edx, DWORD PTR _lpSpawnView$8[ebp]
	push	edx
	call	_fnCreateEntity@20
	mov	WORD PTR _nRC$[ebp], ax

; 4168 :                                   zGETPTR( lpWorkViewEntityCsr->hViewEntity ),
; 4169 :                                   lpWorkViewEntityCsr, nSpawnPosition, 0 );
; 4170 :             if ( nRC == 0 )

	movsx	eax, WORD PTR _nRC$[ebp]
	test	eax, eax
	jne	$LN43@fnSpawnCre

; 4171 :             {
; 4172 :                LPENTITYINSTANCE lpWorkInstance;
; 4173 : 
; 4174 :                lpSpawnedInstance = zGETPTR( lpWorkViewEntityCsr->hEntityInstance );

	mov	ecx, DWORD PTR _lpWorkViewEntityCsr$11[ebp]
	mov	edx, DWORD PTR [ecx+26]
	push	edx
	call	DWORD PTR _g_pfnGetPtr
	mov	DWORD PTR _lpSpawnedInstance$10[ebp], eax

; 4175 :                lpSpawnedInstance->u.nInd.bCreated = TRUE;

	mov	eax, DWORD PTR _lpSpawnedInstance$10[ebp]
	mov	ecx, DWORD PTR [eax+6]
	or	ecx, 2
	mov	edx, DWORD PTR _lpSpawnedInstance$10[ebp]
	mov	DWORD PTR [edx+6], ecx

; 4176 :                lpSpawnedInstance->hNextLinked = zGETHNDL( lpEntityInstance );

	mov	eax, DWORD PTR _lpEntityInstance$[ebp]
	push	eax
	call	DWORD PTR _g_pfnGetHndl
	mov	ecx, DWORD PTR _lpSpawnedInstance$10[ebp]
	mov	DWORD PTR [ecx+42], eax

; 4177 :                if ( lpEntityInstance->hNextLinked )

	mov	edx, DWORD PTR _lpEntityInstance$[ebp]
	cmp	DWORD PTR [edx+42], 0
	je	SHORT $LN44@fnSpawnCre

; 4178 :                {
; 4179 :                   lpLinkedTwin = zGETPTR( lpEntityInstance->hNextLinked );

	mov	eax, DWORD PTR _lpEntityInstance$[ebp]
	mov	ecx, DWORD PTR [eax+42]
	push	ecx
	call	DWORD PTR _g_pfnGetPtr
	mov	DWORD PTR _lpLinkedTwin$14[ebp], eax
$LN19@fnSpawnCre:

; 4180 :                   while ( zGETPTR( lpLinkedTwin->hNextLinked ) != lpEntityInstance )

	mov	edx, DWORD PTR _lpLinkedTwin$14[ebp]
	mov	eax, DWORD PTR [edx+42]
	push	eax
	call	DWORD PTR _g_pfnGetPtr
	cmp	eax, DWORD PTR _lpEntityInstance$[ebp]
	je	SHORT $LN20@fnSpawnCre

; 4181 :                   {
; 4182 :                      lpLinkedTwin = zGETPTR( lpLinkedTwin->hNextLinked );

	mov	ecx, DWORD PTR _lpLinkedTwin$14[ebp]
	mov	edx, DWORD PTR [ecx+42]
	push	edx
	call	DWORD PTR _g_pfnGetPtr
	mov	DWORD PTR _lpLinkedTwin$14[ebp], eax

; 4183 :                   }

	jmp	SHORT $LN19@fnSpawnCre
$LN20@fnSpawnCre:

; 4184 : 
; 4185 :                   lpLinkedTwin->hNextLinked = zGETHNDL( lpSpawnedInstance );

	mov	eax, DWORD PTR _lpSpawnedInstance$10[ebp]
	push	eax
	call	DWORD PTR _g_pfnGetHndl
	mov	ecx, DWORD PTR _lpLinkedTwin$14[ebp]
	mov	DWORD PTR [ecx+42], eax

; 4186 :                }

	jmp	SHORT $LN45@fnSpawnCre
$LN44@fnSpawnCre:

; 4187 :                else
; 4188 :                   lpEntityInstance->hNextLinked = zGETHNDL( lpSpawnedInstance );

	mov	edx, DWORD PTR _lpSpawnedInstance$10[ebp]
	push	edx
	call	DWORD PTR _g_pfnGetHndl
	mov	ecx, DWORD PTR _lpEntityInstance$[ebp]
	mov	DWORD PTR [ecx+42], eax
$LN45@fnSpawnCre:

; 4189 : 
; 4190 :                // Set the record pointer in the spawned instance.
; 4191 :                lpWorkInstance = zGETPTR( lpSpawnedInstance->hNextLinked );

	mov	edx, DWORD PTR _lpSpawnedInstance$10[ebp]
	mov	eax, DWORD PTR [edx+42]
	push	eax
	call	DWORD PTR _g_pfnGetPtr
	mov	DWORD PTR _lpWorkInstance$1[ebp], eax

; 4192 :                lpSpawnedInstance->hPersistRecord = lpWorkInstance->hPersistRecord;

	mov	ecx, DWORD PTR _lpSpawnedInstance$10[ebp]
	mov	edx, DWORD PTR _lpWorkInstance$1[ebp]
	mov	eax, DWORD PTR [edx+60]
	mov	DWORD PTR [ecx+60], eax
$LN43@fnSpawnCre:

; 4193 :             }
; 4194 : 
; 4195 :             DropView( lpSpawnView );

	mov	ecx, DWORD PTR _lpSpawnView$8[ebp]
	push	ecx
	call	_DropView@4
$LN42@fnSpawnCre:

; 4196 :          }
; 4197 : 
; 4198 :       } // for ( lpSearchViewEntity )...

	jmp	$LN8@fnSpawnCre
$LN9@fnSpawnCre:

; 4199 : 
; 4200 :    }  // for ( lpLinkedInstance )...

	jmp	$LN2@fnSpawnCre
$LN3@fnSpawnCre:

; 4201 : 
; 4202 :    return( nRC );

	mov	ax, WORD PTR _nRC$[ebp]
$LN1@fnSpawnCre:

; 4203 : }

	mov	esp, ebp
	pop	ebp
	ret	0
_fnSpawnCreateEntity ENDP
_TEXT	ENDS
; Function compile flags: /Odtp
; File c:\10c\a\oe\kzoeeiaa.c
_TEXT	SEGMENT
_lpParent$1 = -36					; size = 4
_lpViewEntity$ = -32					; size = 4
_lpLinkedViewEntity$2 = -28				; size = 4
_lpLinkedParent$ = -24					; size = 4
_lpWrkViewEntity$ = -20					; size = 4
_hLinkedParent$3 = -16					; size = 4
_lpWrkInstance$ = -12					; size = 4
_lpLinkedInstance$ = -8					; size = 4
_bInvertedFound$ = -1					; size = 1
_lpEntityInstance$ = 8					; size = 4
_fnExcludeEntityInstance PROC

; 3864 : {

	push	ebp
	mov	ebp, esp
	sub	esp, 36					; 00000024H

; 3865 :    zBOOL             bInvertedFound;
; 3866 :    LPVIEWENTITY      lpViewEntity;
; 3867 :    LPVIEWENTITY      lpWrkViewEntity;
; 3868 :    LPENTITYINSTANCE  lpLinkedInstance;
; 3869 :    LPENTITYINSTANCE  lpLinkedParent;
; 3870 :    LPENTITYINSTANCE  lpWrkInstance;
; 3871 : 
; 3872 : 
; 3873 :    // Init inversion flag
; 3874 :    bInvertedFound = 0;

	mov	BYTE PTR _bInvertedFound$[ebp], 0

; 3875 : 
; 3876 :    // Get entity instance at which to start the exclude and mark the
; 3877 :    // Entity instance as excluded. Then go through and mark the entity
; 3878 :    // instance and all of its subordinates as hidden
; 3879 :    lpViewEntity = zGETPTR( lpEntityInstance->hViewEntity );

	mov	eax, DWORD PTR _lpEntityInstance$[ebp]
	mov	ecx, DWORD PTR [eax+2]
	push	ecx
	call	DWORD PTR _g_pfnGetPtr
	mov	DWORD PTR _lpViewEntity$[ebp], eax

; 3880 : 
; 3881 :    if ( lpEntityInstance->hParent == 0 )

	mov	edx, DWORD PTR _lpEntityInstance$[ebp]
	cmp	DWORD PTR [edx+30], 0
	jne	SHORT $LN10@fnExcludeE

; 3882 :       return( bInvertedFound );

	mov	al, BYTE PTR _bInvertedFound$[ebp]
	jmp	$LN1@fnExcludeE
$LN10@fnExcludeE:

; 3883 : 
; 3884 :    lpEntityInstance->u.nInd.bExcluded = TRUE;

	mov	eax, DWORD PTR _lpEntityInstance$[ebp]
	mov	ecx, DWORD PTR [eax+6]
	or	ecx, 16					; 00000010H
	mov	edx, DWORD PTR _lpEntityInstance$[ebp]
	mov	DWORD PTR [edx+6], ecx

; 3885 : 
; 3886 :    // Now that the simple exclusion is done, go through all linked
; 3887 :    // instances and mark all linked instances as excluded which represent
; 3888 :    // the same relationship to the same parent.
; 3889 :    lpLinkedInstance = zGETPTR( lpEntityInstance->hNextLinked );

	mov	eax, DWORD PTR _lpEntityInstance$[ebp]
	mov	ecx, DWORD PTR [eax+42]
	push	ecx
	call	DWORD PTR _g_pfnGetPtr
	mov	DWORD PTR _lpLinkedInstance$[ebp], eax

; 3890 :    if ( lpLinkedInstance == 0 )

	cmp	DWORD PTR _lpLinkedInstance$[ebp], 0
	jne	SHORT $LN2@fnExcludeE

; 3891 :       return( bInvertedFound );

	mov	al, BYTE PTR _bInvertedFound$[ebp]
	jmp	$LN1@fnExcludeE
$LN2@fnExcludeE:

; 3892 : 
; 3893 :    while ( lpLinkedInstance != lpEntityInstance )

	mov	edx, DWORD PTR _lpLinkedInstance$[ebp]
	cmp	edx, DWORD PTR _lpEntityInstance$[ebp]
	je	$LN3@fnExcludeE

; 3894 :    {
; 3895 :       LPVIEWENTITY lpLinkedViewEntity = zGETPTR( lpLinkedInstance->hViewEntity );

	mov	eax, DWORD PTR _lpLinkedInstance$[ebp]
	mov	ecx, DWORD PTR [eax+2]
	push	ecx
	call	DWORD PTR _g_pfnGetPtr
	mov	DWORD PTR _lpLinkedViewEntity$2[ebp], eax

; 3896 : 
; 3897 :       // We have a linked instance, for each instance see if the
; 3898 :       // corresponding view entity represents the same relationship
; 3899 :       // to the same parent instance OR has an inversion of the
; 3900 :       // same relationship to the same parent instance.
; 3901 :       // First, see if the instance is marked as deleted from
; 3902 :       // a delete entity call
; 3903 :       if ( lpLinkedViewEntity->lERRelTok == lpViewEntity->lERRelTok &&

	mov	edx, DWORD PTR _lpLinkedViewEntity$2[ebp]
	mov	eax, DWORD PTR _lpViewEntity$[ebp]
	mov	ecx, DWORD PTR [edx+199]
	cmp	ecx, DWORD PTR [eax+199]
	jne	SHORT $LN12@fnExcludeE
	mov	edx, DWORD PTR _lpLinkedInstance$[ebp]
	cmp	DWORD PTR [edx+30], 0
	je	SHORT $LN12@fnExcludeE

; 3904 :            lpLinkedInstance->hParent )
; 3905 :       {
; 3906 :          LPENTITYINSTANCE hLinkedParent;
; 3907 : 
; 3908 :          // The linked instance represents the same relationship ...
; 3909 :          // see if its parent is a linked instance to the current parent.
; 3910 :          lpLinkedParent = zGETPTR( lpLinkedInstance->hParent );

	mov	eax, DWORD PTR _lpLinkedInstance$[ebp]
	mov	ecx, DWORD PTR [eax+30]
	push	ecx
	call	DWORD PTR _g_pfnGetPtr
	mov	DWORD PTR _lpLinkedParent$[ebp], eax

; 3911 :          hLinkedParent  = lpLinkedParent->hNextLinked;

	mov	edx, DWORD PTR _lpLinkedParent$[ebp]
	mov	eax, DWORD PTR [edx+42]
	mov	DWORD PTR _hLinkedParent$3[ebp], eax

; 3912 : 
; 3913 :          if ( hLinkedParent )

	cmp	DWORD PTR _hLinkedParent$3[ebp], 0
	je	SHORT $LN13@fnExcludeE
$LN4@fnExcludeE:

; 3914 :          {
; 3915 :             while ( hLinkedParent != lpEntityInstance->hParent &&

	mov	ecx, DWORD PTR _lpEntityInstance$[ebp]
	mov	edx, DWORD PTR _hLinkedParent$3[ebp]
	cmp	edx, DWORD PTR [ecx+30]
	je	SHORT $LN13@fnExcludeE
	mov	eax, DWORD PTR _lpLinkedInstance$[ebp]
	mov	ecx, DWORD PTR _hLinkedParent$3[ebp]
	cmp	ecx, DWORD PTR [eax+30]
	je	SHORT $LN13@fnExcludeE

; 3916 :                     hLinkedParent != lpLinkedInstance->hParent )
; 3917 :             {
; 3918 :                lpLinkedParent = zGETPTR( hLinkedParent );

	mov	edx, DWORD PTR _hLinkedParent$3[ebp]
	push	edx
	call	DWORD PTR _g_pfnGetPtr
	mov	DWORD PTR _lpLinkedParent$[ebp], eax

; 3919 :                hLinkedParent  = lpLinkedParent->hNextLinked;

	mov	eax, DWORD PTR _lpLinkedParent$[ebp]
	mov	ecx, DWORD PTR [eax+42]
	mov	DWORD PTR _hLinkedParent$3[ebp], ecx

; 3920 :             }

	jmp	SHORT $LN4@fnExcludeE
$LN13@fnExcludeE:

; 3921 :          }
; 3922 : 
; 3923 :          if ( hLinkedParent == lpEntityInstance->hParent )

	mov	edx, DWORD PTR _lpEntityInstance$[ebp]
	mov	eax, DWORD PTR _hLinkedParent$3[ebp]
	cmp	eax, DWORD PTR [edx+30]
	jne	SHORT $LN12@fnExcludeE

; 3924 :             lpLinkedInstance->u.nInd.bExcluded = TRUE;

	mov	ecx, DWORD PTR _lpLinkedInstance$[ebp]
	mov	edx, DWORD PTR [ecx+6]
	or	edx, 16					; 00000010H
	mov	eax, DWORD PTR _lpLinkedInstance$[ebp]
	mov	DWORD PTR [eax+6], edx
$LN12@fnExcludeE:

; 3925 :       }
; 3926 : 
; 3927 :       // See if the structure is inverted for a linked instance
; 3928 :       lpWrkViewEntity = zGETPTR( lpLinkedViewEntity->hNextHier );

	mov	ecx, DWORD PTR _lpLinkedViewEntity$2[ebp]
	mov	edx, DWORD PTR [ecx+2]
	push	edx
	call	DWORD PTR _g_pfnGetPtr
	mov	DWORD PTR _lpWrkViewEntity$[ebp], eax
$LN6@fnExcludeE:

; 3929 :       while ( lpWrkViewEntity &&

	cmp	DWORD PTR _lpWrkViewEntity$[ebp], 0
	je	$LN7@fnExcludeE
	mov	eax, DWORD PTR _lpWrkViewEntity$[ebp]
	movsx	ecx, WORD PTR [eax+215]
	mov	edx, DWORD PTR _lpLinkedViewEntity$2[ebp]
	movsx	eax, WORD PTR [edx+215]
	cmp	ecx, eax
	jle	$LN7@fnExcludeE

; 3930 :               lpWrkViewEntity->nLevel > lpLinkedViewEntity->nLevel )
; 3931 :       {
; 3932 :          LPENTITYINSTANCE lpParent;
; 3933 : 
; 3934 :          if ( lpWrkViewEntity->hParent == lpLinkedInstance->hViewEntity &&

	mov	ecx, DWORD PTR _lpWrkViewEntity$[ebp]
	mov	edx, DWORD PTR _lpLinkedInstance$[ebp]
	mov	eax, DWORD PTR [ecx+10]
	cmp	eax, DWORD PTR [edx+2]
	jne	SHORT $LN15@fnExcludeE
	mov	ecx, DWORD PTR _lpWrkViewEntity$[ebp]
	mov	edx, DWORD PTR _lpViewEntity$[ebp]
	mov	eax, DWORD PTR [ecx+199]
	cmp	eax, DWORD PTR [edx+199]
	jne	SHORT $LN15@fnExcludeE

; 3935 :               lpWrkViewEntity->lERRelTok == lpViewEntity->lERRelTok )
; 3936 :          {
; 3937 :             // We've found an inverted structure in the linked entity
; 3938 :             // instance, now go and mark the child entity instance
; 3939 :             // which is linked to the source entity instances parent
; 3940 :             // as excluded.
; 3941 :             lpParent      = zGETPTR( lpEntityInstance->hParent );

	mov	ecx, DWORD PTR _lpEntityInstance$[ebp]
	mov	edx, DWORD PTR [ecx+30]
	push	edx
	call	DWORD PTR _g_pfnGetPtr
	mov	DWORD PTR _lpParent$1[ebp], eax

; 3942 :             lpWrkInstance = zGETPTR( lpParent->hNextLinked );

	mov	eax, DWORD PTR _lpParent$1[ebp]
	mov	ecx, DWORD PTR [eax+42]
	push	ecx
	call	DWORD PTR _g_pfnGetPtr
	mov	DWORD PTR _lpWrkInstance$[ebp], eax
$LN8@fnExcludeE:

; 3943 :             while (  lpWrkInstance && lpWrkInstance != lpParent )

	cmp	DWORD PTR _lpWrkInstance$[ebp], 0
	je	SHORT $LN15@fnExcludeE
	mov	edx, DWORD PTR _lpWrkInstance$[ebp]
	cmp	edx, DWORD PTR _lpParent$1[ebp]
	je	SHORT $LN15@fnExcludeE

; 3944 :             {
; 3945 :                if ( zGETPTR( lpWrkInstance->hParent ) == lpLinkedInstance )

	mov	eax, DWORD PTR _lpWrkInstance$[ebp]
	mov	ecx, DWORD PTR [eax+30]
	push	ecx
	call	DWORD PTR _g_pfnGetPtr
	cmp	eax, DWORD PTR _lpLinkedInstance$[ebp]
	jne	SHORT $LN16@fnExcludeE

; 3946 :                {
; 3947 :                   lpWrkInstance->u.nInd.bExcluded = TRUE;

	mov	edx, DWORD PTR _lpWrkInstance$[ebp]
	mov	eax, DWORD PTR [edx+6]
	or	eax, 16					; 00000010H
	mov	ecx, DWORD PTR _lpWrkInstance$[ebp]
	mov	DWORD PTR [ecx+6], eax

; 3948 :                   bInvertedFound = TRUE;

	mov	BYTE PTR _bInvertedFound$[ebp], 1
$LN16@fnExcludeE:

; 3949 :                }
; 3950 : 
; 3951 :                lpWrkInstance = zGETPTR( lpWrkInstance->hNextLinked );

	mov	edx, DWORD PTR _lpWrkInstance$[ebp]
	mov	eax, DWORD PTR [edx+42]
	push	eax
	call	DWORD PTR _g_pfnGetPtr
	mov	DWORD PTR _lpWrkInstance$[ebp], eax

; 3952 :             }

	jmp	SHORT $LN8@fnExcludeE
$LN15@fnExcludeE:

; 3953 :          }
; 3954 : 
; 3955 :          lpWrkViewEntity = zGETPTR( lpWrkViewEntity->hNextHier );

	mov	ecx, DWORD PTR _lpWrkViewEntity$[ebp]
	mov	edx, DWORD PTR [ecx+2]
	push	edx
	call	DWORD PTR _g_pfnGetPtr
	mov	DWORD PTR _lpWrkViewEntity$[ebp], eax

; 3956 :       }

	jmp	$LN6@fnExcludeE
$LN7@fnExcludeE:

; 3957 : 
; 3958 :       lpLinkedInstance = zGETPTR( lpLinkedInstance->hNextLinked );

	mov	eax, DWORD PTR _lpLinkedInstance$[ebp]
	mov	ecx, DWORD PTR [eax+42]
	push	ecx
	call	DWORD PTR _g_pfnGetPtr
	mov	DWORD PTR _lpLinkedInstance$[ebp], eax

; 3959 : 
; 3960 :    } // while...

	jmp	$LN2@fnExcludeE
$LN3@fnExcludeE:

; 3961 : 
; 3962 :    // Whew, I think we've done it, return to caller.
; 3963 :    return( bInvertedFound );

	mov	al, BYTE PTR _bInvertedFound$[ebp]
$LN1@fnExcludeE:

; 3964 : }

	mov	esp, ebp
	pop	ebp
	ret	0
_fnExcludeEntityInstance ENDP
_TEXT	ENDS
; Function compile flags: /Odtp
; File c:\10c\a\oe\kzoeeiaa.c
_TEXT	SEGMENT
_lpTask$1 = -72						; size = 4
_lpTask$2 = -68						; size = 4
_lpTask$3 = -64						; size = 4
_lpTask$4 = -60						; size = 4
_lpTask$5 = -56						; size = 4
_lpRootViewEntityCsr$ = -52				; size = 4
_lpTask$6 = -48						; size = 4
_lpViewOI$ = -44					; size = 4
_lpTask$7 = -40						; size = 4
_lpTask$8 = -36						; size = 4
_lpParent$9 = -32					; size = 4
_lpRootViewEntityInstance$ = -28			; size = 4
_lpViewCsr$ = -24					; size = 4
_lpViewEntity$ = -20					; size = 4
_lpCurrentTask$ = -16					; size = 4
_lpViewEntityCsr$ = -12					; size = 4
_lpEntityInstance$ = -8					; size = 4
_nID$10 = -4						; size = 2
_plpReturnTask$ = 8					; size = 4
_ppvReturnViewEntity$ = 12				; size = 4
_ppvReturnViewEntityCsr$ = 16				; size = 4
_iOperationID$ = 20					; size = 2
_lpView$ = 24						; size = 4
_cpcEntityName$ = 28					; size = 4
_nFlags$ = 32						; size = 2
_fnValidateInstanceParameters PROC

; 3447 : {

	push	ebp
	mov	ebp, esp
	sub	esp, 72					; 00000048H

; 3448 :    LPTASK            lpCurrentTask;
; 3449 :    LPVIEWOI          lpViewOI;
; 3450 :    LPVIEWCSR         lpViewCsr;
; 3451 :    LPVIEWENTITY      lpViewEntity;
; 3452 :    LPVIEWENTITYCSR   lpViewEntityCsr;
; 3453 :    LPVIEWENTITYCSR   lpRootViewEntityCsr;
; 3454 :    LPENTITYINSTANCE  lpRootViewEntityInstance;
; 3455 :    LPENTITYINSTANCE  lpEntityInstance;
; 3456 : 
; 3457 :    if ( nFlags & 2 )

	movsx	eax, WORD PTR _nFlags$[ebp]
	and	eax, 2
	je	SHORT $LN8@fnValidate

; 3458 :    {
; 3459 :       lpCurrentTask = *plpReturnTask;

	mov	ecx, DWORD PTR _plpReturnTask$[ebp]
	mov	edx, DWORD PTR [ecx]
	mov	DWORD PTR _lpCurrentTask$[ebp], edx

; 3460 : 
; 3461 :       // Validate that the view passed is valid.
; 3462 :       if ( fnValidViewCsr( lpCurrentTask, lpView ) == 0 )

	mov	eax, DWORD PTR _lpView$[ebp]
	push	eax
	mov	ecx, DWORD PTR _lpCurrentTask$[ebp]
	push	ecx
	call	_fnValidViewCsr
	add	esp, 8
	movsx	edx, ax
	test	edx, edx
	jne	SHORT $LN10@fnValidate

; 3463 :       {
; 3464 :          fnOperationReturn( iOperationID, lpCurrentTask );

	mov	eax, DWORD PTR _lpCurrentTask$[ebp]
	push	eax
	movzx	ecx, WORD PTR _iOperationID$[ebp]
	push	ecx
	call	_fnOperationReturn
	add	esp, 8

; 3465 :          return( zCALL_ERROR );

	mov	eax, -16				; fffffff0H
	jmp	$LN1@fnValidate
$LN10@fnValidate:

; 3466 :       }
; 3467 :    }

	jmp	SHORT $LN9@fnValidate
$LN8@fnValidate:

; 3468 :    else
; 3469 :    {
; 3470 :       // If task not active or disabled, or view csr invalid, return zCALL_ERROR.
; 3471 :       if ( (lpCurrentTask = fnOperationCall( iOperationID, lpView,
; 3472 :                                              zVALID_VIEW_CSR )) == 0 )

	push	13					; 0000000dH
	mov	edx, DWORD PTR _lpView$[ebp]
	push	edx
	movzx	eax, WORD PTR _iOperationID$[ebp]
	push	eax
	call	_fnOperationCall
	add	esp, 12					; 0000000cH
	mov	DWORD PTR _lpCurrentTask$[ebp], eax
	cmp	DWORD PTR _lpCurrentTask$[ebp], 0
	jne	SHORT $LN11@fnValidate

; 3473 :       {
; 3474 :          return( zCALL_ERROR );

	mov	eax, -16				; fffffff0H
	jmp	$LN1@fnValidate
$LN11@fnValidate:

; 3475 :       }
; 3476 : 
; 3477 :       *plpReturnTask = lpCurrentTask;

	mov	ecx, DWORD PTR _plpReturnTask$[ebp]
	mov	edx, DWORD PTR _lpCurrentTask$[ebp]
	mov	DWORD PTR [ecx], edx
$LN9@fnValidate:

; 3478 :    }
; 3479 : 
; 3480 :    // Get the view Object Instance for the view
; 3481 :    lpViewCsr = zGETPTR( lpView->hViewCsr );

	mov	eax, DWORD PTR _lpView$[ebp]
	mov	ecx, DWORD PTR [eax+10]
	push	ecx
	call	DWORD PTR _g_pfnGetPtr
	mov	DWORD PTR _lpViewCsr$[ebp], eax

; 3482 :    lpViewOI  = zGETPTR( lpViewCsr->hViewOI );

	mov	edx, DWORD PTR _lpViewCsr$[ebp]
	mov	eax, DWORD PTR [edx+10]
	push	eax
	call	DWORD PTR _g_pfnGetPtr
	mov	DWORD PTR _lpViewOI$[ebp], eax

; 3483 : 
; 3484 :    // Validate that the entity exists
; 3485 :    if ( (lpViewEntity = fnValidViewEntity( &lpViewEntityCsr, lpView,
; 3486 :                                            cpcEntityName, 0 )) == 0 )

	push	0
	mov	ecx, DWORD PTR _cpcEntityName$[ebp]
	push	ecx
	mov	edx, DWORD PTR _lpView$[ebp]
	push	edx
	lea	eax, DWORD PTR _lpViewEntityCsr$[ebp]
	push	eax
	call	_fnValidViewEntity@16
	mov	DWORD PTR _lpViewEntity$[ebp], eax
	cmp	DWORD PTR _lpViewEntity$[ebp], 0
	jne	SHORT $LN12@fnValidate

; 3487 :    {
; 3488 :       fnOperationReturn( iOperationID, lpCurrentTask );

	mov	ecx, DWORD PTR _lpCurrentTask$[ebp]
	push	ecx
	movzx	edx, WORD PTR _iOperationID$[ebp]
	push	edx
	call	_fnOperationReturn
	add	esp, 8

; 3489 :       return( zCALL_ERROR );

	mov	eax, -16				; fffffff0H
	jmp	$LN1@fnValidate
$LN12@fnValidate:

; 3490 :    }
; 3491 : 
; 3492 :    // Set View Entity and View Entity Cursor for caller.
; 3493 :    *ppvReturnViewEntity    = lpViewEntity;

	mov	eax, DWORD PTR _ppvReturnViewEntity$[ebp]
	mov	ecx, DWORD PTR _lpViewEntity$[ebp]
	mov	DWORD PTR [eax], ecx

; 3494 :    *ppvReturnViewEntityCsr = lpViewEntityCsr;

	mov	edx, DWORD PTR _ppvReturnViewEntityCsr$[ebp]
	mov	eax, DWORD PTR _lpViewEntityCsr$[ebp]
	mov	DWORD PTR [edx], eax

; 3495 : 
; 3496 :    // If intent is update, fail the call
; 3497 :    if ( lpView->bReadOnly && (nFlags & 1) &&

	mov	ecx, DWORD PTR _lpView$[ebp]
	mov	edx, DWORD PTR [ecx+30]
	shr	edx, 6
	and	edx, 1
	je	$LN13@fnValidate
	movsx	eax, WORD PTR _nFlags$[ebp]
	and	eax, 1
	je	$LN13@fnValidate
	mov	ecx, DWORD PTR _lpViewEntity$[ebp]
	mov	edx, DWORD PTR [ecx+235]
	shr	edx, 14					; 0000000eH
	and	edx, 1
	jne	SHORT $LN13@fnValidate

; 3498 :         lpViewEntity->bDerivedPath == FALSE )
; 3499 :    {
; 3500 :       // Special case, we will allow exclusion and inclusion of a root in a
; 3501 :       // read only view since the incremental update behavior of
; 3502 :       // excluding and including at the root level is null.
; 3503 :       if ( lpViewEntity->hParent ||

	mov	eax, DWORD PTR _lpViewEntity$[ebp]
	cmp	DWORD PTR [eax+10], 0
	jne	SHORT $LN15@fnValidate
	movsx	ecx, WORD PTR _iOperationID$[ebp]
	cmp	ecx, 105				; 00000069H
	je	SHORT $LN13@fnValidate
	movsx	edx, WORD PTR _iOperationID$[ebp]
	cmp	edx, 107				; 0000006bH
	je	SHORT $LN13@fnValidate
$LN15@fnValidate:

; 3504 :            (iOperationID != iIncludeSubobjectFromSubobject &&
; 3505 :             iOperationID != iExcludeEntity) )
; 3506 :       {
; 3507 :          if ( (nFlags & 0x8000) == 0 )

	movsx	eax, WORD PTR _nFlags$[ebp]
	and	eax, 32768				; 00008000H
	jne	SHORT $LN16@fnValidate

; 3508 :          {
; 3509 :             LPTASK lpTask = zGETPTR( lpView->hTask );

	mov	ecx, DWORD PTR _lpView$[ebp]
	mov	edx, DWORD PTR [ecx+14]
	push	edx
	call	DWORD PTR _g_pfnGetPtr
	mov	DWORD PTR _lpTask$7[ebp], eax

; 3510 :             // "KZOEE119 - Invalid View, View is Read Only"
; 3511 :             fnIssueCoreError( lpTask, lpView, 8, 119, 0, cpcEntityName, 0 );

	push	0
	mov	eax, DWORD PTR _cpcEntityName$[ebp]
	push	eax
	push	0
	push	119					; 00000077H
	push	8
	mov	ecx, DWORD PTR _lpView$[ebp]
	push	ecx
	mov	edx, DWORD PTR _lpTask$7[ebp]
	push	edx
	call	_fnIssueCoreError
	add	esp, 28					; 0000001cH

; 3512 :          }

	jmp	SHORT $LN17@fnValidate
$LN16@fnValidate:

; 3513 :          else
; 3514 :          {
; 3515 :             TraceLineS( "KZOEE119 - Invalid View, View is Read Only for Entity: ",

	mov	eax, DWORD PTR _cpcEntityName$[ebp]
	push	eax
	push	OFFSET $SG14482
	call	_TraceLineS@8
$LN17@fnValidate:

; 3516 :                         cpcEntityName );
; 3517 :          }
; 3518 : 
; 3519 :          fnOperationReturn( iOperationID, lpCurrentTask );

	mov	ecx, DWORD PTR _lpCurrentTask$[ebp]
	push	ecx
	movzx	edx, WORD PTR _iOperationID$[ebp]
	push	edx
	call	_fnOperationReturn
	add	esp, 8

; 3520 :          return( zCALL_ERROR );

	mov	eax, -16				; fffffff0H
	jmp	$LN1@fnValidate
$LN13@fnValidate:

; 3521 :       }
; 3522 :    }
; 3523 : 
; 3524 :    lpRootViewEntityCsr = zGETPTR( lpViewCsr->hRootViewEntityCsr );

	mov	eax, DWORD PTR _lpViewCsr$[ebp]
	mov	ecx, DWORD PTR [eax+18]
	push	ecx
	call	DWORD PTR _g_pfnGetPtr
	mov	DWORD PTR _lpRootViewEntityCsr$[ebp], eax

; 3525 :    // if Object instance is empty, issue an error
; 3526 :    if ( lpViewOI->hRootEntityInstance == 0 &&
; 3527 :         iOperationID != iCountEntitiesForView &&

	mov	edx, DWORD PTR _lpViewOI$[ebp]
	cmp	DWORD PTR [edx+26], 0
	jne	SHORT $LN18@fnValidate
	movsx	eax, WORD PTR _iOperationID$[ebp]
	cmp	eax, 123				; 0000007bH
	je	SHORT $LN18@fnValidate
	movsx	ecx, WORD PTR _iOperationID$[ebp]
	cmp	ecx, 121				; 00000079H
	je	SHORT $LN18@fnValidate

; 3528 :         iOperationID != iRelinkAllSubobjectsForOI )
; 3529 :    {
; 3530 :       if ( (nFlags & 0x8000) == 0 )

	movsx	edx, WORD PTR _nFlags$[ebp]
	and	edx, 32768				; 00008000H
	jne	SHORT $LN19@fnValidate

; 3531 :       {
; 3532 :          LPTASK lpTask = zGETPTR( lpView->hTask );

	mov	eax, DWORD PTR _lpView$[ebp]
	mov	ecx, DWORD PTR [eax+14]
	push	ecx
	call	DWORD PTR _g_pfnGetPtr
	mov	DWORD PTR _lpTask$6[ebp], eax

; 3533 :          //  "KZOEE253 - Entity cursor is NULL"
; 3534 :          fnIssueCoreError( lpTask, lpView, 8, 253, 0,

	push	0
	mov	edx, DWORD PTR _lpViewEntity$[ebp]
	add	edx, 14					; 0000000eH
	push	edx
	push	0
	push	253					; 000000fdH
	push	8
	mov	eax, DWORD PTR _lpView$[ebp]
	push	eax
	mov	ecx, DWORD PTR _lpTask$6[ebp]
	push	ecx
	call	_fnIssueCoreError
	add	esp, 28					; 0000001cH

; 3535 :                            lpViewEntity->szName, 0 );
; 3536 :       }

	jmp	SHORT $LN20@fnValidate
$LN19@fnValidate:

; 3537 :       else
; 3538 :       {
; 3539 :          TraceLineS( "KZOEE253 - Entity cursor is NULL for Entity: ",

	mov	edx, DWORD PTR _lpViewEntity$[ebp]
	add	edx, 14					; 0000000eH
	push	edx
	push	OFFSET $SG14486
	call	_TraceLineS@8
$LN20@fnValidate:

; 3540 :                      lpViewEntity->szName );
; 3541 :       }
; 3542 : 
; 3543 :       fnOperationReturn( iOperationID, lpCurrentTask );

	mov	eax, DWORD PTR _lpCurrentTask$[ebp]
	push	eax
	movzx	ecx, WORD PTR _iOperationID$[ebp]
	push	ecx
	call	_fnOperationReturn
	add	esp, 8

; 3544 :       return( zCALL_ERROR );

	mov	eax, -16				; fffffff0H
	jmp	$LN1@fnValidate
$LN18@fnValidate:

; 3545 :    }
; 3546 : 
; 3547 :    // If the root entity of the Object instance has been deleted,
; 3548 :    // issue an error.
; 3549 :    lpRootViewEntityInstance = zGETPTR( lpRootViewEntityCsr->hEntityInstance );

	mov	edx, DWORD PTR _lpRootViewEntityCsr$[ebp]
	mov	eax, DWORD PTR [edx+26]
	push	eax
	call	DWORD PTR _g_pfnGetPtr
	mov	DWORD PTR _lpRootViewEntityInstance$[ebp], eax

; 3550 :    if ( lpRootViewEntityInstance &&

	cmp	DWORD PTR _lpRootViewEntityInstance$[ebp], 0
	je	SHORT $LN21@fnValidate
	mov	ecx, DWORD PTR _lpRootViewEntityInstance$[ebp]
	mov	edx, DWORD PTR [ecx+6]
	shr	edx, 10					; 0000000aH
	and	edx, 1
	je	SHORT $LN21@fnValidate

; 3551 :         lpRootViewEntityInstance->u.nInd.bHidden )
; 3552 :    {
; 3553 :       if ( (nFlags & 0x8000) == 0 )

	movsx	eax, WORD PTR _nFlags$[ebp]
	and	eax, 32768				; 00008000H
	jne	SHORT $LN22@fnValidate

; 3554 :       {
; 3555 :          LPTASK lpTask = zGETPTR( lpView->hTask );

	mov	ecx, DWORD PTR _lpView$[ebp]
	mov	edx, DWORD PTR [ecx+14]
	push	edx
	call	DWORD PTR _g_pfnGetPtr
	mov	DWORD PTR _lpTask$5[ebp], eax

; 3556 :          //  "KZOEE252 - Root of view has been deleted"
; 3557 :          fnIssueCoreError( lpTask, lpView, 8, 252, 0,

	push	0
	mov	eax, DWORD PTR _lpViewEntityCsr$[ebp]
	push	eax
	call	_fnEntityNameFromCsr@4
	push	eax
	push	0
	push	252					; 000000fcH
	push	8
	mov	ecx, DWORD PTR _lpView$[ebp]
	push	ecx
	mov	edx, DWORD PTR _lpTask$5[ebp]
	push	edx
	call	_fnIssueCoreError
	add	esp, 28					; 0000001cH

; 3558 :                            fnEntityNameFromCsr( lpViewEntityCsr ), 0 );
; 3559 :       }

	jmp	SHORT $LN23@fnValidate
$LN22@fnValidate:

; 3560 :       else
; 3561 :       {
; 3562 :          TraceLineS( "KZOEE252 - Root of view has been deleted for Entity: ",

	mov	eax, DWORD PTR _lpViewEntityCsr$[ebp]
	push	eax
	call	_fnEntityNameFromCsr@4
	push	eax
	push	OFFSET $SG14490
	call	_TraceLineS@8
$LN23@fnValidate:

; 3563 :                      fnEntityNameFromCsr( lpViewEntityCsr ) );
; 3564 :       }
; 3565 : 
; 3566 :       fnOperationReturn( iOperationID, lpCurrentTask );

	mov	ecx, DWORD PTR _lpCurrentTask$[ebp]
	push	ecx
	movzx	edx, WORD PTR _iOperationID$[ebp]
	push	edx
	call	_fnOperationReturn
	add	esp, 8

; 3567 :       return( zCALL_ERROR );

	mov	eax, -16				; fffffff0H
	jmp	$LN1@fnValidate
$LN21@fnValidate:

; 3568 :    }
; 3569 : 
; 3570 :    // If this is a relink all call, skip entity instance stuff.
; 3571 :    if ( iOperationID == iRelinkAllSubobjectsForOI )

	movsx	eax, WORD PTR _iOperationID$[ebp]
	cmp	eax, 121				; 00000079H
	jne	SHORT $LN24@fnValidate

; 3572 :       return( 0 );

	xor	eax, eax
	jmp	$LN1@fnValidate
$LN24@fnValidate:

; 3573 : 
; 3574 :    // Get Entity Instance pointer.
; 3575 :    lpEntityInstance = zGETPTR( lpViewEntityCsr->hEntityInstance );

	mov	ecx, DWORD PTR _lpViewEntityCsr$[ebp]
	mov	edx, DWORD PTR [ecx+26]
	push	edx
	call	DWORD PTR _g_pfnGetPtr
	mov	DWORD PTR _lpEntityInstance$[ebp], eax

; 3576 : 
; 3577 :    if ( lpEntityInstance == UNSET_CSR )

	cmp	DWORD PTR _lpEntityInstance$[ebp], 1
	jne	SHORT $LN25@fnValidate

; 3578 :       lpEntityInstance = fnEstablishCursorForView( lpViewEntityCsr );

	mov	eax, DWORD PTR _lpViewEntityCsr$[ebp]
	push	eax
	call	_fnEstablishCursorForView
	add	esp, 4
	mov	DWORD PTR _lpEntityInstance$[ebp], eax
$LN25@fnValidate:

; 3579 : 
; 3580 :    // If this is a count of the entities, exit now.
; 3581 :    if ( iOperationID == iCountEntitiesForView )

	movsx	ecx, WORD PTR _iOperationID$[ebp]
	cmp	ecx, 123				; 0000007bH
	jne	SHORT $LN26@fnValidate

; 3582 :       return( 0 );

	xor	eax, eax
	jmp	$LN1@fnValidate
$LN26@fnValidate:

; 3583 : 
; 3584 :    // Now make sure a cursor exists for the view entity
; 3585 :    if ( lpEntityInstance == 0 )

	cmp	DWORD PTR _lpEntityInstance$[ebp], 0
	jne	SHORT $LN27@fnValidate

; 3586 :    {
; 3587 :       if ( (nFlags & 0x8000) == 0 )

	movsx	edx, WORD PTR _nFlags$[ebp]
	and	edx, 32768				; 00008000H
	jne	SHORT $LN28@fnValidate

; 3588 :       {
; 3589 :          LPTASK lpTask = zGETPTR( lpView->hTask );

	mov	eax, DWORD PTR _lpView$[ebp]
	mov	ecx, DWORD PTR [eax+14]
	push	ecx
	call	DWORD PTR _g_pfnGetPtr
	mov	DWORD PTR _lpTask$4[ebp], eax

; 3590 :          //  "KZOEE253 - Entity cursor is NULL"
; 3591 :          fnIssueCoreError( lpTask, lpView, 8, 253, 0,

	push	0
	mov	edx, DWORD PTR _lpViewEntityCsr$[ebp]
	push	edx
	call	_fnEntityNameFromCsr@4
	push	eax
	push	0
	push	253					; 000000fdH
	push	8
	mov	eax, DWORD PTR _lpView$[ebp]
	push	eax
	mov	ecx, DWORD PTR _lpTask$4[ebp]
	push	ecx
	call	_fnIssueCoreError
	add	esp, 28					; 0000001cH

; 3592 :                            fnEntityNameFromCsr( lpViewEntityCsr ), 0 );
; 3593 :       }

	jmp	SHORT $LN29@fnValidate
$LN28@fnValidate:

; 3594 :       else
; 3595 :       {
; 3596 :          TraceLineS( "KZOEE253 - Entity cursor is NULL for Entity: ",

	mov	edx, DWORD PTR _lpViewEntityCsr$[ebp]
	push	edx
	call	_fnEntityNameFromCsr@4
	push	eax
	push	OFFSET $SG14497
	call	_TraceLineS@8
$LN29@fnValidate:

; 3597 :                      fnEntityNameFromCsr( lpViewEntityCsr ) );
; 3598 :       }
; 3599 : 
; 3600 :       fnOperationReturn( iOperationID, lpCurrentTask );

	mov	eax, DWORD PTR _lpCurrentTask$[ebp]
	push	eax
	movzx	ecx, WORD PTR _iOperationID$[ebp]
	push	ecx
	call	_fnOperationReturn
	add	esp, 8

; 3601 :       return( zCALL_ERROR );

	mov	eax, -16				; fffffff0H
	jmp	$LN1@fnValidate
$LN27@fnValidate:

; 3602 :    }
; 3603 : 
; 3604 :    if ( lpEntityInstance->nTableID != iEntityInstance )

	mov	edx, DWORD PTR _lpEntityInstance$[ebp]
	movsx	eax, WORD PTR [edx]
	cmp	eax, 10024				; 00002728H
	je	SHORT $LN30@fnValidate

; 3605 :    {
; 3606 :       TraceLineX( "(DGC) View   Cursor   = ", (zLONG) lpViewCsr );

	mov	ecx, DWORD PTR _lpViewCsr$[ebp]
	push	ecx
	push	OFFSET $SG14499
	call	_TraceLineX@8

; 3607 :       TraceLineX( "(DGC) Entity Cursor   = ", (zLONG) lpViewEntityCsr );

	mov	edx, DWORD PTR _lpViewEntityCsr$[ebp]
	push	edx
	push	OFFSET $SG14500
	call	_TraceLineX@8

; 3608 :       TraceLineX( "(DGC) Entity Instance = ", (zLONG) lpEntityInstance );

	mov	eax, DWORD PTR _lpEntityInstance$[ebp]
	push	eax
	push	OFFSET $SG14501
	call	_TraceLineX@8

; 3609 :       SysMessageBox( lpView, "DGC", "Invalid Table ID for entity instance", 1 );

	push	1
	push	OFFSET $SG14502
	push	OFFSET $SG14503
	mov	ecx, DWORD PTR _lpView$[ebp]
	push	ecx
	call	_SysMessageBox@16

; 3610 :       fnOperationReturn( iOperationID, lpCurrentTask );

	mov	edx, DWORD PTR _lpCurrentTask$[ebp]
	push	edx
	movzx	eax, WORD PTR _iOperationID$[ebp]
	push	eax
	call	_fnOperationReturn
	add	esp, 8

; 3611 :       return( zCALL_ERROR );

	mov	eax, -16				; fffffff0H
	jmp	$LN1@fnValidate
$LN30@fnValidate:

; 3612 :    }
; 3613 : 
; 3614 :    if ( lpEntityInstance->u.nInd.bHidden )

	mov	ecx, DWORD PTR _lpEntityInstance$[ebp]
	mov	edx, DWORD PTR [ecx+6]
	shr	edx, 10					; 0000000aH
	and	edx, 1
	je	$LN31@fnValidate

; 3615 :    {
; 3616 :       LPTASK lpTask = zGETPTR( lpView->hTask );

	mov	eax, DWORD PTR _lpView$[ebp]
	mov	ecx, DWORD PTR [eax+14]
	push	ecx
	call	DWORD PTR _g_pfnGetPtr
	mov	DWORD PTR _lpTask$1[ebp], eax

; 3617 :       zSHORT nID;
; 3618 : 
; 3619 :       nID = 254;   // initialize error to: Entity cursor is undefined

	mov	edx, 254				; 000000feH
	mov	WORD PTR _nID$10[ebp], dx
$LN2@fnValidate:

; 3620 : 
; 3621 :       // The error in question is undefined UNLESS ALL of the
; 3622 :       // entity instances of the highest hidden parent are also hidden.
; 3623 :       while ( lpEntityInstance->hParent )

	mov	eax, DWORD PTR _lpEntityInstance$[ebp]
	cmp	DWORD PTR [eax+30], 0
	je	SHORT $LN4@fnValidate

; 3624 :       {
; 3625 :          LPENTITYINSTANCE lpParent = zGETPTR( lpEntityInstance->hParent );

	mov	ecx, DWORD PTR _lpEntityInstance$[ebp]
	mov	edx, DWORD PTR [ecx+30]
	push	edx
	call	DWORD PTR _g_pfnGetPtr
	mov	DWORD PTR _lpParent$9[ebp], eax

; 3626 : 
; 3627 :          if ( lpParent->u.nInd.bHidden == FALSE )

	mov	eax, DWORD PTR _lpParent$9[ebp]
	mov	ecx, DWORD PTR [eax+6]
	shr	ecx, 10					; 0000000aH
	and	ecx, 1
	jne	SHORT $LN33@fnValidate

; 3628 :             break;

	jmp	SHORT $LN4@fnValidate
$LN33@fnValidate:

; 3629 : 
; 3630 :          lpEntityInstance = lpParent;

	mov	edx, DWORD PTR _lpParent$9[ebp]
	mov	DWORD PTR _lpEntityInstance$[ebp], edx

; 3631 :       }

	jmp	SHORT $LN2@fnValidate
$LN4@fnValidate:

; 3632 : 
; 3633 :       while ( lpEntityInstance->hPrevTwin )

	mov	eax, DWORD PTR _lpEntityInstance$[ebp]
	cmp	DWORD PTR [eax+26], 0
	je	SHORT $LN6@fnValidate

; 3634 :          lpEntityInstance = zGETPTR( lpEntityInstance->hPrevTwin );

	mov	ecx, DWORD PTR _lpEntityInstance$[ebp]
	mov	edx, DWORD PTR [ecx+26]
	push	edx
	call	DWORD PTR _g_pfnGetPtr
	mov	DWORD PTR _lpEntityInstance$[ebp], eax
	jmp	SHORT $LN4@fnValidate
$LN6@fnValidate:

; 3635 : 
; 3636 :       while ( lpEntityInstance )

	cmp	DWORD PTR _lpEntityInstance$[ebp], 0
	je	SHORT $LN7@fnValidate

; 3637 :       {
; 3638 :          if ( lpEntityInstance->u.nInd.bHidden == FALSE )

	mov	eax, DWORD PTR _lpEntityInstance$[ebp]
	mov	ecx, DWORD PTR [eax+6]
	shr	ecx, 10					; 0000000aH
	and	ecx, 1
	jne	SHORT $LN34@fnValidate

; 3639 :             break;

	jmp	SHORT $LN7@fnValidate
$LN34@fnValidate:

; 3640 : 
; 3641 :          lpEntityInstance = zGETPTR( lpEntityInstance->hNextTwin );

	mov	edx, DWORD PTR _lpEntityInstance$[ebp]
	mov	eax, DWORD PTR [edx+22]
	push	eax
	call	DWORD PTR _g_pfnGetPtr
	mov	DWORD PTR _lpEntityInstance$[ebp], eax

; 3642 :       }

	jmp	SHORT $LN6@fnValidate
$LN7@fnValidate:

; 3643 : 
; 3644 :       // If no potentially visible entity instances were found, issue
; 3645 :       // the entity instance is NULL error.
; 3646 :       if ( (nFlags & 0x8000) == 0 )

	movsx	ecx, WORD PTR _nFlags$[ebp]
	and	ecx, 32768				; 00008000H
	jne	SHORT $LN35@fnValidate

; 3647 :       {
; 3648 :          LPTASK lpTask = zGETPTR( lpView->hTask );

	mov	edx, DWORD PTR _lpView$[ebp]
	mov	eax, DWORD PTR [edx+14]
	push	eax
	call	DWORD PTR _g_pfnGetPtr
	mov	DWORD PTR _lpTask$8[ebp], eax

; 3649 :          if ( lpEntityInstance == 0 )

	cmp	DWORD PTR _lpEntityInstance$[ebp], 0
	jne	SHORT $LN37@fnValidate

; 3650 :          {
; 3651 :             //  "KZOEE253 - Entity cursor is NULL"
; 3652 :             fnIssueCoreError( lpTask, lpView, 8, 253, 0,

	push	0
	mov	ecx, DWORD PTR _lpViewEntityCsr$[ebp]
	push	ecx
	call	_fnEntityNameFromCsr@4
	push	eax
	push	0
	push	253					; 000000fdH
	push	8
	mov	edx, DWORD PTR _lpView$[ebp]
	push	edx
	mov	eax, DWORD PTR _lpTask$8[ebp]
	push	eax
	call	_fnIssueCoreError
	add	esp, 28					; 0000001cH

; 3653 :                               fnEntityNameFromCsr( lpViewEntityCsr ), 0 );
; 3654 :          }

	jmp	SHORT $LN38@fnValidate
$LN37@fnValidate:

; 3655 :          else
; 3656 :          {
; 3657 :             //  "KZOEE254 - Entity cursor is undefined"
; 3658 :             fnIssueCoreError( lpTask, lpView, 8, 254, 0,

	push	0
	mov	ecx, DWORD PTR _lpViewEntityCsr$[ebp]
	push	ecx
	call	_fnEntityNameFromCsr@4
	push	eax
	push	0
	push	254					; 000000feH
	push	8
	mov	edx, DWORD PTR _lpView$[ebp]
	push	edx
	mov	eax, DWORD PTR _lpTask$8[ebp]
	push	eax
	call	_fnIssueCoreError
	add	esp, 28					; 0000001cH
$LN38@fnValidate:

; 3659 :                               fnEntityNameFromCsr( lpViewEntityCsr ), 0 );
; 3660 :          }
; 3661 :       }

	jmp	SHORT $LN36@fnValidate
$LN35@fnValidate:

; 3662 :       else
; 3663 :       {
; 3664 :          if ( lpEntityInstance == 0 )

	cmp	DWORD PTR _lpEntityInstance$[ebp], 0
	jne	SHORT $LN39@fnValidate

; 3665 :          {
; 3666 :             TraceLineS( "KZOEE253 - Entity cursor is NULL for Entity: ",

	mov	ecx, DWORD PTR _lpViewEntityCsr$[ebp]
	push	ecx
	call	_fnEntityNameFromCsr@4
	push	eax
	push	OFFSET $SG14514
	call	_TraceLineS@8

; 3667 :                         fnEntityNameFromCsr( lpViewEntityCsr ) );
; 3668 :          }

	jmp	SHORT $LN36@fnValidate
$LN39@fnValidate:

; 3669 :          else
; 3670 :          {
; 3671 :             TraceLineS( "KZOEE254 - Entity cursor is undefined for Entity: ",

	mov	edx, DWORD PTR _lpViewEntityCsr$[ebp]
	push	edx
	call	_fnEntityNameFromCsr@4
	push	eax
	push	OFFSET $SG14515
	call	_TraceLineS@8
$LN36@fnValidate:

; 3672 :                         fnEntityNameFromCsr( lpViewEntityCsr ) );
; 3673 :          }
; 3674 :       }
; 3675 : 
; 3676 :       fnOperationReturn( iOperationID, lpCurrentTask );

	mov	eax, DWORD PTR _lpCurrentTask$[ebp]
	push	eax
	movzx	ecx, WORD PTR _iOperationID$[ebp]
	push	ecx
	call	_fnOperationReturn
	add	esp, 8

; 3677 :       return( zCALL_ERROR );

	mov	eax, -16				; fffffff0H
	jmp	$LN1@fnValidate

; 3678 :    }

	jmp	$LN32@fnValidate
$LN31@fnValidate:

; 3679 :    else
; 3680 :    if ( lpEntityInstance->u.nInd.bPrevVersion && lpEntityInstance->hNextVsn )

	mov	edx, DWORD PTR _lpEntityInstance$[ebp]
	mov	eax, DWORD PTR [edx+6]
	shr	eax, 8
	and	eax, 1
	je	SHORT $LN32@fnValidate
	mov	ecx, DWORD PTR _lpEntityInstance$[ebp]
	cmp	DWORD PTR [ecx+34], 0
	je	SHORT $LN32@fnValidate

; 3681 :    {
; 3682 :       if ( (nFlags & 0x8000) == 0 )

	movsx	edx, WORD PTR _nFlags$[ebp]
	and	edx, 32768				; 00008000H
	jne	SHORT $LN42@fnValidate

; 3683 :       {
; 3684 :          LPTASK lpTask = zGETPTR( lpView->hTask );

	mov	eax, DWORD PTR _lpView$[ebp]
	mov	ecx, DWORD PTR [eax+14]
	push	ecx
	call	DWORD PTR _g_pfnGetPtr
	mov	DWORD PTR _lpTask$3[ebp], eax

; 3685 :          //  "KZOEE255 - Attempt to update a previous entity version"
; 3686 :          fnIssueCoreError( lpTask, lpView, 8, 255, 0,

	push	0
	mov	edx, DWORD PTR _lpViewEntityCsr$[ebp]
	push	edx
	call	_fnEntityNameFromCsr@4
	push	eax
	push	0
	push	255					; 000000ffH
	push	8
	mov	eax, DWORD PTR _lpView$[ebp]
	push	eax
	mov	ecx, DWORD PTR _lpTask$3[ebp]
	push	ecx
	call	_fnIssueCoreError
	add	esp, 28					; 0000001cH

; 3687 :                            fnEntityNameFromCsr( lpViewEntityCsr ), 0 );
; 3688 :       }

	jmp	SHORT $LN43@fnValidate
$LN42@fnValidate:

; 3689 :       else
; 3690 :       {
; 3691 :          TraceLineS( "KZOEE255 - Attempt to update a previous entity version for Entity: ",

	mov	edx, DWORD PTR _lpViewEntityCsr$[ebp]
	push	edx
	call	_fnEntityNameFromCsr@4
	push	eax
	push	OFFSET $SG14519
	call	_TraceLineS@8
$LN43@fnValidate:

; 3692 :                      fnEntityNameFromCsr( lpViewEntityCsr ) );
; 3693 :       }
; 3694 : 
; 3695 :       fnOperationReturn( iOperationID, lpCurrentTask );

	mov	eax, DWORD PTR _lpCurrentTask$[ebp]
	push	eax
	movzx	ecx, WORD PTR _iOperationID$[ebp]
	push	ecx
	call	_fnOperationReturn
	add	esp, 8

; 3696 :       return( zCALL_ERROR );

	mov	eax, -16				; fffffff0H
	jmp	SHORT $LN1@fnValidate
$LN32@fnValidate:

; 3697 :    }
; 3698 : 
; 3699 :    // Next make sure we are not processing hierarchically.
; 3700 :    if ( lpViewCsr->hHierRootEntityInstance )

	mov	edx, DWORD PTR _lpViewCsr$[ebp]
	cmp	DWORD PTR [edx+22], 0
	je	SHORT $LN44@fnValidate

; 3701 :    {
; 3702 :       if ( (nFlags & 0x8000) == 0 )

	movsx	eax, WORD PTR _nFlags$[ebp]
	and	eax, 32768				; 00008000H
	jne	SHORT $LN45@fnValidate

; 3703 :       {
; 3704 :          LPTASK lpTask = zGETPTR( lpView->hTask );

	mov	ecx, DWORD PTR _lpView$[ebp]
	mov	edx, DWORD PTR [ecx+14]
	push	edx
	call	DWORD PTR _g_pfnGetPtr
	mov	DWORD PTR _lpTask$2[ebp], eax

; 3705 :          // "KZOEE264 - Invalid Operation for Hierarchical processing"
; 3706 :          fnIssueCoreError( lpTask, lpView, 8, 264, 0,

	push	0
	mov	eax, DWORD PTR _lpViewEntityCsr$[ebp]
	push	eax
	call	_fnEntityNameFromCsr@4
	push	eax
	push	0
	push	264					; 00000108H
	push	8
	mov	ecx, DWORD PTR _lpView$[ebp]
	push	ecx
	mov	edx, DWORD PTR _lpTask$2[ebp]
	push	edx
	call	_fnIssueCoreError
	add	esp, 28					; 0000001cH

; 3707 :                            fnEntityNameFromCsr( lpViewEntityCsr ), 0 );
; 3708 :       }

	jmp	SHORT $LN46@fnValidate
$LN45@fnValidate:

; 3709 :       else
; 3710 :       {
; 3711 :          TraceLineS( "KZOEE264 - Invalid Operation for Hierarchical processing for Entity: ",

	mov	eax, DWORD PTR _lpViewEntityCsr$[ebp]
	push	eax
	call	_fnEntityNameFromCsr@4
	push	eax
	push	OFFSET $SG14523
	call	_TraceLineS@8
$LN46@fnValidate:

; 3712 :                      fnEntityNameFromCsr( lpViewEntityCsr ) );
; 3713 :       }
; 3714 : 
; 3715 :       fnOperationReturn( iOperationID, lpCurrentTask );

	mov	ecx, DWORD PTR _lpCurrentTask$[ebp]
	push	ecx
	movzx	edx, WORD PTR _iOperationID$[ebp]
	push	edx
	call	_fnOperationReturn
	add	esp, 8

; 3716 :       return( zCALL_ERROR );

	mov	eax, -16				; fffffff0H
	jmp	SHORT $LN1@fnValidate
$LN44@fnValidate:

; 3717 :    }
; 3718 : 
; 3719 :    // Everything is AOK, return.
; 3720 :    return( 0 );

	xor	eax, eax
$LN1@fnValidate:

; 3721 : }

	mov	esp, ebp
	pop	ebp
	ret	0
_fnValidateInstanceParameters ENDP
_TEXT	ENDS
; Function compile flags: /Odtp
; File c:\10c\a\oe\kzoeeiaa.c
_TEXT	SEGMENT
_lpTask$1 = -100					; size = 4
_lpTask$2 = -96						; size = 4
_lpTask$3 = -92						; size = 4
_lpRootViewEntity$4 = -88				; size = 4
_lpTask$5 = -84						; size = 4
_lpTask$6 = -80						; size = 4
_lpViewOI$ = -76					; size = 4
_lpTask$7 = -72						; size = 4
_lpTask$8 = -68						; size = 4
_lpParentViewEntity$9 = -64				; size = 4
_lpTask$10 = -60					; size = 4
_lpTask$11 = -56					; size = 4
_lpRootViewEntityCsr$ = -52				; size = 4
tv74 = -48						; size = 4
_lpLinkedParentViewEntity$12 = -44			; size = 4
_lpViewCsr$ = -40					; size = 4
_lpWrkInstance$13 = -36					; size = 4
_lpSearchViewEntity$14 = -32				; size = 4
_lpParent$15 = -28					; size = 4
_lpTwinEntityInstance$ = -24				; size = 4
_lpParentViewEntityCsr$ = -20				; size = 4
_lpLinkedEntityInstance$16 = -16			; size = 4
_lpViewRootEntityInstance$ = -12			; size = 4
_lpViewEntity$ = -8					; size = 4
_lpParentEntityInstance$ = -4				; size = 4
_pnNewRoot$ = 8						; size = 4
_iOperationID$ = 12					; size = 2
_lpView$ = 16						; size = 4
_lpViewEntityCsr$ = 20					; size = 4
_nPosition$ = 24					; size = 2
_fnValidateInsertPosition PROC

; 2625 : {

	push	ebp
	mov	ebp, esp
	sub	esp, 100				; 00000064H

; 2626 :    LPVIEWOI          lpViewOI;
; 2627 :    LPVIEWCSR         lpViewCsr;
; 2628 :    LPVIEWENTITY      lpViewEntity;
; 2629 :    LPVIEWENTITYCSR   lpParentViewEntityCsr;
; 2630 :    LPVIEWENTITYCSR   lpRootViewEntityCsr;
; 2631 :    LPENTITYINSTANCE  lpViewRootEntityInstance;
; 2632 :    LPENTITYINSTANCE  lpTwinEntityInstance;
; 2633 :    LPENTITYINSTANCE  lpParentEntityInstance;
; 2634 : 
; 2635 :    lpViewEntity = zGETPTR( lpViewEntityCsr->hViewEntity );

	mov	eax, DWORD PTR _lpViewEntityCsr$[ebp]
	mov	ecx, DWORD PTR [eax+14]
	push	ecx
	call	DWORD PTR _g_pfnGetPtr
	mov	DWORD PTR _lpViewEntity$[ebp], eax

; 2636 :    lpViewCsr    = zGETPTR( lpViewEntityCsr->hViewCsr );

	mov	edx, DWORD PTR _lpViewEntityCsr$[ebp]
	mov	eax, DWORD PTR [edx+18]
	push	eax
	call	DWORD PTR _g_pfnGetPtr
	mov	DWORD PTR _lpViewCsr$[ebp], eax

; 2637 :    lpViewOI     = zGETPTR( lpViewCsr->hViewOI );

	mov	ecx, DWORD PTR _lpViewCsr$[ebp]
	mov	edx, DWORD PTR [ecx+10]
	push	edx
	call	DWORD PTR _g_pfnGetPtr
	mov	DWORD PTR _lpViewOI$[ebp], eax

; 2638 : 
; 2639 :    // Validate the position parameter
; 2640 :    switch ( nPosition )

	movsx	eax, WORD PTR _nPosition$[ebp]
	mov	DWORD PTR tv74[ebp], eax
	cmp	DWORD PTR tv74[ebp], 0
	jle	SHORT $LN15@fnValidate
	cmp	DWORD PTR tv74[ebp], 4
	jle	SHORT $LN14@fnValidate
	jmp	SHORT $LN15@fnValidate
$LN14@fnValidate:

; 2641 :    {
; 2642 :       case zPOS_BEFORE: // 4
; 2643 :       case zPOS_AFTER:  // 3
; 2644 :       case zPOS_FIRST:  // 1
; 2645 :       case zPOS_LAST:   // 2
; 2646 :          break;

	jmp	SHORT $LN2@fnValidate
$LN15@fnValidate:

; 2647 : 
; 2648 :       default:
; 2649 :       {
; 2650 :          LPTASK lpTask = zGETPTR( lpView->hTask );

	mov	ecx, DWORD PTR _lpView$[ebp]
	mov	edx, DWORD PTR [ecx+14]
	push	edx
	call	DWORD PTR _g_pfnGetPtr
	mov	DWORD PTR _lpTask$11[ebp], eax

; 2651 :          //  "KZOEE120 - Invalid position parameter"
; 2652 :          fnIssueCoreError( lpTask, lpView, 8, 120, (zLONG) nPosition,

	push	0
	mov	eax, DWORD PTR _lpViewEntity$[ebp]
	add	eax, 14					; 0000000eH
	push	eax
	movsx	ecx, WORD PTR _nPosition$[ebp]
	push	ecx
	push	120					; 00000078H
	push	8
	mov	edx, DWORD PTR _lpView$[ebp]
	push	edx
	mov	eax, DWORD PTR _lpTask$11[ebp]
	push	eax
	call	_fnIssueCoreError
	add	esp, 28					; 0000001cH

; 2653 :                            lpViewEntity->szName, 0 );
; 2654 :          return( zCALL_ERROR );

	mov	eax, -16				; fffffff0H
	jmp	$LN1@fnValidate
$LN2@fnValidate:

; 2655 :       }
; 2656 :    }
; 2657 : 
; 2658 :    //
; 2659 :    //  Insert errors:  See comment for function above
; 2660 :    //
; 2661 : 
; 2662 :    *pnNewRoot = 0;

	xor	ecx, ecx
	mov	edx, DWORD PTR _pnNewRoot$[ebp]
	mov	WORD PTR [edx], cx

; 2663 :    lpRootViewEntityCsr = zGETPTR( lpViewCsr->hRootViewEntityCsr );

	mov	eax, DWORD PTR _lpViewCsr$[ebp]
	mov	ecx, DWORD PTR [eax+18]
	push	ecx
	call	DWORD PTR _g_pfnGetPtr
	mov	DWORD PTR _lpRootViewEntityCsr$[ebp], eax

; 2664 :    lpViewRootEntityInstance = zGETPTR( lpRootViewEntityCsr->hEntityInstance );

	mov	edx, DWORD PTR _lpRootViewEntityCsr$[ebp]
	mov	eax, DWORD PTR [edx+26]
	push	eax
	call	DWORD PTR _g_pfnGetPtr
	mov	DWORD PTR _lpViewRootEntityInstance$[ebp], eax

; 2665 : 
; 2666 :    if ( lpViewRootEntityInstance == UNSET_CSR )

	cmp	DWORD PTR _lpViewRootEntityInstance$[ebp], 1
	jne	SHORT $LN16@fnValidate

; 2667 :       lpViewRootEntityInstance = fnEstablishCursorForView( lpRootViewEntityCsr );

	mov	ecx, DWORD PTR _lpRootViewEntityCsr$[ebp]
	push	ecx
	call	_fnEstablishCursorForView
	add	esp, 4
	mov	DWORD PTR _lpViewRootEntityInstance$[ebp], eax
$LN16@fnValidate:

; 2668 : 
; 2669 :    if ( lpViewRootEntityInstance == 0 )

	cmp	DWORD PTR _lpViewRootEntityInstance$[ebp], 0
	jne	SHORT $LN17@fnValidate

; 2670 :       lpViewRootEntityInstance = zGETPTR( lpViewCsr->hViewParentEntityInstance );

	mov	edx, DWORD PTR _lpViewCsr$[ebp]
	mov	eax, DWORD PTR [edx+38]
	push	eax
	call	DWORD PTR _g_pfnGetPtr
	mov	DWORD PTR _lpViewRootEntityInstance$[ebp], eax
$LN17@fnValidate:

; 2671 : 
; 2672 :    // Gig, PATCH Attempt 1/8/93, go to parent of view root if it exists
; 2673 :    if ( lpViewRootEntityInstance && lpViewRootEntityInstance->hParent )

	cmp	DWORD PTR _lpViewRootEntityInstance$[ebp], 0
	je	SHORT $LN18@fnValidate
	mov	ecx, DWORD PTR _lpViewRootEntityInstance$[ebp]
	cmp	DWORD PTR [ecx+30], 0
	je	SHORT $LN18@fnValidate

; 2674 :       lpViewRootEntityInstance = zGETPTR( lpViewRootEntityInstance->hParent );

	mov	edx, DWORD PTR _lpViewRootEntityInstance$[ebp]
	mov	eax, DWORD PTR [edx+30]
	push	eax
	call	DWORD PTR _g_pfnGetPtr
	mov	DWORD PTR _lpViewRootEntityInstance$[ebp], eax
$LN18@fnValidate:

; 2675 :    // Gig, PATCH Attempt 1/8/93, go to parent of view root if it exists
; 2676 : 
; 2677 :    if   ( lpViewRootEntityInstance &&
; 2678 :           lpViewRootEntityInstance->u.nInd.bHidden &&

	cmp	DWORD PTR _lpViewRootEntityInstance$[ebp], 0
	je	SHORT $LN19@fnValidate
	mov	ecx, DWORD PTR _lpViewRootEntityInstance$[ebp]
	mov	edx, DWORD PTR [ecx+6]
	shr	edx, 10					; 0000000aH
	and	edx, 1
	je	SHORT $LN19@fnValidate
	mov	eax, DWORD PTR _lpViewEntity$[ebp]
	movsx	ecx, WORD PTR [eax+215]
	cmp	ecx, 1
	jle	SHORT $LN19@fnValidate

; 2679 :           lpViewEntity->nLevel > 1 )
; 2680 :    {
; 2681 :       LPTASK lpTask = zGETPTR( lpView->hTask );

	mov	edx, DWORD PTR _lpView$[ebp]
	mov	eax, DWORD PTR [edx+14]
	push	eax
	call	DWORD PTR _g_pfnGetPtr
	mov	DWORD PTR _lpTask$10[ebp], eax

; 2682 :       //  "KZOEE252 - Root of view has been deleted"
; 2683 :       fnIssueCoreError( lpTask, lpView, 8, 252, 0,

	push	0
	mov	ecx, DWORD PTR _lpViewEntity$[ebp]
	add	ecx, 14					; 0000000eH
	push	ecx
	push	0
	push	252					; 000000fcH
	push	8
	mov	edx, DWORD PTR _lpView$[ebp]
	push	edx
	mov	eax, DWORD PTR _lpTask$10[ebp]
	push	eax
	call	_fnIssueCoreError
	add	esp, 28					; 0000001cH

; 2684 :                         lpViewEntity->szName, 0 );
; 2685 :       return( zCALL_ERROR );

	mov	eax, -16				; fffffff0H
	jmp	$LN1@fnValidate
$LN19@fnValidate:

; 2686 :    }
; 2687 : 
; 2688 :    // If the cursor for the current entity instance needs to be
; 2689 :    // established, establish it now.
; 2690 :    if ( lpViewEntityCsr->hEntityInstance == UNSET_CSR )

	mov	ecx, DWORD PTR _lpViewEntityCsr$[ebp]
	cmp	DWORD PTR [ecx+26], 1
	jne	SHORT $LN20@fnValidate

; 2691 :    {
; 2692 :       fnEstablishCursorForView( lpViewEntityCsr );

	mov	edx, DWORD PTR _lpViewEntityCsr$[ebp]
	push	edx
	call	_fnEstablishCursorForView
	add	esp, 4
$LN20@fnValidate:

; 2693 :    }
; 2694 : 
; 2695 :    lpParentEntityInstance = 0;

	mov	DWORD PTR _lpParentEntityInstance$[ebp], 0

; 2696 :    lpTwinEntityInstance   = zGETPTR( lpViewEntityCsr->hEntityInstance );

	mov	eax, DWORD PTR _lpViewEntityCsr$[ebp]
	mov	ecx, DWORD PTR [eax+26]
	push	ecx
	call	DWORD PTR _g_pfnGetPtr
	mov	DWORD PTR _lpTwinEntityInstance$[ebp], eax

; 2697 : 
; 2698 :    // If the view entity has no parent OR the view cursor for the
; 2699 :    // entity is > 1 (recursive at the root level) look for a
; 2700 :    // parent entity instance.
; 2701 :    if ( lpViewEntity->hParent || lpViewEntityCsr->nLevel > 1 )

	mov	edx, DWORD PTR _lpViewEntity$[ebp]
	cmp	DWORD PTR [edx+10], 0
	jne	SHORT $LN23@fnValidate
	mov	eax, DWORD PTR _lpViewEntityCsr$[ebp]
	movsx	ecx, WORD PTR [eax+22]
	cmp	ecx, 1
	jle	$LN21@fnValidate
$LN23@fnValidate:

; 2702 :    {
; 2703 :       lpParentViewEntityCsr = zGETPTR( lpViewEntityCsr->hParent );

	mov	edx, DWORD PTR _lpViewEntityCsr$[ebp]
	mov	eax, DWORD PTR [edx+10]
	push	eax
	call	DWORD PTR _g_pfnGetPtr
	mov	DWORD PTR _lpParentViewEntityCsr$[ebp], eax

; 2704 : 
; 2705 :       // If null, we are at a subobject entity.
; 2706 :       if ( lpParentViewEntityCsr == 0 )

	cmp	DWORD PTR _lpParentViewEntityCsr$[ebp], 0
	jne	SHORT $LN24@fnValidate

; 2707 :          lpParentEntityInstance = zGETPTR( lpViewCsr->hViewParentEntityInstance );

	mov	ecx, DWORD PTR _lpViewCsr$[ebp]
	mov	edx, DWORD PTR [ecx+38]
	push	edx
	call	DWORD PTR _g_pfnGetPtr
	mov	DWORD PTR _lpParentEntityInstance$[ebp], eax
	jmp	SHORT $LN25@fnValidate
$LN24@fnValidate:

; 2708 :       else
; 2709 :       {
; 2710 :          if ( lpParentViewEntityCsr->hEntityInstance == UNSET_CSR )

	mov	eax, DWORD PTR _lpParentViewEntityCsr$[ebp]
	cmp	DWORD PTR [eax+26], 1
	jne	SHORT $LN26@fnValidate

; 2711 :             fnEstablishCursorForView( lpParentViewEntityCsr );

	mov	ecx, DWORD PTR _lpParentViewEntityCsr$[ebp]
	push	ecx
	call	_fnEstablishCursorForView
	add	esp, 4
$LN26@fnValidate:

; 2712 : 
; 2713 :          lpParentEntityInstance = zGETPTR( lpParentViewEntityCsr->hEntityInstance );

	mov	edx, DWORD PTR _lpParentViewEntityCsr$[ebp]
	mov	eax, DWORD PTR [edx+26]
	push	eax
	call	DWORD PTR _g_pfnGetPtr
	mov	DWORD PTR _lpParentEntityInstance$[ebp], eax

; 2714 : 
; 2715 :          // PATCH 7/1/93 Gig, We do not allow creation of entities which have
; 2716 :          // a parent unless the parent exists!!
; 2717 :          if ( lpParentEntityInstance == 0 )

	cmp	DWORD PTR _lpParentEntityInstance$[ebp], 0
	jne	SHORT $LN25@fnValidate

; 2718 :          {
; 2719 :             LPTASK lpTask = zGETPTR( lpView->hTask );

	mov	ecx, DWORD PTR _lpView$[ebp]
	mov	edx, DWORD PTR [ecx+14]
	push	edx
	call	DWORD PTR _g_pfnGetPtr
	mov	DWORD PTR _lpTask$8[ebp], eax

; 2720 :             LPVIEWENTITY lpParentViewEntity = zGETPTR( lpParentViewEntityCsr->hViewEntity );

	mov	eax, DWORD PTR _lpParentViewEntityCsr$[ebp]
	mov	ecx, DWORD PTR [eax+14]
	push	ecx
	call	DWORD PTR _g_pfnGetPtr
	mov	DWORD PTR _lpParentViewEntity$9[ebp], eax

; 2721 : 
; 2722 :             //  "KZOEE122 - Attempt to create an Entity without a parent"
; 2723 :             fnIssueCoreError( lpTask, lpView, 8, 122, 0,

	mov	edx, DWORD PTR _lpParentViewEntity$9[ebp]
	add	edx, 14					; 0000000eH
	push	edx
	mov	eax, DWORD PTR _lpViewEntity$[ebp]
	add	eax, 14					; 0000000eH
	push	eax
	push	0
	push	122					; 0000007aH
	push	8
	mov	ecx, DWORD PTR _lpView$[ebp]
	push	ecx
	mov	edx, DWORD PTR _lpTask$8[ebp]
	push	edx
	call	_fnIssueCoreError
	add	esp, 28					; 0000001cH

; 2724 :                               lpViewEntity->szName,
; 2725 :                               lpParentViewEntity->szName );
; 2726 :             return( zCALL_ERROR );

	mov	eax, -16				; fffffff0H
	jmp	$LN1@fnValidate
$LN25@fnValidate:

; 2727 :          }
; 2728 :       }
; 2729 : 
; 2730 :       // If the current parent cursor is on a previous version, issue
; 2731 :       // an error.
; 2732 :       if ( lpParentEntityInstance )

	cmp	DWORD PTR _lpParentEntityInstance$[ebp], 0
	je	SHORT $LN28@fnValidate

; 2733 :       {
; 2734 :          if ( lpParentEntityInstance->u.nInd.bHidden )

	mov	eax, DWORD PTR _lpParentEntityInstance$[ebp]
	mov	ecx, DWORD PTR [eax+6]
	shr	ecx, 10					; 0000000aH
	and	ecx, 1
	je	SHORT $LN28@fnValidate

; 2735 :          {
; 2736 :             LPTASK lpTask = zGETPTR( lpView->hTask );

	mov	edx, DWORD PTR _lpView$[ebp]
	mov	eax, DWORD PTR [edx+14]
	push	eax
	call	DWORD PTR _g_pfnGetPtr
	mov	DWORD PTR _lpTask$7[ebp], eax

; 2737 :             //  "KZOEE254 - Entity cursor is undefined"
; 2738 :             fnIssueCoreError( lpTask, lpView, 8, 254, 0,

	push	0
	mov	ecx, DWORD PTR _lpViewEntity$[ebp]
	add	ecx, 14					; 0000000eH
	push	ecx
	push	0
	push	254					; 000000feH
	push	8
	mov	edx, DWORD PTR _lpView$[ebp]
	push	edx
	mov	eax, DWORD PTR _lpTask$7[ebp]
	push	eax
	call	_fnIssueCoreError
	add	esp, 28					; 0000001cH

; 2739 :                               lpViewEntity->szName, 0 );
; 2740 :             return( zCALL_ERROR );   // Cursor undefined

	mov	eax, -16				; fffffff0H
	jmp	$LN1@fnValidate
$LN28@fnValidate:

; 2741 :          }
; 2742 :       }
; 2743 :    }

	jmp	SHORT $LN22@fnValidate
$LN21@fnValidate:

; 2744 :    else
; 2745 :    {
; 2746 :       lpParentViewEntityCsr  = 0;

	mov	DWORD PTR _lpParentViewEntityCsr$[ebp], 0

; 2747 :       lpParentEntityInstance = 0;

	mov	DWORD PTR _lpParentEntityInstance$[ebp], 0
$LN22@fnValidate:

; 2748 :    }
; 2749 : 
; 2750 :    // If a twin exists, make sure it is not the root of the complete
; 2751 :    // object instance and that the cursor is undefined because it is
; 2752 :    // pointing to a deleted entity or a previous version.
; 2753 :    if ( lpTwinEntityInstance ) // if a twin exists

	cmp	DWORD PTR _lpTwinEntityInstance$[ebp], 0
	je	$LN30@fnValidate

; 2754 :    {
; 2755 :       if ( lpTwinEntityInstance == lpViewRootEntityInstance &&

	mov	ecx, DWORD PTR _lpTwinEntityInstance$[ebp]
	cmp	ecx, DWORD PTR _lpViewRootEntityInstance$[ebp]
	jne	$LN32@fnValidate
	mov	edx, DWORD PTR _lpTwinEntityInstance$[ebp]
	movsx	eax, WORD PTR [edx+58]
	cmp	eax, 1
	jne	$LN32@fnValidate

; 2756 :            lpTwinEntityInstance->nLevel == 1 )
; 2757 :       {
; 2758 :          if ( lpViewOI->bMultipleRootLevels == FALSE )

	mov	ecx, DWORD PTR _lpViewOI$[ebp]
	mov	edx, DWORD PTR [ecx+36]
	and	edx, 1
	jne	$LN32@fnValidate

; 2759 :          {
; 2760 :             if ( lpTwinEntityInstance->u.nInd.bHidden &&

	mov	eax, DWORD PTR _lpTwinEntityInstance$[ebp]
	mov	ecx, DWORD PTR [eax+6]
	shr	ecx, 10					; 0000000aH
	and	ecx, 1
	je	$LN34@fnValidate
	mov	edx, DWORD PTR _lpTwinEntityInstance$[ebp]
	mov	eax, DWORD PTR [edx+6]
	shr	eax, 1
	and	eax, 1
	je	SHORT $LN34@fnValidate

; 2761 :                  lpTwinEntityInstance->u.nInd.bCreated )
; 2762 :             {
; 2763 :                LPENTITYINSTANCE  lpWrkInstance;
; 2764 : 
; 2765 :                lpWrkInstance = zGETPTR( lpTwinEntityInstance->hNextTwin );

	mov	ecx, DWORD PTR _lpTwinEntityInstance$[ebp]
	mov	edx, DWORD PTR [ecx+22]
	push	edx
	call	DWORD PTR _g_pfnGetPtr
	mov	DWORD PTR _lpWrkInstance$13[ebp], eax
$LN4@fnValidate:

; 2766 :                while ( lpWrkInstance && lpWrkInstance->u.nInd.bHidden )

	cmp	DWORD PTR _lpWrkInstance$13[ebp], 0
	je	SHORT $LN5@fnValidate
	mov	eax, DWORD PTR _lpWrkInstance$13[ebp]
	mov	ecx, DWORD PTR [eax+6]
	shr	ecx, 10					; 0000000aH
	and	ecx, 1
	je	SHORT $LN5@fnValidate

; 2767 :                   lpWrkInstance = zGETPTR( lpWrkInstance->hNextTwin );

	mov	edx, DWORD PTR _lpWrkInstance$13[ebp]
	mov	eax, DWORD PTR [edx+22]
	push	eax
	call	DWORD PTR _g_pfnGetPtr
	mov	DWORD PTR _lpWrkInstance$13[ebp], eax
	jmp	SHORT $LN4@fnValidate
$LN5@fnValidate:

; 2768 : 
; 2769 :                if ( lpWrkInstance )

	cmp	DWORD PTR _lpWrkInstance$13[ebp], 0
	je	SHORT $LN36@fnValidate

; 2770 :                {
; 2771 :                   LPTASK lpTask = zGETPTR( lpView->hTask );

	mov	ecx, DWORD PTR _lpView$[ebp]
	mov	edx, DWORD PTR [ecx+14]
	push	edx
	call	DWORD PTR _g_pfnGetPtr
	mov	DWORD PTR _lpTask$6[ebp], eax

; 2772 :                   //  "KZOEE121 - Attempt to insert twin to root of Instance"
; 2773 :                   fnIssueCoreError( lpTask, lpView, 8, 121, 0,

	push	0
	mov	eax, DWORD PTR _lpViewEntity$[ebp]
	add	eax, 14					; 0000000eH
	push	eax
	push	0
	push	121					; 00000079H
	push	8
	mov	ecx, DWORD PTR _lpView$[ebp]
	push	ecx
	mov	edx, DWORD PTR _lpTask$6[ebp]
	push	edx
	call	_fnIssueCoreError
	add	esp, 28					; 0000001cH

; 2774 :                                     lpViewEntity->szName, 0 );
; 2775 :                   return( zCALL_ERROR );

	mov	eax, -16				; fffffff0H
	jmp	$LN1@fnValidate
$LN36@fnValidate:

; 2776 :                }
; 2777 :             }

	jmp	SHORT $LN32@fnValidate
$LN34@fnValidate:

; 2778 :             else
; 2779 :             {
; 2780 :                LPTASK lpTask = zGETPTR( lpView->hTask );

	mov	eax, DWORD PTR _lpView$[ebp]
	mov	ecx, DWORD PTR [eax+14]
	push	ecx
	call	DWORD PTR _g_pfnGetPtr
	mov	DWORD PTR _lpTask$5[ebp], eax

; 2781 :                //  "KZOEE121 - Attempt to insert twin to root of Instance"
; 2782 :                fnIssueCoreError( lpTask, lpView, 8, 121, 0,

	push	0
	mov	edx, DWORD PTR _lpViewEntity$[ebp]
	add	edx, 14					; 0000000eH
	push	edx
	push	0
	push	121					; 00000079H
	push	8
	mov	eax, DWORD PTR _lpView$[ebp]
	push	eax
	mov	ecx, DWORD PTR _lpTask$5[ebp]
	push	ecx
	call	_fnIssueCoreError
	add	esp, 28					; 0000001cH

; 2783 :                                  lpViewEntity->szName, 0 );
; 2784 :                return( zCALL_ERROR );

	mov	eax, -16				; fffffff0H
	jmp	$LN1@fnValidate
$LN32@fnValidate:

; 2785 :             }
; 2786 :          }
; 2787 :       }
; 2788 :    }

	jmp	SHORT $LN31@fnValidate
$LN30@fnValidate:

; 2789 :    else   // No twin exists, see if entity has a parent
; 2790 :    if ( lpParentEntityInstance == 0 )  // Parent entity instance exists?

	cmp	DWORD PTR _lpParentEntityInstance$[ebp], 0
	jne	SHORT $LN31@fnValidate

; 2791 :    {
; 2792 :       // No parent Entity Instance, make sure this can be a root.
; 2793 :       if ( lpViewRootEntityInstance )  // Another entity instance exists

	cmp	DWORD PTR _lpViewRootEntityInstance$[ebp], 0
	je	SHORT $LN31@fnValidate

; 2794 :       {
; 2795 :          LPVIEWENTITY lpRootViewEntity;
; 2796 : 
; 2797 :          lpRootViewEntity = zGETPTR( lpViewRootEntityInstance->hViewEntity );

	mov	edx, DWORD PTR _lpViewRootEntityInstance$[ebp]
	mov	eax, DWORD PTR [edx+2]
	push	eax
	call	DWORD PTR _g_pfnGetPtr
	mov	DWORD PTR _lpRootViewEntity$4[ebp], eax

; 2798 : 
; 2799 :          // If a root exists and entity has neither a twin nor a
; 2800 :          // parent cursor, then the new entity is disjoint unless the
; 2801 :          // entity is the parent of the current root cursor.
; 2802 :          if ( zGETPTR( lpRootViewEntity->hParent ) != lpViewEntity )

	mov	ecx, DWORD PTR _lpRootViewEntity$4[ebp]
	mov	edx, DWORD PTR [ecx+10]
	push	edx
	call	DWORD PTR _g_pfnGetPtr
	cmp	eax, DWORD PTR _lpViewEntity$[ebp]
	je	SHORT $LN39@fnValidate

; 2803 :          {
; 2804 :             LPTASK lpTask = zGETPTR( lpView->hTask );

	mov	eax, DWORD PTR _lpView$[ebp]
	mov	ecx, DWORD PTR [eax+14]
	push	ecx
	call	DWORD PTR _g_pfnGetPtr
	mov	DWORD PTR _lpTask$3[ebp], eax

; 2805 :             //  "KZOEE122 - Attempt to create an Entity without a parent"
; 2806 :             fnIssueCoreError( lpTask, lpView, 8, 122, 0,

	push	0
	mov	edx, DWORD PTR _lpViewEntity$[ebp]
	add	edx, 14					; 0000000eH
	push	edx
	push	0
	push	122					; 0000007aH
	push	8
	mov	eax, DWORD PTR _lpView$[ebp]
	push	eax
	mov	ecx, DWORD PTR _lpTask$3[ebp]
	push	ecx
	call	_fnIssueCoreError
	add	esp, 28					; 0000001cH

; 2807 :                               lpViewEntity->szName, 0 );
; 2808 :             return( zCALL_ERROR );  // Entity is disjoint

	mov	eax, -16				; fffffff0H
	jmp	$LN1@fnValidate
$LN39@fnValidate:

; 2809 :          }
; 2810 : 
; 2811 :          // Otherwise, the entity is a new root, set indicator
; 2812 :          *pnNewRoot = TRUE;

	mov	edx, 1
	mov	eax, DWORD PTR _pnNewRoot$[ebp]
	mov	WORD PTR [eax], dx
$LN31@fnValidate:

; 2813 :       }
; 2814 :    }
; 2815 : 
; 2816 :    // For every linked parent entity instance, make sure the
; 2817 :    // corresponding view object does not have this target entity
; 2818 :    // as either a child or direct parent to the linked parent found.
; 2819 :    if ( iOperationID != iIncludeSubobjectFromSubobject &&
; 2820 :         iOperationID != iCreateTemporalEntity &&

	movsx	ecx, WORD PTR _iOperationID$[ebp]
	cmp	ecx, 105				; 00000069H
	je	$LN40@fnValidate
	movsx	edx, WORD PTR _iOperationID$[ebp]
	cmp	edx, 115				; 00000073H
	je	$LN40@fnValidate
	movsx	eax, WORD PTR _iOperationID$[ebp]
	cmp	eax, 101				; 00000065H
	je	$LN40@fnValidate

; 2821 :         iOperationID != iCreateEntity )
; 2822 :    {
; 2823 :       LPVIEWENTITY      lpSearchViewEntity;
; 2824 :       LPVIEWENTITY      lpLinkedParentViewEntity;
; 2825 :       LPENTITYINSTANCE  lpLinkedEntityInstance;
; 2826 : 
; 2827 :       if ( lpParentEntityInstance )

	cmp	DWORD PTR _lpParentEntityInstance$[ebp], 0
	je	SHORT $LN41@fnValidate
$LN6@fnValidate:

; 2828 :       {
; 2829 :          while ( lpParentEntityInstance->hPrevVsn )

	mov	ecx, DWORD PTR _lpParentEntityInstance$[ebp]
	cmp	DWORD PTR [ecx+38], 0
	je	SHORT $LN41@fnValidate

; 2830 :             lpParentEntityInstance = zGETPTR( lpParentEntityInstance->hPrevVsn );

	mov	edx, DWORD PTR _lpParentEntityInstance$[ebp]
	mov	eax, DWORD PTR [edx+38]
	push	eax
	call	DWORD PTR _g_pfnGetPtr
	mov	DWORD PTR _lpParentEntityInstance$[ebp], eax
	jmp	SHORT $LN6@fnValidate
$LN41@fnValidate:

; 2831 :       }
; 2832 : 
; 2833 :       if ( lpParentEntityInstance && lpParentEntityInstance->hNextLinked )

	cmp	DWORD PTR _lpParentEntityInstance$[ebp], 0
	je	$LN40@fnValidate
	mov	ecx, DWORD PTR _lpParentEntityInstance$[ebp]
	cmp	DWORD PTR [ecx+42], 0
	je	$LN40@fnValidate

; 2834 :       {
; 2835 :          lpLinkedEntityInstance = lpParentEntityInstance;

	mov	edx, DWORD PTR _lpParentEntityInstance$[ebp]
	mov	DWORD PTR _lpLinkedEntityInstance$16[ebp], edx
$LN8@fnValidate:

; 2836 :          while ( lpLinkedEntityInstance->hPrevVsn )

	mov	eax, DWORD PTR _lpLinkedEntityInstance$16[ebp]
	cmp	DWORD PTR [eax+38], 0
	je	SHORT $LN9@fnValidate

; 2837 :             lpLinkedEntityInstance = zGETPTR( lpLinkedEntityInstance->hPrevVsn );

	mov	ecx, DWORD PTR _lpLinkedEntityInstance$16[ebp]
	mov	edx, DWORD PTR [ecx+38]
	push	edx
	call	DWORD PTR _g_pfnGetPtr
	mov	DWORD PTR _lpLinkedEntityInstance$16[ebp], eax
	jmp	SHORT $LN8@fnValidate
$LN9@fnValidate:

; 2838 : 
; 2839 :          lpLinkedEntityInstance = zGETPTR( lpLinkedEntityInstance->hNextLinked );

	mov	eax, DWORD PTR _lpLinkedEntityInstance$16[ebp]
	mov	ecx, DWORD PTR [eax+42]
	push	ecx
	call	DWORD PTR _g_pfnGetPtr
	mov	DWORD PTR _lpLinkedEntityInstance$16[ebp], eax
$LN10@fnValidate:

; 2840 :          while ( lpLinkedEntityInstance != lpParentEntityInstance )

	mov	edx, DWORD PTR _lpLinkedEntityInstance$16[ebp]
	cmp	edx, DWORD PTR _lpParentEntityInstance$[ebp]
	je	$LN40@fnValidate

; 2841 :          {
; 2842 :             if ( lpLinkedEntityInstance->u.nInd.bHidden == FALSE )

	mov	eax, DWORD PTR _lpLinkedEntityInstance$16[ebp]
	mov	ecx, DWORD PTR [eax+6]
	shr	ecx, 10					; 0000000aH
	and	ecx, 1
	jne	$LN43@fnValidate

; 2843 :             {
; 2844 :                LPVIEWENTITY lpParent;
; 2845 : 
; 2846 :                lpLinkedParentViewEntity = zGETPTR( lpLinkedEntityInstance->hViewEntity );

	mov	edx, DWORD PTR _lpLinkedEntityInstance$16[ebp]
	mov	eax, DWORD PTR [edx+2]
	push	eax
	call	DWORD PTR _g_pfnGetPtr
	mov	DWORD PTR _lpLinkedParentViewEntity$12[ebp], eax

; 2847 :                lpParent = zGETPTR( lpLinkedParentViewEntity->hParent );

	mov	ecx, DWORD PTR _lpLinkedParentViewEntity$12[ebp]
	mov	edx, DWORD PTR [ecx+10]
	push	edx
	call	DWORD PTR _g_pfnGetPtr
	mov	DWORD PTR _lpParent$15[ebp], eax

; 2848 : 
; 2849 :                // Check the linked parent view entity does not have
; 2850 :                // target entity as the parent
; 2851 :                if ( lpLinkedParentViewEntity->lERRelTok ==
; 2852 :                                              lpViewEntity->lERRelTok &&
; 2853 :                      lpParent &&

	mov	eax, DWORD PTR _lpLinkedParentViewEntity$12[ebp]
	mov	ecx, DWORD PTR _lpViewEntity$[ebp]
	mov	edx, DWORD PTR [eax+199]
	cmp	edx, DWORD PTR [ecx+199]
	jne	SHORT $LN44@fnValidate
	cmp	DWORD PTR _lpParent$15[ebp], 0
	je	SHORT $LN44@fnValidate
	mov	eax, DWORD PTR _lpParent$15[ebp]
	mov	ecx, DWORD PTR _lpViewEntity$[ebp]
	mov	edx, DWORD PTR [eax+195]
	cmp	edx, DWORD PTR [ecx+199]
	jne	SHORT $LN44@fnValidate

; 2854 :                      lpParent->lEREntTok == lpViewEntity->lERRelTok )
; 2855 :                {
; 2856 :                   LPTASK lpTask = zGETPTR( lpView->hTask );

	mov	eax, DWORD PTR _lpView$[ebp]
	mov	ecx, DWORD PTR [eax+14]
	push	ecx
	call	DWORD PTR _g_pfnGetPtr
	mov	DWORD PTR _lpTask$2[ebp], eax

; 2857 :                   // "KZOEE124 - Entity parent is included in another path "
; 2858 :                   // "           containing same entity type"
; 2859 :                   lpParent = zGETPTR( lpParentEntityInstance->hViewEntity );

	mov	edx, DWORD PTR _lpParentEntityInstance$[ebp]
	mov	eax, DWORD PTR [edx+2]
	push	eax
	call	DWORD PTR _g_pfnGetPtr
	mov	DWORD PTR _lpParent$15[ebp], eax

; 2860 :                   fnIssueCoreError( lpTask, lpView, 8, 124, 0,

	mov	ecx, DWORD PTR _lpParent$15[ebp]
	add	ecx, 14					; 0000000eH
	push	ecx
	mov	edx, DWORD PTR _lpViewEntity$[ebp]
	add	edx, 14					; 0000000eH
	push	edx
	push	0
	push	124					; 0000007cH
	push	8
	mov	eax, DWORD PTR _lpView$[ebp]
	push	eax
	mov	ecx, DWORD PTR _lpTask$2[ebp]
	push	ecx
	call	_fnIssueCoreError
	add	esp, 28					; 0000001cH

; 2861 :                                     lpViewEntity->szName,
; 2862 :                                     lpParent->szName );
; 2863 :                   return( zCALL_ERROR );

	mov	eax, -16				; fffffff0H
	jmp	$LN1@fnValidate
$LN44@fnValidate:

; 2864 :                }
; 2865 : 
; 2866 :                lpSearchViewEntity = zGETPTR( lpLinkedParentViewEntity->hNextHier );

	mov	edx, DWORD PTR _lpLinkedParentViewEntity$12[ebp]
	mov	eax, DWORD PTR [edx+2]
	push	eax
	call	DWORD PTR _g_pfnGetPtr
	mov	DWORD PTR _lpSearchViewEntity$14[ebp], eax
$LN12@fnValidate:

; 2867 : 
; 2868 :                while ( lpSearchViewEntity &&

	cmp	DWORD PTR _lpSearchViewEntity$14[ebp], 0
	je	$LN43@fnValidate
	mov	ecx, DWORD PTR _lpSearchViewEntity$14[ebp]
	movsx	edx, WORD PTR [ecx+215]
	mov	eax, DWORD PTR _lpLinkedParentViewEntity$12[ebp]
	movsx	ecx, WORD PTR [eax+215]
	cmp	edx, ecx
	jle	$LN43@fnValidate

; 2869 :                        lpSearchViewEntity->nLevel >
; 2870 :                                           lpLinkedParentViewEntity->nLevel )
; 2871 :                {
; 2872 :                   if ( lpSearchViewEntity->lEREntTok ==
; 2873 :                                                    lpViewEntity->lEREntTok &&

	mov	edx, DWORD PTR _lpSearchViewEntity$14[ebp]
	mov	eax, DWORD PTR _lpViewEntity$[ebp]
	mov	ecx, DWORD PTR [edx+195]
	cmp	ecx, DWORD PTR [eax+195]
	jne	SHORT $LN45@fnValidate
	mov	edx, DWORD PTR _lpSearchViewEntity$14[ebp]
	mov	eax, DWORD PTR _lpViewEntity$[ebp]
	mov	ecx, DWORD PTR [edx+199]
	cmp	ecx, DWORD PTR [eax+199]
	jne	SHORT $LN45@fnValidate

; 2874 :                         lpSearchViewEntity->lERRelTok ==
; 2875 :                                                    lpViewEntity->lERRelTok )
; 2876 :                   {
; 2877 :                      LPTASK lpTask = zGETPTR( lpView->hTask );

	mov	edx, DWORD PTR _lpView$[ebp]
	mov	eax, DWORD PTR [edx+14]
	push	eax
	call	DWORD PTR _g_pfnGetPtr
	mov	DWORD PTR _lpTask$1[ebp], eax

; 2878 :                      // "KZOEE124 - Entity parent is included in another path "
; 2879 :                      // "           containing same entity type"
; 2880 :                      lpParent = zGETPTR( lpParentEntityInstance->hViewEntity );

	mov	ecx, DWORD PTR _lpParentEntityInstance$[ebp]
	mov	edx, DWORD PTR [ecx+2]
	push	edx
	call	DWORD PTR _g_pfnGetPtr
	mov	DWORD PTR _lpParent$15[ebp], eax

; 2881 :                      fnIssueCoreError( lpTask, lpView, 8, 124, 0,

	mov	eax, DWORD PTR _lpParent$15[ebp]
	add	eax, 14					; 0000000eH
	push	eax
	mov	ecx, DWORD PTR _lpViewEntity$[ebp]
	add	ecx, 14					; 0000000eH
	push	ecx
	push	0
	push	124					; 0000007cH
	push	8
	mov	edx, DWORD PTR _lpView$[ebp]
	push	edx
	mov	eax, DWORD PTR _lpTask$1[ebp]
	push	eax
	call	_fnIssueCoreError
	add	esp, 28					; 0000001cH

; 2882 :                                        lpViewEntity->szName,
; 2883 :                                        lpParent->szName );
; 2884 :                      return( zCALL_ERROR );

	mov	eax, -16				; fffffff0H
	jmp	SHORT $LN1@fnValidate
$LN45@fnValidate:

; 2885 :                   }
; 2886 : 
; 2887 :                   lpSearchViewEntity = zGETPTR( lpSearchViewEntity->hNextHier );

	mov	ecx, DWORD PTR _lpSearchViewEntity$14[ebp]
	mov	edx, DWORD PTR [ecx+2]
	push	edx
	call	DWORD PTR _g_pfnGetPtr
	mov	DWORD PTR _lpSearchViewEntity$14[ebp], eax

; 2888 :                }

	jmp	$LN12@fnValidate
$LN43@fnValidate:

; 2889 :             }
; 2890 : 
; 2891 :             lpLinkedEntityInstance = zGETPTR( lpLinkedEntityInstance->hNextLinked );

	mov	eax, DWORD PTR _lpLinkedEntityInstance$16[ebp]
	mov	ecx, DWORD PTR [eax+42]
	push	ecx
	call	DWORD PTR _g_pfnGetPtr
	mov	DWORD PTR _lpLinkedEntityInstance$16[ebp], eax

; 2892 :          }

	jmp	$LN10@fnValidate
$LN40@fnValidate:

; 2893 :       }
; 2894 :    }
; 2895 : 
; 2896 :    return( nPosition ); // return the nPosition value

	mov	ax, WORD PTR _nPosition$[ebp]
$LN1@fnValidate:

; 2897 : }

	mov	esp, ebp
	pop	ebp
	ret	0
_fnValidateInsertPosition ENDP
_TEXT	ENDS
; Function compile flags: /Odtp
; File c:\10c\a\oe\kzoeeiaa.c
_TEXT	SEGMENT
_lpWorkInstance2$ = -40					; size = 4
_lpViewCsr$ = -36					; size = 4
_lpWorkViewEntity$1 = -32				; size = 4
_lpRecursiveParent$ = -28				; size = 4
_lpFirstViewEntityCsr$ = -24				; size = 4
_lpViewEntity$ = -20					; size = 4
_lpRecursiveCsr$ = -16					; size = 4
_lpWorkInstance1$ = -12					; size = 4
_lpWorkCsr$ = -8					; size = 4
_bReset$ = -1						; size = 1
_lpView$ = 8						; size = 4
_lpViewEntityCsr$ = 12					; size = 4
_lpEntityInstance$ = 16					; size = 4
_fnEstablishViewForInstance PROC

; 2451 : {

	push	ebp
	mov	ebp, esp
	sub	esp, 40					; 00000028H

; 2452 :    LPVIEWCSR        lpViewCsr;
; 2453 :    LPVIEWENTITY     lpViewEntity;
; 2454 :    LPVIEWENTITYCSR  lpFirstViewEntityCsr;
; 2455 :    LPVIEWENTITYCSR  lpWorkCsr;
; 2456 :    LPVIEWENTITYCSR  lpRecursiveParent;
; 2457 :    LPVIEWENTITYCSR  lpRecursiveCsr;
; 2458 :    LPENTITYINSTANCE lpWorkInstance1;
; 2459 :    LPENTITYINSTANCE lpWorkInstance2;
; 2460 :    zBOOL            bReset = FALSE;  // initialize bReset

	mov	BYTE PTR _bReset$[ebp], 0

; 2461 : 
; 2462 :    lpViewEntity         = zGETPTR( lpEntityInstance->hViewEntity );

	mov	eax, DWORD PTR _lpEntityInstance$[ebp]
	mov	ecx, DWORD PTR [eax+2]
	push	ecx
	call	DWORD PTR _g_pfnGetPtr
	mov	DWORD PTR _lpViewEntity$[ebp], eax

; 2463 :    lpViewCsr            = zGETPTR( lpView->hViewCsr );

	mov	edx, DWORD PTR _lpView$[ebp]
	mov	eax, DWORD PTR [edx+10]
	push	eax
	call	DWORD PTR _g_pfnGetPtr
	mov	DWORD PTR _lpViewCsr$[ebp], eax

; 2464 :    lpFirstViewEntityCsr = zGETPTR( lpViewCsr->hFirstOD_EntityCsr );

	mov	ecx, DWORD PTR _lpViewCsr$[ebp]
	mov	edx, DWORD PTR [ecx+14]
	push	edx
	call	DWORD PTR _g_pfnGetPtr
	mov	DWORD PTR _lpFirstViewEntityCsr$[ebp], eax

; 2465 : 
; 2466 :    // If no entity cursor passed, establish one.
; 2467 :    lpRecursiveParent = 0;

	mov	DWORD PTR _lpRecursiveParent$[ebp], 0

; 2468 :    if ( lpViewEntityCsr == 0 )

	cmp	DWORD PTR _lpViewEntityCsr$[ebp], 0
	jne	SHORT $LN11@fnEstablis

; 2469 :    {
; 2470 :       fnResetView( lpView, 1 );

	push	1
	mov	eax, DWORD PTR _lpView$[ebp]
	push	eax
	call	_fnResetView
	add	esp, 8

; 2471 :       bReset = TRUE;

	mov	BYTE PTR _bReset$[ebp], 1

; 2472 :       lpViewEntityCsr = lpFirstViewEntityCsr;

	mov	ecx, DWORD PTR _lpFirstViewEntityCsr$[ebp]
	mov	DWORD PTR _lpViewEntityCsr$[ebp], ecx

; 2473 :       lpViewEntityCsr += (lpViewEntity->nHierNbr - 1); // + (# * sizeof( EntityCsr Structure ))

	mov	edx, DWORD PTR _lpViewEntity$[ebp]
	movsx	eax, WORD PTR [edx+217]
	sub	eax, 1
	imul	ecx, eax, 30
	add	ecx, DWORD PTR _lpViewEntityCsr$[ebp]
	mov	DWORD PTR _lpViewEntityCsr$[ebp], ecx

; 2474 :    }

	jmp	SHORT $LN12@fnEstablis
$LN11@fnEstablis:

; 2475 :    else
; 2476 :    if ( lpViewEntity != zGETPTR( lpViewEntityCsr->hViewEntity ) )

	mov	edx, DWORD PTR _lpViewEntityCsr$[ebp]
	mov	eax, DWORD PTR [edx+14]
	push	eax
	call	DWORD PTR _g_pfnGetPtr
	cmp	DWORD PTR _lpViewEntity$[ebp], eax
	je	SHORT $LN12@fnEstablis

; 2477 :    {
; 2478 :       // The view entity of the instance does not match the view entity of
; 2479 :       // the csr, this means that the view entity of the cursor MUST be
; 2480 :       // a recursive parent cursor for the entity instance in question.
; 2481 :       lpRecursiveParent = lpViewEntityCsr;

	mov	ecx, DWORD PTR _lpViewEntityCsr$[ebp]
	mov	DWORD PTR _lpRecursiveParent$[ebp], ecx

; 2482 :       lpViewEntityCsr   = lpFirstViewEntityCsr;

	mov	edx, DWORD PTR _lpFirstViewEntityCsr$[ebp]
	mov	DWORD PTR _lpViewEntityCsr$[ebp], edx

; 2483 :       lpViewEntityCsr += (lpViewEntity->nHierNbr - 1);

	mov	eax, DWORD PTR _lpViewEntity$[ebp]
	movsx	ecx, WORD PTR [eax+217]
	sub	ecx, 1
	imul	edx, ecx, 30
	add	edx, DWORD PTR _lpViewEntityCsr$[ebp]
	mov	DWORD PTR _lpViewEntityCsr$[ebp], edx
$LN12@fnEstablis:

; 2484 :    }
; 2485 : 
; 2486 :    // First, take care of the leveling problem.
; 2487 :    if ( lpViewEntityCsr->nLevel != lpEntityInstance->nLevel )

	mov	eax, DWORD PTR _lpViewEntityCsr$[ebp]
	movsx	ecx, WORD PTR [eax+22]
	mov	edx, DWORD PTR _lpEntityInstance$[ebp]
	movsx	eax, WORD PTR [edx+58]
	cmp	ecx, eax
	je	$LN14@fnEstablis

; 2488 :    {
; 2489 :       if ( bReset == FALSE )

	movzx	ecx, BYTE PTR _bReset$[ebp]
	test	ecx, ecx
	jne	SHORT $LN2@fnEstablis

; 2490 :       {
; 2491 :          fnResetView( lpView, 1 );

	push	1
	mov	edx, DWORD PTR _lpView$[ebp]
	push	edx
	call	_fnResetView
	add	esp, 8

; 2492 :          bReset = TRUE;

	mov	BYTE PTR _bReset$[ebp], 1
$LN2@fnEstablis:

; 2493 :       }
; 2494 : 
; 2495 :       while ( lpViewEntityCsr->nLevel < lpEntityInstance->nLevel )

	mov	eax, DWORD PTR _lpViewEntityCsr$[ebp]
	movsx	ecx, WORD PTR [eax+22]
	mov	edx, DWORD PTR _lpEntityInstance$[ebp]
	movsx	eax, WORD PTR [edx+58]
	cmp	ecx, eax
	jge	$LN14@fnEstablis

; 2496 :       {
; 2497 :          // Until we get a cursor whose level matches the target instance
; 2498 :          // we want to establish, we continually find the highest level
; 2499 :          // recursive child which is greater than the current entity csr
; 2500 :          // level and set subobject views down to that child.
; 2501 :          lpWorkInstance1 = lpEntityInstance;

	mov	ecx, DWORD PTR _lpEntityInstance$[ebp]
	mov	DWORD PTR _lpWorkInstance1$[ebp], ecx
$LN6@fnEstablis:

; 2502 :          for ( ; ; )
; 2503 :          {
; 2504 :             LPVIEWENTITY lpWorkViewEntity = zGETPTR( lpWorkInstance1->hViewEntity );

	mov	edx, DWORD PTR _lpWorkInstance1$[ebp]
	mov	eax, DWORD PTR [edx+2]
	push	eax
	call	DWORD PTR _g_pfnGetPtr
	mov	DWORD PTR _lpWorkViewEntity$1[ebp], eax

; 2505 : 
; 2506 :             if ( lpWorkViewEntity->bRecursive )

	mov	ecx, DWORD PTR _lpWorkViewEntity$1[ebp]
	mov	edx, DWORD PTR [ecx+235]
	shr	edx, 11					; 0000000bH
	and	edx, 1
	je	SHORT $LN16@fnEstablis

; 2507 :             {
; 2508 :                // Now find the cursor matching recursive child lpWorkInstance1
; 2509 :                lpRecursiveCsr = lpFirstViewEntityCsr;

	mov	eax, DWORD PTR _lpFirstViewEntityCsr$[ebp]
	mov	DWORD PTR _lpRecursiveCsr$[ebp], eax

; 2510 :                lpRecursiveCsr += (lpWorkViewEntity->nHierNbr - 1);

	mov	ecx, DWORD PTR _lpWorkViewEntity$1[ebp]
	movsx	edx, WORD PTR [ecx+217]
	sub	edx, 1
	imul	eax, edx, 30
	add	eax, DWORD PTR _lpRecursiveCsr$[ebp]
	mov	DWORD PTR _lpRecursiveCsr$[ebp], eax

; 2511 : 
; 2512 :                // If we get a level match on the cursor, then accept the entity
; 2513 :                // at the cursor, otherwise keep looking.
; 2514 :                if ( lpRecursiveCsr->nLevel == lpWorkInstance1->nLevel )

	mov	ecx, DWORD PTR _lpRecursiveCsr$[ebp]
	movsx	edx, WORD PTR [ecx+22]
	mov	eax, DWORD PTR _lpWorkInstance1$[ebp]
	movsx	ecx, WORD PTR [eax+58]
	cmp	edx, ecx
	jne	SHORT $LN16@fnEstablis

; 2515 :                   break;

	jmp	SHORT $LN5@fnEstablis
$LN16@fnEstablis:

; 2516 :             }
; 2517 : 
; 2518 :             lpWorkInstance1 = zGETPTR( lpWorkInstance1->hParent );

	mov	edx, DWORD PTR _lpWorkInstance1$[ebp]
	mov	eax, DWORD PTR [edx+30]
	push	eax
	call	DWORD PTR _g_pfnGetPtr
	mov	DWORD PTR _lpWorkInstance1$[ebp], eax

; 2519 :          }

	jmp	SHORT $LN6@fnEstablis
$LN5@fnEstablis:

; 2520 : 
; 2521 :          lpWorkCsr = lpRecursiveCsr;

	mov	ecx, DWORD PTR _lpRecursiveCsr$[ebp]
	mov	DWORD PTR _lpWorkCsr$[ebp], ecx

; 2522 :          lpWorkInstance2 = lpWorkInstance1;

	mov	edx, DWORD PTR _lpWorkInstance1$[ebp]
	mov	DWORD PTR _lpWorkInstance2$[ebp], edx
$LN7@fnEstablis:

; 2523 : 
; 2524 :          // Establish the cursors for the recursive child up to the
; 2525 :          // recursive parent.
; 2526 :          while ( lpWorkCsr &&

	cmp	DWORD PTR _lpWorkCsr$[ebp], 0
	je	SHORT $LN8@fnEstablis
	mov	eax, DWORD PTR _lpWorkCsr$[ebp]
	movsx	ecx, WORD PTR [eax+22]
	mov	edx, DWORD PTR _lpWorkInstance1$[ebp]
	movsx	eax, WORD PTR [edx+58]
	cmp	ecx, eax
	jne	SHORT $LN8@fnEstablis

; 2527 :                  lpWorkCsr->nLevel == lpWorkInstance1->nLevel )
; 2528 :          {
; 2529 :             lpWorkCsr->hEntityInstance = zGETHNDL( lpWorkInstance1 );

	mov	ecx, DWORD PTR _lpWorkInstance1$[ebp]
	push	ecx
	call	DWORD PTR _g_pfnGetHndl
	mov	edx, DWORD PTR _lpWorkCsr$[ebp]
	mov	DWORD PTR [edx+26], eax

; 2530 :          // if ( lpWorkCsr->hEntityInstance == UNSET_CSR )
; 2531 :          //    SysMessageBox( 0, "fnEstablishViewForInstance", "UNSET_CSR", -1 );
; 2532 : 
; 2533 :             lpWorkCsr = zGETPTR( lpWorkCsr->hParent );

	mov	eax, DWORD PTR _lpWorkCsr$[ebp]
	mov	ecx, DWORD PTR [eax+10]
	push	ecx
	call	DWORD PTR _g_pfnGetPtr
	mov	DWORD PTR _lpWorkCsr$[ebp], eax

; 2534 :             lpWorkInstance1 = zGETPTR( lpWorkInstance1->hParent );

	mov	edx, DWORD PTR _lpWorkInstance1$[ebp]
	mov	eax, DWORD PTR [edx+30]
	push	eax
	call	DWORD PTR _g_pfnGetPtr
	mov	DWORD PTR _lpWorkInstance1$[ebp], eax

; 2535 :          }

	jmp	SHORT $LN7@fnEstablis
$LN8@fnEstablis:

; 2536 : 
; 2537 :          // Now we set the view to the subobject in question and
; 2538 :          // continue until the target entity comes into view.
; 2539 :          fnSetViewToSubobject( lpView,

	mov	ecx, DWORD PTR _lpRecursiveCsr$[ebp]
	push	ecx
	mov	edx, DWORD PTR _lpWorkInstance2$[ebp]
	mov	eax, DWORD PTR [edx+2]
	push	eax
	call	DWORD PTR _g_pfnGetPtr
	push	eax
	mov	ecx, DWORD PTR _lpView$[ebp]
	push	ecx
	call	_fnSetViewToSubobject
	add	esp, 12					; 0000000cH

; 2540 :                                zGETPTR( lpWorkInstance2->hViewEntity ),
; 2541 :                                lpRecursiveCsr );
; 2542 :       }

	jmp	$LN2@fnEstablis
$LN14@fnEstablis:

; 2543 :    }
; 2544 : 
; 2545 :    // Now that we are done, establish any necessary cursors up the
; 2546 :    // parent chain.
; 2547 :    lpWorkCsr = lpViewEntityCsr;

	mov	edx, DWORD PTR _lpViewEntityCsr$[ebp]
	mov	DWORD PTR _lpWorkCsr$[ebp], edx
$LN9@fnEstablis:

; 2548 :    while ( lpWorkCsr &&

	cmp	DWORD PTR _lpWorkCsr$[ebp], 0
	je	SHORT $LN10@fnEstablis
	mov	eax, DWORD PTR _lpWorkCsr$[ebp]
	movsx	ecx, WORD PTR [eax+22]
	mov	edx, DWORD PTR _lpEntityInstance$[ebp]
	movsx	eax, WORD PTR [edx+58]
	cmp	ecx, eax
	jne	SHORT $LN10@fnEstablis

; 2549 :            lpWorkCsr->nLevel == lpEntityInstance->nLevel )
; 2550 :    {
; 2551 :       lpWorkCsr->hEntityInstance = zGETHNDL( lpEntityInstance );

	mov	ecx, DWORD PTR _lpEntityInstance$[ebp]
	push	ecx
	call	DWORD PTR _g_pfnGetHndl
	mov	edx, DWORD PTR _lpWorkCsr$[ebp]
	mov	DWORD PTR [edx+26], eax

; 2552 :    // if ( lpViewEntityCsr->hEntityInstance == UNSET_CSR )
; 2553 :    //    SysMessageBox( 0, "fnEstablishViewForInstance2", "UNSET_CSR", -1 );
; 2554 : 
; 2555 :       lpEntityInstance = zGETPTR( lpEntityInstance->hParent );

	mov	eax, DWORD PTR _lpEntityInstance$[ebp]
	mov	ecx, DWORD PTR [eax+30]
	push	ecx
	call	DWORD PTR _g_pfnGetPtr
	mov	DWORD PTR _lpEntityInstance$[ebp], eax

; 2556 :       lpWorkCsr = zGETPTR( lpWorkCsr->hParent );

	mov	edx, DWORD PTR _lpWorkCsr$[ebp]
	mov	eax, DWORD PTR [edx+10]
	push	eax
	call	DWORD PTR _g_pfnGetPtr
	mov	DWORD PTR _lpWorkCsr$[ebp], eax

; 2557 :    }

	jmp	SHORT $LN9@fnEstablis
$LN10@fnEstablis:

; 2558 : 
; 2559 :    // If the ViewEntityCsr passed was the recursive parent cursor for the
; 2560 :    // instance being positioned on, do a SetViewToSubobject to position the
; 2561 :    // instance in the recursive parent cursor and reset the lpViewEntityCsr
; 2562 :    // back to the recursive parent.
; 2563 :    if ( lpRecursiveParent )

	cmp	DWORD PTR _lpRecursiveParent$[ebp], 0
	je	SHORT $LN18@fnEstablis

; 2564 :    {
; 2565 :       fnSetViewToSubobject( lpView, zGETPTR( lpViewEntityCsr->hViewEntity ),

	mov	ecx, DWORD PTR _lpViewEntityCsr$[ebp]
	push	ecx
	mov	edx, DWORD PTR _lpViewEntityCsr$[ebp]
	mov	eax, DWORD PTR [edx+14]
	push	eax
	call	DWORD PTR _g_pfnGetPtr
	push	eax
	mov	ecx, DWORD PTR _lpView$[ebp]
	push	ecx
	call	_fnSetViewToSubobject
	add	esp, 12					; 0000000cH

; 2566 :                             lpViewEntityCsr );
; 2567 :       lpViewEntityCsr = lpRecursiveParent;

	mov	edx, DWORD PTR _lpRecursiveParent$[ebp]
	mov	DWORD PTR _lpViewEntityCsr$[ebp], edx

; 2568 :    }

	jmp	SHORT $LN19@fnEstablis
$LN18@fnEstablis:

; 2569 :    else
; 2570 :    {
; 2571 :       if ( bReset == FALSE )

	movzx	eax, BYTE PTR _bReset$[ebp]
	test	eax, eax
	jne	SHORT $LN19@fnEstablis

; 2572 :          fnResetCursorForViewChildren( lpViewEntityCsr );

	mov	ecx, DWORD PTR _lpViewEntityCsr$[ebp]
	push	ecx
	call	_fnResetCursorForViewChildren
	add	esp, 4
$LN19@fnEstablis:

; 2573 :    }
; 2574 : 
; 2575 :    // Return success.
; 2576 :    return( lpViewEntityCsr );

	mov	eax, DWORD PTR _lpViewEntityCsr$[ebp]

; 2577 : }

	mov	esp, ebp
	pop	ebp
	ret	0
_fnEstablishViewForInstance ENDP
_TEXT	ENDS
; Function compile flags: /Odtp
; File c:\10c\a\oe\kzoeeiaa.c
_TEXT	SEGMENT
_lpViewCsr$ = -28					; size = 4
_lpViewOI$ = -24					; size = 4
tv137 = -20						; size = 4
_lpEntityInstance$ = -16				; size = 4
_nHiddenCount$ = -12					; size = 2
_nRC$ = -8						; size = 2
_bInvertedFound$ = -1					; size = 1
_lpView$ = 8						; size = 4
_lpViewEntity$ = 12					; size = 4
_lpViewEntityCsr$ = 16					; size = 4
_nReposition$ = 20					; size = 2
_bMarkExcluded$ = 24					; size = 2
_fnExcludeEntity PROC

; 1773 : {

	push	ebp
	mov	ebp, esp
	sub	esp, 28					; 0000001cH

; 1774 :    LPVIEWCSR         lpViewCsr;
; 1775 :    LPVIEWOI          lpViewOI;
; 1776 :    LPENTITYINSTANCE  lpEntityInstance;
; 1777 :    zBOOL             bInvertedFound;
; 1778 :    zSHORT            nHiddenCount;
; 1779 :    zSHORT            nRC;
; 1780 : 
; 1781 : 
; 1782 :    // Exclude the entity instance by calling fnExcludeEntityInstance
; 1783 :    lpEntityInstance = zGETPTR( lpViewEntityCsr->hEntityInstance );

	mov	eax, DWORD PTR _lpViewEntityCsr$[ebp]
	mov	ecx, DWORD PTR [eax+26]
	push	ecx
	call	DWORD PTR _g_pfnGetPtr
	mov	DWORD PTR _lpEntityInstance$[ebp], eax

; 1784 :    bInvertedFound = fnExcludeEntityInstance( lpEntityInstance );

	mov	edx, DWORD PTR _lpEntityInstance$[ebp]
	push	edx
	call	_fnExcludeEntityInstance
	add	esp, 4
	mov	BYTE PTR _bInvertedFound$[ebp], al

; 1785 : 
; 1786 :    // Now that the Exclude process is complete for the instance,
; 1787 :    // call fnHideDeletedExcludedInstances for the excluded instances Parent
; 1788 :    // This is done in the case of an include because linked instances of
; 1789 :    // this entity instances parents may have been as a result of structure
; 1790 :    // inversion.
; 1791 :    nHiddenCount = 0;

	xor	eax, eax
	mov	WORD PTR _nHiddenCount$[ebp], ax

; 1792 :    if ( bInvertedFound )

	movzx	ecx, BYTE PTR _bInvertedFound$[ebp]
	test	ecx, ecx
	je	SHORT $LN4@fnExcludeE

; 1793 :       nHiddenCount = fnHideLinkedChildren( zGETPTR( lpEntityInstance->

	movzx	edx, WORD PTR _bMarkExcluded$[ebp]
	push	edx
	mov	eax, DWORD PTR _lpEntityInstance$[ebp]
	mov	ecx, DWORD PTR [eax+30]
	push	ecx
	call	DWORD PTR _g_pfnGetPtr
	push	eax
	call	_fnHideLinkedChildren
	add	esp, 8
	mov	WORD PTR _nHiddenCount$[ebp], ax
$LN4@fnExcludeE:

; 1794 :                                                                   hParent ),
; 1795 :                                            bMarkExcluded );
; 1796 :    nHiddenCount += fnHideExcludedDeletedInstances( lpEntityInstance,

	movzx	edx, WORD PTR _bMarkExcluded$[ebp]
	push	edx
	mov	eax, DWORD PTR _lpEntityInstance$[ebp]
	push	eax
	call	_fnHideExcludedDeletedInstances
	add	esp, 8
	movsx	ecx, ax
	movsx	edx, WORD PTR _nHiddenCount$[ebp]
	add	edx, ecx
	mov	WORD PTR _nHiddenCount$[ebp], dx

; 1797 :                                                    bMarkExcluded );
; 1798 : 
; 1799 :    // Update the hidden count in the View OI
; 1800 :    lpViewCsr = zGETPTR( lpView->hViewCsr );

	mov	eax, DWORD PTR _lpView$[ebp]
	mov	ecx, DWORD PTR [eax+10]
	push	ecx
	call	DWORD PTR _g_pfnGetPtr
	mov	DWORD PTR _lpViewCsr$[ebp], eax

; 1801 :    lpViewOI = zGETPTR( lpViewCsr->hViewOI );

	mov	edx, DWORD PTR _lpViewCsr$[ebp]
	mov	eax, DWORD PTR [edx+10]
	push	eax
	call	DWORD PTR _g_pfnGetPtr
	mov	DWORD PTR _lpViewOI$[ebp], eax

; 1802 :    lpViewOI->nHiddenCount += nHiddenCount;

	movsx	ecx, WORD PTR _nHiddenCount$[ebp]
	mov	edx, DWORD PTR _lpViewOI$[ebp]
	movsx	eax, WORD PTR [edx+24]
	add	eax, ecx
	mov	ecx, DWORD PTR _lpViewOI$[ebp]
	mov	WORD PTR [ecx+24], ax

; 1803 :    if ( bMarkExcluded )

	movsx	edx, WORD PTR _bMarkExcluded$[ebp]
	test	edx, edx
	je	SHORT $LN5@fnExcludeE

; 1804 : // >>> RAD54278-1 BEGIN
; 1805 :       fnSetUpdateIndicator( lpViewOI, lpEntityInstance, 0, TRUE, FALSE, FALSE );

	push	0
	push	0
	push	1
	push	0
	mov	eax, DWORD PTR _lpEntityInstance$[ebp]
	push	eax
	mov	ecx, DWORD PTR _lpViewOI$[ebp]
	push	ecx
	call	_fnSetUpdateIndicator
	add	esp, 24					; 00000018H
$LN5@fnExcludeE:

; 1806 : // >>> RAD54278-1 END
; 1807 : 
; 1808 :    // Now see if the user requested the cursor to be repositioned
; 1809 :    switch ( nReposition )

	movsx	edx, WORD PTR _nReposition$[ebp]
	mov	DWORD PTR tv137[ebp], edx
	mov	eax, DWORD PTR tv137[ebp]
	sub	eax, 1
	mov	DWORD PTR tv137[ebp], eax
	cmp	DWORD PTR tv137[ebp], 3
	ja	SHORT $LN10@fnExcludeE
	mov	ecx, DWORD PTR tv137[ebp]
	jmp	DWORD PTR $LN12@fnExcludeE[ecx*4]
$LN6@fnExcludeE:

; 1810 :    {
; 1811 :       case zREPOS_FIRST:
; 1812 :          nRC = SetCursorFirstEntity( lpView, lpViewEntity->szName, 0 );

	push	0
	mov	edx, DWORD PTR _lpViewEntity$[ebp]
	add	edx, 14					; 0000000eH
	push	edx
	mov	eax, DWORD PTR _lpView$[ebp]
	push	eax
	call	_SetCursorFirstEntity@12
	mov	WORD PTR _nRC$[ebp], ax

; 1813 :          break;

	jmp	SHORT $LN2@fnExcludeE
$LN7@fnExcludeE:

; 1814 : 
; 1815 :       case zREPOS_LAST:
; 1816 :          nRC = SetCursorLastEntity( lpView, lpViewEntity->szName, 0 );

	push	0
	mov	ecx, DWORD PTR _lpViewEntity$[ebp]
	add	ecx, 14					; 0000000eH
	push	ecx
	mov	edx, DWORD PTR _lpView$[ebp]
	push	edx
	call	_SetCursorLastEntity@12
	mov	WORD PTR _nRC$[ebp], ax

; 1817 :          break;

	jmp	SHORT $LN2@fnExcludeE
$LN8@fnExcludeE:

; 1818 : 
; 1819 :       case zREPOS_NEXT:
; 1820 :          nRC = SetCursorNextEntity( lpView, lpViewEntity->szName, 0 );

	push	0
	mov	eax, DWORD PTR _lpViewEntity$[ebp]
	add	eax, 14					; 0000000eH
	push	eax
	mov	ecx, DWORD PTR _lpView$[ebp]
	push	ecx
	call	_SetCursorNextEntity@12
	mov	WORD PTR _nRC$[ebp], ax

; 1821 :          break;

	jmp	SHORT $LN2@fnExcludeE
$LN9@fnExcludeE:

; 1822 : 
; 1823 :       case zREPOS_PREV:
; 1824 :          nRC = SetCursorPrevEntity( lpView, lpViewEntity->szName, 0 );

	push	0
	mov	edx, DWORD PTR _lpViewEntity$[ebp]
	add	edx, 14					; 0000000eH
	push	edx
	mov	eax, DWORD PTR _lpView$[ebp]
	push	eax
	call	_SetCursorPrevEntity@12
	mov	WORD PTR _nRC$[ebp], ax

; 1825 :          break;

	jmp	SHORT $LN2@fnExcludeE
$LN10@fnExcludeE:

; 1826 : 
; 1827 :       default:
; 1828 :          nRC = zCURSOR_UNDEFINED;

	mov	ecx, -2					; fffffffeH
	mov	WORD PTR _nRC$[ebp], cx
$LN2@fnExcludeE:

; 1829 :    }
; 1830 : 
; 1831 :    // Whew, I think we've done it, return to caller.
; 1832 :    return( nRC );

	mov	ax, WORD PTR _nRC$[ebp]

; 1833 : }

	mov	esp, ebp
	pop	ebp
	ret	0
	npad	3
$LN12@fnExcludeE:
	DD	$LN6@fnExcludeE
	DD	$LN7@fnExcludeE
	DD	$LN8@fnExcludeE
	DD	$LN9@fnExcludeE
_fnExcludeEntity ENDP
_TEXT	ENDS
; Function compile flags: /Odtp
; File c:\10c\a\oe\kzoeeiaa.c
_TEXT	SEGMENT
_lpViewCsr$ = -48					; size = 4
_lpTempViewEntity$1 = -44				; size = 4
tv210 = -40						; size = 4
_lpViewOI$ = -36					; size = 4
_lpStartEntityInstance$ = -32				; size = 4
_lpLinkedInstance$ = -28				; size = 4
_lpWorkInstance$ = -24					; size = 4
_lpEntityInstance$ = -20				; size = 4
_nHiddenCount$ = -16					; size = 2
_nRC$ = -12						; size = 2
_nStartLevel$ = -8					; size = 2
_nLevel$ = -4						; size = 2
_lpView$ = 8						; size = 4
_lpViewEntity$ = 12					; size = 4
_lpViewEntityCsr$ = 16					; size = 4
_nReposition$ = 20					; size = 2
_lpCurrentTask$ = 24					; size = 4
_fnDeleteEntity PROC

; 1504 : {

	push	ebp
	mov	ebp, esp
	sub	esp, 48					; 00000030H

; 1505 :    LPVIEWCSR         lpViewCsr;
; 1506 :    LPVIEWOI          lpViewOI;
; 1507 :    LPENTITYINSTANCE  lpStartEntityInstance;
; 1508 :    LPENTITYINSTANCE  lpEntityInstance;
; 1509 :    LPENTITYINSTANCE  lpLinkedInstance;
; 1510 :    LPENTITYINSTANCE  lpWorkInstance;
; 1511 :    zSHORT            nStartLevel;
; 1512 :    zSHORT            nLevel;
; 1513 :    zSHORT            nHiddenCount;
; 1514 :    zSHORT            nRC;
; 1515 : 
; 1516 :    // Get entity instance at which to start the delete.
; 1517 :    lpStartEntityInstance = zGETPTR( lpViewEntityCsr->hEntityInstance );

	mov	eax, DWORD PTR _lpViewEntityCsr$[ebp]
	mov	ecx, DWORD PTR [eax+26]
	push	ecx
	call	DWORD PTR _g_pfnGetPtr
	mov	DWORD PTR _lpStartEntityInstance$[ebp], eax

; 1518 :    lpEntityInstance = lpStartEntityInstance;

	mov	edx, DWORD PTR _lpStartEntityInstance$[ebp]
	mov	DWORD PTR _lpEntityInstance$[ebp], edx

; 1519 :    nStartLevel = lpEntityInstance->nLevel;

	mov	eax, DWORD PTR _lpEntityInstance$[ebp]
	mov	cx, WORD PTR [eax+58]
	mov	WORD PTR _nStartLevel$[ebp], cx

; 1520 : 
; 1521 :    // First, exclude the entity instance, then go through and mark
; 1522 :    // all those as deleted whose delete rules support delete.
; 1523 :    lpLinkedInstance = lpEntityInstance;

	mov	edx, DWORD PTR _lpEntityInstance$[ebp]
	mov	DWORD PTR _lpLinkedInstance$[ebp], edx
$LN4@fnDeleteEn:

; 1524 :    for ( ; ; )
; 1525 :    {
; 1526 :       LPVIEWENTITY lpTempViewEntity = zGETPTR( lpEntityInstance->hViewEntity );

	mov	eax, DWORD PTR _lpEntityInstance$[ebp]
	mov	ecx, DWORD PTR [eax+2]
	push	ecx
	call	DWORD PTR _g_pfnGetPtr
	mov	DWORD PTR _lpTempViewEntity$1[ebp], eax

; 1527 : 
; 1528 :       // If the instance in question is already hidden, skip it
; 1529 :       // and all of its descendents since it may have been excluded or
; 1530 :       // moved BEFORE the Delete was issued.
; 1531 :       if ( lpEntityInstance->u.nInd.bHidden )

	mov	edx, DWORD PTR _lpEntityInstance$[ebp]
	mov	eax, DWORD PTR [edx+6]
	shr	eax, 10					; 0000000aH
	and	eax, 1
	je	SHORT $LN14@fnDeleteEn

; 1532 :       {
; 1533 :          nLevel = lpEntityInstance->nLevel;

	mov	ecx, DWORD PTR _lpEntityInstance$[ebp]
	mov	dx, WORD PTR [ecx+58]
	mov	WORD PTR _nLevel$[ebp], dx

; 1534 :          lpEntityInstance = zGETPTR( lpEntityInstance->hNextHier );

	mov	eax, DWORD PTR _lpEntityInstance$[ebp]
	mov	ecx, DWORD PTR [eax+14]
	push	ecx
	call	DWORD PTR _g_pfnGetPtr
	mov	DWORD PTR _lpEntityInstance$[ebp], eax
$LN5@fnDeleteEn:

; 1535 :          while ( lpEntityInstance &&

	cmp	DWORD PTR _lpEntityInstance$[ebp], 0
	je	SHORT $LN6@fnDeleteEn
	mov	edx, DWORD PTR _lpEntityInstance$[ebp]
	movsx	eax, WORD PTR [edx+58]
	movsx	ecx, WORD PTR _nLevel$[ebp]
	cmp	eax, ecx
	jle	SHORT $LN6@fnDeleteEn

; 1536 :                  lpEntityInstance->nLevel > nLevel )
; 1537 :          {
; 1538 :             lpEntityInstance = zGETPTR( lpEntityInstance->hNextHier );

	mov	edx, DWORD PTR _lpEntityInstance$[ebp]
	mov	eax, DWORD PTR [edx+14]
	push	eax
	call	DWORD PTR _g_pfnGetPtr
	mov	DWORD PTR _lpEntityInstance$[ebp], eax

; 1539 :          }

	jmp	SHORT $LN5@fnDeleteEn
$LN6@fnDeleteEn:

; 1540 :       }

	jmp	$LN15@fnDeleteEn
$LN14@fnDeleteEn:

; 1541 :       else
; 1542 :       if ( lpTempViewEntity->bPDelete == FALSE &&

	mov	ecx, DWORD PTR _lpTempViewEntity$1[ebp]
	mov	edx, DWORD PTR [ecx+235]
	shr	edx, 7
	and	edx, 1
	jne	$LN16@fnDeleteEn
	mov	eax, DWORD PTR _lpEntityInstance$[ebp]
	movsx	ecx, WORD PTR [eax+58]
	movsx	edx, WORD PTR _nStartLevel$[ebp]
	cmp	ecx, edx
	jle	SHORT $LN16@fnDeleteEn

; 1543 :            lpEntityInstance->nLevel > nStartLevel )
; 1544 :       {
; 1545 :          // If we get an entity instance which cannot be deleted,
; 1546 :          // skip it and all its descendents since they were
; 1547 :          // already excluded in the beginning of this operation.
; 1548 :          nLevel = lpEntityInstance->nLevel;

	mov	eax, DWORD PTR _lpEntityInstance$[ebp]
	mov	cx, WORD PTR [eax+58]
	mov	WORD PTR _nLevel$[ebp], cx

; 1549 :          if ( lpEntityInstance->u.nInd.bHidden == FALSE )

	mov	edx, DWORD PTR _lpEntityInstance$[ebp]
	mov	eax, DWORD PTR [edx+6]
	shr	eax, 10					; 0000000aH
	and	eax, 1
	jne	SHORT $LN18@fnDeleteEn

; 1550 :             fnExcludeEntityInstance( lpEntityInstance );

	mov	ecx, DWORD PTR _lpEntityInstance$[ebp]
	push	ecx
	call	_fnExcludeEntityInstance
	add	esp, 4
$LN18@fnDeleteEn:

; 1551 : 
; 1552 :          lpEntityInstance = zGETPTR( lpEntityInstance->hNextHier );

	mov	edx, DWORD PTR _lpEntityInstance$[ebp]
	mov	eax, DWORD PTR [edx+14]
	push	eax
	call	DWORD PTR _g_pfnGetPtr
	mov	DWORD PTR _lpEntityInstance$[ebp], eax
$LN7@fnDeleteEn:

; 1553 :          while ( lpEntityInstance &&

	cmp	DWORD PTR _lpEntityInstance$[ebp], 0
	je	SHORT $LN8@fnDeleteEn
	mov	ecx, DWORD PTR _lpEntityInstance$[ebp]
	movsx	edx, WORD PTR [ecx+58]
	movsx	eax, WORD PTR _nLevel$[ebp]
	cmp	edx, eax
	jle	SHORT $LN8@fnDeleteEn

; 1554 :                  lpEntityInstance->nLevel > nLevel )
; 1555 :          {
; 1556 :             lpEntityInstance->u.nInd.bHidden = TRUE;

	mov	ecx, DWORD PTR _lpEntityInstance$[ebp]
	mov	edx, DWORD PTR [ecx+6]
	or	edx, 1024				; 00000400H
