; Listing generated by Microsoft (R) Optimizing Compiler Version 19.00.24213.1 

	TITLE	c:\10c\w\oe\KZOESYAA.c
	.686P
	.XMM
	include listing.inc
	.model	flat

INCLUDELIB MSVCRTD
INCLUDELIB OLDNAMES

PUBLIC	_g_ZeidonPageTable
PUBLIC	_g_FileMappingHandles
PUBLIC	_g_hAnchorBlock
PUBLIC	_AnchorBlock
PUBLIC	_g_bServerMode
PUBLIC	_szlReleaseCompatible
PUBLIC	_szlReleaseCurrent
PUBLIC	_szlShareSeg
PUBLIC	_g_nOE_TraceWarning
PUBLIC	_g_vRealTaskView
PUBLIC	_g_ulMaxRecordStringLth
PUBLIC	_g_vDefaultTaskView
PUBLIC	_cDirSep
PUBLIC	_g_lProcessID
PUBLIC	_szObjectEngineName
PUBLIC	_szObjectEngineDll
PUBLIC	_szObjectSuffix
PUBLIC	_szDllSuffix
PUBLIC	_lpNullP
PUBLIC	_szNullS
PUBLIC	_lNullInteger
PUBLIC	_stNullDateTime
PUBLIC	_g_ZeidonMutexTable
PUBLIC	_pHab
PUBLIC	_hModule
PUBLIC	_g_ZeidonMutexName
PUBLIC	_szlZEIDON
PUBLIC	_szlAppFile
PUBLIC	_szlDomainFile
PUBLIC	_szlSystemDomainFile
PUBLIC	_szlMessageObject
PUBLIC	_szlNewPortableHeader
PUBLIC	_szlmZeidon
PUBLIC	_szlAPPLICATION
PUBLIC	_szlOBJECT
PUBLIC	_szlENTITY
PUBLIC	_szlCHILDENTITY
PUBLIC	_szlATTRIB
PUBLIC	_szlDOMAIN
PUBLIC	_szlMODEL
PUBLIC	_szlCONTEXT
PUBLIC	_szlNLS_TABLEENTRY
PUBLIC	_szlTABLEENTRY
PUBLIC	_szlREGULAREXPRESSION
PUBLIC	_szlZEIDON_BIN
PUBLIC	_szlZEIDON_SYS
PUBLIC	_szlZEIDON_LOC
PUBLIC	_szlZEIDON_SHR
PUBLIC	_szlAPP_NAME
PUBLIC	_szlAPP_DFLT_Dialog
PUBLIC	_szlAPP_DLL
PUBLIC	_szlAPP_ADOBIN
PUBLIC	_g_wOENG_Message
PUBLIC	_g_wClientMessage
PUBLIC	_szlAPP_LOCAL
PUBLIC	_szlAPP_SHARED
PUBLIC	_g_bWin95
PUBLIC	_g_ZeidonMutexLockCnt
PUBLIC	_szlAPP_QLPLR
PUBLIC	_szlAPP_QXODS
PUBLIC	_szlAPP_SOURCE
PUBLIC	_szlAPDM_TOK
PUBLIC	_szlATTRIBUTETYPE
PUBLIC	_szlATTRIBUTEDECIMAL
PUBLIC	_szlAUTOCREATE
PUBLIC	_szlAUTOLOADFROMPARENT
PUBLIC	_szlAUTO_SEQ
PUBLIC	_g_hInstance
PUBLIC	_szlXVAATT_TOK
PUBLIC	_g_bProcessRegistered
PUBLIC	_szlNT_ThreadClassName
PUBLIC	_szlCARDMAX
PUBLIC	_g_lProcessIdx
PUBLIC	_szlCARDMIN
PUBLIC	_szlCASESENS
PUBLIC	_szlCONTEXTRESTRICTION
PUBLIC	_szlCREATE
PUBLIC	_szlCR_DATE
PUBLIC	_szlDATAFIELD
PUBLIC	_szlDATARECORD
PUBLIC	_szlDATATYPE
PUBLIC	_szlDBNAME
PUBLIC	_szlDECIMAL
PUBLIC	_szlDECIMALFORMAT
PUBLIC	_szlDELETE
PUBLIC	_szlDERIVED
PUBLIC	_szlDERIVEDF
PUBLIC	_szlDFT_DBNAME
PUBLIC	_szlDFT_SERVER
PUBLIC	_szlDLL_NAME
PUBLIC	_szlDOMAINTYPE
PUBLIC	_szlDUPENTIN
PUBLIC	_szlDUPRELIN
PUBLIC	_szlECACC
PUBLIC	_szlECCAN
PUBLIC	_szlECCR
PUBLIC	_szlECDEL
PUBLIC	_szlECEOPER
PUBLIC	_szlECEXC
PUBLIC	_szlECINC
PUBLIC	_szlEDITSTRING
PUBLIC	_szlERATT_TOK
PUBLIC	_szlEntityName
PUBLIC	_szlEntitySpec
PUBLIC	_szlERENT_TOK
PUBLIC	_szlERREL_LINK
PUBLIC	_szlERREL_TOK
PUBLIC	_szlEXCLUDE
PUBLIC	_szlEXTERNALVALUE
PUBLIC	_szlFLDID
PUBLIC	_szlFLDLTH
PUBLIC	_szlFLDNAME
PUBLIC	_szlFLDOFFSET
PUBLIC	_szlFLDTYPE
PUBLIC	_szlFULLPERSIST
PUBLIC	_szlGENKEY
PUBLIC	_szlGKHANDLER
PUBLIC	_szlHANDLER
PUBLIC	_szlHIDDEN
PUBLIC	_szlId
PUBLIC	_szlINCLSRC
PUBLIC	_szlINCLUDE
PUBLIC	_szlINCRLOAD
PUBLIC	_szlINIT
PUBLIC	_szlINTERNALVALUE
PUBLIC	_szlISDEFAULT
PUBLIC	_szlKEY
PUBLIC	_szlLanguageIndex
PUBLIC	_szlLNAME
PUBLIC	_szlLOCK
PUBLIC	_szlLTH
PUBLIC	_szlMAXSTRINGLTH
PUBLIC	_szlMR_LIMIT
PUBLIC	_szl__MSGQ
PUBLIC	_szlNAME
PUBLIC	_szlNETCOMPRESS
PUBLIC	_szlNETWORK
PUBLIC	_szlNumAtts
PUBLIC	_szlNumEnts
PUBLIC	_szlNumRels
PUBLIC	_szlOCACT
PUBLIC	_szlOCACTE
PUBLIC	_szlOCCOM
PUBLIC	_szlOCDROP
PUBLIC	_szlOCEOPER
PUBLIC	_szlOFRECID
PUBLIC	_szlOFBUFSZ
PUBLIC	_szlOPER_LIBNM
PUBLIC	_szlOper
PUBLIC	_szlOWNER_MEMB
PUBLIC	_szlPDELETE
PUBLIC	_szlPERSIST
PUBLIC	_szlPNAME
PUBLIC	_szlQualAttrib
PUBLIC	_szlRECID
PUBLIC	_szlRECNAME
PUBLIC	_szlRECURSIVE
PUBLIC	_szlREL
PUBLIC	_szlRELFIELD
PUBLIC	_szlRELRECORD
PUBLIC	_szlRELXVAATT_TOK
PUBLIC	_szlREQUIRED
PUBLIC	_szlRESTRICTED
PUBLIC	_szlSERVER
PUBLIC	_szlSEQUENCING
PUBLIC	_szlSEQ_AD
PUBLIC	_szlSETID1
PUBLIC	_szlSETID2
PUBLIC	_szlSETNAME1
PUBLIC	_szlSETNAME2
PUBLIC	_szlSRCXVAATT_TOK
PUBLIC	_szlTask
PUBLIC	_szlText
PUBLIC	_szlTYPE
PUBLIC	_szlUP_DATE
PUBLIC	_szlUSERID
PUBLIC	_szlUPDATE
PUBLIC	_szlZKEY
PUBLIC	_szlApplicationLogicError
PUBLIC	_szlDataValidationError
PUBLIC	_szlOE_SystemError
PUBLIC	_szlAFTER
PUBLIC	_szlBEFORE
PUBLIC	_g_pchMQI
PUBLIC	_szGAFANullS
PUBLIC	_g_pchMon
PUBLIC	_g_pchDOW
PUBLIC	_szlINTL
PUBLIC	_szlICOUNTRY
PUBLIC	_szlSCOUNTRY
PUBLIC	_szlSLANGUAGE
PUBLIC	_szlSLIST
PUBLIC	_szlIMEASURE
PUBLIC	_szlITIME
PUBLIC	_szlSTIME
PUBLIC	_szlS1159
PUBLIC	_szlS2359
PUBLIC	_szlITLZERO
PUBLIC	_szlSSHORTDATE
PUBLIC	_szlSLONGDATE
PUBLIC	_szlSCURRENCY
PUBLIC	_szlICURRENCY
PUBLIC	_szlICURRDIGITS
PUBLIC	_szlINEGCURR
PUBLIC	_szlSTHOUSAND
PUBLIC	_szlSDECIMAL
PUBLIC	_szlIDIGITS
PUBLIC	_szlILZERO
_BSS	SEGMENT
$SG100441 DB	01H DUP (?)
	ALIGN	4

$SG93341 DB	01H DUP (?)
	ALIGN	4

$SG100683 DB	01H DUP (?)
	ALIGN	4

$SG93527 DB	01H DUP (?)
	ALIGN	4

$SG100728 DB	01H DUP (?)
	ALIGN	4

$SG98710 DB	01H DUP (?)
	ALIGN	4

$SG100770 DB	01H DUP (?)
	ALIGN	4

$SG100787 DB	01H DUP (?)
	ALIGN	4

$SG98792 DB	01H DUP (?)
	ALIGN	4

$SG100841 DB	01H DUP (?)
	ALIGN	4

$SG99842 DB	01H DUP (?)
	ALIGN	4

_g_ZeidonPageTable DD 0100H DUP (?)
_g_FileMappingHandles DD 0100H DUP (?)
_BSS	ENDS
_DATA	SEGMENT
COMM	_g_pfnGetPtr:DWORD
COMM	_g_pfnGetHndl:DWORD
_DATA	ENDS
_BSS	SEGMENT
_g_hAnchorBlock DD 01H DUP (?)
_AnchorBlock DD	01H DUP (?)
_g_bServerMode DB 01H DUP (?)
	ALIGN	4

_g_nOE_TraceWarning DW 01H DUP (?)
	ALIGN	4

_g_vRealTaskView DD 01H DUP (?)
_g_vDefaultTaskView DD 01H DUP (?)
_g_lProcessID DD 01H DUP (?)
_lpNullP DD	01H DUP (?)
$SG92782 DB	09H DUP (?)
	ALIGN	4

_g_ZeidonMutexTable DD 010H DUP (?)
_pHab	DD	01H DUP (?)
_hModule DD	01H DUP (?)
_g_wOENG_Message DD 01H DUP (?)
_g_wClientMessage DD 01H DUP (?)
_g_ZeidonMutexLockCnt DD 010H DUP (?)
_BSS	ENDS
_DATA	SEGMENT
COMM	_g_ZeidonCritTable:BYTE:0180H
COMM	_g_csSysLoadLibrary:BYTE:018H
COMM	_g_csReuseEntity:BYTE:018H
_DATA	ENDS
_BSS	SEGMENT
$SG98993 DB	01H DUP (?)
	ALIGN	4

$SG98997 DB	01H DUP (?)
	ALIGN	4

_g_hInstance DD	01H DUP (?)
_BSS	ENDS
_DATA	SEGMENT
COMM	_g_hThreadInfo:DWORD
_DATA	ENDS
_BSS	SEGMENT
_g_bProcessRegistered DB 01H DUP (?)
_BSS	ENDS
_DATA	SEGMENT
COMM	_g_lCurrentProcessID:DWORD
_DATA	ENDS
_BSS	SEGMENT
	ALIGN	4

$SG98129 DB	01H DUP (?)
	ALIGN	4

$SG98136 DB	01H DUP (?)
	ALIGN	4

?szLastDateTime@?2??SysMessageList@@9@9 DB 014H DUP (?)	; `SysMessageList'::`3'::szLastDateTime
$SG98158 DB	01H DUP (?)
	ALIGN	4

$SG100220 DB	01H DUP (?)
	ALIGN	4

$SG100222 DB	01H DUP (?)
	ALIGN	4

$SG100224 DB	01H DUP (?)
	ALIGN	4

$SG98177 DB	01H DUP (?)
	ALIGN	4

$SG100226 DB	01H DUP (?)
	ALIGN	4

$SG100231 DB	01H DUP (?)
	ALIGN	4

$SG100235 DB	01H DUP (?)
	ALIGN	4

$SG93092 DB	09H DUP (?)
_BSS	ENDS
_DATA	SEGMENT
COMM	_g_lTable:DWORD:0aH
_DATA	ENDS
CONST	SEGMENT
_OperationMsgTable DW 0aH
	DD	FLAT:$SG93343
	DW	0bH
	DD	FLAT:$SG93344
	DW	0cH
	DD	FLAT:$SG93345
	DW	0dH
	DD	FLAT:$SG93346
	DW	014H
	DD	FLAT:$SG93347
	DW	015H
	DD	FLAT:$SG93348
	DW	018H
	DD	FLAT:$SG93349
	DW	0d7H
	DD	FLAT:$SG93350
	DW	0d8H
	DD	FLAT:$SG93351
	DW	032H
	DD	FLAT:$SG93352
	DW	034H
	DD	FLAT:$SG93353
	DW	036H
	DD	FLAT:$SG93354
	DW	0227H
	DD	FLAT:$SG93355
	DW	0228H
	DD	FLAT:$SG93356
	DW	037H
	DD	FLAT:$SG93357
	DW	03cH
	DD	FLAT:$SG93358
	DW	03eH
	DD	FLAT:$SG93359
	DW	03fH
	DD	FLAT:$SG93360
	DW	040H
	DD	FLAT:$SG93361
	DW	03dH
	DD	FLAT:$SG93362
	DW	046H
	DD	FLAT:$SG93363
	DW	064H
	DD	FLAT:$SG93364
	DW	0196H
	DD	FLAT:$SG93365
	DW	065H
	DD	FLAT:$SG93366
	DW	06cH
	DD	FLAT:$SG93367
	DW	073H
	DD	FLAT:$SG93368
	DW	066H
	DD	FLAT:$SG93369
	DW	067H
	DD	FLAT:$SG93370
	DW	07fH
	DD	FLAT:$SG93371
	DW	068H
	DD	FLAT:$SG93372
	DW	080H
	DD	FLAT:$SG93373
	DW	069H
	DD	FLAT:$SG93374
	DW	085H
	DD	FLAT:$SG93375
	DW	086H
	DD	FLAT:$SG93376
	DW	06aH
	DD	FLAT:$SG93377
	DW	06bH
	DD	FLAT:$SG93378
	DW	07eH
	DD	FLAT:$SG93379
	DW	06eH
	DD	FLAT:$SG93380
	DW	096H
	DD	FLAT:$SG93381
	DW	097H
	DD	FLAT:$SG93382
	DW	098H
	DD	FLAT:$SG93383
	DW	099H
	DD	FLAT:$SG93384
	DW	0aaH
	DD	FLAT:$SG93385
	DW	0abH
	DD	FLAT:$SG93386
	DW	0acH
	DD	FLAT:$SG93387
	DW	0adH
	DD	FLAT:$SG93388
	DW	0aeH
	DD	FLAT:$SG93389
	DW	0afH
	DD	FLAT:$SG93390
	DW	0b0H
	DD	FLAT:$SG93391
	DW	0b1H
	DD	FLAT:$SG93392
	DW	0b2H
	DD	FLAT:$SG93393
	DW	0b3H
	DD	FLAT:$SG93394
	DW	0b4H
	DD	FLAT:$SG93395
	DW	0b5H
	DD	FLAT:$SG93396
	DW	0b6H
	DD	FLAT:$SG93397
	DW	0b7H
	DD	FLAT:$SG93398
	DW	0beH
	DD	FLAT:$SG93399
	DW	0bfH
	DD	FLAT:$SG93400
	DW	0c0H
	DD	FLAT:$SG93401
	DW	0c8H
	DD	FLAT:$SG93402
	DW	0c9H
	DD	FLAT:$SG93403
	DW	0caH
	DD	FLAT:$SG93404
	DW	0cbH
	DD	FLAT:$SG93405
	DW	0ccH
	DD	FLAT:$SG93406
	DW	0cdH
	DD	FLAT:$SG93407
	DW	0ceH
	DD	FLAT:$SG93408
	DW	0cfH
	DD	FLAT:$SG93409
	DW	0d0H
	DD	FLAT:$SG93410
	DW	0d1H
	DD	FLAT:$SG93411
	DW	0d2H
	DD	FLAT:$SG93412
	DW	0d5H
	DD	FLAT:$SG93413
	DW	0d6H
	DD	FLAT:$SG93414
	DW	0d3H
	DD	FLAT:$SG93415
	DW	0d4H
	DD	FLAT:$SG93416
	DW	0d9H
	DD	FLAT:$SG93417
	DW	0deH
	DD	FLAT:$SG93418
	DW	0e0H
	DD	FLAT:$SG93419
	DW	0dfH
	DD	FLAT:$SG93420
	DW	0feH
	DD	FLAT:$SG93421
	DW	0ffH
	DD	FLAT:$SG93422
	DW	0faH
	DD	FLAT:$SG93423
	DW	0fbH
	DD	FLAT:$SG93424
	DW	0fcH
	DD	FLAT:$SG93425
	DW	0fdH
	DD	FLAT:$SG93426
	DW	0102H
	DD	FLAT:$SG93427
	DW	0103H
	DD	FLAT:$SG93428
	DW	0117H
	DD	FLAT:$SG93429
	DW	0104H
	DD	FLAT:$SG93430
	DW	0105H
	DD	FLAT:$SG93431
	DW	0106H
	DD	FLAT:$SG93432
	DW	0107H
	DD	FLAT:$SG93433
	DW	0108H
	DD	FLAT:$SG93434
	DW	0109H
	DD	FLAT:$SG93435
	DW	0115H
	DD	FLAT:$SG93436
	DW	011aH
	DD	FLAT:$SG93437
	DW	011bH
	DD	FLAT:$SG93438
	DW	0114H
	DD	FLAT:$SG93439
	DW	0124H
	DD	FLAT:$SG93440
	DW	0123H
	DD	FLAT:$SG93441
	DW	010aH
	DD	FLAT:$SG93442
	DW	010bH
	DD	FLAT:$SG93443
	DW	010cH
	DD	FLAT:$SG93444
	DW	011dH
	DD	FLAT:$SG93445
	DW	010eH
	DD	FLAT:$SG93446
	DW	010fH
	DD	FLAT:$SG93447
	DW	0110H
	DD	FLAT:$SG93448
	DW	0111H
	DD	FLAT:$SG93449
	DW	0116H
	DD	FLAT:$SG93450
	DW	0112H
	DD	FLAT:$SG93451
	DW	0113H
	DD	FLAT:$SG93452
	DW	0118H
	DD	FLAT:$SG93453
	DW	0119H
	DD	FLAT:$SG93454
	DW	0190H
	DD	FLAT:$SG93455
	DW	0191H
	DD	FLAT:$SG93456
	DW	0192H
	DD	FLAT:$SG93457
	DW	011cH
	DD	FLAT:$SG93458
	DW	012aH
	DD	FLAT:$SG93459
	DW	012aH
	DD	FLAT:$SG93460
	DW	015eH
	DD	FLAT:$SG93461
	DW	015fH
	DD	FLAT:$SG93462
	DW	0160H
	DD	FLAT:$SG93463
	DW	081H
	DD	FLAT:$SG93464
	DW	070H
	DD	FLAT:$SG93465
	DW	071H
	DD	FLAT:$SG93466
	DW	072H
	DD	FLAT:$SG93467
	DW	074H
	DD	FLAT:$SG93468
	DW	079H
	DD	FLAT:$SG93469
	DW	075H
	DD	FLAT:$SG93470
	DW	076H
	DD	FLAT:$SG93471
	DW	082H
	DD	FLAT:$SG93472
	DW	011eH
	DD	FLAT:$SG93473
	DW	011fH
	DD	FLAT:$SG93474
	DW	0120H
	DD	FLAT:$SG93475
	DW	0b8H
	DD	FLAT:$SG93476
	DW	0122H
	DD	FLAT:$SG93477
	DW	01c2H
	DD	FLAT:$SG93478
	DW	0193H
	DD	FLAT:$SG93479
	DW	0194H
	DD	FLAT:$SG93480
	DW	0baH
	DD	FLAT:$SG93481
	DW	0c1H
	DD	FLAT:$SG93482
	DW	0bbH
	DD	FLAT:$SG93483
	DW	07aH
	DD	FLAT:$SG93484
	DW	07bH
	DD	FLAT:$SG93485
	DW	07dH
	DD	FLAT:$SG93486
	DW	07cH
	DD	FLAT:$SG93487
	DW	01c5H
	DD	FLAT:$SG93488
	DW	0168H
	DD	FLAT:$SG93489
	DW	0169H
	DD	FLAT:$SG93490
	DW	016aH
	DD	FLAT:$SG93491
	DW	016bH
	DD	FLAT:$SG93492
	DW	01c6H
	DD	FLAT:$SG93493
	DW	01c4H
	DD	FLAT:$SG93494
	DW	01c3H
	DD	FLAT:$SG93495
	DW	01c7H
	DD	FLAT:$SG93496
	DW	01c8H
	DD	FLAT:$SG93497
	DW	01caH
	DD	FLAT:$SG93498
	DW	0172H
	DD	FLAT:$SG93499
	DW	0125H
	DD	FLAT:$SG93500
	DW	01cbH
	DD	FLAT:$SG93501
	DW	01f4H
	DD	FLAT:$SG93502
	DW	01f6H
	DD	FLAT:$SG93503
	DW	01f5H
	DD	FLAT:$SG93504
	DW	01f7H
	DD	FLAT:$SG93505
	DW	01f8H
	DD	FLAT:$SG93506
	DW	01fdH
	DD	FLAT:$SG93507
	DW	01faH
	DD	FLAT:$SG93508
	DW	01fbH
	DD	FLAT:$SG93509
	DW	01fcH
	DD	FLAT:$SG93510
	DW	01f9H
	DD	FLAT:$SG93511
	DW	01feH
	DD	FLAT:$SG93512
	DW	01ffH
	DD	FLAT:$SG93513
	DW	0200H
	DD	FLAT:$SG93514
	DW	0201H
	DD	FLAT:$SG93515
	DW	0202H
	DD	FLAT:$SG93516
	DW	0203H
	DD	FLAT:$SG93517
	DW	077H
	DD	FLAT:$SG93518
	DW	078H
	DD	FLAT:$SG93519
	DW	0128H
	DD	FLAT:$SG93520
	DW	0129H
	DD	FLAT:$SG93521
	DW	01cH
	DD	FLAT:$SG93522
	DW	041H
	DD	FLAT:$SG93523
	DW	0226H
	DD	FLAT:$SG93524
	DW	0229H
	DD	FLAT:$SG93525
	DW	022aH
	DD	FLAT:$SG93526
	DW	0270fH
	DD	FLAT:$SG93527
	ORG $+2
_BaseMsgTable DW 01H
	DD	FLAT:$SG93161
	DW	02H
	DD	FLAT:$SG93162
	DW	03H
	DD	FLAT:$SG93163
	DW	04H
	DD	FLAT:$SG93164
	DW	05H
	DD	FLAT:$SG93165
	DW	06H
	DD	FLAT:$SG93166
	DW	07H
	DD	FLAT:$SG93167
	DW	08H
	DD	FLAT:$SG93168
	DW	09H
	DD	FLAT:$SG93169
	DW	0aH
	DD	FLAT:$SG93170
	DW	0bH
	DD	FLAT:$SG93171
	DW	0cH
	DD	FLAT:$SG93172
	DW	0dH
	DD	FLAT:$SG93173
	DW	0eH
	DD	FLAT:$SG93174
	DW	0fH
	DD	FLAT:$SG93175
	DW	010H
	DD	FLAT:$SG93176
	DW	011H
	DD	FLAT:$SG93177
	DW	012H
	DD	FLAT:$SG93178
	DW	013H
	DD	FLAT:$SG93179
	DW	014H
	DD	FLAT:$SG93180
	DW	015H
	DD	FLAT:$SG93181
	DW	016H
	DD	FLAT:$SG93182
	DW	017H
	DD	FLAT:$SG93183
	DW	018H
	DD	FLAT:$SG93184
	DW	019H
	DD	FLAT:$SG93185
	DW	01aH
	DD	FLAT:$SG93186
	DW	01eH
	DD	FLAT:$SG93187
	DW	01fH
	DD	FLAT:$SG93188
	DW	020H
	DD	FLAT:$SG93189
	DW	032H
	DD	FLAT:$SG93190
	DW	033H
	DD	FLAT:$SG93191
	DW	034H
	DD	FLAT:$SG93192
	DW	035H
	DD	FLAT:$SG93193
	DW	036H
	DD	FLAT:$SG93194
	DW	037H
	DD	FLAT:$SG93195
	DW	038H
	DD	FLAT:$SG93196
	DW	039H
	DD	FLAT:$SG93197
	DW	03aH
	DD	FLAT:$SG93198
	DW	03bH
	DD	FLAT:$SG93199
	DW	03cH
	DD	FLAT:$SG93200
	DW	03dH
	DD	FLAT:$SG93201
	DW	03eH
	DD	FLAT:$SG93202
	DW	03fH
	DD	FLAT:$SG93203
	DW	040H
	DD	FLAT:$SG93204
	DW	041H
	DD	FLAT:$SG93205
	DW	042H
	DD	FLAT:$SG93206
	DW	043H
	DD	FLAT:$SG93207
	DW	046H
	DD	FLAT:$SG93208
	DW	047H
	DD	FLAT:$SG93209
	DW	048H
	DD	FLAT:$SG93210
	DW	049H
	DD	FLAT:$SG93211
	DW	04aH
	DD	FLAT:$SG93212
	DW	04bH
	DD	FLAT:$SG93213
	DW	04cH
	DD	FLAT:$SG93214
	DW	04dH
	DD	FLAT:$SG93215
	DW	04eH
	DD	FLAT:$SG93216
	DW	04fH
	DD	FLAT:$SG93217
	DW	050H
	DD	FLAT:$SG93218
	DW	051H
	DD	FLAT:$SG93219
	DW	052H
	DD	FLAT:$SG93220
	DW	053H
	DD	FLAT:$SG93221
	DW	054H
	DD	FLAT:$SG93222
	DW	055H
	DD	FLAT:$SG93223
	DW	056H
	DD	FLAT:$SG93224
	DW	057H
	DD	FLAT:$SG93225
	DW	058H
	DD	FLAT:$SG93226
	DW	05aH
	DD	FLAT:$SG93227
	DW	05bH
	DD	FLAT:$SG93228
	DW	05cH
	DD	FLAT:$SG93229
	DW	05dH
	DD	FLAT:$SG93230
	DW	05eH
	DD	FLAT:$SG93231
	DW	05fH
	DD	FLAT:$SG93232
	DW	060H
	DD	FLAT:$SG93233
	DW	064H
	DD	FLAT:$SG93234
	DW	065H
	DD	FLAT:$SG93235
	DW	066H
	DD	FLAT:$SG93236
	DW	067H
	DD	FLAT:$SG93237
	DW	068H
	DD	FLAT:$SG93238
	DW	069H
	DD	FLAT:$SG93239
	DW	06aH
	DD	FLAT:$SG93240
	DW	06bH
	DD	FLAT:$SG93241
	DW	06cH
	DD	FLAT:$SG93242
	DW	06dH
	DD	FLAT:$SG93243
	DW	06eH
	DD	FLAT:$SG93244
	DW	06fH
	DD	FLAT:$SG93245
	DW	070H
	DD	FLAT:$SG93246
	DW	071H
	DD	FLAT:$SG93247
	DW	072H
	DD	FLAT:$SG93248
	DW	073H
	DD	FLAT:$SG93249
	DW	074H
	DD	FLAT:$SG93250
	DW	075H
	DD	FLAT:$SG93251
	DW	076H
	DD	FLAT:$SG93252
	DW	077H
	DD	FLAT:$SG93253
	DW	078H
	DD	FLAT:$SG93254
	DW	079H
	DD	FLAT:$SG93255
	DW	07aH
	DD	FLAT:$SG93256
	DW	07cH
	DD	FLAT:$SG93257
	DW	07dH
	DD	FLAT:$SG93258
	DW	07eH
	DD	FLAT:$SG93259
	DW	07fH
	DD	FLAT:$SG93260
	DW	080H
	DD	FLAT:$SG93261
	DW	081H
	DD	FLAT:$SG93262
	DW	083H
	DD	FLAT:$SG93263
	DW	084H
	DD	FLAT:$SG93264
	DW	086H
	DD	FLAT:$SG93265
	DW	087H
	DD	FLAT:$SG93266
	DW	088H
	DD	FLAT:$SG93267
	DW	089H
	DD	FLAT:$SG93268
	DW	08aH
	DD	FLAT:$SG93269
	DW	08bH
	DD	FLAT:$SG93270
	DW	08cH
	DD	FLAT:$SG93271
	DW	08dH
	DD	FLAT:$SG93272
	DW	0beH
	DD	FLAT:$SG93273
	DW	0bfH
	DD	FLAT:$SG93274
	DW	0e7H
	DD	FLAT:$SG93275
	DW	0e8H
	DD	FLAT:$SG93276
	DW	0e9H
	DD	FLAT:$SG93277
	DW	0eaH
	DD	FLAT:$SG93278
	DW	0ebH
	DD	FLAT:$SG93279
	DW	0ecH
	DD	FLAT:$SG93280
	DW	0edH
	DD	FLAT:$SG93281
	DW	0eeH
	DD	FLAT:$SG93282
	DW	0efH
	DD	FLAT:$SG93283
	DW	0f0H
	DD	FLAT:$SG93284
	DW	0f1H
	DD	FLAT:$SG93285
	DW	0f2H
	DD	FLAT:$SG93286
	DW	0f3H
	DD	FLAT:$SG93287
	DW	0f4H
	DD	FLAT:$SG93288
	DW	0f5H
	DD	FLAT:$SG93289
	DW	0f6H
	DD	FLAT:$SG93290
	DW	0f7H
	DD	FLAT:$SG93291
	DW	0f8H
	DD	FLAT:$SG93292
	DW	0faH
	DD	FLAT:$SG93293
	DW	0fcH
	DD	FLAT:$SG93294
	DW	0fdH
	DD	FLAT:$SG93295
	DW	0feH
	DD	FLAT:$SG93296
	DW	0ffH
	DD	FLAT:$SG93297
	DW	0100H
	DD	FLAT:$SG93298
	DW	0101H
	DD	FLAT:$SG93299
	DW	0102H
	DD	FLAT:$SG93300
	DW	0103H
	DD	FLAT:$SG93301
	DW	0107H
	DD	FLAT:$SG93302
	DW	0108H
	DD	FLAT:$SG93303
	DW	0109H
	DD	FLAT:$SG93304
	DW	010aH
	DD	FLAT:$SG93305
	DW	010bH
	DD	FLAT:$SG93306
	DW	010cH
	DD	FLAT:$SG93307
	DW	010dH
	DD	FLAT:$SG93308
	DW	010eH
	DD	FLAT:$SG93309
	DW	010fH
	DD	FLAT:$SG93310
	DW	0110H
	DD	FLAT:$SG93311
	DW	0111H
	DD	FLAT:$SG93312
	DW	0112H
	DD	FLAT:$SG93313
	DW	012cH
	DD	FLAT:$SG93314
	DW	012dH
	DD	FLAT:$SG93315
	DW	012eH
	DD	FLAT:$SG93316
	DW	014aH
	DD	FLAT:$SG93317
	DW	015eH
	DD	FLAT:$SG93318
	DW	015fH
	DD	FLAT:$SG93319
	DW	0160H
	DD	FLAT:$SG93320
	DW	0161H
	DD	FLAT:$SG93321
	DW	0162H
	DD	FLAT:$SG93322
	DW	0163H
	DD	FLAT:$SG93323
	DW	0164H
	DD	FLAT:$SG93324
	DW	0165H
	DD	FLAT:$SG93325
	DW	0166H
	DD	FLAT:$SG93326
	DW	0167H
	DD	FLAT:$SG93327
	DW	0168H
	DD	FLAT:$SG93328
	DW	0169H
	DD	FLAT:$SG93329
	DW	016aH
	DD	FLAT:$SG93330
	DW	016bH
	DD	FLAT:$SG93331
	DW	016cH
	DD	FLAT:$SG93332
	DW	0190H
	DD	FLAT:$SG93333
	DW	0191H
	DD	FLAT:$SG93334
	DW	0192H
	DD	FLAT:$SG93335
	DW	0193H
	DD	FLAT:$SG93336
	DW	0194H
	DD	FLAT:$SG93337
	DW	0195H
	DD	FLAT:$SG93338
	DW	01c2H
	DD	FLAT:$SG93339
	DW	01c3H
	DD	FLAT:$SG93340
	DW	0270fH
	DD	FLAT:$SG93341
CONST	ENDS
_DATA	SEGMENT
$SG99328 DB	'Zeidon MoveFile Error', 00H
_cDirSep DB	05cH
_g_bWin95 DB	01H
$SG93184 DB	'KZOEE024 - Error opening file', 00H
?cShowPopup@?1??fnSysMessageBox@@9@9 DB 020H		; `fnSysMessageBox'::`2'::cShowPopup
	ORG $+1
$SG93185 DB	'KZOEE025 - Error in directory specification', 00H
$SG93186 DB	'KZOEE026 - Error creating directory', 00H
$SG93187 DB	'KZOEE030 - Error loading library rc=', 00H
	ORG $+3
$SG93188 DB	'KZOEE031 - Error locating Operation rc=', 00H
$SG93189 DB	'KZOEE032 - Mutex name is invalid', 00H
	ORG $+3
$SG98310 DB	'DDD', 00H
$SG93190 DB	'KZOEE050 - Error opening View Object file ', 00H
	ORG $+1
$SG98311 DB	'ddd', 00H
$SG93191 DB	'KZOEE051 - Invalid View Object file header', 00H
	ORG $+1
$SG98314 DB	'DD', 00H
	ORG $+1
$SG93192 DB	'KZOEE052 - Invalid Object file, Attrib w/o lth in defin '
	DB	'prev to line ', 00H
	ORG $+2
$SG93193 DB	'KZOEE053 - Invalid Entity level found on line ', 00H
	ORG $+1
$SG93194 DB	'KZOEE054 - Invalid record found on line ', 00H
	ORG $+3
$SG93195 DB	'KZOEE055 - Invalid file, LTH or TYPE before DOMAIN on li'
	DB	'ne ', 00H
$SG93196 DB	'KZOEE056 - Domain not found on line ', 00H
	ORG $+3
$SG93197 DB	'KZOEE057 - Invalid file, LTH before type and DOMAIN on l'
	DB	'ine ', 00H
	ORG $+3
$SG93198 DB	'KZOEE058 - Invalid file, PERSIST after DOMAIN, TYPE or L'
	DB	'TH on line ', 00H
$SG93200 DB	'KZOEE060 - Invalid maximum root qualifier ', 00H
	ORG $+1
$SG93199 DB	'KZOEE059 - Invalid file, Invalid Attribute Token located'
	DB	' on line ', 00H
	ORG $+2
$SG93201 DB	'KZOEE061 - Persistent Attribute mismatch on Token ', 00H
	ORG $+1
$SG98322 DB	'MMM', 00H
$SG98323 DB	'mmm', 00H
$SG93202 DB	'KZOEE062 - Conflict between E/R Attribute Type and TE Fi'
	DB	'eld Type for: ', 00H
	ORG $+1
$SG93203 DB	'KZOEE063 - Entity attrib RECURSIVE Y, but not structural'
	DB	'ly recursive ', 00H
	ORG $+2
?g_dNull@?1??fnDecimalOperation@@9@9 DQ 0c2d6bcc41e8ffffar ; -1e+14 ; `fnDecimalOperation'::`2'::g_dNull
$SG93204 DB	'KZOEE064 - TYPE obsolete, use APDM_TOK ', 00H
$SG93205 DB	'KZOEE065 - LTH only valid for Attribute w/type string li'
	DB	'ne ', 00H
$SG98326 DB	'MM', 00H
	ORG $+1
$SG93206 DB	'KZOEE066 - Attribute length zero ', 00H
	ORG $+2
$SG98327 DB	'mm', 00H
	ORG $+1
$SG93207 DB	'KZOEE067 - Could not initialize the Core-MQ interface ', 00H
	ORG $+1
$SG93208 DB	'KZOEE070 - Object instance is empty', 00H
$SG93209 DB	'KZOEE071 - Error opening instance file ', 00H
$SG93210 DB	'KZOEE072 - Error reading instance file ', 00H
$SG93211 DB	'KZOEE073 - Invalid instance file header', 00H
$SG93212 DB	'KZOEE074 - Invalid Entity name on line ', 00H
$SG93213 DB	'KZOEE075 - Invalid Entity level on line ', 00H
	ORG $+3
$SG98334 DB	'YYY', 00H
$SG93214 DB	'KZOEE076 - Object instance contains versioned entity ins'
	DB	'tances', 00H
	ORG $+1
$SG93215 DB	'KZOEE077 - Invalid record size in binary object instance'
	DB	00H
	ORG $+3
$SG98336 DB	'YYYY', 00H
	ORG $+3
$SG93216 DB	'KZOEE078 - Internal error, linked instance has no visibl'
	DB	'e owner', 00H
$SG93217 DB	'KZOEE079 - Trying to commit a read-only view', 00H
	ORG $+3
$SG93218 DB	'KZOEE080 - Object Definition does not have a Database ha'
	DB	'ndler specified', 00H
$SG93219 DB	'KZOEE081 - Object Definition does not have a Genkey hand'
	DB	'ler specified', 00H
	ORG $+2
$SG93220 DB	'KZOEE082 - Error starting Genkey handler', 00H
	ORG $+3
$SG93224 DB	'KZOEE086 - Trying to commit 0 views', 00H
$SG93221 DB	'KZOEE083 - LOD does not have physical information.  Poss'
	DB	'ibly the LOD was saved without DB information or the entities'
	DB	' are work entities.', 00H
	ORG $+3
$SG93225 DB	'KZOEE087 - Too many views in View array', 00H
$SG98352 DB	'Missing ending delimiter', 00H
	ORG $+3
$SG93222 DB	'KZOEE084 - Entity in Object Definition does not have Dat'
	DB	'a Fields', 00H
	ORG $+3
$SG93228 DB	'KZOEE091 - Maximum number of entities in binary file exc'
	DB	'eeded', 00H
	ORG $+2
$SG93233 DB	'KZOEE096 - Error retrieving OI from blob.', 00H
	ORG $+2
$SG93223 DB	'KZOEE085 - Entity in Object Definition does not have Rel'
	DB	'ationship Records', 00H
	ORG $+2
$SG93226 DB	'KZOEE088 - Compressed OI is out of sync with LOD/XOD', 00H
	ORG $+3
$SG93234 DB	'KZOEE100 - Invalid View, view is a Subtask View', 00H
$SG93238 DB	'KZOEE104 - Invalid Attribute name for LOD/Entity/Attribu'
	DB	'te', 00H
	ORG $+1
$SG93227 DB	'KZOEE090 - Maximum number of entities in portable file e'
	DB	'xceeded: ', 00H
	ORG $+2
$SG93229 DB	'KZOEE092 - Couldn''t re-activate OI for optimistic lock '
	DB	'check', 00H
	ORG $+3
$SG93235 DB	'KZOEE101 - Invalid View', 00H
$SG93240 DB	'KZOEE106 - Rules violation ', 00H
$SG93230 DB	'KZOEE093 - Optimistic locking error -- OI has changed si'
	DB	'nce it was activated', 00H
	ORG $+3
$SG93231 DB	'KZOEE094 - Locking violation', 00H
	ORG $+3
$SG93232 DB	'KZOEE095 - A recursive child was found that matches a pa'
	DB	'rent.  This will cause an infinite loop in the recursive subo'
	DB	'bject.  See Trace for more.', 00H
	ORG $+3
$SG98353 DB	'Zeidon Error', 00H
	ORG $+3
$SG93236 DB	'KZOEE102 - Invalid View, view is hidden', 00H
$SG93237 DB	'KZOEE103 - Invalid Entity name for View', 00H
$SG93239 DB	'KZOEE105 - Invalid scoping Entity name for View', 00H
$SG93241 DB	'KZOEE107 - Invalid Subtask View', 00H
$SG98362 DB	'ENU', 00H
$SG93242 DB	'KZOEE108 - Attempt to drop Subtask View', 00H
$SG93243 DB	'KZOEE109 - Invalid View, view contains no instance', 00H
	ORG $+1
$SG93244 DB	'KZOEE110 - Invalid level for View name', 00H
	ORG $+1
$SG98365 DB	'ENU', 00H
$SG93245 DB	'KZOEE111 - Attempt to set subtask view with a view from '
	DB	'another task', 00H
	ORG $+3
$SG93246 DB	'KZOEE112 - Attempt to set subtask view attached to an ap'
	DB	'plication', 00H
	ORG $+2
$SG93247 DB	'KZOEE113 - Invalid View, view contains an instance', 00H
	ORG $+1
$SG98368 DB	'DEU', 00H
$SG93248 DB	'KZOEE114 - Source and Target entities do not match', 00H
	ORG $+1
$SG93249 DB	'KZOEE115 - Attempt to move an instance under one of its '
	DB	'children', 00H
	ORG $+3
$SG98371 DB	'FRC', 00H
$SG99394 DB	'SysOpenFile for file: %s failed due to invalid view (nul'
	DB	'l task)', 00H
$SG93250 DB	'KZOEE116 - Attempt to include an instance created under '
	DB	'a versioned parent', 00H
	ORG $+1
$SG93251 DB	'KZOEE117 - Entity Instance Keys do not match', 00H
	ORG $+3
$SG93252 DB	'KZOEE118 - Internal Key error relinking versioned Subobj'
	DB	'ect', 00H
$SG93253 DB	'KZOEE119 - Invalid View, View is Read Only', 00H
	ORG $+1
$SG99398 DB	'0x%08x%s', 00H
	ORG $+3
$SG98374 DB	'POR', 00H
$SG93254 DB	'KZOEE120 - Invalid position parameter', 00H
	ORG $+2
$SG93255 DB	'KZOEE121 - Attempt to insert twin to root of Instance', 00H
	ORG $+2
$SG93256 DB	'KZOEE122 - Attempt to create an Entity without a parent', 00H
$SG98377 DB	'SPA', 00H
$SG93257 DB	'KZOEE124 - Entity parent is included in another path con'
	DB	'taining same entity type', 00H
	ORG $+3
$SG98378 DB	',', 00H
	ORG $+2
$SG93258 DB	'KZOEE125 - Target and Source Entities are not the same E'
	DB	'/R Entity', 00H
	ORG $+2
$SG98379 DB	':', 00H
	ORG $+2
$SG93259 DB	'KZOEE126 - Target or Source Entity is not Includeable', 00H
	ORG $+2
$SG98380 DB	'AM', 00H
	ORG $+1
$SG98381 DB	'PM', 00H
	ORG $+1
$SG93260 DB	'KZOEE127 - Source & target do not match on both Entity &'
	DB	' Relationship.', 00H
	ORG $+1
$SG93261 DB	'KZOEE128 - Target Entity cardinality max not 1 for inver'
	DB	'ted Subobject', 00H
	ORG $+2
$SG98382 DB	'mm/dd/yy', 00H
	ORG $+3
$SG98384 DB	'$', 00H
	ORG $+2
$SG93262 DB	'KZOEE129 - Trying to create a relationship (via Include,'
	DB	' possibly as part of a spawn) that already exists.  See trace'
	DB	' for more.', 00H
$SG98383 DB	'mmm dd, yyyy', 00H
	ORG $+3
$SG93263 DB	'KZOEE131 - Attempt to include Subobject from another App'
	DB	'lication Task', 00H
	ORG $+2
$SG93264 DB	'KZOEE132 - Error establishing cursor for Subobject inclu'
	DB	'de', 00H
	ORG $+1
$SG98385 DB	',', 00H
	ORG $+2
$SG93265 DB	'KZOEE134 - Attempt to version an Entity Instance version'
	DB	'ed via a differen, path', 00H
$SG98386 DB	'.', 00H
	ORG $+2
$SG93266 DB	'KZOEE135 - Entity Instance not versioned', 00H
	ORG $+3
$SG93267 DB	'KZOEE136 - Entity Instance already versioned', 00H
	ORG $+3
$SG93268 DB	'KZOEE137 - Entity Instance descendent versioned', 00H
$SG98389 DB	'HH', 00H
	ORG $+1
$SG98390 DB	'H', 00H
	ORG $+2
$SG93269 DB	'KZOEE138 - Attempt to include target entity with recursi'
	DB	've behavior', 00H
$SG93270 DB	'KZOEE139 - Error establishing cursor for CreateEntity sp'
	DB	'awn', 00H
$SG98391 DB	'"', 00H
	ORG $+2
$SG98392 DB	'"', 00H
	ORG $+2
$SG93271 DB	'KZOEE140 - Target and source Object instance are the sam'
	DB	'e instance', 00H
	ORG $+1
$SG98393 DB	'MI', 00H
	ORG $+1
$SG93272 DB	'KZOEE141 - Attempt to include a subobject whose root is '
	DB	'a Temporal Entity', 00H
	ORG $+2
$SG93273 DB	'KZOEE190 - Error opening temporary file', 00H
$SG100442 DB	'(ZDecimal) Using default zDecimalOperation( )', 00H
	ORG $+2
$SG100443 DB	'(ZDecimal) Precision (in bits) = ', 00H
	ORG $+2
$SG93274 DB	'KZOEE191 - Attribute must be a Blob or String for this o'
	DB	'peration.', 00H
	ORG $+2
$SG99419 DB	'SysDeleteFile Error: %s   File: %s   RC: %d', 00H
$SG98395 DB	' AM', 00H
$SG93275 DB	'KZOEE231 - Decimal attribute overflow (garbage)', 00H
$SG93276 DB	'KZOEE232 - Operation indicates use default context, none'
	DB	' found', 00H
	ORG $+1
$SG93277 DB	'KZOEE233 - Could not locate derived library/operation', 00H
	ORG $+2
$SG99422 DB	'(sy) Could not open file: ', 00H
	ORG $+1
$SG93278 DB	'KZOEE234 - Attempt to add integer or decimal to invalid '
	DB	'attribute type', 00H
	ORG $+1
$SG99423 DB	'(sy) Reason code = ', 00H
$SG93279 DB	'KZOEE235 - Integer overflow', 00H
$SG93280 DB	'KZOEE236 - Integer underflow', 00H
	ORG $+3
$SG93281 DB	'KZOEE237 - Attempt to update a non-updateable attribute', 00H
$SG93282 DB	'KZOEE238 - Attempt to update a non-updateable persistent'
	DB	' attribute', 00H
	ORG $+1
$SG93283 DB	'KZOEE239 - Invalid Operation for attribute type', 00H
$SG93284 DB	'KZOEE240 - Binary large object (Blob) exceeds passed len'
	DB	'gth', 00H
$SG93285 DB	'KZOEE241 - Invalid Variable Type ', 00H
	ORG $+2
$SG93286 DB	'KZOEE242 - Invalid Domain Entry Type', 00H
	ORG $+3
$SG93287 DB	'KZOEE243 - Context invalid for Domain', 00H
	ORG $+2
$SG93288 DB	'KZOEE244 - Attribute has no Domain', 00H
	ORG $+1
$SG93289 DB	'KZOEE245 - Null string not allowed for a required attrib'
	DB	'ute', 00H
$SG93290 DB	'KZOEE246 - Invalid Attribute type ', 00H
	ORG $+1
$SG93291 DB	'KZOEE247 - Blob Attribute does not match Target Entity T'
	DB	'ype', 00H
$SG93292 DB	'KZOEE248 - Required attribute is null', 00H
	ORG $+2
$SG93293 DB	'KZOEE250 - Object instance is empty', 00H
$SG93294 DB	'KZOEE252 - Root of view has been deleted', 00H
	ORG $+3
$SG100463 DB	'%.*f', 00H
	ORG $+3
$SG93295 DB	'KZOEE253 - Entity cursor is NULL', 00H
	ORG $+3
$SG100464 DB	'%f', 00H
	ORG $+1
$SG93296 DB	'KZOEE254 - Entity cursor is undefined', 00H
	ORG $+2
$SG93297 DB	'KZOEE255 - Attempt to update a previous entity version', 00H
	ORG $+1
$SG100466 DB	'0.0', 00H
$SG93298 DB	'KZOEE256 - Entity is root of view', 00H
	ORG $+2
$SG93301 DB	'KZOEE259 - Scoping Entity cursor is NULL', 00H
	ORG $+3
$SG93299 DB	'KZOEE257 - Version mismatch between scoping and target E'
	DB	'ntities', 00H
$SG93300 DB	'KZOEE258 - Scoping Entity cursor is undefined', 00H
	ORG $+2
$SG93302 DB	'KZOEE263 - Input Qualifier cannot be converted to intern'
	DB	'al attribute data type', 00H
	ORG $+1
$SG93303 DB	'KZOEE264 - Invalid Operation for Hierarchical processing'
	DB	00H
	ORG $+3
$SG93304 DB	'KZOEE265 - Invalid Operation for non-Hierarchical proces'
	DB	'sing', 00H
	ORG $+3
$SG93305 DB	'KZOEE266 - Invalid Operation for Hierarchical cursor pos'
	DB	'ition', 00H
	ORG $+2
$SG93306 DB	'KZOEE267 - Hierarchical cursor is undefined', 00H
$SG93307 DB	'KZOEE268 - Source and target entity types do not match', 00H
	ORG $+1
$SG93308 DB	'KZOEE269 - Invalid Select Set ID, ID=', 00H
	ORG $+2
$SG93309 DB	'KZOEE270 - View name is already in use', 00H
	ORG $+1
$SG93310 DB	'KZOEE271 - Subobject Entity is root of View Object Defin'
	DB	'ition', 00H
	ORG $+2
$SG93311 DB	'KZOEE272 - Subobject Parent Cursor is NULL', 00H
	ORG $+1
$SG93312 DB	'KZOEE273 - Parent Entity instance for View deleted', 00H
	ORG $+1
$SG93313 DB	'KZOEE274 - Target and Source views are different View Ob'
	DB	'ject types', 00H
	ORG $+1
$SG93314 DB	'KZOEE300 - Problems finding a parent ', 00H
	ORG $+2
$SG93316 DB	'KZOEE302 - Invalid option', 00H
	ORG $+2
$SG93315 DB	'KZOEE301 - Return buffer not large enough to contain con'
	DB	'catenated keys', 00H
	ORG $+1
$SG93317 DB	'KZOEE330 - Message Object Definition not loaded for Appl'
	DB	'ication', 00H
$SG93318 DB	'KZOEE350 - Context Not Valid for Domain', 00H
$SG93319 DB	'KZOEE351 - Invalid Input Data Type', 00H
	ORG $+1
$SG93320 DB	'KZOEE352 - Text String exceeds attribute length ', 00H
	ORG $+3
$SG93321 DB	'KZOEE353 - Attribute Type invalid for this Domain', 00H
	ORG $+2
$SG100490 DB	'Mutex ''%s'' already created', 00H
	ORG $+1
$SG93322 DB	'KZOEE354 - Invalid Domain Entry Type ', 00H
	ORG $+2
$SG93323 DB	'KZOEE355 - Table_Handler invalid for this Domain Type ', 00H
	ORG $+1
$SG100492 DB	'Error creating mutex %s', 00H
$SG93324 DB	'KZOEE356 - Domain has an unnamed Context ', 00H
	ORG $+2
$SG93325 DB	'KZOEE357 - Invalid Input Data', 00H
	ORG $+2
$SG93326 DB	'KZOEE358 - Value not in Context for Domain ', 00H
$SG93327 DB	'KZOEE359 - Invalid Input Data Type for Domain Entry Type'
	DB	00H
	ORG $+3
$SG93328 DB	'KZOEE360 - Missing ending delimiter ', 00H
	ORG $+3
$SG93329 DB	'KZOEE361 - Invalid data Format ', 00H
$SG93330 DB	'KZOEE362 - Variable Type not allowed for this Domain Typ'
	DB	'e ', 00H
	ORG $+1
$SG93331 DB	'KZOEE363 - Context Edit string is invalid ', 00H
	ORG $+1
$SG93332 DB	'KZOEE364 - Picture length exceeds input length ', 00H
$SG100501 DB	'Trying to destroy NULL Mutex %s', 00H
$SG93333 DB	'KZOEE400 - Error transmitting OI -- some lines lost.', 00H
	ORG $+3
$SG93334 DB	'KZOEE401 - Invalid User Name.', 00H
	ORG $+2
$SG100503 DB	'Error destroying mutex %s', 00H
	ORG $+2
$SG93335 DB	'KZOEE402 - Invalid Password.', 00H
	ORG $+3
$SG93336 DB	'KZOEE403 - Application not supported by Security Object.'
	DB	00H
	ORG $+3
$SG98457 DB	'No terminating ''%'' in ZEIDON.APP', 00H
	ORG $+3
$SG93337 DB	'KZOEE404 - Can''t find UserGroup.', 00H
	ORG $+3
$SG93338 DB	'KZOEE405 - UserGroup doesn''t have authority for operati'
	DB	'on.', 00H
	ORG $+1
$SG93339 DB	'KZOEE450 - Name for view is too long', 00H
	ORG $+3
$SG93340 DB	'KZOEE451 - Include source task does not match target tas'
	DB	'k', 00H
	ORG $+2
$SG100511 DB	'Trying to lock NULL Mutex %s', 00H
	ORG $+3
$SG93343 DB	'SfCreateSubtask', 00H
$SG93344 DB	'SfDropSubtask', 00H
	ORG $+2
$SG93345 DB	'DisableTask', 00H
$SG93346 DB	'EnableTask', 00H
	ORG $+1
$SG93347 DB	'GetApplDirectoryFromView', 00H
	ORG $+3
$SG93348 DB	'SfGetApplicationForSubtask', 00H
	ORG $+1
$SG93349 DB	'SfGetTaskInfo', 00H
	ORG $+2
$SG93350 DB	'SfActivateSysOI_FromFile', 00H
	ORG $+3
$SG93351 DB	'SfActivateSysEmptyOI', 00H
	ORG $+3
$SG98472 DB	'zeidon.ini', 00H
	ORG $+1
$SG93352 DB	'ActivateEmptyObjectInstance', 00H
$SG100521 DB	'Trying to unlock NULL Mutex %s', 00H
	ORG $+1
$SG93353 DB	'ActivateObjectInstance', 00H
	ORG $+1
$SG93354 DB	'ActivateOI_FromFile', 00H
$SG100523 DB	'Error releasing mutex %s', 00H
	ORG $+3
$SG99499 DB	'SysReadLine null OpenFile', 00H
	ORG $+2
$SG93355 DB	'ActivateOI_FromXML_File', 00H
$SG99500 DB	'SysReadLine ... no open files', 00H
	ORG $+2
$SG93356 DB	'CommitOI_ToXML_File', 00H
$SG93357 DB	'ActivateOI_FromOI', 00H
	ORG $+2
$SG93358 DB	'CommitObjectInstance', 00H
	ORG $+3
$SG93359 DB	'CommitMultipleOIs', 00H
	ORG $+2
$SG93360 DB	'DropViewCluster', 00H
$SG93361 DB	'AddToViewCluster', 00H
	ORG $+3
$SG99506 DB	'SysReadLine ... buffer acquisition failure', 00H
	ORG $+1
$SG93362 DB	'CommitOI_ToFile', 00H
$SG93363 DB	'DropObjectInstance', 00H
	ORG $+1
$SG93364 DB	'CheckExistenceOfEntity', 00H
	ORG $+1
$SG93365 DB	'CompareEntityToEntity', 00H
	ORG $+2
$SG93366 DB	'CreateEntity', 00H
	ORG $+3
$SG93367 DB	'GetEntityKey', 00H
	ORG $+3
$SG93368 DB	'CreateTemporalEntity', 00H
	ORG $+3
$SG93369 DB	'CreateTemporalSubobjectVersion', 00H
	ORG $+1
$SG93370 DB	'AcceptSubobject', 00H
$SG93371 DB	'AcceptAllTemporalSubobjects', 00H
$SG93372 DB	'CancelSubobject', 00H
$SG93373 DB	'CancelAllTemporalSubobjects', 00H
$SG93374 DB	'IncludeSubobjectFromSubobject', 00H
	ORG $+2
$SG93375 DB	'IncludeSubobjectFromSubobjectEx', 00H
$SG93376 DB	'SubobjectVersionUpdated', 00H
$SG93377 DB	'DeleteEntity', 00H
	ORG $+3
$SG93378 DB	'ExcludeEntity', 00H
	ORG $+2
$SG93379 DB	'DropEntity', 00H
	ORG $+1
$SG93380 DB	'MoveSubobject', 00H
	ORG $+2
$SG93381 DB	'SetCursorNextEntity', 00H
$SG93382 DB	'SetCursorPrevEntity', 00H
$SG93383 DB	'SetCursorFirstEntity', 00H
	ORG $+3
$SG93384 DB	'SetCursorLastEntity', 00H
$SG93385 DB	'SetCursorFirstEntityByString', 00H
	ORG $+3
$SG93386 DB	'SetCursorNextEntityByString', 00H
$SG93387 DB	'SetCursorFirstEntityByInteger', 00H
	ORG $+2
$SG93388 DB	'SetCursorNextEntityByInteger', 00H
	ORG $+3
$SG93389 DB	'SetCursorFirstEntityByDecimal', 00H
	ORG $+2
$SG93390 DB	'SetCursorNextEntityByDecimal', 00H
	ORG $+3
$SG93391 DB	'SetCursorFirstEntityByAttr', 00H
	ORG $+1
$SG93392 DB	'SetCursorNextEntityByAttr', 00H
	ORG $+2
$SG93393 DB	'SetCursorFirstEntityByEntityCsr', 00H
$SG93394 DB	'SetCursorNextEntityByEntityCsr', 00H
	ORG $+1
$SG93395 DB	'SetCursorFirstSelectedEntity', 00H
	ORG $+3
$SG93396 DB	'SetCursorNextSelectedEntity', 00H
$SG93397 DB	'SetCursorRelativeEntity', 00H
$SG100566 DB	'Null task', 00H
	ORG $+2
$SG93398 DB	'GetRelativeEntityNumber', 00H
$SG100567 DB	'MutexFind', 00H
	ORG $+2
$SG93399 DB	'DefineHierarchicalCursor', 00H
	ORG $+3
$SG93400 DB	'DropHierarchicalCursor', 00H
	ORG $+1
$SG93401 DB	'SetCursorNextEntityHierarchical', 00H
$SG93402 DB	'CreateViewFromView', 00H
	ORG $+1
$SG93403 DB	'SetViewFromView', 00H
$SG93404 DB	'SetViewToSubobject', 00H
	ORG $+1
$SG93405 DB	'ResetViewFromSubobject', 00H
	ORG $+1
$SG93406 DB	'SetNameForView', 00H
	ORG $+1
$SG93407 DB	'DropNameForView', 00H
$SG93408 DB	'GetViewByName', 00H
	ORG $+2
$SG93409 DB	'SetSubtaskView', 00H
	ORG $+1
$SG93410 DB	'GetNameForView', 00H
	ORG $+1
$SG93411 DB	'SfGetFirstSubtaskView', 00H
	ORG $+2
$SG93412 DB	'SfGetNextSubtaskView', 00H
	ORG $+3
$SG93413 DB	'SfTransferView', 00H
	ORG $+1
$SG93414 DB	'SfLockView', 00H
	ORG $+1
$SG93415 DB	'ResetView', 00H
	ORG $+2
$SG93416 DB	'DropView', 00H
	ORG $+3
$SG93417 DB	'SetViewReadOnly', 00H
$SG93418 DB	'SetViewFlags', 00H
	ORG $+3
$SG93419 DB	'GetViewFlags', 00H
	ORG $+3
$SG93420 DB	'DropViewObject', 00H
	ORG $+1
$SG93421 DB	'GetAttributeFlags', 00H
	ORG $+2
$SG93422 DB	'AttributeUpdated', 00H
	ORG $+3
$SG93423 DB	'GetStringFromAttribute', 00H
	ORG $+1
$SG93424 DB	'GetIntegerFromAttribute', 00H
$SG93425 DB	'GetDecimalFromAttribute', 00H
$SG93426 DB	'GetBlobFromAttribute', 00H
	ORG $+3
$SG98547 DB	'AllocSize', 00H
	ORG $+2
$SG93427 DB	'GetStructFromEntityAttrs', 00H
	ORG $+3
$SG100596 DB	'fnMutexCreate Invalid mutex name: ', 00H
	ORG $+1
$SG98548 DB	'Zeidon', 00H
	ORG $+1
$SG93428 DB	'GetAddrForAttribute', 00H
$SG93429 DB	'GetVariableFromAttribute', 00H
	ORG $+3
$SG98550 DB	'OE Anchor', 00H
	ORG $+2
$SG93430 DB	'SetAttributeFromString', 00H
	ORG $+1
$SG93431 DB	'SetAttributeFromInteger', 00H
$SG93432 DB	'SetAttributeFromDecimal', 00H
$SG98553 DB	'InitAnchor', 00H
	ORG $+1
$SG93433 DB	'SetAttributeFromBlob', 00H
	ORG $+3
$SG93434 DB	'SetAttributeFromAttribute', 00H
	ORG $+2
$SG98555 DB	' ''', 00H
	ORG $+1
$SG93435 DB	'SetAttributeFromCurrentDate', 00H
$SG98556 DB	'''', 00H
	ORG $+2
$SG93436 DB	'SetAttributeFromVariable', 00H
	ORG $+3
$SG93437 DB	'SetAttributeValueNext', 00H
	ORG $+2
$SG93438 DB	'SetAttributeValuePrev', 00H
	ORG $+2
$SG93439 DB	'SetBlobAttributeFromAttribute', 00H
	ORG $+2
$SG93440 DB	'SetEntityAttributesFromBlob', 00H
$SG93441 DB	'SetBlobFromEntityAttributes', 00H
$SG93442 DB	'AddToAttributeFromInteger', 00H
	ORG $+2
$SG93443 DB	'AddToAttributeFromDecimal', 00H
	ORG $+2
$SG93444 DB	'AddToAttributeFromAttribute', 00H
$SG93445 DB	'AddToAttributeFromVariable', 00H
	ORG $+1
$SG93446 DB	'CompareAttributeToString', 00H
	ORG $+3
$SG93447 DB	'CompareAttributeToInteger', 00H
	ORG $+2
$SG100616 DB	'Error creating mutex %s', 00H
$SG98568 DB	', ', 00H
	ORG $+1
$SG93448 DB	'CompareAttributeToDecimal', 00H
	ORG $+2
$SG93449 DB	'CompareAttributeToAttribute', 00H
$SG98570 DB	'TEMP', 00H
	ORG $+3
$SG93450 DB	'CompareAttributeToVariable', 00H
	ORG $+1
$SG93451 DB	'GetAttributeLength', 00H
	ORG $+1
$SG98572 DB	'TMP', 00H
$SG93452 DB	'SetMatchingAttributesByName', 00H
$SG93453 DB	'GetFirstTableEntryForAttribute', 00H
	ORG $+1
$SG93454 DB	'GetNextTableEntryForAttribute', 00H
	ORG $+2
$SG93455 DB	'DisplayEntityInstance', 00H
	ORG $+2
$SG98576 DB	'MemoryTraceThreshold', 00H
	ORG $+3
$SG93456 DB	'DisplayObjectInstance', 00H
	ORG $+2
$SG98577 DB	'[ObjectEngine]', 00H
	ORG $+1
$SG93457 DB	'DisplayCursorInfo', 00H
	ORG $+2
$SG98578 DB	'MemoryCeiling', 00H
	ORG $+2
$SG93458 DB	'StoreValueInRecord', 00H
	ORG $+1
$SG98579 DB	'[ObjectEngine]', 00H
	ORG $+1
$SG93459 DB	'StoreValueInDerivedAttribute', 00H
	ORG $+3
$SG98580 DB	'Object Services Initialization complete...', 00H
	ORG $+1
$SG93460 DB	'StoreValueInDerivedAttribute', 00H
	ORG $+3
$SG93461 DB	'TableEntryExtToInt', 00H
	ORG $+1
$SG93462 DB	'TableEntryIntToExt', 00H
	ORG $+1
$SG98583 DB	'Object Services Running in Server Mode...', 00H
	ORG $+2
$SG93463 DB	'TableEntryForInternalValue', 00H
	ORG $+1
$SG98584 DB	'Object Services Running in Shared Mode...', 00H
	ORG $+2
$SG93464 DB	'SetSelectSetForView', 00H
$SG93465 DB	'GetSelectStateOfEntity', 00H
	ORG $+1
$SG93466 DB	'SetAllSelectStatesForEntity', 00H
$SG93467 DB	'SetSelectStateOfEntity', 00H
	ORG $+1
$SG93468 DB	'RelinkInstanceToInstance', 00H
	ORG $+3
$SG93469 DB	'RelinkAllSubobjectsForOI', 00H
	ORG $+3
$SG93470 DB	'LoadEntity', 00H
	ORG $+1
$SG93471 DB	'ObjectInstanceUpdated', 00H
	ORG $+2
$SG93472 DB	'ObjectInstanceUpdatedFromFile', 00H
	ORG $+2
$SG93473 DB	'GetValueFromRecord', 00H
	ORG $+1
$SG93474 DB	'StoreStringInRecord', 00H
$SG93475 DB	'GetStringFromRecord', 00H
$SG98595 DB	'fnFreeLocalAnchorBlock Page Table UNmapping at Index: %x'
	DB	'   0x%08x   Process: 0x%08x', 00H
$SG93476 DB	'SetEntityCursor', 00H
$SG93477 DB	'GetAddrFromRecord', 00H
	ORG $+2
$SG93478 DB	'MiGetParentEntityNameForView', 00H
	ORG $+3
$SG93479 DB	'GetTaskDBHandlerTraceLevel', 00H
	ORG $+1
$SG93480 DB	'SetTaskDBHandlerTraceLevel', 00H
	ORG $+1
$SG93481 DB	'GetAbsolutePositionForEntity', 00H
	ORG $+3
$SG93482 DB	'GetEntityNameForHierarchicalCsr', 00H
$SG93483 DB	'SetCursorAbsolutePosition', 00H
	ORG $+2
$SG93484 DB	'OrderEntityForView', 00H
	ORG $+1
$SG93485 DB	'CountEntitiesForView', 00H
	ORG $+3
$SG93486 DB	'OrderOI_ByDefaultAttribs', 00H
	ORG $+3
$SG93487 DB	'OrderEntitiesByDefaultAttribs', 00H
	ORG $+2
$SG93488 DB	'MiGetUpdateForViewEntityAttr', 00H
	ORG $+3
$SG93489 DB	'MessageSend', 00H
$SG93490 DB	'MessagePrompt', 00H
	ORG $+2
$SG93491 DB	'MessagePromptForInput', 00H
	ORG $+2
$SG93492 DB	'MessagePresent', 00H
	ORG $+1
$SG93493 DB	'MiGetTemporalStateOfEntity', 00H
	ORG $+1
$SG93494 DB	'MiGetUpdateForView', 00H
	ORG $+1
$SG93495 DB	'MiGetInstanceID_ForView', 00H
$SG93496 DB	'MiGetDateTimeForOI', 00H
	ORG $+1
$SG93497 DB	'MiGetERTokenForEntity', 00H
	ORG $+2
$SG99642 DB	0dH, 0aH, 00H
	ORG $+1
$SG93498 DB	'MiGetViewEntityForView', 00H
	ORG $+1
$SG93499 DB	'UfAddToDateTime', 00H
$SG93500 DB	'GetAttributeDisplayLength', 00H
	ORG $+2
$SG93501 DB	'MiGetCardinalityForEntity', 00H
	ORG $+2
$SG93502 DB	'NetActivateOI', 00H
	ORG $+2
$SG100671 DB	'(tm) Error trying to lock mutex ', 00H
	ORG $+3
$SG99647 DB	0dH, 0aH, 00H
	ORG $+1
$SG93503 DB	'NetClose', 00H
	ORG $+3
$SG100672 DB	'Error locking mutex', 00H
$SG93504 DB	'NetCommitOI', 00H
$SG100673 DB	'Error', 00H
	ORG $+2
$SG93505 DB	'NetGetTraceLevel', 00H
	ORG $+3
$SG93506 DB	'NetListen', 00H
	ORG $+2
$SG93507 DB	'NetStopListen', 00H
	ORG $+2
$SG93508 DB	'NetSetTraceLevel', 00H
	ORG $+3
$SG93509 DB	'NetStartup', 00H
	ORG $+1
$SG93510 DB	'NetStatus', 00H
	ORG $+2
$SG93511 DB	'NetProcessMessage', 00H
	ORG $+2
$SG93512 DB	'NetCommitOI_ToFile', 00H
	ORG $+1
$SG93513 DB	'NetActivateOI_FromFile', 00H
	ORG $+1
$SG100682 DB	'Error releasing mutex %s', 00H
	ORG $+3
$SG93514 DB	'NetSendBootstrapFile', 00H
	ORG $+3
$SG93515 DB	'NetCallOperation', 00H
	ORG $+3
$SG93516 DB	'NetGetLocalHostAddress', 00H
	ORG $+1
$SG93517 DB	'NetSendFile', 00H
$SG93518 DB	'SetIncrementalUpdateFlags', 00H
	ORG $+2
$SG93519 DB	'GetIncrementalUpdateFlags', 00H
	ORG $+2
$SG93520 DB	'SetBlobFromFile', 00H
$SG93521 DB	'WriteBlobToFile', 00H
$SG93522 DB	'SfCheckOI_Integrity', 00H
$SG93523 DB	'GenerateQualFromEntityList', 00H
	ORG $+1
$SG93524 DB	'WriteOI_ToXML', 00H
	ORG $+2
$SG93525 DB	'WriteSubobjectToXML', 00H
$SG93526 DB	'CommitSubobjectToXML_File', 00H
	ORG $+2
$SG99687 DB	0dH, 0aH, 00H
	ORG $+1
$SG99695 DB	0dH, 0aH, 00H
	ORG $+1
$SG98677 DB	'Received a message while in Server Mode', 00H
$SG100727 DB	'Error destroying mutex: %s', 00H
	ORG $+1
$SG98682 DB	'Internal Error - lpRequestProcess is null', 00H
	ORG $+2
$SG98683 DB	'Zeidon Object Engine', 00H
	ORG $+3
$SG98691 DB	'(sy) DuplicateHandle RC = ', 00H
	ORG $+1
$SG98692 DB	'(sy) DuplicateHandle Failed: ', 00H
	ORG $+2
$SG98693 DB	'Internal error -- DuplicateHandle failed!', 00H
	ORG $+2
$SG98709 DB	'Error destroying mutex: %s', 00H
	ORG $+1
$SG98712 DB	'Unknown message', 00H
$SG98713 DB	'Zeidon Object Engine', 00H
	ORG $+3
$SG99742 DB	'fnSysCloseFileWithControl %s   Handle: 0x%08x   Task: 0x'
	DB	'%08x   Process: 0x%08x:0x%08x', 00H
	ORG $+2
$SG100771 DB	' ---- MUTEX LIST ---- ', 00H
	ORG $+1
$SG100772 DB	'MutexQueryStatus %s -- Checking ...', 00H
$SG100780 DB	'MutexQueryStatus %s -- FAILED (%d)', 00H
	ORG $+1
$SG100781 DB	'MutexQueryStatus %s -- OK', 00H
	ORG $+2
$SG100785 DB	'Mutex ''%s'' locked by Task: %d  ProcessID: %d', 00H
	ORG $+3
$SG100786 DB	'Mutex ''%s'' is unlocked   ProcessID: %d', 00H
	ORG $+1
$SG98740 DB	'AllocShared', 00H
$SG100789 DB	'Task 0x%08x (process id:%d) is waiting on mutex ''%s''  '
	DB	' Lock Count: %d', 00H
	ORG $+2
$SG98744 DB	'Zeidon Internal Error', 00H
	ORG $+2
$SG98745 DB	'Error Calling SendMsg( )', 00H
	ORG $+3
$SG100796 DB	'KZOESYAA', 00H
	ORG $+3
$SG100811 DB	'SysMainWndProc for Tomcat session Wnd: ', 00H
$SG98763 DB	'No view', 00H
$SG98764 DB	'Check Pointer Error for TableIndex: %d   ViewOD Name: %s'
	DB	00H
	ORG $+3
$SG98765 DB	'Check Pointer Error for TableIndex!', 00H
$SG98766 DB	'Zeidon Core', 00H
$SG100815 DB	'SysMainWndProc for Tomcat session Wnd: ', 00H
$SG99792 DB	'SysSetFileTime: Couldn''t open file ', 00H
$SG98791 DB	'Invalid pointer handle for free: hi-bit not set: 0x%08x', 00H
$SG100840 DB	'SysInitApplicationWindow Class: %s  Title: %s  hWnd: 0x%'
	DB	'08x=%d', 00H
	ORG $+1
$SG98824 DB	'KZOE0012 - Error allocating memory for length ', 00H
	ORG $+1
$SG100909 DB	'KZOESRVC', 00H
	ORG $+3
$SG100911 DB	'N', 00H
	ORG $+2
$SG100912 DB	'ServerMode', 00H
	ORG $+1
$SG100913 DB	'ObjectEngine', 00H
	ORG $+3
$SG98877 DB	'g_lProcessIdx != -1', 00H
$SG98875 DB	'fnGetAnchorBlock Page Table mapping at Index: %x   0x%08'
	DB	'x   Process: 0x%08x', 00H
$SG98878 DB	'DGC', 00H
$SG98879 DB	'GetAnchor', 00H
	ORG $+2
$SG99910 DB	'%4d%02d%02d%02d%02d%02d%03d', 00H
$SG99911 DB	'???????????????', 00H
$SG99923 DB	'%4d%02d%02d%02d%02d%02d%03d', 00H
_szlReleaseCompatible DD FLAT:$SG92764
$SG99931 DB	'ReturnValue', 00H
$SG99932 DB	'Operation', 00H
	ORG $+2
$SG92764 DB	'1.0a2   ', 00H
	ORG $+3
_szlReleaseCurrent DD FLAT:$SG92766
$SG92766 DB	'1.0b0   ', 00H
	ORG $+3
_szlShareSeg DD	FLAT:$SG92768
$SG92768 DB	'/SHAREMEM/KZOENGAA.SEG', 00H
	ORG $+1
_g_ulMaxRecordStringLth DD 09H
_szObjectEngineName DD FLAT:$SG92773
$SG92773 DB	'kzoengwa.exe', 00H
	ORG $+3
_szObjectEngineDll DD FLAT:$SG92775
$SG92775 DB	'kzoengaa.dll', 00H
	ORG $+3
_szObjectSuffix DD FLAT:$SG92777
$SG99944 DB	'Zeidon System', 00H
	ORG $+2
$SG99945 DB	'T', 00H
	ORG $+2
$SG92777 DB	'.xod', 00H
	ORG $+3
_szDllSuffix DD	FLAT:$SG92779
$SG99946 DB	'GetDateTime', 00H
$SG99947 DB	'kzoengaa', 00H
	ORG $+3
$SG92779 DB	'.dll', 00H
	ORG $+3
$SG99948 DB	'zWinSock', 00H
	ORG $+3
_szNullS DD	FLAT:$SG92782
_lNullInteger DD 080000000H
_stNullDateTime DD 080000000H
	DW	00H
	ORG $+2
_szlZEIDON DD	FLAT:$SG92789
_g_ZeidonMutexName DD FLAT:$SG90740
	DD	FLAT:$SG90741
	DD	FLAT:$SG90742
	DD	FLAT:$SG90743
	DD	FLAT:$SG90744
	DD	FLAT:$SG90745
	DD	FLAT:$SG90746
	DD	FLAT:$SG90747
	DD	FLAT:$SG90748
	DD	FLAT:$SG90749
	DD	FLAT:$SG90750
	DD	FLAT:$SG90751
	DD	FLAT:$SG90752
	DD	FLAT:$SG90753
	DD	FLAT:$SG90754
	DD	FLAT:$SG90755
$SG90740 DB	'ZEIDON MUTEX -- INITTERM', 00H
	ORG $+3
$SG92789 DB	'ZEIDON', 00H
	ORG $+1
$SG90741 DB	'ZEIDON MUTEX -- MEMORY ALLOCATION', 00H
	ORG $+2
_szlAppFile DD	FLAT:$SG92791
$SG90742 DB	'ZEIDON MUTEX -- ANCHOR BLOCK', 00H
	ORG $+3
$SG92791 DB	'zeidon.app', 00H
	ORG $+1
$SG90743 DB	'ZEIDON MUTEX -- ANCHOR INIT', 00H
_szlDomainFile DD FLAT:$SG92793
$SG90744 DB	'ZEIDON MUTEX -- SHARED MEM', 00H
	ORG $+1
$SG92793 DB	'zeidon.xdm', 00H
	ORG $+1
$SG90745 DB	'ZEIDON MUTEX -- TASK CHAIN', 00H
	ORG $+1
_szlSystemDomainFile DD FLAT:$SG92795
$SG99962 DB	'Invalid type for Early Date', 00H
$SG90746 DB	'ZEIDON MUTEX -- TASK CHAIN WRITE', 00H
	ORG $+3
$SG99963 DB	'SysGetDateTimeDifference: ', 00H
	ORG $+1
$SG92795 DB	'kzomdmoi.xdm', 00H
	ORG $+3
$SG90747 DB	'ZEIDON MUTEX -- MUTEX', 00H
	ORG $+2
_szlMessageObject DD FLAT:$SG92797
$SG90748 DB	'ZEIDON MUTEX -- DEBUGCHANGE', 00H
$SG99965 DB	'Invalid type for Later Date', 00H
$SG92797 DB	'KZMSGQOO', 00H
	ORG $+3
$SG90749 DB	'ZEIDON MUTEX -- PESSIMISTIC LOCK', 00H
	ORG $+3
_szlNewPortableHeader DD FLAT:$SG92799
$SG99966 DB	'SysGetDateTimeDifference: ', 00H
	ORG $+1
$SG90750 DB	'ZEIDON MUTEX -- APPLA', 00H
	ORG $+2
$SG92799 DB	'z', 00H
	ORG $+2
$SG90751 DB	'ZEIDON MUTEX -- ENTITY KEY', 00H
	ORG $+1
_szlmZeidon DD	FLAT:$SG92801
$SG90752 DB	'ZEIDON MUTEX -- TASKPROCESS', 00H
$SG92801 DB	'Zeidon', 00H
	ORG $+1
$SG90753 DB	'ZEIDON MUTEX -- PROC CHAIN', 00H
	ORG $+1
_szlAPPLICATION DD FLAT:$SG92803
$SG90754 DB	'ZEIDON MUTEX -- PROC CHAIN WRITE', 00H
	ORG $+3
$SG92803 DB	'APPLICATION', 00H
$SG90755 DB	'ZEIDON MUTEX -- NETWORK CHAIN', 00H
	ORG $+2
_szlOBJECT DD	FLAT:$SG92805
$SG98948 DB	' ''', 00H
	ORG $+1
$SG98949 DB	'''', 00H
	ORG $+2
$SG92805 DB	'OBJECT', 00H
	ORG $+1
_szlENTITY DD	FLAT:$SG92807
$SG98951 DB	'Couldn''t find ZEIDON_BIN specification.', 00H
$SG92807 DB	'ENTITY', 00H
	ORG $+1
_szlCHILDENTITY DD FLAT:$SG92809
$SG98952 DB	'Zeidon - Object Services Init', 00H
	ORG $+2
$SG92809 DB	'CHILDENTITY', 00H
_szlATTRIB DD	FLAT:$SG92811
$SG98954 DB	' - ', 00H
$SG92811 DB	'ATTRIB', 00H
	ORG $+1
_szlDOMAIN DD	FLAT:$SG92813
$SG92813 DB	'DOMAIN', 00H
	ORG $+1
_szlMODEL DD	FLAT:$SG92815
$SG92815 DB	'MODEL', 00H
	ORG $+2
_szlCONTEXT DD	FLAT:$SG92817
$SG98961 DB	'MS Windows 3.x', 00H
	ORG $+1
$SG92817 DB	'CONTEXT', 00H
_szlNLS_TABLEENTRY DD FLAT:$SG92819
$SG98963 DB	'MS Windows 95/98', 00H
	ORG $+3
$SG92819 DB	'NLS_TABLEENTRY', 00H
	ORG $+1
_szlTABLEENTRY DD FLAT:$SG92821
$SG98965 DB	'MS Windows NT/XP', 00H
	ORG $+3
$SG92821 DB	'TABLEENTRY', 00H
	ORG $+1
_szlREGULAREXPRESSION DD FLAT:$SG92823
$SG98967 DB	'IBM OS/2', 00H
	ORG $+3
$SG92823 DB	'REGULAREXPRESSION', 00H
	ORG $+2
_szlZEIDON_BIN DD FLAT:$SG92825
$SG98968 DB	'(sy) SysStartObjectServices started for ', 00H
	ORG $+3
$SG92825 DB	'ZEIDON_BIN', 00H
	ORG $+1
_szlZEIDON_SYS DD FLAT:$SG92827
$SG92827 DB	'ZEIDON_SYS', 00H
	ORG $+1
_szlZEIDON_LOC DD FLAT:$SG92829
$SG92829 DB	'ZEIDON_LOC', 00H
	ORG $+1
_szlZEIDON_SHR DD FLAT:$SG92831
$SG92831 DB	'ZEIDON_SHR', 00H
	ORG $+1
_szlAPP_NAME DD	FLAT:$SG92833
$SG92833 DB	'APP_NAME', 00H
	ORG $+3
_szlAPP_DFLT_Dialog DD FLAT:$SG92835
$SG92835 DB	'APP_DFLT_WDOD', 00H
	ORG $+2
_szlAPP_DLL DD	FLAT:$SG92837
$SG92837 DB	'APP_DLL', 00H
_szlAPP_ADOBIN DD FLAT:$SG92839
$SG92839 DB	'APP_ADOBIN', 00H
	ORG $+1
_szlAPP_LOCAL DD FLAT:$SG92841
$SG92841 DB	'APP_LOCAL', 00H
	ORG $+2
_szlAPP_SHARED DD FLAT:$SG92843
$SG92843 DB	'APP_SHARED', 00H
	ORG $+1
_szlAPP_QLPLR DD FLAT:$SG92845
$SG92845 DB	'APP_QLPLR', 00H
	ORG $+2
_szlAPP_QXODS DD FLAT:$SG92847
$SG92847 DB	'APP_QXODS', 00H
	ORG $+2
_szlAPP_SOURCE DD FLAT:$SG92849
$SG98992 DB	'Invalid pointer handle (get) : hi-bit not set: 0x%08x', 00H
	ORG $+2
$SG92849 DB	'APP_SOURCE', 00H
	ORG $+1
_szlAPDM_TOK DD	FLAT:$SG92851
$SG92851 DB	'APDM_TOK', 00H
	ORG $+3
_szlATTRIBUTETYPE DD FLAT:$SG92853
$SG98996 DB	'Invalid pointer handle (null) at Index: %x for pointer 0'
	DB	'x%08x', 00H
	ORG $+2
$SG92853 DB	'ATTRIBUTETYPE', 00H
	ORG $+2
_szlATTRIBUTEDECIMAL DD FLAT:$SG92855
$SG92855 DB	'ATTRIBUTEDECIMAL', 00H
	ORG $+3
_szlAUTOCREATE DD FLAT:$SG92857
$SG100025 DB	'.dll', 00H
	ORG $+3
$SG92857 DB	'AUTOCREATE', 00H
	ORG $+1
_szlAUTOLOADFROMPARENT DD FLAT:$SG92859
$SG92859 DB	'AUTOLOADFROMPARENT', 00H
	ORG $+1
_szlAUTO_SEQ DD	FLAT:$SG92861
$SG100029 DB	'(sy) SysLoadLibrary failed to load file: "%s"  with erro'
	DB	'r code = %d  using Current directory: %s', 00H
	ORG $+3
$SG92861 DB	'AUTO_SEQ', 00H
	ORG $+3
_szlXVAATT_TOK DD FLAT:$SG92863
$SG100031 DB	'Load failed for: %s (%s)', 00H
	ORG $+3
$SG92863 DB	'XVAATT_TOK', 00H
	ORG $+1
_szlNT_ThreadClassName DB 'ZeidonNT_ThreadClass', 00H
	ORG $+3
_szlCARDMAX DD	FLAT:$SG92865
$SG100032 DB	'System Services', 00H
_g_lProcessIdx DD 0ffffffffH
$SG100033 DB	'SY00101', 00H
$SG92865 DB	'CARDMAX', 00H
_szlCARDMIN DD	FLAT:$SG92867
$SG100034 DB	'Load failed for: %s (%s)', 00H
	ORG $+3
$SG92867 DB	'CARDMIN', 00H
_szlCASESENS DD	FLAT:$SG92869
$SG92869 DB	'CASESENS', 00H
	ORG $+3
_szlCONTEXTRESTRICTION DD FLAT:$SG92871
$SG99015 DB	'Invalid pointer: hi-bit set!!', 00H
	ORG $+2
$SG92871 DB	'CONTEXTRESTRICTION', 00H
	ORG $+1
_szlCREATE DD	FLAT:$SG92873
$SG92873 DB	'CREATE', 00H
	ORG $+1
_szlCR_DATE DD	FLAT:$SG92875
$SG92875 DB	'CR_DATE', 00H
_szlDATAFIELD DD FLAT:$SG92877
$SG92877 DB	'DATAFIELD', 00H
	ORG $+2
_szlDATARECORD DD FLAT:$SG92879
$SG92879 DB	'DATARECORD', 00H
	ORG $+1
_szlDATATYPE DD	FLAT:$SG92881
$SG92881 DB	'DATATYPE', 00H
	ORG $+3
_szlDBNAME DD	FLAT:$SG92883
$SG92883 DB	'DBNAME', 00H
	ORG $+1
_szlDECIMAL DD	FLAT:$SG92885
$SG92885 DB	'DECIMAL', 00H
_szlDECIMALFORMAT DD FLAT:$SG92887
$SG92887 DB	'DECIMALFORMAT', 00H
	ORG $+2
_szlDELETE DD	FLAT:$SG92889
$SG98009 DB	'Exceeded Process Limit ... Contact Zeidon Support', 00H
	ORG $+2
$SG92889 DB	'DELETE', 00H
	ORG $+1
_szlDERIVED DD	FLAT:$SG92891
$SG99034 DB	'Invalid pointer: hi-bit not set!!', 00H
	ORG $+2
$SG100058 DB	'(sy) SysGetProc failed with error code: %d   DLL: %s   F'
	DB	'unction: %s xx:%s', 00H
	ORG $+2
$SG92891 DB	'DERIVED', 00H
_szlDERIVEDF DD	FLAT:$SG92893
$SG92893 DB	'DERIVEDF', 00H
	ORG $+3
_szlDFT_DBNAME DD FLAT:$SG92895
$SG92895 DB	'DFT_DBNAME', 00H
	ORG $+1
_szlDFT_SERVER DD FLAT:$SG92897
$SG92897 DB	'DFT_SERVER', 00H
	ORG $+1
_szlDLL_NAME DD	FLAT:$SG92899
$SG92899 DB	'DLL_NAME', 00H
	ORG $+3
_szlDOMAINTYPE DD FLAT:$SG92901
$SG92901 DB	'DOMAINTYPE', 00H
	ORG $+1
_szlDUPENTIN DD	FLAT:$SG92903
$SG92903 DB	'DUPENTIN', 00H
	ORG $+3
_szlDUPRELIN DD	FLAT:$SG92905
$SG92905 DB	'DUPRELIN', 00H
	ORG $+3
_szlECACC DD	FLAT:$SG92907
$SG92907 DB	'ECACC', 00H
	ORG $+2
_szlECCAN DD	FLAT:$SG92909
$SG92909 DB	'ECCAN', 00H
	ORG $+2
_szlECCR DD	FLAT:$SG92911
$SG92911 DB	'ECCR', 00H
	ORG $+3
_szlECDEL DD	FLAT:$SG92913
$SG92913 DB	'ECDEL', 00H
	ORG $+2
_szlECEOPER DD	FLAT:$SG92915
$SG92915 DB	'ECEOPER', 00H
_szlECEXC DD	FLAT:$SG92917
$SG92917 DB	'ECEXC', 00H
	ORG $+2
_szlECINC DD	FLAT:$SG92919
$SG92919 DB	'ECINC', 00H
	ORG $+2
_szlEDITSTRING DD FLAT:$SG92921
$SG99065 DB	'Out of memory pages!', 00H
	ORG $+3
$SG92921 DB	'EDITSTRING', 00H
	ORG $+1
_szlERATT_TOK DD FLAT:$SG92923
$SG92923 DB	'ERATT_TOK', 00H
	ORG $+2
_szlEntityName DD FLAT:$SG92925
$SG92925 DB	'EntityName', 00H
	ORG $+1
$SG99069 DB	'fnMapFile Page Table conflict at Index: %x   0x%08x   Pr'
	DB	'ocess: %d', 00H
	ORG $+2
$SG98045 DB	'SysSetDefaultTaskForProcess Deprecated', 00H
	ORG $+1
_szlEntitySpec DD FLAT:$SG92927
$SG98046 DB	'Zeidon Object Services', 00H
	ORG $+1
$SG92927 DB	'EntitySpec', 00H
	ORG $+1
_szlERENT_TOK DD FLAT:$SG92929
$SG98048 DB	'Process already has a default task view', 00H
$SG98049 DB	'Zeidon Object Services', 00H
	ORG $+1
$SG92929 DB	'ERENT_TOK', 00H
	ORG $+2
_szlERREL_LINK DD FLAT:$SG92931
$SG92931 DB	'ERREL_LINK', 00H
	ORG $+1
_szlERREL_TOK DD FLAT:$SG92933
$SG92933 DB	'ERREL_TOK', 00H
	ORG $+2
_szlEXCLUDE DD	FLAT:$SG92935
$SG92935 DB	'EXCLUDE', 00H
_szlEXTERNALVALUE DD FLAT:$SG92937
$SG92937 DB	'EXTERNALVALUE', 00H
	ORG $+2
_szlFLDID DD	FLAT:$SG92939
$SG92939 DB	'FLDID', 00H
	ORG $+2
_szlFLDLTH DD	FLAT:$SG92941
_szlFLDNAME DD	FLAT:$SG92943
$SG100109 DB	'FreeLibrary sent message (0x%08x) for Module: %s - Task:'
	DB	' 0x%08x', 00H
$SG92941 DB	'FLDLTH', 00H
	ORG $+1
$SG100110 DB	'FreeLibrary did not free (0x%08x) Module: %s - Task: 0x%'
	DB	'08x', 00H
$SG92943 DB	'FLDNAME', 00H
_szlFLDOFFSET DD FLAT:$SG92945
$SG92945 DB	'FLDOFFSET', 00H
	ORG $+2
_szlFLDTYPE DD	FLAT:$SG92947
$SG92947 DB	'FLDTYPE', 00H
_szlFULLPERSIST DD FLAT:$SG92949
$SG92949 DB	'FULLPERSIST', 00H
_szlGENKEY DD	FLAT:$SG92951
$SG92951 DB	'GENKEY', 00H
	ORG $+1
_szlGKHANDLER DD FLAT:$SG92953
$SG98072 DB	'ON ', 00H
$SG99097 DB	'Diagnostic', 00H
	ORG $+1
$SG98073 DB	'OFF', 00H
$SG92953 DB	'GKHANDLER', 00H
	ORG $+2
_szlHANDLER DD	FLAT:$SG92955
$SG99098 DB	'[Debug]', 00H
$SG98074 DB	'Session Id: %s  ==> %s (%s)  Thread: %d ... null Subtask'
	DB	00H
	ORG $+3
$SG92955 DB	'HANDLER', 00H
_szlHIDDEN DD	FLAT:$SG92957
$SG98076 DB	'ON ', 00H
$SG98077 DB	'OFF', 00H
$SG92957 DB	'HIDDEN', 00H
	ORG $+1
_szlId	DD	FLAT:$SG92959
$SG98078 DB	'STP S/V/T: %s/0x%08x/0x%08x  ==> %s (%s)  Thread: %d', 00H
	ORG $+3
$SG92959 DB	'Id', 00H
	ORG $+1
_szlINCLSRC DD	FLAT:$SG92961
$SG98080 DB	'STP S/V/T: %s/0x%08x/0x%08x  ==> Conflict with Task Sess'
	DB	'ion Id: %s  (%s)  Thread: %d', 00H
	ORG $+3
$SG92961 DB	'INCLSRC', 00H
_szlINCLUDE DD	FLAT:$SG92963
$SG92963 DB	'INCLUDE', 00H
_szlINCRLOAD DD	FLAT:$SG92965
$SG92965 DB	'INCRLOAD', 00H
	ORG $+3
_szlINIT DD	FLAT:$SG92967
$SG92967 DB	'INIT', 00H
	ORG $+3
_szlINTERNALVALUE DD FLAT:$SG92969
$SG92969 DB	'INTERNALVALUE', 00H
	ORG $+2
_szlISDEFAULT DD FLAT:$SG92971
$SG92971 DB	'ISDEFAULT', 00H
	ORG $+2
_szlKEY	DD	FLAT:$SG92973
$SG92973 DB	'KEY', 00H
_szlLanguageIndex DD FLAT:$SG92975
$SG92975 DB	'LanguageIndex', 00H
	ORG $+2
_szlLNAME DD	FLAT:$SG92977
$SG92977 DB	'LNAME', 00H
	ORG $+2
_szlLOCK DD	FLAT:$SG92979
$SG99122 DB	'ServerDebug', 00H
$SG99123 DB	'[Debug]', 00H
$SG98099 DB	'[App.', 00H
	ORG $+2
$SG92979 DB	'LOCK', 00H
	ORG $+3
_szlLTH	DD	FLAT:$SG92981
$SG98100 DB	']', 00H
	ORG $+2
$SG98101 DB	'WebDirectory', 00H
	ORG $+3
$SG92981 DB	'LTH', 00H
_szlMAXSTRINGLTH DD FLAT:$SG92983
$SG98103 DB	'WebDirectory', 00H
	ORG $+3
$SG92983 DB	'MAXSTRINGLTH', 00H
	ORG $+3
_szlMR_LIMIT DD	FLAT:$SG92985
$SG98104 DB	'[Workstation]', 00H
	ORG $+2
$SG92985 DB	'MR_LIMIT', 00H
	ORG $+3
_szl__MSGQ DD	FLAT:$SG92987
$SG99131 DB	'Message Handler Error opening log file (%s) for message:'
	DB	' %s', 00H
$SG92987 DB	'__MSGQ', 00H
	ORG $+1
_szlNAME DD	FLAT:$SG92989
$SG98108 DB	'0x%08x', 00H
	ORG $+1
$SG92989 DB	'NAME', 00H
	ORG $+3
_szlNETCOMPRESS DD FLAT:$SG92991
$SG92991 DB	'NETCOMPRESS', 00H
_szlNETWORK DD	FLAT:$SG92993
$SG92993 DB	'NETWORK', 00H
_szlNumAtts DD	FLAT:$SG92995
$SG92995 DB	'NumAtts', 00H
_szlNumEnts DD	FLAT:$SG92997
$SG92997 DB	'NumEnts', 00H
_szlNumRels DD	FLAT:$SG92999
$SG92999 DB	'NumRels', 00H
_szlOCACT DD	FLAT:$SG93001
$SG100169 DB	'[%s]', 00H
	ORG $+3
$SG93001 DB	'OCACT', 00H
	ORG $+2
_szlOCACTE DD	FLAT:$SG93003
$SG93003 DB	'OCACTE', 00H
	ORG $+1
_szlOCCOM DD	FLAT:$SG93005
$SG99149 DB	'WebUserErrorMessages', 00H
	ORG $+3
$SG93005 DB	'OCCOM', 00H
	ORG $+2
_szlOCDROP DD	FLAT:$SG93007
$SG99150 DB	'[ObjectEngine]', 00H
	ORG $+1
$SG98126 DB	'KZXMLPGO', 00H
	ORG $+3
$SG93007 DB	'OCDROP', 00H
	ORG $+1
_szlOCEOPER DD	FLAT:$SG93009
$SG93009 DB	'OCEOPER', 00H
_szlOFRECID DD	FLAT:$SG93011
$SG99154 DB	'SysMessageBox Title: %s   Error: %s', 00H
$SG98130 DB	'DialogName', 00H
	ORG $+1
$SG98131 DB	'Dialog', 00H
	ORG $+1
$SG93011 DB	'OFRECID', 00H
_szlOFBUFSZ DD	FLAT:$SG93013
$SG98132 DB	'Dialog', 00H
	ORG $+1
$SG98133 DB	'DialogName', 00H
	ORG $+1
$SG93013 DB	'OFBUFSZ', 00H
_szlOPER_LIBNM DD FLAT:$SG93015
$SG98134 DB	'Dialog', 00H
	ORG $+1
$SG93015 DB	'OPER_LIBNM', 00H
	ORG $+1
_szlOper DD	FLAT:$SG93017
$SG98137 DB	'WindowName', 00H
	ORG $+1
$SG93017 DB	'Oper', 00H
	ORG $+3
_szlOWNER_MEMB DD FLAT:$SG93019
$SG98138 DB	'Window', 00H
	ORG $+1
$SG98139 DB	'Window', 00H
	ORG $+1
$SG93019 DB	'OWNER_MEMB', 00H
	ORG $+1
_szlPDELETE DD	FLAT:$SG93021
$SG98140 DB	'WindowName', 00H
	ORG $+1
$SG98141 DB	'Window', 00H
	ORG $+1
$SG93021 DB	'PDELETE', 00H
_szlPERSIST DD	FLAT:$SG93023
$SG93023 DB	'PERSIST', 00H
_szlPNAME DD	FLAT:$SG93025
$SG98144 DB	'FocusCtrl', 00H
	ORG $+2
$SG98145 DB	'Window', 00H
	ORG $+1
$SG93025 DB	'PNAME', 00H
	ORG $+2
_szlQualAttrib DD FLAT:$SG93027
$SG93027 DB	'QualAttrib', 00H
	ORG $+1
_szlRECID DD	FLAT:$SG93029
$SG93029 DB	'RECID', 00H
	ORG $+2
_szlRECNAME DD	FLAT:$SG93031
$SG93031 DB	'RECNAME', 00H
_szlRECURSIVE DD FLAT:$SG93033
$SG93033 DB	'RECURSIVE', 00H
	ORG $+2
_szlREL	DD	FLAT:$SG93035
$SG98155 DB	'KZXMLPGO', 00H
	ORG $+3
$SG93035 DB	'REL', 00H
_szlRELFIELD DD	FLAT:$SG93037
$SG93037 DB	'RELFIELD', 00H
	ORG $+3
_szlRELRECORD DD FLAT:$SG93039
$SG99183 DB	'HH:MI:SS.999', 00H
	ORG $+3
$SG98159 DB	'DialogName', 00H
	ORG $+1
$SG93039 DB	'RELRECORD', 00H
	ORG $+2
_szlRELXVAATT_TOK DD FLAT:$SG93041
$SG99184 DB	'YYYY-MM-DD HH:MI:SS.999', 00H
$SG98160 DB	'DynamicBannerName', 00H
	ORG $+2
$SG99185 DB	'%s Task(%x) : ', 00H
	ORG $+1
$SG98161 DB	'DynamicBannerName', 00H
	ORG $+2
$SG93041 DB	'RELXVAATT_TOK', 00H
	ORG $+2
_szlREQUIRED DD	FLAT:$SG93043
$SG98162 DB	'DialogName', 00H
	ORG $+1
$SG98163 DB	'DynamicBannerName', 00H
	ORG $+2
$SG93043 DB	'REQUIRED', 00H
	ORG $+3
_szlRESTRICTED DD FLAT:$SG93045
$SG98164 DB	'BannerName', 00H
	ORG $+1
$SG100213 DB	'%s=%s', 00H
	ORG $+2
$SG99189 DB	'OE Trace Unavailable', 00H
	ORG $+3
$SG98165 DB	'DynamicBannerName', 00H
	ORG $+2
$SG93045 DB	'RESTRICTED', 00H
	ORG $+1
_szlSERVER DD	FLAT:$SG93047
$SG100214 DB	'zeidon.in~', 00H
	ORG $+1
$SG93047 DB	'SERVER', 00H
	ORG $+1
_szlSEQUENCING DD FLAT:$SG93049
$SG100217 DB	'[%s]', 00H
	ORG $+3
$SG93049 DB	'SEQUENCING', 00H
	ORG $+1
_szlSEQ_AD DD	FLAT:$SG93051
$SG100219 DB	'[Zeidon]', 00H
	ORG $+3
$SG93051 DB	'SEQ_AD', 00H
	ORG $+1
_szlSETID1 DD	FLAT:$SG93053
$SG100221 DB	'[Encyclopedia]', 00H
	ORG $+1
$SG93053 DB	'SETID1', 00H
	ORG $+1
_szlSETID2 DD	FLAT:$SG93055
$SG98174 DB	'KZXMLPGO', 00H
	ORG $+3
$SG100223 DB	'[Workstation]', 00H
	ORG $+2
$SG93055 DB	'SETID2', 00H
	ORG $+1
_szlSETNAME1 DD	FLAT:$SG93057
$SG100225 DB	'[Object Services]', 00H
	ORG $+2
$SG93057 DB	'SETNAME1', 00H
	ORG $+3
_szlSETNAME2 DD	FLAT:$SG93059
$SG98178 DB	'DialogName', 00H
	ORG $+1
$SG98179 DB	'DynamicBannerName', 00H
	ORG $+2
$SG93059 DB	'SETNAME2', 00H
	ORG $+3
_szlSRCXVAATT_TOK DD FLAT:$SG93061
$SG98180 DB	'DialogName', 00H
	ORG $+1
$SG98181 DB	'DynamicBannerName', 00H
	ORG $+2
$SG93061 DB	'SRCXVAATT_TOK', 00H
	ORG $+2
_szlTask DD	FLAT:$SG93063
$SG93063 DB	'Task', 00H
	ORG $+3
_szlText DD	FLAT:$SG93065
$SG93065 DB	'Text', 00H
	ORG $+3
_szlTYPE DD	FLAT:$SG93067
$SG99211 DB	'(sy) Logon Userid=', 00H
	ORG $+1
$SG93067 DB	'TYPE', 00H
	ORG $+3
_szlUP_DATE DD	FLAT:$SG93069
$SG93069 DB	'UP_DATE', 00H
_szlUSERID DD	FLAT:$SG93071
$SG93071 DB	'USERID', 00H
	ORG $+1
_szlUPDATE DD	FLAT:$SG93073
$SG93073 DB	'UPDATE', 00H
	ORG $+1
_szlZKEY DD	FLAT:$SG93075
$SG93075 DB	'ZKEY', 00H
	ORG $+3
_szlApplicationLogicError DD FLAT:$SG93077
$SG93077 DB	'Object Services - Application Logic Error', 00H
	ORG $+2
_szlDataValidationError DD FLAT:$SG93079
$SG93079 DB	'Data Validation Error', 00H
	ORG $+2
_szlOE_SystemError DD FLAT:$SG93081
$SG93081 DB	'OE System Error', 00H
_szlAFTER DD	FLAT:$SG93083
$SG93083 DB	'AFTER', 00H
	ORG $+2
_szlBEFORE DD	FLAT:$SG93085
$SG93085 DB	'BEFORE', 00H
	ORG $+1
_g_pchMQI DD	FLAT:$SG93087
	DD	FLAT:$SG93088
	DD	FLAT:$SG93089
	DD	FLAT:$SG93090
$SG93087 DB	'MQ_MessageSend', 00H
	ORG $+1
$SG93088 DB	'MQ_MessagePrompt', 00H
	ORG $+3
$SG93089 DB	'MQ_MessagePromptForInput', 00H
	ORG $+3
$SG93090 DB	'MQ_MessagePresent', 00H
	ORG $+2
_szGAFANullS DD	FLAT:$SG93092
_g_pchMon DD	FLAT:$SG93094
	DD	FLAT:$SG93095
	DD	FLAT:$SG93096
	DD	FLAT:$SG93097
	DD	FLAT:$SG93098
	DD	FLAT:$SG93099
	DD	FLAT:$SG93100
	DD	FLAT:$SG93101
	DD	FLAT:$SG93102
	DD	FLAT:$SG93103
	DD	FLAT:$SG93104
	DD	FLAT:$SG93105
$SG93094 DB	'January', 00H
$SG93095 DB	'February', 00H
	ORG $+3
$SG93096 DB	'March', 00H
	ORG $+2
$SG93097 DB	'April', 00H
	ORG $+2
$SG100266 DB	'Error in directory specification', 00H
	ORG $+3
$SG93098 DB	'May', 00H
$SG100267 DB	'Zeidon Error', 00H
	ORG $+3
$SG93099 DB	'June', 00H
	ORG $+3
$SG93100 DB	'July', 00H
	ORG $+3
$SG93101 DB	'August', 00H
	ORG $+1
$SG93102 DB	'September', 00H
	ORG $+2
$SG93103 DB	'October', 00H
$SG93104 DB	'November', 00H
	ORG $+3
$SG93105 DB	'December', 00H
	ORG $+3
_g_pchDOW DD	FLAT:$SG93107
	DD	FLAT:$SG93108
	DD	FLAT:$SG93109
	DD	FLAT:$SG93110
	DD	FLAT:$SG93111
	DD	FLAT:$SG93112
	DD	FLAT:$SG93113
$SG100274 DB	'Error creating directory', 00H
	ORG $+3
$SG98226 DB	'KZOENGWA - Termination', 00H
	ORG $+1
$SG100275 DB	'Zeidon Error', 00H
	ORG $+3
$SG98227 DB	'The Zeidon Object Engine hasn''t finished shutting down.'
	DB	' Please wait for the engine to shut down and restart.', 00H
	ORG $+3
$SG93107 DB	'Sunday', 00H
	ORG $+1
$SG93108 DB	'Monday', 00H
	ORG $+1
$SG93109 DB	'Tuesday', 00H
$SG93110 DB	'Wednesday', 00H
	ORG $+2
$SG93111 DB	'Thursday', 00H
	ORG $+3
$SG93112 DB	'Friday', 00H
	ORG $+1
$SG93113 DB	'Saturday', 00H
	ORG $+3
_szlINTL DD	FLAT:$SG93115
$SG93115 DB	'Intl', 00H
	ORG $+3
_szlICOUNTRY DD	FLAT:$SG93117
$SG93117 DB	'iCountry', 00H
	ORG $+3
_szlSCOUNTRY DD	FLAT:$SG93119
$SG98239 DB	'InitCriticalSection: ', 00H
	ORG $+2
$SG93119 DB	'sCountry', 00H
	ORG $+3
_szlSLANGUAGE DD FLAT:$SG93121
$SG93121 DB	'sLanguage', 00H
	ORG $+2
_szlSLIST DD	FLAT:$SG93123
$SG93123 DB	'sList', 00H
	ORG $+2
_szlIMEASURE DD	FLAT:$SG93125
$SG93125 DB	'iMeasure', 00H
	ORG $+3
_szlITIME DD	FLAT:$SG93127
$SG93127 DB	'iTime', 00H
	ORG $+2
_szlSTIME DD	FLAT:$SG93129
$SG100297 DB	'SYSTEM HELP', 00H
$SG99273 DB	'%sZTF_%lx_%lx.TMP', 00H
	ORG $+2
_szlS1159 DD	FLAT:$SG93131
$SG98249 DB	'RegisterZeidonApplication ===============> %s   V/Task: '
	DB	'0x%08x / 0x%08x  Process: %d   Thread: %d', 00H
	ORG $+2
$SG93129 DB	'sTime', 00H
	ORG $+2
$SG100298 DB	'SYSTEM HELP', 00H
$SG98250 DB	'RegisterZeidonApplication ===============> %s   Process:'
	DB	' %d   Thread: %d   Memory: %s   Wnd: 0x%08x=%d', 00H
	ORG $+1
$SG100299 DB	'SYSTEM HELP', 00H
$SG93131 DB	's1159', 00H
	ORG $+2
_szlS2359 DD	FLAT:$SG93133
$SG100300 DB	'winhelp.hlp', 00H
$SG93133 DB	's2359', 00H
	ORG $+2
_szlITLZERO DD	FLAT:$SG93135
$SG93135 DB	'iTLZero', 00H
_szlSSHORTDATE DD FLAT:$SG93137
$SG93137 DB	'sShortDate', 00H
	ORG $+1
_szlSLONGDATE DD FLAT:$SG93139
$SG100306 DB	'.CHM', 00H
	ORG $+3
$SG100307 DB	'.CHM', 00H
	ORG $+3
$SG93139 DB	'sLongDate', 00H
	ORG $+2
_szlSCURRENCY DD FLAT:$SG93141
$SG100308 DB	'>mainwin', 00H
	ORG $+3
$SG93141 DB	'sCurrency', 00H
	ORG $+2
_szlICURRENCY DD FLAT:$SG93143
$SG100311 DB	'(sy) Starting help with: ', 00H
	ORG $+2
$SG93143 DB	'iCurrency', 00H
	ORG $+2
_szlICURRDIGITS DD FLAT:$SG93145
$SG100313 DB	'(sy) Starting context-sensitive help with: ', 00H
$SG93145 DB	'iCurrDigits', 00H
_szlINEGCURR DD	FLAT:$SG93147
$SG100314 DB	'MyWindowType', 00H
	ORG $+3
$SG93147 DB	'iNegCurr', 00H
	ORG $+3
_szlSTHOUSAND DD FLAT:$SG93149
$SG93149 DB	'sThousand', 00H
	ORG $+2
_szlSDECIMAL DD	FLAT:$SG93151
$SG93151 DB	'sDecimal', 00H
	ORG $+3
_szlIDIGITS DD	FLAT:$SG93153
$SG98273 DB	'(Unr) Cleaning up Registered S/Task: 0x%08x / 0x%08x (%d'
	DB	')   Process: %d   Thread: %d  %s', 00H
	ORG $+3
$SG93153 DB	'iDigits', 00H
_szlILZERO DD	FLAT:$SG93155
$SG93155 DB	'iLzero', 00H
	ORG $+1
$SG93161 DB	'KZOEE001 - Error communicating with client window', 00H
	ORG $+2
$SG93162 DB	'KZOEE002 - ZEIDON environment variable not set', 00H
	ORG $+1
$SG93163 DB	'KZOEE003 - Error starting Object Services', 00H
	ORG $+2
$SG93164 DB	'KZOEE004 - Error communicating with Object Services', 00H
$SG93165 DB	'KZOEE005 - Error communicating with Object Services', 00H
$SG100334 DB	' = %lf seconds', 00H
	ORG $+1
$SG93166 DB	'KZOEE006 - Internal error freeing Anchor Block', 00H
	ORG $+1
$SG93167 DB	'KZOEE007 - Internal Anchor block error, system restart r'
	DB	'ecommended', 00H
	ORG $+1
$SG93170 DB	'KZOEE010 - Requested application not found', 00H
	ORG $+1
$SG93168 DB	'KZOEE008 - Application definition file missing ZEIDON_BI'
	DB	'N or ZEIDON_SYS', 00H
$SG93169 DB	'KZOEE009 - Error opening application definition file', 00H
	ORG $+3
$SG93171 DB	'KZOEE011 - Error opening application domains file', 00H
	ORG $+2
$SG93172 DB	'KZOEE012 - Error allocating memory', 00H
	ORG $+1
$SG93173 DB	'KZOEE013 - Internal operation call error', 00H
	ORG $+3
$SG93174 DB	'KZOEE014 - Invalid suballoc memory free - ID=', 00H
	ORG $+2
$SG93175 DB	'KZOEE015 - Invalid suballoc memory free', 00H
$SG93176 DB	'KZOEE016 - Invalid Task', 00H
$SG93177 DB	'KZOEE017 - Task is Disabled', 00H
$SG93178 DB	'KZOEE018 - Error in Domain file, line: ', 00H
$SG93179 DB	'KZOEE019 - Invalid GetTaskInfo request: ', 00H
	ORG $+3
$SG93180 DB	'KZOEE020 - Invalid Operation call ', 00H
	ORG $+1
$SG93181 DB	'KZOEE021 - Internal error, TaskOperation block has no Ob'
	DB	'ject/Entity/Attr', 00H
	ORG $+3
$SG93182 DB	'KZOEE022 - Error writing file', 00H
	ORG $+2
$SG93183 DB	'KZOEE023 - Invalid parameter, ', 00H
	ORG $+5
$SG99327 DB	'SysRenameFile MoveFile RC: %ld   FileSpecFrom: %s   File'
	DB	'SpecTo: %s   Error: %s', 00H
_DATA	ENDS
PUBLIC	_SysDescribeZeidonPageTable@4
PUBLIC	_SysMutexClose@4
PUBLIC	_SysMutexCreate@12
PUBLIC	_SysMutexLock@16
PUBLIC	_SysMutexUnlock@12
PUBLIC	_SysMutexQueryLock@4
PUBLIC	_SysMutexQueryStatus@0
PUBLIC	_RegisterZeidonApplication@28
PUBLIC	_ProcessZeidonMessage@8
PUBLIC	_UnregisterZeidonApplication@4
PUBLIC	_fnReuseEntity@4
PUBLIC	_SysAddressMemory@4
PUBLIC	_SysAllocMemory@20
PUBLIC	_SysAppendcDirSep@4
PUBLIC	_SysSetFocusToWebCtrl@20
PUBLIC	_SysMakeWebFileName@12
PUBLIC	_SysSetWebBannerName@12
PUBLIC	_SysGetWebBannerName@12
PUBLIC	_SysCheckTaskMemory@0
PUBLIC	_fnSysCloseFile@12
PUBLIC	_SysCloseFile@12
PUBLIC	_fnSysCloseFileWithControl@16
PUBLIC	_SysCloseFileWithControl@16
PUBLIC	_SysConvertANSI_String@4
PUBLIC	_SysConvertEnvironmentString@8
PUBLIC	_fnSysCopyFile@16
PUBLIC	_SysCopyFile@16
PUBLIC	_SysCreateTempFileName@4
PUBLIC	_SysDiagnosticMessage@16
PUBLIC	_SysElapsedTimer@8
PUBLIC	_SysFree@4
PUBLIC	_fnSysFreeLibrary@12
PUBLIC	_SysFreeLibrary@8
PUBLIC	_SysFreeMemory@4
PUBLIC	_SysGetDateTime@4
PUBLIC	_SysGetServerDateTime@8
PUBLIC	_SysGetDateTimeDifference@16
PUBLIC	_SysGetDB_UserID@12
PUBLIC	_SysGetEnvVar@12
PUBLIC	_SysGetFileDateTime@8
PUBLIC	_SysGetFilePosition@4
PUBLIC	_SysGetFileSize@4
PUBLIC	_SysGetHandleFromPointer@4
PUBLIC	_SysGetLanguageCode@4
PUBLIC	_SysGetLocalDirectory@4
PUBLIC	_SysGetLocalSysDirectory@4
PUBLIC	_SysGetLongDateFormat@4
PUBLIC	_SysGetNumberFormat@12
PUBLIC	_SysGetOS_Info@4
PUBLIC	_SysGetPointerFromHandle@4
PUBLIC	_SysGetInstance@4
PUBLIC	_SysGetProc@8
PUBLIC	_SysGetProcessID@4
PUBLIC	_SysGetTaskFromView@4
PUBLIC	_SetTransientTaskProcess@16
PUBLIC	_SysGetShortDateFormat@4
PUBLIC	_SysGetTickCount@0
PUBLIC	_SysGetTimeFormat@4
PUBLIC	_SysGetUserID@12
PUBLIC	_SysLoadLibrary@8
PUBLIC	_SysLoadLibraryWithErrFlag@12
PUBLIC	_SysMalloc@4
PUBLIC	_SysMemSize@4
PUBLIC	_SysMessageBeep@0
PUBLIC	_fnSysMessageBox@16
PUBLIC	_SysMessageBox@16
PUBLIC	_SysMessageList@4
PUBLIC	_fnSysOpenFile@12
PUBLIC	_SysOpenFile@12
PUBLIC	_SysParseLine@12
PUBLIC	_SysPositionFile@8
PUBLIC	_fnSysReadFile@16
PUBLIC	_SysReadFile@16
PUBLIC	_fnSysReadLine@16
PUBLIC	_SysReadLine@12
PUBLIC	_fnSysReadLineLth@20
PUBLIC	_SysReadLineLth@16
PUBLIC	_SysReadZeidonIni@16
PUBLIC	_fnSysRenameFile@16
PUBLIC	_SysRenameFile@16
PUBLIC	_SysSendOE_Message@8
PUBLIC	_SysSetFileTime@12
PUBLIC	_SysSetDB_UserID@12
PUBLIC	_SysSetDefaultTaskForProcess@4
PUBLIC	_SysSetLanguageCode@4
PUBLIC	_SysSetUserID@12
PUBLIC	_SysStartHelp@8
PUBLIC	_SysStartTimer@4
PUBLIC	_SysTranslateString@8
PUBLIC	_fnSysTruncateFile@8
PUBLIC	_SysTruncateFile@8
PUBLIC	_SysUpdateZeidonIni@12
PUBLIC	_SysValidAddress@12
PUBLIC	_SysValidDirOrFile@16
PUBLIC	_SysWait@4
PUBLIC	_fnSysWriteFile@16
PUBLIC	_SysWriteFile@16
PUBLIC	_fnSysWriteLine@16
PUBLIC	_SysWriteLine@12
PUBLIC	_fnSysWriteLineLth@24
PUBLIC	_SysWriteLineLth@20
PUBLIC	_SysStartBrowseOfTaskList@4
PUBLIC	_SysEndBrowseOfTaskList@0
PUBLIC	_SysGetClientMessage@0
PUBLIC	_SysInitApplicationWindow@12
PUBLIC	_fnSysCreateCoreMutex@4
PUBLIC	_fnSysDestroyCoreMutex@4
PUBLIC	_fnSysLockCoreMutex@4
PUBLIC	_fnSysUnlockCoreMutex@4
PUBLIC	_fnConvertEnvironmentString@8
PUBLIC	_InitializeAnchorBlock@16
PUBLIC	_FreeAnchorBlock@4
PUBLIC	_SysGetAnchorBlock@0
PUBLIC	_SysGetAnchorBlockData@4
PUBLIC	_SysGetBaseMessage@12
PUBLIC	_SysGetOperationMessage@12
PUBLIC	_SysStartObjectServices
PUBLIC	_SfListTasks
PUBLIC	_SysCreateInternational@0
PUBLIC	_SysFreeInternational@4
PUBLIC	_fnAllocSharedMemory@16
PUBLIC	_fnFreeSharedMemory@8
PUBLIC	_fnSysCreateHandle@8
PUBLIC	_fnFreeLocalAnchorBlock@4
PUBLIC	_fnSysMutexUnlock@8
PUBLIC	_fnSysMutexLock@16
PUBLIC	_fnSysMutexDestroy@8
PUBLIC	_fnMutexCreateOS@12
PUBLIC	_FindWebSubtask@4
PUBLIC	___local_stdio_printf_options
PUBLIC	__vsnprintf_l
PUBLIC	__vsprintf_l
PUBLIC	_sprintf
PUBLIC	_fnMutexFind@8
PUBLIC	_fnMutexCreate@16
PUBLIC	_fnMapFile@16
PUBLIC	_fnSetProcessIdx
PUBLIC	_fnConvertToZeidonFormat
PUBLIC	_fnBuildZeidonIni
PUBLIC	_CheckPointer
PUBLIC	_fnGetAnchorBlock@8
PUBLIC	_fnSysGetPointerFromHandleServerMode@4
PUBLIC	_fnSysGetPointerFromHandleShared@4
PUBLIC	_fnSysGetHandleFromPointerServerMode@4
PUBLIC	_fnSysGetHandleFromPointerShared@4
PUBLIC	__zCall_GetDateTime@8
PUBLIC	_SysSetAnchorBlock@4
PUBLIC	_fnDecimalOperation@16
PUBLIC	_fnHashName@4
PUBLIC	_SysMainWndProc@16
PUBLIC	_DllMain@12
PUBLIC	__real@0000000000000000
PUBLIC	__real@3fe0000000000000
PUBLIC	__real@3ff0000000000000
PUBLIC	__real@4024000000000000
PUBLIC	__real@408f400000000000
PUBLIC	__xmm@41f00000000000000000000000000000
PUBLIC	__xmm@80000000000000008000000000000000
EXTRN	___report_rangecheckfailure:PROC
EXTRN	__imp__toupper:PROC
EXTRN	_memcpy:PROC
EXTRN	_memset:PROC
EXTRN	__imp__strrchr:PROC
EXTRN	__imp__strstr:PROC
EXTRN	_strcat:PROC
EXTRN	_strcmp:PROC
EXTRN	_strcpy:PROC
EXTRN	__imp___stricmp:PROC
EXTRN	_strlen:PROC
EXTRN	__imp__strncat:PROC
EXTRN	__imp__strncmp:PROC
EXTRN	__imp___strnicmp:PROC
EXTRN	__imp__strncpy:PROC
EXTRN	__imp___strupr:PROC
EXTRN	__imp__GetEnvironmentVariableA@12:PROC
EXTRN	__imp__SetCurrentDirectoryA@4:PROC
EXTRN	__imp__GetCurrentDirectoryA@8:PROC
EXTRN	__imp__SearchPathA@24:PROC
EXTRN	__imp__CreateDirectoryA@8:PROC
EXTRN	__imp__CreateFileA@28:PROC
EXTRN	__imp__DeleteFileA@4:PROC
EXTRN	__imp__GetFileAttributesA@4:PROC
EXTRN	__imp__GetFileSize@8:PROC
EXTRN	__imp__GetFileTime@16:PROC
EXTRN	__imp__GetFullPathNameA@16:PROC
EXTRN	__imp__ReadFile@20:PROC
EXTRN	__imp__SetFilePointer@16:PROC
EXTRN	__imp__SetFileTime@16:PROC
EXTRN	__imp__WriteFile@20:PROC
EXTRN	__imp__CloseHandle@4:PROC
EXTRN	__imp__DuplicateHandle@28:PROC
EXTRN	__imp__GetHandleInformation@8:PROC
EXTRN	__imp__GetLastError@0:PROC
EXTRN	__imp__InitializeCriticalSection@4:PROC
EXTRN	__imp__EnterCriticalSection@4:PROC
EXTRN	__imp__LeaveCriticalSection@4:PROC
EXTRN	__imp__DeleteCriticalSection@4:PROC
EXTRN	__imp__ReleaseMutex@4:PROC
EXTRN	__imp__WaitForSingleObject@8:PROC
EXTRN	__imp__CreateMutexA@12:PROC
EXTRN	__imp__CreateEventA@16:PROC
EXTRN	__imp__Sleep@4:PROC
EXTRN	__imp__GetCurrentProcess@0:PROC
EXTRN	__imp__GetCurrentProcessId@0:PROC
EXTRN	__imp__GetCurrentThreadId@0:PROC
EXTRN	__imp__CreateProcessA@40:PROC
EXTRN	__imp__OpenProcess@12:PROC
EXTRN	__imp__GetLocalTime@4:PROC
EXTRN	__imp__GetTickCount@0:PROC
EXTRN	__imp__GetVersionExA@4:PROC
EXTRN	__imp__MapViewOfFile@20:PROC
EXTRN	__imp__UnmapViewOfFile@4:PROC
EXTRN	__imp__FreeLibrary@4:PROC
EXTRN	__imp__GetProcAddress@8:PROC
EXTRN	__imp__LoadLibraryExA@12:PROC
EXTRN	__imp__LocalFree@4:PROC
EXTRN	__imp__FormatMessageA@28:PROC
EXTRN	__imp__OpenMutexA@12:PROC
EXTRN	__imp__CreateFileMappingA@24:PROC
EXTRN	__imp__OpenFileMappingA@12:PROC
EXTRN	__imp__LoadLibraryA@4:PROC
EXTRN	__imp__GetProfileIntA@12:PROC
EXTRN	__imp__GetProfileStringA@20:PROC
EXTRN	__imp__GetPrivateProfileIntA@16:PROC
EXTRN	__imp__GetPrivateProfileStringA@24:PROC
EXTRN	__imp__MoveFileA@8:PROC
EXTRN	__imp__IsBadReadPtr@8:PROC
EXTRN	__imp__IsBadWritePtr@8:PROC
EXTRN	__imp__FileTimeToSystemTime@8:PROC
EXTRN	__imp__SystemTimeToFileTime@8:PROC
EXTRN	__imp__GetStockObject@4:PROC
EXTRN	__imp__RegisterWindowMessageA@4:PROC
EXTRN	__imp__SendMessageA@16:PROC
EXTRN	__imp__PostMessageA@16:PROC
EXTRN	__imp__DefWindowProcA@16:PROC
EXTRN	__imp__PostQuitMessage@4:PROC
EXTRN	__imp__RegisterClassA@4:PROC
EXTRN	__imp__UnregisterClassA@8:PROC
EXTRN	__imp__CreateWindowExA@48:PROC
EXTRN	__imp__IsWindow@4:PROC
EXTRN	__imp__ShowWindow@8:PROC
EXTRN	__imp__CharUpperA@4:PROC
EXTRN	__imp__CharLowerA@4:PROC
EXTRN	__imp__GetActiveWindow@0:PROC
EXTRN	__imp__GetSystemMetrics@4:PROC
EXTRN	__imp__GetWindowTextA@12:PROC
EXTRN	__imp__MessageBoxA@16:PROC
EXTRN	__imp__MessageBeep@4:PROC
EXTRN	__imp__GetDesktopWindow@0:PROC
EXTRN	__imp__LoadCursorA@8:PROC
EXTRN	__imp__LoadIconA@8:PROC
EXTRN	__imp__WinHelpA@16:PROC
EXTRN	__imp__calloc:PROC
EXTRN	__imp__free:PROC
EXTRN	__imp___msize:PROC
EXTRN	__imp__atof:PROC
EXTRN	__imp__atoi:PROC
EXTRN	__imp__atol:PROC
EXTRN	__imp___ltoa:PROC
EXTRN	__imp__floor:PROC
EXTRN	_TraceLineI@8:PROC
EXTRN	_DisplayOpenFiles@8:PROC
EXTRN	_TraceLineS@8:PROC
EXTRN	_TraceLine:PROC
EXTRN	_IssueError@16:PROC
EXTRN	_SetViewFlags@8:PROC
EXTRN	_GetDefaultViewForActiveTask@0:PROC
EXTRN	_GetViewByName@16:PROC
EXTRN	_CreateEntity@12:PROC
EXTRN	_GetEntityKey@8:PROC
EXTRN	_SetCursorFirstEntityByString@20:PROC
EXTRN	_MiListOE_Memory@8:PROC
EXTRN	_GetStringFromAttribute@16:PROC
EXTRN	_SetAttributeFromString@16:PROC
EXTRN	_UfFormatDateTime@12:PROC
EXTRN	_MessageSend@24:PROC
EXTRN	_NetClose@8:PROC
EXTRN	_NetCallOperation:PROC
EXTRN	_NetStatus@8:PROC
EXTRN	_SfStartNetworks@8:PROC
EXTRN	_ActivateViewObject@12:PROC
EXTRN	_SfCreateSystemSubtask@12:PROC
EXTRN	_SfDropSubtask@8:PROC
EXTRN	_UfStringToDateTime@8:PROC
EXTRN	_UfDateTimeDiff@16:PROC
EXTRN	_SfGetApplicationForSubtask@8:PROC
EXTRN	_fnParseAppString:PROC
EXTRN	_fnCreateApp:PROC
EXTRN	_fnAllocDataspace:PROC
EXTRN	_fnStoreStringInDataspace:PROC
EXTRN	_fnInitializeDataspace:PROC
EXTRN	_fnFreeDataspace:PROC
EXTRN	_fnIssueCoreError:PROC
EXTRN	_DeleteTask@4:PROC
EXTRN	_fnDropTaskDomains@4:PROC
EXTRN	_fnCreateTask:PROC
EXTRN	_fnGetApplicationForSubtask@8:PROC
EXTRN	_fnStartBrowseOfTaskList@8:PROC
EXTRN	_fnEndBrowseOfTaskList@4:PROC
EXTRN	_fnValidView:PROC
EXTRN	_fnDropTaskOperation@8:PROC
EXTRN	__imp____stdio_common_vsprintf:PROC
EXTRN	_HtmlHelpA@16:PROC
EXTRN	_fnTraceCompileTime@0:PROC
EXTRN	@__security_check_cookie@4:PROC
EXTRN	__chkstk:PROC
EXTRN	_g_pProbeArea:DWORD
EXTRN	___security_cookie:DWORD
EXTRN	__fltused:DWORD
_DATA	SEGMENT
COMM	?_OptionsStorage@?1??__local_stdio_printf_options@@9@9:QWORD							; `__local_stdio_printf_options'::`2'::_OptionsStorage
_DATA	ENDS
;	COMDAT __xmm@80000000000000008000000000000000
CONST	SEGMENT
__xmm@80000000000000008000000000000000 DB 00H, 00H, 00H, 00H, 00H, 00H, 00H
	DB	080H, 00H, 00H, 00H, 00H, 00H, 00H, 00H, 080H
CONST	ENDS
;	COMDAT __xmm@41f00000000000000000000000000000
CONST	SEGMENT
__xmm@41f00000000000000000000000000000 DB 00H, 00H, 00H, 00H, 00H, 00H, 00H
	DB	00H, 00H, 00H, 00H, 00H, 00H, 00H, 0f0H, 'A'
CONST	ENDS
;	COMDAT __real@408f400000000000
CONST	SEGMENT
__real@408f400000000000 DQ 0408f400000000000r	; 1000
CONST	ENDS
;	COMDAT __real@4024000000000000
CONST	SEGMENT
__real@4024000000000000 DQ 04024000000000000r	; 10
CONST	ENDS
;	COMDAT __real@3ff0000000000000
CONST	SEGMENT
__real@3ff0000000000000 DQ 03ff0000000000000r	; 1
CONST	ENDS
;	COMDAT __real@3fe0000000000000
CONST	SEGMENT
__real@3fe0000000000000 DQ 03fe0000000000000r	; 0.5
CONST	ENDS
;	COMDAT __real@0000000000000000
CONST	SEGMENT
__real@0000000000000000 DQ 00000000000000000r	; 0
CONST	ENDS
; Function compile flags: /Odtp
; File c:\10c\w\oe\kzoesyaa.c
_TEXT	SEGMENT
_hNextLibrary$1 = -756					; size = 4
_lpNextTaskOperation$2 = -752				; size = 4
_lpSystemTask$3 = -748					; size = 4
_lpProcessList$4 = -744					; size = 4
_lpLibrary$5 = -740					; size = 4
_vSystemView$6 = -736					; size = 4
_lpNextNetwork$7 = -732					; size = 4
tv64 = -728						; size = 4
_hMutex$8 = -724					; size = 4
_hNextMutex$9 = -720					; size = 4
_lpPrevMutex$10 = -716					; size = 4
_lProcessID$11 = -712					; size = 4
_hLibrary$12 = -708					; size = 4
_lpTaskOperation$13 = -704				; size = 4
_lpNetwork$14 = -700					; size = 4
_lpMutex$15 = -696					; size = 4
_k$16 = -692						; size = 4
_lpTask$17 = -688					; size = 4
_k$18 = -684						; size = 2
_os$19 = -680						; size = 148
_szFileName$20 = -532					; size = 257
_szMessage$21 = -272					; size = 256
_szServerMode$22 = -16					; size = 10
__$ArrayPad$ = -4					; size = 4
_hDLL$ = 8						; size = 4
_dwReason$ = 12						; size = 4
_lpReserved$ = 16					; size = 4
_DllMain@12 PROC

; 10307: {

	push	ebp
	mov	ebp, esp
	sub	esp, 756				; 000002f4H
	mov	eax, DWORD PTR ___security_cookie
	xor	eax, ebp
	mov	DWORD PTR __$ArrayPad$[ebp], eax

; 10308:   switch ( dwReason )

	mov	eax, DWORD PTR _dwReason$[ebp]
	mov	DWORD PTR tv64[ebp], eax
	cmp	DWORD PTR tv64[ebp], 0
	je	$LN31@DllMain
	cmp	DWORD PTR tv64[ebp], 1
	je	SHORT $LN26@DllMain
	jmp	$LN2@DllMain
$LN26@DllMain:

; 10309:   {
; 10310:       case DLL_PROCESS_ATTACH:
; 10311:       {
; 10312:          zSHORT        k;
; 10313:          OSVERSIONINFO os;
; 10314:          zCHAR         szFileName[ zMAX_FILENAME_LTH + 1 ];
; 10315:          zCHAR         szServerMode[ 10 ];
; 10316: 
; 10317:          g_lCurrentProcessID = SysGetProcessID( 0 );

	push	0
	call	_SysGetProcessID@4
	mov	DWORD PTR _g_lCurrentProcessID, eax

; 10318:          g_hInstance = hDLL;

	mov	ecx, DWORD PTR _hDLL$[ebp]
	mov	DWORD PTR _g_hInstance, ecx

; 10319: 
; 10320: #ifdef DEBUG_MALLOC
; 10321:          SysMalloc( -2 );
; 10322: #endif
; 10323:          // Register message of Object Services.
; 10324:          g_wOENG_Message = RegisterWindowMessage( "KZOESRVC" );

	push	OFFSET $SG100909
	call	DWORD PTR __imp__RegisterWindowMessageA@4
	mov	DWORD PTR _g_wOENG_Message, eax

; 10325: 
; 10326:          // Figure out the OS version.
; 10327:          zmemset( &os, 0, sizeof( os ) );

	push	148					; 00000094H
	push	0
	lea	edx, DWORD PTR _os$19[ebp]
	push	edx
	call	_memset
	add	esp, 12					; 0000000cH

; 10328:          os.dwOSVersionInfoSize = sizeof( os );

	mov	DWORD PTR _os$19[ebp], 148		; 00000094H

; 10329:          GetVersionEx( &os );

	lea	eax, DWORD PTR _os$19[ebp]
	push	eax
	call	DWORD PTR __imp__GetVersionExA@4

; 10330: 
; 10331:          // Check the ServerMode flag in Zeidon.ini.  Since the OE is not running
; 10332:          // yet, we have to use GetPrivateProfileString( ).
; 10333:          k = fnBuildZeidonIni( szFileName, sizeof( szFileName ) );

	push	257					; 00000101H
	lea	ecx, DWORD PTR _szFileName$20[ebp]
	push	ecx
	call	_fnBuildZeidonIni
	add	esp, 8
	mov	WORD PTR _k$18[ebp], ax

; 10334:          if ( k == 0 )

	movsx	edx, WORD PTR _k$18[ebp]
	test	edx, edx
	jne	SHORT $LN27@DllMain

; 10335:          {
; 10336:             char szMessage[ 256 ];
; 10337: 
; 10338:             // {2,"KZOEE002 - ZEIDON environment variable not set"},
; 10339:             SysGetBaseMessage( szMessage, KZOEE002, sizeof( szMessage ) );

	push	256					; 00000100H
	push	2
	lea	eax, DWORD PTR _szMessage$21[ebp]
	push	eax
	call	_SysGetBaseMessage@12

; 10340:             SysMessageBox( 0, szlOE_SystemError, szMessage, -1 );

	push	-1
	lea	ecx, DWORD PTR _szMessage$21[ebp]
	push	ecx
	mov	edx, DWORD PTR _szlOE_SystemError
	push	edx
	push	0
	call	_SysMessageBox@16

; 10341: 
; 10342:             return( 1 );

	mov	eax, 1
	jmp	$LN1@DllMain
$LN27@DllMain:

; 10343:          }
; 10344: 
; 10345:          GetPrivateProfileString( "ObjectEngine", "ServerMode", "N", szServerMode,

	lea	eax, DWORD PTR _szFileName$20[ebp]
	push	eax
	push	10					; 0000000aH
	lea	ecx, DWORD PTR _szServerMode$22[ebp]
	push	ecx
	push	OFFSET $SG100911
	push	OFFSET $SG100912
	push	OFFSET $SG100913
	call	DWORD PTR __imp__GetPrivateProfileStringA@24

; 10346:                                   sizeof( szServerMode ), szFileName );
; 10347:          if ( toupper( szServerMode[ 0 ] ) == 'Y' )

	mov	edx, 1
	imul	eax, edx, 0
	movsx	ecx, BYTE PTR _szServerMode$22[ebp+eax]
	push	ecx
	call	DWORD PTR __imp__toupper
	add	esp, 4
	cmp	eax, 89					; 00000059H
	jne	SHORT $LN28@DllMain

; 10348:             g_bServerMode = TRUE;

	mov	BYTE PTR _g_bServerMode, 1
$LN28@DllMain:

; 10349: 
; 10350:          // We need to set up the handle/pointer conversion function.  In
; 10351:          // Win95, handle and pointers are the same thing.  Note that in
; 10352:          // server mode, handles and pointers are the same as well, so we'll
; 10353:          // use the same conversion functions.
; 10354:          if ( os.dwPlatformId == VER_PLATFORM_WIN32_NT && g_bServerMode == FALSE )

	cmp	DWORD PTR _os$19[ebp+16], 2
	jne	SHORT $LN29@DllMain
	movzx	edx, BYTE PTR _g_bServerMode
	test	edx, edx
	jne	SHORT $LN29@DllMain

; 10355:          {
; 10356:             g_bWin95 = FALSE;

	mov	BYTE PTR _g_bWin95, 0

; 10357:             g_pfnGetPtr = fnSysGetPointerFromHandleShared;

	mov	DWORD PTR _g_pfnGetPtr, OFFSET _fnSysGetPointerFromHandleShared@4

; 10358:             g_pfnGetHndl = fnSysGetHandleFromPointerShared;

	mov	DWORD PTR _g_pfnGetHndl, OFFSET _fnSysGetHandleFromPointerShared@4

; 10359:          }

	jmp	SHORT $LN30@DllMain
$LN29@DllMain:

; 10360:          else
; 10361:          {
; 10362:             g_pfnGetPtr = fnSysGetPointerFromHandleServerMode;

	mov	DWORD PTR _g_pfnGetPtr, OFFSET _fnSysGetPointerFromHandleServerMode@4

; 10363:             g_pfnGetHndl = fnSysGetHandleFromPointerServerMode;

	mov	DWORD PTR _g_pfnGetHndl, OFFSET _fnSysGetHandleFromPointerServerMode@4
$LN30@DllMain:

; 10364:          }
; 10365: 
; 10366: #ifdef __MUTEX_DEBUG__
; 10367:          g_hMutexDbg = CreateMutex( NULL, FALSE, MUTEXDBG_NAME );
; 10368: #endif
; 10369: 
; 10370:          for ( k = 0; k < zMUTEX_COUNT; k++ )

	xor	eax, eax
	mov	WORD PTR _k$18[ebp], ax
	jmp	SHORT $LN6@DllMain
$LN4@DllMain:
	mov	cx, WORD PTR _k$18[ebp]
	add	cx, 1
	mov	WORD PTR _k$18[ebp], cx
$LN6@DllMain:
	movsx	edx, WORD PTR _k$18[ebp]
	cmp	edx, 16					; 00000010H
	jge	SHORT $LN5@DllMain

; 10371:             zCREATE_MUTEX( k );

	movsx	eax, WORD PTR _k$18[ebp]
	push	eax
	call	_fnSysCreateCoreMutex@4
	jmp	SHORT $LN4@DllMain
$LN5@DllMain:

; 10372: 
; 10373:          // Initialize critical sections used in this file.
; 10374:          InitializeCriticalSection( &g_csSysLoadLibrary );

	push	OFFSET _g_csSysLoadLibrary
	call	DWORD PTR __imp__InitializeCriticalSection@4

; 10375:          InitializeCriticalSection( &g_csReuseEntity );

	push	OFFSET _g_csReuseEntity
	call	DWORD PTR __imp__InitializeCriticalSection@4

; 10376: 
; 10377:          break;

	jmp	$LN2@DllMain
$LN31@DllMain:

; 10378:       }
; 10379: 
; 10380:       case DLL_PROCESS_DETACH:
; 10381:       {
; 10382:          zLONG     k;
; 10383: 
; 10384:          if ( AnchorBlock )

	cmp	DWORD PTR _AnchorBlock, 0
	je	$LN32@DllMain

; 10385:          {
; 10386:             LPPROCESSLIST lpProcessList;
; 10387:             LPTASK     lpSystemTask = zGETPTR( AnchorBlock->hMainTask );

	mov	ecx, DWORD PTR _AnchorBlock
	mov	edx, DWORD PTR [ecx+106]
	push	edx
	call	DWORD PTR _g_pfnGetPtr
	mov	DWORD PTR _lpSystemTask$3[ebp], eax

; 10388:             zVIEW      vSystemView = zGETPTR( lpSystemTask->hFirstView );

	mov	eax, DWORD PTR _lpSystemTask$3[ebp]
	mov	ecx, DWORD PTR [eax+106]
	push	ecx
	call	DWORD PTR _g_pfnGetPtr
	mov	DWORD PTR _vSystemView$6[ebp], eax

; 10389:             LPTASK     lpTask;
; 10390:             LPNETWORK  lpNetwork;
; 10391:             LPNETWORK  lpNextNetwork;
; 10392:             LPTASKOPER lpTaskOperation;
; 10393:             LPTASKOPER lpNextTaskOperation;
; 10394:             LPLIBRARY  hLibrary;
; 10395:             LPLIBRARY  lpLibrary;
; 10396:             LPLIBRARY  hNextLibrary;
; 10397:             LPMUTEX    hMutex;
; 10398:             LPMUTEX    lpMutex;
; 10399:             LPMUTEX    lpPrevMutex;
; 10400:             LPMUTEX    hNextMutex;
; 10401:             zLONG      lProcessID = GetCurrentProcessId( );

	call	DWORD PTR __imp__GetCurrentProcessId@0
	mov	DWORD PTR _lProcessID$11[ebp], eax

; 10402: 
; 10403:             if ( vSystemView )

	cmp	DWORD PTR _vSystemView$6[ebp], 0
	je	$LN33@DllMain

; 10404:             {
; 10405:                zLOCK_MUTEX( zMUTEX_NETWORKCHAIN );

	push	15					; 0000000fH
	call	_fnSysLockCoreMutex@4

; 10406: 
; 10407:                lpNextNetwork = 0;

	mov	DWORD PTR _lpNextNetwork$7[ebp], 0

; 10408:                for ( lpNetwork = zGETPTR( AnchorBlock->hFirstNetwork );

	mov	edx, DWORD PTR _AnchorBlock
	mov	eax, DWORD PTR [edx+122]
	push	eax
	call	DWORD PTR _g_pfnGetPtr
	mov	DWORD PTR _lpNetwork$14[ebp], eax
	jmp	SHORT $LN9@DllMain
$LN7@DllMain:

; 10410:                      lpNetwork = lpNextNetwork )

	mov	ecx, DWORD PTR _lpNextNetwork$7[ebp]
	mov	DWORD PTR _lpNetwork$14[ebp], ecx
$LN9@DllMain:

; 10409:                      lpNetwork;

	cmp	DWORD PTR _lpNetwork$14[ebp], 0
	je	SHORT $LN8@DllMain

; 10411:                {
; 10412:                   lpNextNetwork = zGETPTR( lpNetwork->hNextNetwork );

	mov	edx, DWORD PTR _lpNetwork$14[ebp]
	mov	eax, DWORD PTR [edx]
	push	eax
	call	DWORD PTR _g_pfnGetPtr
	mov	DWORD PTR _lpNextNetwork$7[ebp], eax

; 10413: 
; 10414:                   if ( lpNetwork->lProcessID != lProcessID )

	mov	ecx, DWORD PTR _lpNetwork$14[ebp]
	mov	edx, DWORD PTR [ecx+4]
	cmp	edx, DWORD PTR _lProcessID$11[ebp]
	je	SHORT $LN34@DllMain

; 10415:                      continue;

	jmp	SHORT $LN7@DllMain
$LN34@DllMain:

; 10416: 
; 10417:                   NetClose( vSystemView, lpNetwork->szNetworkName );

	mov	eax, DWORD PTR _lpNetwork$14[ebp]
	add	eax, 20					; 00000014H
	push	eax
	mov	ecx, DWORD PTR _vSystemView$6[ebp]
	push	ecx
	call	_NetClose@8

; 10418:                }

	jmp	SHORT $LN7@DllMain
$LN8@DllMain:

; 10419: 
; 10420:                zUNLOCK_MUTEX( zMUTEX_NETWORKCHAIN );

	push	15					; 0000000fH
	call	_fnSysUnlockCoreMutex@4
$LN33@DllMain:

; 10421:             }
; 10422: 
; 10423:             zLOCK_MUTEX( zMUTEX_ANCHORBLOCK );

	push	2
	call	_fnSysLockCoreMutex@4

; 10424: 
; 10425:             // Get a 'write' lock on the task list.  We pass in -1 for the
; 10426:             // task to indicate that we have no task.  It is used by Browse
; 10427:             // for information only.
; 10428:             fnStartBrowseOfTaskList( (LPTASK) -1, FALSE );

	push	0
	push	-1
	call	_fnStartBrowseOfTaskList@8

; 10429: 
; 10430:             for ( lpTask = zGETPTR( AnchorBlock->hFirstTask );

	mov	edx, DWORD PTR _AnchorBlock
	mov	eax, DWORD PTR [edx+130]
	push	eax
	call	DWORD PTR _g_pfnGetPtr
	mov	DWORD PTR _lpTask$17[ebp], eax
	jmp	SHORT $LN12@DllMain
$LN10@DllMain:

; 10432:                   lpTask = zGETPTR( lpTask->hNextTask ) )

	mov	ecx, DWORD PTR _lpTask$17[ebp]
	mov	edx, DWORD PTR [ecx+2]
	push	edx
	call	DWORD PTR _g_pfnGetPtr
	mov	DWORD PTR _lpTask$17[ebp], eax
$LN12@DllMain:

; 10431:                   lpTask;

	cmp	DWORD PTR _lpTask$17[ebp], 0
	je	$LN11@DllMain

; 10433:             {
; 10434:                for ( lpTaskOperation = zGETPTR( lpTask->hFirstTaskOperation );

	mov	eax, DWORD PTR _lpTask$17[ebp]
	mov	ecx, DWORD PTR [eax+130]
	push	ecx
	call	DWORD PTR _g_pfnGetPtr
	mov	DWORD PTR _lpTaskOperation$13[ebp], eax
	jmp	SHORT $LN15@DllMain
$LN13@DllMain:

; 10436:                      lpTaskOperation = lpNextTaskOperation )

	mov	edx, DWORD PTR _lpNextTaskOperation$2[ebp]
	mov	DWORD PTR _lpTaskOperation$13[ebp], edx
$LN15@DllMain:

; 10435:                      lpTaskOperation;

	cmp	DWORD PTR _lpTaskOperation$13[ebp], 0
	je	SHORT $LN14@DllMain

; 10437:                {
; 10438:                   lpNextTaskOperation =

	mov	eax, DWORD PTR _lpTaskOperation$13[ebp]
	mov	ecx, DWORD PTR [eax+2]
	push	ecx
	call	DWORD PTR _g_pfnGetPtr
	mov	DWORD PTR _lpNextTaskOperation$2[ebp], eax

; 10439:                         zGETPTR( lpTaskOperation->hNextTaskOperationForTask );
; 10440: 
; 10441:                   if ( lpTaskOperation->lProcessID == g_lCurrentProcessID )

	mov	edx, DWORD PTR _lpTaskOperation$13[ebp]
	mov	eax, DWORD PTR [edx+34]
	cmp	eax, DWORD PTR _g_lCurrentProcessID
	jne	SHORT $LN35@DllMain

; 10442:                   {
; 10443:                      fnDropTaskOperation( lpTask, lpTaskOperation );

	mov	ecx, DWORD PTR _lpTaskOperation$13[ebp]
	push	ecx
	mov	edx, DWORD PTR _lpTask$17[ebp]
	push	edx
	call	_fnDropTaskOperation@8
$LN35@DllMain:

; 10444:                   }
; 10445:                }

	jmp	SHORT $LN13@DllMain
$LN14@DllMain:

; 10446: 
; 10447:                hLibrary = lpTask->hFirstLibrary;

	mov	eax, DWORD PTR _lpTask$17[ebp]
	mov	ecx, DWORD PTR [eax+122]
	mov	DWORD PTR _hLibrary$12[ebp], ecx
$LN16@DllMain:

; 10448:                while ( hLibrary )

	cmp	DWORD PTR _hLibrary$12[ebp], 0
	je	SHORT $LN17@DllMain

; 10449:                {
; 10450:                   lpLibrary = zGETPTR( hLibrary );

	mov	edx, DWORD PTR _hLibrary$12[ebp]
	push	edx
	call	DWORD PTR _g_pfnGetPtr
	mov	DWORD PTR _lpLibrary$5[ebp], eax

; 10451:                   hNextLibrary = lpLibrary->hNextLibrary;

	mov	eax, DWORD PTR _lpLibrary$5[ebp]
	mov	ecx, DWORD PTR [eax+2]
	mov	DWORD PTR _hNextLibrary$1[ebp], ecx

; 10452:                   if ( lProcessID == lpLibrary->lProcessID )

	mov	edx, DWORD PTR _lpLibrary$5[ebp]
	mov	eax, DWORD PTR _lProcessID$11[ebp]
	cmp	eax, DWORD PTR [edx+271]
	jne	SHORT $LN36@DllMain

; 10453:                      fnSysFreeLibrary( lpTask, hLibrary, TRUE );

	push	1
	mov	ecx, DWORD PTR _hLibrary$12[ebp]
	push	ecx
	mov	edx, DWORD PTR _lpTask$17[ebp]
	push	edx
	call	_fnSysFreeLibrary@12
$LN36@DllMain:

; 10454: 
; 10455:                   hLibrary = hNextLibrary;

	mov	eax, DWORD PTR _hNextLibrary$1[ebp]
	mov	DWORD PTR _hLibrary$12[ebp], eax

; 10456:                }

	jmp	SHORT $LN16@DllMain
$LN17@DllMain:

; 10457: 
; 10458:                fnDropTaskDomains( lpTask );

	mov	ecx, DWORD PTR _lpTask$17[ebp]
	push	ecx
	call	_fnDropTaskDomains@4

; 10459: 
; 10460:             // zLOCK_MUTEX( zMUTEX_MUTEX );    // protected by zMUTEX_ANCHORBLOCK
; 10461:                lpPrevMutex = 0;

	mov	DWORD PTR _lpPrevMutex$10[ebp], 0

; 10462:                hMutex = lpTask->hFirstMutex;

	mov	edx, DWORD PTR _lpTask$17[ebp]
	mov	eax, DWORD PTR [edx+150]
	mov	DWORD PTR _hMutex$8[ebp], eax
$LN18@DllMain:

; 10463:                while ( hMutex )

	cmp	DWORD PTR _hMutex$8[ebp], 0
	je	$LN19@DllMain

; 10464:                {
; 10465:                   lpMutex = zGETPTR( hMutex );

	mov	ecx, DWORD PTR _hMutex$8[ebp]
	push	ecx
	call	DWORD PTR _g_pfnGetPtr
	mov	DWORD PTR _lpMutex$15[ebp], eax

; 10466:                   hNextMutex = lpMutex->hNextMutex;

	mov	edx, DWORD PTR _lpMutex$15[ebp]
	mov	eax, DWORD PTR [edx+2]
	mov	DWORD PTR _hNextMutex$9[ebp], eax

; 10467:                   if ( lProcessID == lpMutex->lProcessID )

	mov	ecx, DWORD PTR _lpMutex$15[ebp]
	mov	edx, DWORD PTR _lProcessID$11[ebp]
	cmp	edx, DWORD PTR [ecx+89]
	jne	$LN37@DllMain

; 10468:                   {
; 10469:                      if ( lpMutex->nLockCount )

	mov	eax, DWORD PTR _lpMutex$15[ebp]
	movsx	ecx, WORD PTR [eax+75]
	test	ecx, ecx
	je	SHORT $LN39@DllMain

; 10470:                      {
; 10471:                         // First set nLockCount to 1 so that the next call to
; 10472:                         // fnSysMutexUnlock actually unlocks the mutex.
; 10473:                         lpMutex->nLockCount = 1;

	mov	edx, 1
	mov	eax, DWORD PTR _lpMutex$15[ebp]
	mov	WORD PTR [eax+75], dx

; 10474:                         fnSysMutexUnlock( lpTask, lpMutex );

	mov	ecx, DWORD PTR _lpMutex$15[ebp]
	push	ecx
	mov	edx, DWORD PTR _lpTask$17[ebp]
	push	edx
	call	_fnSysMutexUnlock@8
$LN39@DllMain:

; 10475:                      }
; 10476: 
; 10477:                      fnSysMutexDestroy( lpTask, lpMutex );

	mov	eax, DWORD PTR _lpMutex$15[ebp]
	push	eax
	mov	ecx, DWORD PTR _lpTask$17[ebp]
	push	ecx
	call	_fnSysMutexDestroy@8

; 10478:                      if ( lpPrevMutex )

	cmp	DWORD PTR _lpPrevMutex$10[ebp], 0
	je	SHORT $LN40@DllMain

; 10479:                         lpPrevMutex->hNextMutex = hNextMutex;

	mov	edx, DWORD PTR _lpPrevMutex$10[ebp]
	mov	eax, DWORD PTR _hNextMutex$9[ebp]
	mov	DWORD PTR [edx+2], eax
	jmp	SHORT $LN41@DllMain
$LN40@DllMain:

; 10480:                      else
; 10481:                         lpTask->hFirstMutex = hNextMutex;

	mov	ecx, DWORD PTR _lpTask$17[ebp]
	mov	edx, DWORD PTR _hNextMutex$9[ebp]
	mov	DWORD PTR [ecx+150], edx
$LN41@DllMain:

; 10482: 
; 10483:                      fnFreeDataspace( lpMutex );

	mov	eax, DWORD PTR _lpMutex$15[ebp]
	push	eax
	call	_fnFreeDataspace
	add	esp, 4

; 10484:                   }

	jmp	SHORT $LN38@DllMain
$LN37@DllMain:

; 10485:                   else
; 10486:                      lpPrevMutex = lpMutex;

	mov	ecx, DWORD PTR _lpMutex$15[ebp]
	mov	DWORD PTR _lpPrevMutex$10[ebp], ecx
$LN38@DllMain:

; 10487: 
; 10488:                   hMutex = hNextMutex;

	mov	edx, DWORD PTR _hNextMutex$9[ebp]
	mov	DWORD PTR _hMutex$8[ebp], edx

; 10489:                }

	jmp	$LN18@DllMain
$LN19@DllMain:

; 10490: 
; 10491:             // zUNLOCK_MUTEX( zMUTEX_MUTEX );
; 10492:             }

	jmp	$LN10@DllMain
$LN11@DllMain:

; 10493: 
; 10494:             fnEndBrowseOfTaskList( FALSE );

	push	0
	call	_fnEndBrowseOfTaskList@4

; 10495:             zUNLOCK_MUTEX( zMUTEX_ANCHORBLOCK );

	push	2
	call	_fnSysUnlockCoreMutex@4

; 10496: 
; 10497:             for ( k = 0; k < AnchorBlock->OS_Data.lProcessCount; k++ )

	mov	DWORD PTR _k$16[ebp], 0
	jmp	SHORT $LN22@DllMain
$LN20@DllMain:
	mov	eax, DWORD PTR _k$16[ebp]
	add	eax, 1
	mov	DWORD PTR _k$16[ebp], eax
$LN22@DllMain:
	mov	ecx, DWORD PTR _AnchorBlock
	mov	edx, DWORD PTR _k$16[ebp]
	cmp	edx, DWORD PTR [ecx+1507]
	jge	SHORT $LN32@DllMain

; 10498:             {
; 10499:                lpProcessList = &AnchorBlock->OS_Data.ProcessList[ k ];

	imul	eax, DWORD PTR _k$16[ebp], 20
	mov	ecx, DWORD PTR _AnchorBlock
	lea	edx, DWORD PTR [ecx+eax+1511]
	mov	DWORD PTR _lpProcessList$4[ebp], edx

; 10500:                if ( lpProcessList->lProcessID == lProcessID )

	mov	eax, DWORD PTR _lpProcessList$4[ebp]
	mov	ecx, DWORD PTR [eax+16]
	cmp	ecx, DWORD PTR _lProcessID$11[ebp]
	jne	SHORT $LN42@DllMain

; 10501:                {
; 10502:                   lpProcessList->lProcessID = 0;

	mov	edx, DWORD PTR _lpProcessList$4[ebp]
	mov	DWORD PTR [edx+16], 0

; 10503:                   break;

	jmp	SHORT $LN32@DllMain
$LN42@DllMain:

; 10504:                }
; 10505:             }

	jmp	SHORT $LN20@DllMain
$LN32@DllMain:

; 10506:          }
; 10507: 
; 10508:          for ( k = 0; k < zMUTEX_COUNT; k++ )

	mov	DWORD PTR _k$16[ebp], 0
	jmp	SHORT $LN25@DllMain
$LN23@DllMain:
	mov	eax, DWORD PTR _k$16[ebp]
	add	eax, 1
	mov	DWORD PTR _k$16[ebp], eax
$LN25@DllMain:
	cmp	DWORD PTR _k$16[ebp], 16		; 00000010H
	jge	SHORT $LN24@DllMain

; 10509:             zDESTROY_MUTEX( k );

	mov	ecx, DWORD PTR _k$16[ebp]
	push	ecx
	call	_fnSysDestroyCoreMutex@4
	jmp	SHORT $LN23@DllMain
$LN24@DllMain:

; 10510: 
; 10511: #ifdef __MUTEX_DEBUG__
; 10512:          if ( g_hMutexDbg )
; 10513:             CloseHandle( g_hMutexDbg );
; 10514: 
; 10515:          if ( g_hMutexMemFile )
; 10516:             CloseHandle( g_hMutexMemFile );
; 10517: #endif
; 10518: 
; 10519:          // Delete critical sections used in this file.
; 10520:          DeleteCriticalSection( &g_csSysLoadLibrary );

	push	OFFSET _g_csSysLoadLibrary
	call	DWORD PTR __imp__DeleteCriticalSection@4

; 10521:          DeleteCriticalSection( &g_csReuseEntity );

	push	OFFSET _g_csReuseEntity
	call	DWORD PTR __imp__DeleteCriticalSection@4
$LN2@DllMain:

; 10522: 
; 10523:          break;
; 10524:       }
; 10525:    }
; 10526: 
; 10527:    return( TRUE );

	mov	eax, 1
$LN1@DllMain:

; 10528: }

	mov	ecx, DWORD PTR __$ArrayPad$[ebp]
	xor	ecx, ebp
	call	@__security_check_cookie@4
	mov	esp, ebp
	pop	ebp
	ret	12					; 0000000cH
_DllMain@12 ENDP
_TEXT	ENDS
; Function compile flags: /Odtp
; File c:\10c\w\oe\kzoesyaa.c
_TEXT	SEGMENT
tv66 = -4						; size = 4
_hWnd$ = 8						; size = 4
_uMsg$ = 12						; size = 4
_wParam$ = 16						; size = 4
_lParam$ = 20						; size = 4
_SysMainWndProc@16 PROC

; 10174: {

	push	ebp
	mov	ebp, esp
	push	ecx

; 10175:    TraceLineI( "SysMainWndProc for Tomcat session Wnd: ", (zLONG) hWnd );

	mov	eax, DWORD PTR _hWnd$[ebp]
	push	eax
	push	OFFSET $SG100811
	call	_TraceLineI@8

; 10176:    switch ( uMsg )

	mov	ecx, DWORD PTR _uMsg$[ebp]
	mov	DWORD PTR tv66[ebp], ecx
	cmp	DWORD PTR tv66[ebp], 2
	je	SHORT $LN4@SysMainWnd
	jmp	SHORT $LN5@SysMainWnd
$LN4@SysMainWnd:

; 10177:    {
; 10178:       case WM_DESTROY:        // message: window being destroyed
; 10179:          PostQuitMessage( 0 );

	push	0
	call	DWORD PTR __imp__PostQuitMessage@4

; 10180:          break;

	jmp	SHORT $LN2@SysMainWnd
$LN5@SysMainWnd:

; 10181: 
; 10182:       default:
; 10183:          if ( uMsg == g_wClientMessage )

	mov	edx, DWORD PTR _uMsg$[ebp]
	cmp	edx, DWORD PTR _g_wClientMessage
	jne	SHORT $LN2@SysMainWnd

; 10184:          {
; 10185:             TraceLineI( "SysMainWndProc for Tomcat session Wnd: ", (zLONG) hWnd );

	mov	eax, DWORD PTR _hWnd$[ebp]
	push	eax
	push	OFFSET $SG100815
	call	_TraceLineI@8

; 10186:             ProcessZeidonMessage( wParam, lParam );

	mov	ecx, DWORD PTR _lParam$[ebp]
	push	ecx
	mov	edx, DWORD PTR _wParam$[ebp]
	push	edx
	call	_ProcessZeidonMessage@8
$LN2@SysMainWnd:

; 10187:          }
; 10188: 
; 10189:          break;
; 10190:    }
; 10191: 
; 10192:    return( DefWindowProc( hWnd, uMsg, wParam, lParam ));

	mov	eax, DWORD PTR _lParam$[ebp]
	push	eax
	mov	ecx, DWORD PTR _wParam$[ebp]
	push	ecx
	mov	edx, DWORD PTR _uMsg$[ebp]
	push	edx
	mov	eax, DWORD PTR _hWnd$[ebp]
	push	eax
	call	DWORD PTR __imp__DefWindowProcA@16

; 10193: }

	mov	esp, ebp
	pop	ebp
	ret	16					; 00000010H
_SysMainWndProc@16 ENDP
_TEXT	ENDS
; Function compile flags: /Odtp
; File c:\10c\w\oe\kzoesyaa.c
_TEXT	SEGMENT
_lHash$ = -8						; size = 4
_nLth$ = -4						; size = 4
_cpcName$ = 8						; size = 4
_fnHashName@4 PROC

; 8693 : {

	push	ebp
	mov	ebp, esp
	sub	esp, 8

; 8694 :    zLONG  nLth = zstrlen( cpcName );

	mov	eax, DWORD PTR _cpcName$[ebp]
	push	eax
	call	_strlen
	add	esp, 4
	mov	DWORD PTR _nLth$[ebp], eax

; 8695 :    zLONG  lHash;
; 8696 : 
; 8697 :    // If the string is long enough we'll skip the first 2 bytes of the string
; 8698 :    // and create a hash value from two long variables.
; 8699 :    if ( nLth >= 2 + 2 * sizeof( zLONG ) )

	cmp	DWORD PTR _nLth$[ebp], 10		; 0000000aH
	jb	SHORT $LN4@fnHashName

; 8700 :    {
; 8701 :       lHash = *(zPLONG) &cpcName[ 2 ] +

	mov	ecx, 1
	shl	ecx, 1
	mov	edx, 1
	imul	eax, edx, 6
	mov	edx, DWORD PTR _cpcName$[ebp]
	mov	eax, DWORD PTR [edx+eax]
	mov	edx, DWORD PTR _cpcName$[ebp]
	mov	ecx, DWORD PTR [edx+ecx]
	lea	edx, DWORD PTR [ecx+eax*2]
	mov	DWORD PTR _lHash$[ebp], edx

; 8702 :               // Since all the chars are < 128 (in ASCII anyway) we'll shift
; 8703 :               // the the second long value over 1 bit.
; 8704 :               (*(zPLONG) &cpcName[ 2 + sizeof( zLONG ) ] << 1);
; 8705 : 
; 8706 :       return( lHash );

	mov	eax, DWORD PTR _lHash$[ebp]
	jmp	SHORT $LN1@fnHashName
$LN4@fnHashName:

; 8707 :    }
; 8708 : 
; 8709 :    lHash = nLth << (8 * (sizeof( zLONG ) - sizeof( zSHORT )));

	mov	eax, DWORD PTR _nLth$[ebp]
	shl	eax, 16					; 00000010H
	mov	DWORD PTR _lHash$[ebp], eax

; 8710 : 
; 8711 :    if ( nLth >= sizeof( zLONG ) )

	cmp	DWORD PTR _nLth$[ebp], 4
	jb	SHORT $LN2@fnHashName

; 8712 :    {
; 8713 :       lHash += *(zPLONG) cpcName;

	mov	ecx, DWORD PTR _cpcName$[ebp]
	mov	edx, DWORD PTR _lHash$[ebp]
	add	edx, DWORD PTR [ecx]
	mov	DWORD PTR _lHash$[ebp], edx

; 8714 :       return( lHash );

	mov	eax, DWORD PTR _lHash$[ebp]
	jmp	SHORT $LN1@fnHashName
$LN2@fnHashName:

; 8715 :    }
; 8716 : 
; 8717 :    while ( nLth > 0 )

	cmp	DWORD PTR _nLth$[ebp], 0
	jle	SHORT $LN3@fnHashName

; 8718 :    {
; 8719 :       ((zPCHAR) &lHash)[ nLth ] += cpcName[ nLth - 1 ];

	mov	eax, DWORD PTR _cpcName$[ebp]
	add	eax, DWORD PTR _nLth$[ebp]
	movsx	ecx, BYTE PTR [eax-1]
	mov	edx, DWORD PTR _nLth$[ebp]
	movsx	eax, BYTE PTR _lHash$[ebp+edx]
	add	eax, ecx
	mov	ecx, DWORD PTR _nLth$[ebp]
	mov	BYTE PTR _lHash$[ebp+ecx], al

; 8720 :       nLth--;

	mov	edx, DWORD PTR _nLth$[ebp]
	sub	edx, 1
	mov	DWORD PTR _nLth$[ebp], edx

; 8721 :    }

	jmp	SHORT $LN2@fnHashName
$LN3@fnHashName:

; 8722 : 
; 8723 :    return( lHash );

	mov	eax, DWORD PTR _lHash$[ebp]
$LN1@fnHashName:

; 8724 : 
; 8725 : } // fnHashName

	mov	esp, ebp
	pop	ebp
	ret	4
_fnHashName@4 ENDP
_TEXT	ENDS
; Function compile flags: /Odtp
; File c:\10c\w\oe\kzoesyaa.c
_TEXT	SEGMENT
_d2$1 = -40						; size = 8
_d$2 = -32						; size = 8
_lCommand$ = -24					; size = 4
_iSign$3 = -20						; size = 4
tv65 = -16						; size = 4
_nPrecision$4 = -12					; size = 2
_nPrecision$5 = -8					; size = 2
_n$6 = -4						; size = 2
_pvReturn$ = 8						; size = 4
_pvDecimal$ = 12					; size = 4
_pvInfo$ = 16						; size = 4
_lControl$ = 20						; size = 4
_fnDecimalOperation@16 PROC

; 8199 : {

	push	ebp
	mov	ebp, esp
	sub	esp, 40					; 00000028H

; 8200 :    static double g_dNull = -99999999999999.9;
; 8201 : 
; 8202 :    zLONG  lCommand = lControl & zDEC_CMD;

	mov	eax, DWORD PTR _lControl$[ebp]
	and	eax, 255				; 000000ffH
	mov	DWORD PTR _lCommand$[ebp], eax

; 8203 : 
; 8204 :    switch ( lCommand )

	mov	ecx, DWORD PTR _lCommand$[ebp]
	mov	DWORD PTR tv65[ebp], ecx
	mov	edx, DWORD PTR tv65[ebp]
	sub	edx, 1
	mov	DWORD PTR tv65[ebp], edx
	cmp	DWORD PTR tv65[ebp], 52			; 00000034H
	ja	$LN2@fnDecimalO
	mov	eax, DWORD PTR tv65[ebp]
	movzx	ecx, BYTE PTR $LN45@fnDecimalO[eax]
	jmp	DWORD PTR $LN46@fnDecimalO[ecx*4]
$LN10@fnDecimalO:

; 8205 :    {
; 8206 :       case zDEC_CMD_INIT:
; 8207 :          TraceLineS( "(ZDecimal) Using default zDecimalOperation( )", "" );

	push	OFFSET $SG100441
	push	OFFSET $SG100442
	call	_TraceLineS@8

; 8208 :          TraceLineI( "(ZDecimal) Precision (in bits) = ",

	push	64					; 00000040H
	push	OFFSET $SG100443
	call	_TraceLineI@8

; 8209 :                      (zLONG) (sizeof( double ) * 8) );
; 8210 :          return( 0 );

	xor	eax, eax
	jmp	$LN1@fnDecimalO
$LN11@fnDecimalO:

; 8211 : 
; 8212 :       case zDEC_CMD_ASSIGNDEC:
; 8213 :          // Copy from 1 decimal to another.
; 8214 :          *((double *) pvReturn) = *(double *) pvDecimal;

	mov	edx, DWORD PTR _pvReturn$[ebp]
	mov	eax, DWORD PTR _pvDecimal$[ebp]
	movsd	xmm0, QWORD PTR [eax]
	movsd	QWORD PTR [edx], xmm0

; 8215 :          return( 0 );

	xor	eax, eax
	jmp	$LN1@fnDecimalO
$LN12@fnDecimalO:

; 8216 : 
; 8217 :       case zDEC_CMD_ASSIGNNULL:
; 8218 :          // Assign NULL to a decimal.
; 8219 :          *((double *) pvReturn) = g_dNull;

	mov	ecx, DWORD PTR _pvReturn$[ebp]
	movsd	xmm0, QWORD PTR ?g_dNull@?1??fnDecimalOperation@@9@9
	movsd	QWORD PTR [ecx], xmm0

; 8220 :          return( 0 );

	xor	eax, eax
	jmp	$LN1@fnDecimalO
$LN13@fnDecimalO:

; 8221 : 
; 8222 :       case zDEC_CMD_COMPAREDEC:
; 8223 :          if ( *((double *) pvDecimal) < *(double *) pvInfo )

	mov	edx, DWORD PTR _pvInfo$[ebp]
	mov	eax, DWORD PTR _pvDecimal$[ebp]
	movsd	xmm0, QWORD PTR [edx]
	comisd	xmm0, QWORD PTR [eax]
	jbe	SHORT $LN14@fnDecimalO

; 8224 :             return( -1 );

	or	eax, -1
	jmp	$LN1@fnDecimalO
	jmp	SHORT $LN17@fnDecimalO
$LN14@fnDecimalO:

; 8225 :          else
; 8226 :          if ( *((double *) pvDecimal) > *(double *) pvInfo )

	mov	ecx, DWORD PTR _pvDecimal$[ebp]
	mov	edx, DWORD PTR _pvInfo$[ebp]
	movsd	xmm0, QWORD PTR [ecx]
	comisd	xmm0, QWORD PTR [edx]
	jbe	SHORT $LN16@fnDecimalO

; 8227 :             return( 1 );

	mov	eax, 1
	jmp	$LN1@fnDecimalO
	jmp	SHORT $LN17@fnDecimalO
$LN16@fnDecimalO:

; 8228 :          else
; 8229 :             return( 0 );

	xor	eax, eax
	jmp	$LN1@fnDecimalO
$LN17@fnDecimalO:

; 8230 : 
; 8231 :       case zDEC_CMD_COMPARENULL:
; 8232 :          if ( *((double *) pvDecimal) == g_dNull )

	mov	eax, DWORD PTR _pvDecimal$[ebp]
	movsd	xmm0, QWORD PTR [eax]
	ucomisd	xmm0, QWORD PTR ?g_dNull@?1??fnDecimalOperation@@9@9
	lahf
	test	ah, 68					; 00000044H
	jp	SHORT $LN19@fnDecimalO

; 8233 :             return( 0 );

	xor	eax, eax
	jmp	$LN1@fnDecimalO
	jmp	SHORT $LN20@fnDecimalO
$LN19@fnDecimalO:

; 8234 :          else
; 8235 :             return( 1 );

	mov	eax, 1
	jmp	$LN1@fnDecimalO
$LN20@fnDecimalO:

; 8236 : 
; 8237 :       case zDEC_CMD_COMPAREDOUBLE:
; 8238 :          if ( *((double *) pvDecimal) < (long double) *((double *) pvInfo) )

	mov	ecx, DWORD PTR _pvInfo$[ebp]
	mov	edx, DWORD PTR _pvDecimal$[ebp]
	movsd	xmm0, QWORD PTR [ecx]
	comisd	xmm0, QWORD PTR [edx]
	jbe	SHORT $LN22@fnDecimalO

; 8239 :             return( -1 );

	or	eax, -1
	jmp	$LN1@fnDecimalO
	jmp	SHORT $LN25@fnDecimalO
$LN22@fnDecimalO:

; 8240 :          else
; 8241 :          if ( *((double *) pvDecimal) > (long double) *((double *) pvInfo) )

	mov	eax, DWORD PTR _pvDecimal$[ebp]
	mov	ecx, DWORD PTR _pvInfo$[ebp]
	movsd	xmm0, QWORD PTR [eax]
	comisd	xmm0, QWORD PTR [ecx]
	jbe	SHORT $LN24@fnDecimalO

; 8242 :             return( 1 );

	mov	eax, 1
	jmp	$LN1@fnDecimalO
	jmp	SHORT $LN25@fnDecimalO
$LN24@fnDecimalO:

; 8243 :          else
; 8244 :             return( 0 );

	xor	eax, eax
	jmp	$LN1@fnDecimalO
$LN25@fnDecimalO:

; 8245 : 
; 8246 :       case zDEC_CMD_STRINGTODEC:
; 8247 :          // Convert string to double.
; 8248 :          *(double *) pvReturn = atof( (char *) pvInfo );

	mov	edx, DWORD PTR _pvInfo$[ebp]
	push	edx
	call	DWORD PTR __imp__atof
	add	esp, 4
	mov	eax, DWORD PTR _pvReturn$[ebp]
	fstp	QWORD PTR [eax]

; 8249 :          return( 0 );

	xor	eax, eax
	jmp	$LN1@fnDecimalO
$LN27@fnDecimalO:

; 8250 : 
; 8251 :       case zDEC_CMD_DECTOSTRING:
; 8252 :       {
; 8253 :          short nPrecision = *((short *) pvInfo);

	mov	ecx, DWORD PTR _pvInfo$[ebp]
	mov	dx, WORD PTR [ecx]
	mov	WORD PTR _nPrecision$4[ebp], dx

; 8254 : 
; 8255 :          // Convert double to string.
; 8256 : 
; 8257 :          if ( nPrecision > 0 )

	movsx	eax, WORD PTR _nPrecision$4[ebp]
	test	eax, eax
	jle	SHORT $LN28@fnDecimalO

; 8258 :             sprintf( (char *) pvReturn, "%.*f", nPrecision, *((double *) pvDecimal) );

	mov	ecx, DWORD PTR _pvDecimal$[ebp]
	sub	esp, 8
	movsd	xmm0, QWORD PTR [ecx]
	movsd	QWORD PTR [esp], xmm0
	movsx	edx, WORD PTR _nPrecision$4[ebp]
	push	edx
	push	OFFSET $SG100463
	mov	eax, DWORD PTR _pvReturn$[ebp]
	push	eax
	call	_sprintf
	add	esp, 20					; 00000014H
	jmp	SHORT $LN29@fnDecimalO
$LN28@fnDecimalO:

; 8259 :          else
; 8260 :             sprintf( (char *) pvReturn, "%f", *((double *) pvDecimal) );

	mov	ecx, DWORD PTR _pvDecimal$[ebp]
	sub	esp, 8
	movsd	xmm0, QWORD PTR [ecx]
	movsd	QWORD PTR [esp], xmm0
	push	OFFSET $SG100464
	mov	edx, DWORD PTR _pvReturn$[ebp]
	push	edx
	call	_sprintf
	add	esp, 16					; 00000010H
$LN29@fnDecimalO:

; 8261 : 
; 8262 :          // sprintf is defined to return a empty string if dDecimal is 0.0.
; 8263 :          if ( *((char *) pvReturn) == 0 )

	mov	eax, DWORD PTR _pvReturn$[ebp]
	movsx	ecx, BYTE PTR [eax]
	test	ecx, ecx
	jne	SHORT $LN30@fnDecimalO

; 8264 :             strcpy( (char *) pvReturn, "0.0" );

	push	OFFSET $SG100466
	mov	edx, DWORD PTR _pvReturn$[ebp]
	push	edx
	call	_strcpy
	add	esp, 8
$LN30@fnDecimalO:

; 8265 : 
; 8266 :          return( 0 );

	xor	eax, eax
	jmp	$LN1@fnDecimalO
$LN31@fnDecimalO:

; 8267 :       }
; 8268 : 
; 8269 :       case zDEC_CMD_DECTOLONG:
; 8270 :          // Convert double to long.
; 8271 :          *((long *) pvReturn) = (zLONG) *((double *) pvDecimal);

	mov	eax, DWORD PTR _pvDecimal$[ebp]
	cvttsd2si ecx, QWORD PTR [eax]
	mov	edx, DWORD PTR _pvReturn$[ebp]
	mov	DWORD PTR [edx], ecx

; 8272 :          return( 0 );

	xor	eax, eax
	jmp	$LN1@fnDecimalO
$LN32@fnDecimalO:

; 8273 : 
; 8274 :       case zDEC_CMD_LONGTODEC:
; 8275 :          *((double *) pvReturn) = (double) *((long *) pvInfo);

	mov	eax, DWORD PTR _pvInfo$[ebp]
	cvtsi2sd xmm0, DWORD PTR [eax]
	mov	ecx, DWORD PTR _pvReturn$[ebp]
	movsd	QWORD PTR [ecx], xmm0

; 8276 :          return( 0 );

	xor	eax, eax
	jmp	$LN1@fnDecimalO
$LN33@fnDecimalO:

; 8277 : 
; 8278 :       case zDEC_CMD_DECTODOUBLE:
; 8279 :          // Convert long double to double.
; 8280 :          *((double *) pvReturn) = (double) *((double *) pvDecimal);

	mov	edx, DWORD PTR _pvReturn$[ebp]
	mov	eax, DWORD PTR _pvDecimal$[ebp]
	movsd	xmm0, QWORD PTR [eax]
	movsd	QWORD PTR [edx], xmm0

; 8281 :          return( 0 );

	xor	eax, eax
	jmp	$LN1@fnDecimalO
$LN34@fnDecimalO:

; 8282 : 
; 8283 :       case zDEC_CMD_DOUBLETODEC:
; 8284 :          // Convert double to decimal.
; 8285 :          *((double *) pvReturn) = (double) *((double *) pvInfo);

	mov	ecx, DWORD PTR _pvReturn$[ebp]
	mov	edx, DWORD PTR _pvInfo$[ebp]
	movsd	xmm0, QWORD PTR [edx]
	movsd	QWORD PTR [ecx], xmm0

; 8286 :          return( 0 );

	xor	eax, eax
	jmp	$LN1@fnDecimalO
$LN35@fnDecimalO:

; 8287 : 
; 8288 :       case zDEC_CMD_MULTDEC:
; 8289 :          *((double *) pvReturn) = *((double *) pvDecimal) * *((double *) pvInfo);

	mov	eax, DWORD PTR _pvDecimal$[ebp]
	mov	ecx, DWORD PTR _pvInfo$[ebp]
	movsd	xmm0, QWORD PTR [eax]
	mulsd	xmm0, QWORD PTR [ecx]
	mov	edx, DWORD PTR _pvReturn$[ebp]
	movsd	QWORD PTR [edx], xmm0

; 8290 :          return( 0 );

	xor	eax, eax
	jmp	$LN1@fnDecimalO
$LN36@fnDecimalO:

; 8291 : 
; 8292 :       case zDEC_CMD_DIVDEC:
; 8293 :          *((double *) pvReturn) = *((double *) pvDecimal) / *((double *) pvInfo);

	mov	eax, DWORD PTR _pvDecimal$[ebp]
	mov	ecx, DWORD PTR _pvInfo$[ebp]
	movsd	xmm0, QWORD PTR [eax]
	divsd	xmm0, QWORD PTR [ecx]
	mov	edx, DWORD PTR _pvReturn$[ebp]
	movsd	QWORD PTR [edx], xmm0

; 8294 :          return( 0 );

	xor	eax, eax
	jmp	$LN1@fnDecimalO
$LN37@fnDecimalO:

; 8295 : 
; 8296 :       case zDEC_CMD_SUBDEC:
; 8297 :          *((double *) pvReturn) = *((double *) pvDecimal) - *((double *) pvInfo);

	mov	eax, DWORD PTR _pvDecimal$[ebp]
	mov	ecx, DWORD PTR _pvInfo$[ebp]
	movsd	xmm0, QWORD PTR [eax]
	subsd	xmm0, QWORD PTR [ecx]
	mov	edx, DWORD PTR _pvReturn$[ebp]
	movsd	QWORD PTR [edx], xmm0

; 8298 :          return( 0 );

	xor	eax, eax
	jmp	$LN1@fnDecimalO
$LN38@fnDecimalO:

; 8299 : 
; 8300 :       case zDEC_CMD_ADDDEC:
; 8301 :          *((double *) pvReturn) = *((double *) pvDecimal) + *((double *) pvInfo);

	mov	eax, DWORD PTR _pvDecimal$[ebp]
	mov	ecx, DWORD PTR _pvInfo$[ebp]
	movsd	xmm0, QWORD PTR [eax]
	addsd	xmm0, QWORD PTR [ecx]
	mov	edx, DWORD PTR _pvReturn$[ebp]
	movsd	QWORD PTR [edx], xmm0

; 8302 :          return( 0 );

	xor	eax, eax
	jmp	$LN1@fnDecimalO
$LN39@fnDecimalO:

; 8303 : 
; 8304 :       case zDEC_CMD_ROUND:
; 8305 :       {
; 8306 :          zSHORT nPrecision = *((zSHORT *) pvInfo);

	mov	eax, DWORD PTR _pvInfo$[ebp]
	mov	cx, WORD PTR [eax]
	mov	WORD PTR _nPrecision$5[ebp], cx

; 8307 :          int    iSign = 1;

	mov	DWORD PTR _iSign$3[ebp], 1

; 8308 :          zSHORT n;
; 8309 :          double d, d2;
; 8310 : 
; 8311 :          if ( nPrecision < 0 )

	movsx	edx, WORD PTR _nPrecision$5[ebp]
	test	edx, edx
	jge	SHORT $LN40@fnDecimalO

; 8312 :             return( 0 );

	xor	eax, eax
	jmp	$LN1@fnDecimalO
$LN40@fnDecimalO:

; 8313 : 
; 8314 :          d = *((double *) pvDecimal);

	mov	eax, DWORD PTR _pvDecimal$[ebp]
	movsd	xmm0, QWORD PTR [eax]
	movsd	QWORD PTR _d$2[ebp], xmm0

; 8315 :          if ( d == 0.0 )

	movsd	xmm0, QWORD PTR _d$2[ebp]
	ucomisd	xmm0, QWORD PTR __real@0000000000000000
	lahf
	test	ah, 68					; 00000044H
	jp	SHORT $LN41@fnDecimalO

; 8316 :             return( 0 );

	xor	eax, eax
	jmp	$LN1@fnDecimalO
$LN41@fnDecimalO:

; 8317 : 
; 8318 :          if ( d < 0.0 )

	xorps	xmm0, xmm0
	comisd	xmm0, QWORD PTR _d$2[ebp]
	jbe	SHORT $LN42@fnDecimalO

; 8319 :          {
; 8320 :             d = -d;

	movsd	xmm0, QWORD PTR _d$2[ebp]
	xorps	xmm0, QWORD PTR __xmm@80000000000000008000000000000000
	movsd	QWORD PTR _d$2[ebp], xmm0

; 8321 :             iSign = -1;

	mov	DWORD PTR _iSign$3[ebp], -1
$LN42@fnDecimalO:

; 8322 :          }
; 8323 : 
; 8324 :          for ( n = 0; n < nPrecision; n++ )

	xor	ecx, ecx
	mov	WORD PTR _n$6[ebp], cx
	jmp	SHORT $LN6@fnDecimalO
$LN4@fnDecimalO:
	mov	dx, WORD PTR _n$6[ebp]
	add	dx, 1
	mov	WORD PTR _n$6[ebp], dx
$LN6@fnDecimalO:
	movsx	eax, WORD PTR _n$6[ebp]
	movsx	ecx, WORD PTR _nPrecision$5[ebp]
	cmp	eax, ecx
	jge	SHORT $LN5@fnDecimalO

; 8325 :             d += 10;

	movsd	xmm0, QWORD PTR _d$2[ebp]
	addsd	xmm0, QWORD PTR __real@4024000000000000
	movsd	QWORD PTR _d$2[ebp], xmm0
	jmp	SHORT $LN4@fnDecimalO
$LN5@fnDecimalO:

; 8326 : 
; 8327 :          d2 = floor( d );

	sub	esp, 8
	movsd	xmm0, QWORD PTR _d$2[ebp]
	movsd	QWORD PTR [esp], xmm0
	call	DWORD PTR __imp__floor
	add	esp, 8
	fstp	QWORD PTR _d2$1[ebp]

; 8328 :          if ( d - d2 >= 0.5 )

	movsd	xmm0, QWORD PTR _d$2[ebp]
	subsd	xmm0, QWORD PTR _d2$1[ebp]
	comisd	xmm0, QWORD PTR __real@3fe0000000000000
	jb	SHORT $LN43@fnDecimalO

; 8329 :             d2 += 1.0;

	movsd	xmm0, QWORD PTR _d2$1[ebp]
	addsd	xmm0, QWORD PTR __real@3ff0000000000000
	movsd	QWORD PTR _d2$1[ebp], xmm0
$LN43@fnDecimalO:

; 8330 : 
; 8331 :          for ( n = 0; n < nPrecision; n++ )

	xor	edx, edx
	mov	WORD PTR _n$6[ebp], dx
	jmp	SHORT $LN9@fnDecimalO
$LN7@fnDecimalO:
	mov	ax, WORD PTR _n$6[ebp]
	add	ax, 1
	mov	WORD PTR _n$6[ebp], ax
$LN9@fnDecimalO:
	movsx	ecx, WORD PTR _n$6[ebp]
	movsx	edx, WORD PTR _nPrecision$5[ebp]
	cmp	ecx, edx
	jge	SHORT $LN8@fnDecimalO

; 8332 :             d2 /= 10;

	movsd	xmm0, QWORD PTR _d2$1[ebp]
	divsd	xmm0, QWORD PTR __real@4024000000000000
	movsd	QWORD PTR _d2$1[ebp], xmm0
	jmp	SHORT $LN7@fnDecimalO
$LN8@fnDecimalO:

; 8333 : 
; 8334 :          d2 = d2 * iSign;

	cvtsi2sd xmm0, DWORD PTR _iSign$3[ebp]
	mulsd	xmm0, QWORD PTR _d2$1[ebp]
	movsd	QWORD PTR _d2$1[ebp], xmm0

; 8335 :          *((double *) pvDecimal) = d2;

	mov	eax, DWORD PTR _pvDecimal$[ebp]
	movsd	xmm0, QWORD PTR _d2$1[ebp]
	movsd	QWORD PTR [eax], xmm0

; 8336 : 
; 8337 :          return( 0 );

	xor	eax, eax
	jmp	SHORT $LN1@fnDecimalO
$LN2@fnDecimalO:

; 8338 :       }
; 8339 :    }
; 8340 : 
; 8341 :    return( -1 );

	or	eax, -1
$LN1@fnDecimalO:

; 8342 : }

	mov	esp, ebp
	pop	ebp
	ret	16					; 00000010H
	npad	1
$LN46@fnDecimalO:
	DD	$LN11@fnDecimalO
	DD	$LN13@fnDecimalO
	DD	$LN12@fnDecimalO
	DD	$LN17@fnDecimalO
	DD	$LN20@fnDecimalO
	DD	$LN10@fnDecimalO
	DD	$LN38@fnDecimalO
	DD	$LN37@fnDecimalO
	DD	$LN35@fnDecimalO
	DD	$LN36@fnDecimalO
	DD	$LN39@fnDecimalO
	DD	$LN27@fnDecimalO
	DD	$LN25@fnDecimalO
	DD	$LN31@fnDecimalO
	DD	$LN32@fnDecimalO
	DD	$LN33@fnDecimalO
	DD	$LN34@fnDecimalO
	DD	$LN2@fnDecimalO
$LN45@fnDecimalO:
	DB	0
	DB	1
	DB	2
	DB	3
	DB	4
	DB	5
	DB	17					; 00000011H
	DB	17					; 00000011H
	DB	17					; 00000011H
	DB	17					; 00000011H
	DB	17					; 00000011H
	DB	17					; 00000011H
	DB	17					; 00000011H
	DB	17					; 00000011H
	DB	17					; 00000011H
	DB	6
	DB	7
	DB	8
	DB	9
	DB	10					; 0000000aH
	DB	17					; 00000011H
	DB	17					; 00000011H
	DB	17					; 00000011H
	DB	17					; 00000011H
	DB	17					; 00000011H
	DB	17					; 00000011H
	DB	17					; 00000011H
	DB	17					; 00000011H
	DB	17					; 00000011H
	DB	17					; 00000011H
	DB	17					; 00000011H
	DB	17					; 00000011H
	DB	17					; 00000011H
	DB	17					; 00000011H
	DB	17					; 00000011H
	DB	17					; 00000011H
	DB	17					; 00000011H
	DB	17					; 00000011H
	DB	17					; 00000011H
	DB	17					; 00000011H
	DB	17					; 00000011H
	DB	17					; 00000011H
	DB	17					; 00000011H
	DB	17					; 00000011H
	DB	17					; 00000011H
	DB	17					; 00000011H
	DB	17					; 00000011H
	DB	11					; 0000000bH
	DB	12					; 0000000cH
	DB	13					; 0000000dH
	DB	14					; 0000000eH
	DB	15					; 0000000fH
	DB	16					; 00000010H
_fnDecimalOperation@16 ENDP
_TEXT	ENDS
; Function compile flags: /Odtp
; File c:\10c\w\oe\kzoesyaa.c
_TEXT	SEGMENT
_pvAnchorBlock$ = 8					; size = 4
_SysSetAnchorBlock@4 PROC

; 8031 : {

	push	ebp
	mov	ebp, esp

; 8032 :    // Windows does not require any Anchor Block in RegisterZeidonApplication
; 8033 : }

	pop	ebp
	ret	4
_SysSetAnchorBlock@4 ENDP
_TEXT	ENDS
; Function compile flags: /Odtp
; File c:\10c\w\oe\kzoesyaa.c
_TEXT	SEGMENT
_szDateTime$ = -36					; size = 32
__$ArrayPad$ = -4					; size = 4
_vArgs$ = 8						; size = 4
_pvViewList$ = 12					; size = 4
__zCall_GetDateTime@8 PROC

; 6775 : {

	push	ebp
	mov	ebp, esp
	sub	esp, 36					; 00000024H
	mov	eax, DWORD PTR ___security_cookie
	xor	eax, ebp
	mov	DWORD PTR __$ArrayPad$[ebp], eax

; 6776 :    zCHAR szDateTime[ 32 ];
; 6777 : 
; 6778 :    SysGetDateTime( szDateTime );

	lea	eax, DWORD PTR _szDateTime$[ebp]
	push	eax
	call	_SysGetDateTime@4

; 6779 :    SetAttributeFromString( vArgs, "Operation", "ReturnValue", szDateTime );

	lea	ecx, DWORD PTR _szDateTime$[ebp]
	push	ecx
	push	OFFSET $SG99931
	push	OFFSET $SG99932
	mov	edx, DWORD PTR _vArgs$[ebp]
	push	edx
	call	_SetAttributeFromString@16

; 6780 :    return( 0 );

	xor	eax, eax

; 6781 : }

	mov	ecx, DWORD PTR __$ArrayPad$[ebp]
	xor	ecx, ebp
	call	@__security_check_cookie@4
	mov	esp, ebp
	pop	ebp
	ret	8
__zCall_GetDateTime@8 ENDP
_TEXT	ENDS
; Function compile flags: /Odtp
; File c:\10c\w\oe\kzoesyaa.c
_TEXT	SEGMENT
_lpFreespace$ = -4					; size = 4
_pPointer$ = 8						; size = 4
_fnSysGetHandleFromPointerShared@4 PROC

; 4141 : {

	push	ebp
	mov	ebp, esp
	push	ecx

; 4142 :    LPFREESPACE lpFreespace;
; 4143 : 
; 4144 :    if ( pPointer == 0 )

	cmp	DWORD PTR _pPointer$[ebp], 0
	jne	SHORT $LN2@fnSysGetHa

; 4145 :       return( 0 );

	xor	eax, eax
	jmp	SHORT $LN1@fnSysGetHa
$LN2@fnSysGetHa:

; 4146 : 
; 4147 : #ifdef DEBUG_PAGETABLE
; 4148 :    // Make sure that the highest bit is NOT set (this means it's a handle).
; 4149 :    if ( ((zLONG) pPointer & 0x80000000) != 0 )

	mov	eax, DWORD PTR _pPointer$[ebp]
	and	eax, -2147483648			; 80000000H
	je	SHORT $LN3@fnSysGetHa

; 4150 :    {
; 4151 :    // char szMessage[ 16 ];
; 4152 :    // int k = 0;
; 4153 :       MessageBox( GetActiveWindow( ), "Invalid pointer: hi-bit set!!",

	push	8208					; 00002010H
	mov	ecx, DWORD PTR _szlOE_SystemError
	push	ecx
	push	OFFSET $SG99015
	call	DWORD PTR __imp__GetActiveWindow@0
	push	eax
	call	DWORD PTR __imp__MessageBoxA@16

; 4154 :                   szlOE_SystemError, MB_ICONSTOP | MB_OK | MB_TASKMODAL );
; 4155 : #if 0
; 4156 :       SysReadZeidonIni( -1, "[Debug]", "BombZDr", szMessage );
; 4157 :       if ( szMessage[ 0 ] == 'Y' )
; 4158 :          k /= k;
; 4159 : #endif
; 4160 :       return( 0 );

	xor	eax, eax
	jmp	SHORT $LN1@fnSysGetHa
$LN3@fnSysGetHa:

; 4161 :    }
; 4162 : #endif
; 4163 : 
; 4164 :    lpFreespace = (LPFREESPACE) pPointer;

	mov	edx, DWORD PTR _pPointer$[ebp]
	mov	DWORD PTR _lpFreespace$[ebp], edx

; 4165 :    lpFreespace--;

	mov	eax, DWORD PTR _lpFreespace$[ebp]
	sub	eax, 18					; 00000012H
	mov	DWORD PTR _lpFreespace$[ebp], eax

; 4166 : 
; 4167 :    return( lpFreespace->hFreespace );

	mov	ecx, DWORD PTR _lpFreespace$[ebp]
	mov	eax, DWORD PTR [ecx+10]
$LN1@fnSysGetHa:

; 4168 : }

	mov	esp, ebp
	pop	ebp
	ret	4
_fnSysGetHandleFromPointerShared@4 ENDP
_TEXT	ENDS
; Function compile flags: /Odtp
; File c:\10c\w\oe\kzoesyaa.c
_TEXT	SEGMENT
_pPointer$ = 8						; size = 4
_fnSysGetHandleFromPointerServerMode@4 PROC

; 4135 : {

	push	ebp
	mov	ebp, esp

; 4136 :    return( pPointer );

	mov	eax, DWORD PTR _pPointer$[ebp]

; 4137 : }

	pop	ebp
	ret	4
_fnSysGetHandleFromPointerServerMode@4 ENDP
_TEXT	ENDS
; Function compile flags: /Odtp
; File c:\10c\w\oe\kzoesyaa.c
_TEXT	SEGMENT
_lOffset$ = -524					; size = 4
_k$ = -517						; size = 1
_szMessage$1 = -516					; size = 256
_szMessage$2 = -260					; size = 256
__$ArrayPad$ = -4					; size = 4
_pHandle$ = 8						; size = 4
_fnSysGetPointerFromHandleShared@4 PROC

; 4058 : {

	push	ebp
	mov	ebp, esp
	sub	esp, 524				; 0000020cH
	mov	eax, DWORD PTR ___security_cookie
	xor	eax, ebp
	mov	DWORD PTR __$ArrayPad$[ebp], eax

; 4059 :    zBYTE  k;
; 4060 :    zLONG  lOffset;
; 4061 : 
; 4062 :    if ( pHandle == 0 )

	cmp	DWORD PTR _pHandle$[ebp], 0
	jne	SHORT $LN2@fnSysGetPo

; 4063 :       return( 0 );

	xor	eax, eax
	jmp	$LN1@fnSysGetPo
$LN2@fnSysGetPo:

; 4064 : 
; 4065 :    // Following is for Instance handles.  Instance handles can be:
; 4066 :    // zero (no instance), one (unset cursor), or a valid handle.
; 4067 :    if ( pHandle == (zPVOID) 1 )

	cmp	DWORD PTR _pHandle$[ebp], 1
	jne	SHORT $LN3@fnSysGetPo

; 4068 :       return( (zPVOID) 1 );

	mov	eax, 1
	jmp	$LN1@fnSysGetPo
$LN3@fnSysGetPo:

; 4069 : 
; 4070 : #ifdef DEBUG_PAGETABLE
; 4071 :    // Make sure that the highest bit is set.
; 4072 :    if ( ((zLONG) pHandle & 0x80000000) == 0 )

	mov	eax, DWORD PTR _pHandle$[ebp]
	and	eax, -2147483648			; 80000000H
	jne	SHORT $LN4@fnSysGetPo

; 4073 :    {
; 4074 :       char szMessage[ 256 ];
; 4075 : 
; 4076 :       zsprintf( szMessage, "Invalid pointer handle (get) : hi-bit not set: 0x%08x", pHandle );

	mov	ecx, DWORD PTR _pHandle$[ebp]
	push	ecx
	push	OFFSET $SG98992
	lea	edx, DWORD PTR _szMessage$2[ebp]
	push	edx
	call	_sprintf
	add	esp, 12					; 0000000cH

; 4077 :       TraceLineS( szMessage, "" );

	push	OFFSET $SG98993
	lea	eax, DWORD PTR _szMessage$2[ebp]
	push	eax
	call	_TraceLineS@8

; 4078 :       if ( AnchorBlock->bDebugLeak == FALSE )

	mov	ecx, DWORD PTR _AnchorBlock
	mov	edx, DWORD PTR [ecx+1495]
	shr	edx, 3
	and	edx, 1
	jne	SHORT $LN5@fnSysGetPo

; 4079 :       {
; 4080 :          MessageBox( GetActiveWindow( ), szMessage,

	push	8208					; 00002010H
	mov	eax, DWORD PTR _szlOE_SystemError
	push	eax
	lea	ecx, DWORD PTR _szMessage$2[ebp]
	push	ecx
	call	DWORD PTR __imp__GetActiveWindow@0
	push	eax
	call	DWORD PTR __imp__MessageBoxA@16
$LN5@fnSysGetPo:

; 4081 :                      szlOE_SystemError, MB_ICONSTOP | MB_OK | MB_TASKMODAL );
; 4082 :       }
; 4083 : #if 0
; 4084 :       SysReadZeidonIni( -1, "[Debug]", "BombZDr", szMessage );
; 4085 :       if ( szMessage[ 0 ] == 'Y' )
; 4086 :       {
; 4087 :          k = 0;
; 4088 :          k /= k;
; 4089 :       }
; 4090 : #endif
; 4091 :       return( 0 );

	xor	eax, eax
	jmp	$LN1@fnSysGetPo
$LN4@fnSysGetPo:

; 4092 :    }
; 4093 : #endif
; 4094 : 
; 4095 :    // Get high order byte from handle.
; 4096 :    k = (zBYTE) ((zULONG) pHandle >> 24);

	mov	edx, DWORD PTR _pHandle$[ebp]
	shr	edx, 24					; 00000018H
	mov	BYTE PTR _k$[ebp], dl

; 4097 : 
; 4098 :    if ( g_ZeidonPageTable[ k ] == 0 )

	movzx	eax, BYTE PTR _k$[ebp]
	cmp	DWORD PTR _g_ZeidonPageTable[eax*4], 0
	jne	SHORT $LN6@fnSysGetPo

; 4099 :    {
; 4100 :       char szMessage[ 256 ];  // dks 2006.09.18 error while cleaning up client OE (k=134)
; 4101 : 
; 4102 :       zsprintf( szMessage, "Invalid pointer handle (null) at Index: %x for pointer 0x%08x", k, pHandle );

	mov	ecx, DWORD PTR _pHandle$[ebp]
	push	ecx
	movzx	edx, BYTE PTR _k$[ebp]
	push	edx
	push	OFFSET $SG98996
	lea	eax, DWORD PTR _szMessage$1[ebp]
	push	eax
	call	_sprintf
	add	esp, 16					; 00000010H

; 4103 :       TraceLineS( szMessage, "" );

	push	OFFSET $SG98997
	lea	ecx, DWORD PTR _szMessage$1[ebp]
	push	ecx
	call	_TraceLineS@8

; 4104 :       if ( AnchorBlock->bDebugLeak == FALSE )

	mov	edx, DWORD PTR _AnchorBlock
	mov	eax, DWORD PTR [edx+1495]
	shr	eax, 3
	and	eax, 1
	jne	SHORT $LN7@fnSysGetPo

; 4105 :       {
; 4106 :          MessageBox( GetActiveWindow( ), szMessage,

	push	8208					; 00002010H
	mov	ecx, DWORD PTR _szlOE_SystemError
	push	ecx
	lea	edx, DWORD PTR _szMessage$1[ebp]
	push	edx
	call	DWORD PTR __imp__GetActiveWindow@0
	push	eax
	call	DWORD PTR __imp__MessageBoxA@16
$LN7@fnSysGetPo:

; 4107 :                      szlOE_SystemError, MB_ICONSTOP | MB_OK | MB_TASKMODAL );
; 4108 :       }
; 4109 : #if 0
; 4110 :       SysReadZeidonIni( -1, "[Debug]", "BombZDr", szMessage );
; 4111 :       if ( szMessage[ 0 ] == 'Y' )
; 4112 :       {
; 4113 :          k /= k - k;
; 4114 :       }
; 4115 : #endif
; 4116 :       return( 0 );

	xor	eax, eax
	jmp	SHORT $LN1@fnSysGetPo
$LN6@fnSysGetPo:

; 4117 :    }
; 4118 : 
; 4119 :    // Get page offset from 3 low-order bytes.
; 4120 :    lOffset = (zLONG) pHandle & 0x00FFFFFF;

	mov	eax, DWORD PTR _pHandle$[ebp]
	and	eax, 16777215				; 00ffffffH
	mov	DWORD PTR _lOffset$[ebp], eax

; 4121 : 
; 4122 :    // Get pointer value by adding offset to page table address.
; 4123 :    pHandle = (zPVOID) ((zLONG) g_ZeidonPageTable[ k ] + lOffset);

	movzx	ecx, BYTE PTR _k$[ebp]
	mov	edx, DWORD PTR _g_ZeidonPageTable[ecx*4]
	add	edx, DWORD PTR _lOffset$[ebp]
	mov	DWORD PTR _pHandle$[ebp], edx

; 4124 :    return( pHandle );

	mov	eax, DWORD PTR _pHandle$[ebp]
$LN1@fnSysGetPo:

; 4125 : }

	mov	ecx, DWORD PTR __$ArrayPad$[ebp]
	xor	ecx, ebp
	call	@__security_check_cookie@4
	mov	esp, ebp
	pop	ebp
	ret	4
_fnSysGetPointerFromHandleShared@4 ENDP
_TEXT	ENDS
; Function compile flags: /Odtp
; File c:\10c\w\oe\kzoesyaa.c
_TEXT	SEGMENT
_pHandle$ = 8						; size = 4
_fnSysGetPointerFromHandleServerMode@4 PROC

; 4052 : {

	push	ebp
	mov	ebp, esp

; 4053 :    return( pHandle );

	mov	eax, DWORD PTR _pHandle$[ebp]

; 4054 : }

	pop	ebp
	ret	4
_fnSysGetPointerFromHandleServerMode@4 ENDP
_TEXT	ENDS
; Function compile flags: /Odtp
; File c:\10c\w\oe\kzoesyaa.c
_TEXT	SEGMENT
_hSaveAnchorBlock$ = -16				; size = 4
_lpProcessList$ = -12					; size = 4
_lPageTableIndex$ = -8					; size = 4
_bValidWindow$ = -1					; size = 1
_lAppOE_Msg$ = 8					; size = 4
_hWndAppOE$ = 12					; size = 4
_fnGetAnchorBlock@8 PROC

; 3508 : {

	push	ebp
	mov	ebp, esp
	sub	esp, 16					; 00000010H

; 3509 :    LPPROCESSLIST lpProcessList;
; 3510 :    zLONG  lPageTableIndex;
; 3511 :    zLONG  hSaveAnchorBlock;
; 3512 :    zBOOL  bValidWindow;
; 3513 : 
; 3514 :    // In server mode, the anchor block has been allocated using local memory
; 3515 :    // so we don't need to do anything.
; 3516 :    if ( g_bServerMode || AnchorBlock )

	movzx	eax, BYTE PTR _g_bServerMode
	test	eax, eax
	jne	SHORT $LN5@fnGetAncho
	cmp	DWORD PTR _AnchorBlock, 0
	je	SHORT $LN4@fnGetAncho
$LN5@fnGetAncho:

; 3517 :       return( 0 );

	xor	eax, eax
	jmp	$LN1@fnGetAncho
$LN4@fnGetAncho:

; 3518 : 
; 3519 :    if ( g_bWin95 )

	movzx	ecx, BYTE PTR _g_bWin95
	test	ecx, ecx
	je	SHORT $LN6@fnGetAncho

; 3520 :       lPageTableIndex = 1;

	mov	DWORD PTR _lPageTableIndex$[ebp], 1
	jmp	SHORT $LN7@fnGetAncho
$LN6@fnGetAncho:

; 3521 :    else
; 3522 : #ifdef DEBUG_PAGETABLE
; 3523 :       // When we are debugging we start with page 128 so that the high bit in
; 3524 :       // the resulting handle will always be set.
; 3525 :       lPageTableIndex = 128;

	mov	DWORD PTR _lPageTableIndex$[ebp], 128	; 00000080H
$LN7@fnGetAncho:

; 3526 : #else
; 3527 :       // We start with page one (instead of zero) so that a handle will always
; 3528 :       // be non-zero.
; 3529 :       lPageTableIndex = 1;
; 3530 : #endif
; 3531 : 
; 3532 :    // Here is where the current task gets addressability to the AnchorBlock
; 3533 :    // by opening a view to the (named) shared memory mapping file.
; 3534 :    g_hAnchorBlock = (zLONG) OpenFileMapping( FILE_MAP_ALL_ACCESS,

	mov	edx, DWORD PTR _szlShareSeg
	push	edx
	push	0
	push	983071					; 000f001fH
	call	DWORD PTR __imp__OpenFileMappingA@12
	mov	DWORD PTR _g_hAnchorBlock, eax

; 3535 :                                              FALSE, szlShareSeg );
; 3536 :    if ( g_hAnchorBlock == 0 )

	cmp	DWORD PTR _g_hAnchorBlock, 0
	jne	SHORT $LN8@fnGetAncho

; 3537 :       return( 0 );

	xor	eax, eax
	jmp	$LN1@fnGetAncho
$LN8@fnGetAncho:

; 3538 : 
; 3539 :    // We found the anchor block!  Now map it.
; 3540 : #ifdef SHARED_MEM_TRACE
; 3541 :    fnTraceSharedMemory( "Mapping view of anchor block" );
; 3542 : #endif
; 3543 :    AnchorBlock = MapViewOfFile( (HANDLE) g_hAnchorBlock,

	push	0
	push	0
	push	0
	push	983071					; 000f001fH
	mov	eax, DWORD PTR _g_hAnchorBlock
	push	eax
	call	DWORD PTR __imp__MapViewOfFile@20
	mov	DWORD PTR _AnchorBlock, eax

; 3544 :                                 FILE_MAP_ALL_ACCESS, 0, 0, 0 );
; 3545 :    if ( AnchorBlock == 0 )

	cmp	DWORD PTR _AnchorBlock, 0
	jne	SHORT $LN9@fnGetAncho

; 3546 :       return( -1 );

	or	eax, -1
	jmp	$LN1@fnGetAncho
$LN9@fnGetAncho:

; 3547 : 
; 3548 :    // We successfully gained addressability to the AnchorBlock!
; 3549 : 
; 3550 :    // Lock the anchor init mutex.  Once we get it we know that the anchor
; 3551 :    // has finished initializing so we can unlock it and go on our merry way.
; 3552 :    zLOCK_MUTEX( zMUTEX_ANCHORINIT );

	push	3
	call	_fnSysLockCoreMutex@4

; 3553 :    zUNLOCK_MUTEX( zMUTEX_ANCHORINIT );

	push	3
	call	_fnSysUnlockCoreMutex@4

; 3554 : 
; 3555 :    // We now have the anchor block but we still need to set the global
; 3556 :    // paging table values.  Note that the page table index had better
; 3557 :    // be the first one.
; 3558 :    g_ZeidonPageTable[ lPageTableIndex ] = AnchorBlock;

	mov	ecx, DWORD PTR _lPageTableIndex$[ebp]
	mov	edx, DWORD PTR _AnchorBlock
	mov	DWORD PTR _g_ZeidonPageTable[ecx*4], edx

; 3559 :    g_FileMappingHandles[ lPageTableIndex ] = (zLONG) g_hAnchorBlock;

	mov	eax, DWORD PTR _lPageTableIndex$[ebp]
	mov	ecx, DWORD PTR _g_hAnchorBlock
	mov	DWORD PTR _g_FileMappingHandles[eax*4], ecx

; 3560 : 
; 3561 :    TraceLine( "fnGetAnchorBlock Page Table mapping at Index: %x   0x%08x   Process: 0x%08x",

	push	0
	call	_SysGetProcessID@4
	push	eax
	mov	edx, DWORD PTR _lPageTableIndex$[ebp]
	mov	eax, DWORD PTR _g_ZeidonPageTable[edx*4]
	push	eax
	mov	ecx, DWORD PTR _lPageTableIndex$[ebp]
	push	ecx
	push	OFFSET $SG98875
	call	_TraceLine
	add	esp, 16					; 00000010H

; 3562 :               lPageTableIndex, g_ZeidonPageTable[ lPageTableIndex ], SysGetProcessID( 0 ) );
; 3563 : 
; 3564 : //#ifdef DEBUG
; 3565 :    if ( g_lProcessIdx != -1 )

	cmp	DWORD PTR _g_lProcessIdx, -1
	je	SHORT $LN10@fnGetAncho

; 3566 :    {
; 3567 :       SysMessageBox( 0, "DGC", "g_lProcessIdx != -1", -1 );

	push	-1
	push	OFFSET $SG98877
	push	OFFSET $SG98878
	push	0
	call	_SysMessageBox@16

; 3568 :       return( 0 );

	xor	eax, eax
	jmp	$LN1@fnGetAncho
$LN10@fnGetAncho:

; 3569 :    }
; 3570 : //#endif
; 3571 : 
; 3572 :    // Point to the correct structure in the AnchorBlock's ProcessList and set
; 3573 :    // g_lProcessIdx and the CurrentProcessId data element at the same time.
; 3574 :    fnSetProcessIdx( "GetAnchor", &lpProcessList );

	lea	edx, DWORD PTR _lpProcessList$[ebp]
	push	edx
	push	OFFSET $SG98879
	call	_fnSetProcessIdx
	add	esp, 8

; 3575 :    lpProcessList->uAppOE_Msg = (zUSHORT) lAppOE_Msg;

	mov	eax, DWORD PTR _lpProcessList$[ebp]
	mov	cx, WORD PTR _lAppOE_Msg$[ebp]
	mov	WORD PTR [eax+2], cx

; 3576 :    lpProcessList->hWndAppOE_Msg = hWndAppOE;

	mov	edx, DWORD PTR _lpProcessList$[ebp]
	mov	eax, DWORD PTR _hWndAppOE$[ebp]
	mov	DWORD PTR [edx+4], eax

; 3577 : 
; 3578 :    if ( g_bWin95 )

	movzx	ecx, BYTE PTR _g_bWin95
	test	ecx, ecx
	je	SHORT $LN11@fnGetAncho

; 3579 :    {
; 3580 :       // To mirror what happens in fnAllocSharedMemory we have to store the
; 3581 :       // index of g_hAnchorBlock in the first few bytes of the memory.
; 3582 :       *((zPLONG) AnchorBlock)++ = lPageTableIndex;

	mov	edx, DWORD PTR _AnchorBlock
	mov	eax, DWORD PTR _lPageTableIndex$[ebp]
	mov	DWORD PTR [edx], eax
	mov	ecx, DWORD PTR _AnchorBlock
	add	ecx, 4
	mov	DWORD PTR _AnchorBlock, ecx

; 3583 :       hSaveAnchorBlock = (zLONG) AnchorBlock;

	mov	edx, DWORD PTR _AnchorBlock
	mov	DWORD PTR _hSaveAnchorBlock$[ebp], edx

; 3584 :    }

	jmp	SHORT $LN12@fnGetAncho
$LN11@fnGetAncho:

; 3585 :    else
; 3586 :       hSaveAnchorBlock = (zLONG) ((zULONG) lPageTableIndex << 24);

	mov	eax, DWORD PTR _lPageTableIndex$[ebp]
	shl	eax, 24					; 00000018H
	mov	DWORD PTR _hSaveAnchorBlock$[ebp], eax
$LN12@fnGetAncho:

; 3587 : 
; 3588 :    // For the moment we'll change g_hAnchorBlock to be zero.  This will keep
; 3589 :    // some things (for example TraceLineX) from doing something it shouldn't.
; 3590 :    g_hAnchorBlock = 0;

	mov	DWORD PTR _g_hAnchorBlock, 0

; 3591 : 
; 3592 : // TraceLineI( "Register AnchorBlock = ", (zLONG) AnchorBlock );
; 3593 : 
; 3594 :    // We now have to open views to all shared mapping files created by other
; 3595 :    // tasks.  To do this we will send a message to the main task and ask for
; 3596 :    // the handle of each shared mapping file.  When the returned handle is
; 3597 :    // zero, then there are no more mapping files.
; 3598 : 
; 3599 :    // Init to first PageTable entry ... used in inter-process communication
; 3600 :    // to permit each shared mapping handle to be processed.
; 3601 :    lpProcessList->lPageTableIndex = lPageTableIndex;

	mov	ecx, DWORD PTR _lpProcessList$[ebp]
	mov	edx, DWORD PTR _lPageTableIndex$[ebp]
	mov	DWORD PTR [ecx+8], edx

; 3602 : 
; 3603 :    if ( IsWindow( (HWND) AnchorBlock->OS_Data.hMainWindow ) )

	mov	eax, DWORD PTR _AnchorBlock
	mov	ecx, DWORD PTR [eax+1503]
	push	ecx
	call	DWORD PTR __imp__IsWindow@4
	test	eax, eax
	je	SHORT $LN13@fnGetAncho

; 3604 :       bValidWindow = TRUE;

	mov	BYTE PTR _bValidWindow$[ebp], 1
	jmp	SHORT $LN2@fnGetAncho
$LN13@fnGetAncho:

; 3605 :    else
; 3606 :       bValidWindow = FALSE;

	mov	BYTE PTR _bValidWindow$[ebp], 0
$LN2@fnGetAncho:

; 3607 : 
; 3608 :    while ( bValidWindow )

	movzx	edx, BYTE PTR _bValidWindow$[ebp]
	test	edx, edx
	je	SHORT $LN3@fnGetAncho

; 3609 :    {
; 3610 :       lpProcessList->nOE_Request = TASKREQ_SHARE;  // we want to share handles

	mov	eax, 2
	mov	ecx, DWORD PTR _lpProcessList$[ebp]
	mov	WORD PTR [ecx], ax

; 3611 : 
; 3612 : #ifdef __MUTEX_DEBUG__
; 3613 :       // We use 'zMUTEX_COUNT' as an ID for SendMessage.
; 3614 :       fnPrintMutexInfo( 's', zMUTEX_COUNT, __FILE__, __LINE__ );
; 3615 : #endif
; 3616 : 
; 3617 :       SendMessage( (HWND) AnchorBlock->OS_Data.hMainWindow,

	mov	edx, DWORD PTR _g_lProcessIdx
	push	edx
	push	0
	mov	eax, DWORD PTR _g_wOENG_Message
	push	eax
	mov	ecx, DWORD PTR _AnchorBlock
	mov	edx, DWORD PTR [ecx+1503]
	push	edx
	call	DWORD PTR __imp__SendMessageA@16

; 3618 :                    g_wOENG_Message, 0, g_lProcessIdx );
; 3619 : 
; 3620 : #ifdef __MUTEX_DEBUG__
; 3621 :       // We use 'zMUTEX_COUNT' as an ID for SendMessage.
; 3622 :       fnPrintMutexInfo( 'S', zMUTEX_COUNT, __FILE__, __LINE__ );
; 3623 : #endif
; 3624 : 
; 3625 :       // Check the returned handle.  If it's zero, then there are no more file mappings.
; 3626 :       if ( lpProcessList->hMemHandle == 0 )

	mov	eax, DWORD PTR _lpProcessList$[ebp]
	cmp	DWORD PTR [eax+12], 0
	jne	SHORT $LN15@fnGetAncho

; 3627 :          break;

	jmp	SHORT $LN3@fnGetAncho
$LN15@fnGetAncho:

; 3628 : 
; 3629 :       // Now call ProcessZeidonMessage to take the handle returned from the
; 3630 :       // system task and open it for the current task.
; 3631 :       lpProcessList->nOE_Request = TASKREQ_ALLOC; // we want to open a file mapping

	mov	ecx, 1
	mov	edx, DWORD PTR _lpProcessList$[ebp]
	mov	WORD PTR [edx], cx

; 3632 :       ProcessZeidonMessage( 0, g_lProcessIdx );

	mov	eax, DWORD PTR _g_lProcessIdx
	push	eax
	push	0
	call	_ProcessZeidonMessage@8

; 3633 :    }

	jmp	SHORT $LN2@fnGetAncho
$LN3@fnGetAncho:

; 3634 : 
; 3635 :    // Last thing is to change g_hAnchorBlock from zero to a Zeidon handle.
; 3636 :    g_hAnchorBlock = hSaveAnchorBlock;

	mov	ecx, DWORD PTR _hSaveAnchorBlock$[ebp]
	mov	DWORD PTR _g_hAnchorBlock, ecx

; 3637 :    return( 0 );

	xor	eax, eax
$LN1@fnGetAncho:

; 3638 : }

	mov	esp, ebp
	pop	ebp
	ret	8
_fnGetAnchorBlock@8 ENDP
_TEXT	ENDS
; Function compile flags: /Odtp
; File c:\10c\w\oe\kzoesyaa.c
_TEXT	SEGMENT
_k$ = -12						; size = 4
tv72 = -8						; size = 4
_lpViewOD$1 = -4					; size = 4
_lpView$ = 8						; size = 4
_lPageTableIndex$ = 12					; size = 4
_pHandle$ = 16						; size = 4
_CheckPointer PROC

; 2936 : {

	push	ebp
	mov	ebp, esp
	sub	esp, 12					; 0000000cH

; 2937 :    // Get high order byte from handle.
; 2938 :    zLONG  k = (zLONG) ((zULONG) pHandle >> 24);

	mov	eax, DWORD PTR _pHandle$[ebp]
	shr	eax, 24					; 00000018H
	mov	DWORD PTR _k$[ebp], eax

; 2939 :    if ( k == lPageTableIndex )

	mov	ecx, DWORD PTR _k$[ebp]
	cmp	ecx, DWORD PTR _lPageTableIndex$[ebp]
	jne	SHORT $LN2@CheckPoint

; 2940 :    {
; 2941 :       LPVIEWOD lpViewOD;
; 2942 : 
; 2943 :       if ( lpView )

	cmp	DWORD PTR _lpView$[ebp], 0
	je	SHORT $LN3@CheckPoint

; 2944 :          lpViewOD = zGETPTR( lpView->hViewOD );

	mov	edx, DWORD PTR _lpView$[ebp]
	mov	eax, DWORD PTR [edx+6]
	push	eax
	call	DWORD PTR _g_pfnGetPtr
	mov	DWORD PTR _lpViewOD$1[ebp], eax
	jmp	SHORT $LN4@CheckPoint
$LN3@CheckPoint:

; 2945 :       else
; 2946 :          lpViewOD = 0;

	mov	DWORD PTR _lpViewOD$1[ebp], 0
$LN4@CheckPoint:

; 2947 : 
; 2948 :       TraceLine( "Check Pointer Error for TableIndex: %d   ViewOD Name: %s",

	cmp	DWORD PTR _lpViewOD$1[ebp], 0
	je	SHORT $LN6@CheckPoint
	mov	ecx, DWORD PTR _lpViewOD$1[ebp]
	add	ecx, 10					; 0000000aH
	mov	DWORD PTR tv72[ebp], ecx
	jmp	SHORT $LN7@CheckPoint
$LN6@CheckPoint:
	mov	DWORD PTR tv72[ebp], OFFSET $SG98763
$LN7@CheckPoint:
	mov	edx, DWORD PTR tv72[ebp]
	push	edx
	mov	eax, DWORD PTR _lPageTableIndex$[ebp]
	push	eax
	push	OFFSET $SG98764
	call	_TraceLine
	add	esp, 12					; 0000000cH

; 2949 :                  lPageTableIndex, lpViewOD ? lpViewOD->szName : "No view" );
; 2950 :       SysMessageBox( 0, "Zeidon Core",

	push	-1
	push	OFFSET $SG98765
	push	OFFSET $SG98766
	push	0
	call	_SysMessageBox@16
$LN2@CheckPoint:

; 2951 :                      "Check Pointer Error for TableIndex!", -1 );
; 2952 :    }
; 2953 : 
; 2954 :    return( zGETPTR( pHandle ) );

	mov	ecx, DWORD PTR _pHandle$[ebp]
	push	ecx
	call	DWORD PTR _g_pfnGetPtr

; 2955 : }

	mov	esp, ebp
	pop	ebp
	ret	0
_CheckPointer ENDP
_TEXT	ENDS
; Function compile flags: /Odtp
; File c:\10c\w\oe\kzoesyaa.c
_TEXT	SEGMENT
_nLth$ = -4						; size = 2
_pchFileName$ = 8					; size = 4
_nMaxLth$ = 12						; size = 2
_fnBuildZeidonIni PROC

; 1975 : {

	push	ebp
	mov	ebp, esp
	push	ecx

; 1976 :    zSHORT nLth;
; 1977 : 
; 1978 :    SysGetEnvVar( pchFileName, szlZEIDON, nMaxLth );

	movsx	eax, WORD PTR _nMaxLth$[ebp]
	push	eax
	mov	ecx, DWORD PTR _szlZEIDON
	push	ecx
	mov	edx, DWORD PTR _pchFileName$[ebp]
	push	edx
	call	_SysGetEnvVar@12

; 1979 :    if ( pchFileName[ 0 ] )

	mov	eax, 1
	imul	ecx, eax, 0
	mov	edx, DWORD PTR _pchFileName$[ebp]
	movsx	eax, BYTE PTR [edx+ecx]
	test	eax, eax
	je	SHORT $LN2@fnBuildZei

; 1980 :    {
; 1981 :       SysAppendcDirSep( pchFileName );

	mov	ecx, DWORD PTR _pchFileName$[ebp]
	push	ecx
	call	_SysAppendcDirSep@4

; 1982 :       nLth = zstrlen( pchFileName );

	mov	edx, DWORD PTR _pchFileName$[ebp]
	push	edx
	call	_strlen
	add	esp, 4
	mov	WORD PTR _nLth$[ebp], ax

; 1983 :       zstrcpy( pchFileName + nLth, "zeidon.ini" );

	push	OFFSET $SG98472
	movsx	eax, WORD PTR _nLth$[ebp]
	add	eax, DWORD PTR _pchFileName$[ebp]
	push	eax
	call	_strcpy
	add	esp, 8

; 1984 :    }

	jmp	SHORT $LN3@fnBuildZei
$LN2@fnBuildZei:

; 1985 :    else
; 1986 :       nLth = 0;

	xor	ecx, ecx
	mov	WORD PTR _nLth$[ebp], cx
$LN3@fnBuildZei:

; 1987 : 
; 1988 :    return( nLth );

	mov	ax, WORD PTR _nLth$[ebp]

; 1989 : }

	mov	esp, ebp
	pop	ebp
	ret	0
_fnBuildZeidonIni ENDP
_TEXT	ENDS
; Function compile flags: /Odtp
; File c:\10c\w\oe\kzoesyaa.c
_TEXT	SEGMENT
$T1 = -284						; size = 4
_sz$2 = -280						; size = 2
tv76 = -276						; size = 4
_bError$ = -271						; size = 1
_cDelimiter$ = -270					; size = 1
_bImbedding$ = -269					; size = 1
_pch1$ = -268						; size = 4
_pch2$ = -264						; size = 4
_sz$ = -260						; size = 256
__$ArrayPad$ = -4					; size = 4
_pchFormat$ = 8						; size = 4
_fnConvertToZeidonFormat PROC

; 1255 : {

	push	ebp
	mov	ebp, esp
	sub	esp, 284				; 0000011cH
	mov	eax, DWORD PTR ___security_cookie
	xor	eax, ebp
	mov	DWORD PTR __$ArrayPad$[ebp], eax

; 1256 :    zPCHAR   pch1;
; 1257 :    zPCHAR   pch2;
; 1258 :    zCHAR    sz[ 256 ];
; 1259 :    zBOOL    bError = 0;

	mov	BYTE PTR _bError$[ebp], 0

; 1260 :    zBOOL    bImbedding = 0;

	mov	BYTE PTR _bImbedding$[ebp], 0

; 1261 :    zCHAR    cDelimiter = 0;

	mov	BYTE PTR _cDelimiter$[ebp], 0

; 1262 : 
; 1263 :    pch1 = pchFormat;

	mov	eax, DWORD PTR _pchFormat$[ebp]
	mov	DWORD PTR _pch1$[ebp], eax

; 1264 :    pch2 = sz;

	lea	ecx, DWORD PTR _sz$[ebp]
	mov	DWORD PTR _pch2$[ebp], ecx
$LN2@fnConvertT:

; 1265 : 
; 1266 :    while ( *pch1 )

	mov	edx, DWORD PTR _pch1$[ebp]
	movsx	eax, BYTE PTR [edx]
	test	eax, eax
	je	$LN3@fnConvertT

; 1267 :    {
; 1268 :       if ( cDelimiter )

	movsx	ecx, BYTE PTR _cDelimiter$[ebp]
	test	ecx, ecx
	je	SHORT $LN6@fnConvertT

; 1269 :       {
; 1270 :          if ( *pch1 == cDelimiter )

	mov	edx, DWORD PTR _pch1$[ebp]
	movsx	eax, BYTE PTR [edx]
	movsx	ecx, BYTE PTR _cDelimiter$[ebp]
	cmp	eax, ecx
	jne	SHORT $LN8@fnConvertT

; 1271 :          {
; 1272 :             cDelimiter = 0;

	mov	BYTE PTR _cDelimiter$[ebp], 0

; 1273 :             *pch2++ = *pch1++;

	mov	edx, DWORD PTR _pch2$[ebp]
	mov	eax, DWORD PTR _pch1$[ebp]
	mov	cl, BYTE PTR [eax]
	mov	BYTE PTR [edx], cl
	mov	edx, DWORD PTR _pch2$[ebp]
	add	edx, 1
	mov	DWORD PTR _pch2$[ebp], edx
	mov	eax, DWORD PTR _pch1$[ebp]
	add	eax, 1
	mov	DWORD PTR _pch1$[ebp], eax

; 1274 :          }

	jmp	SHORT $LN9@fnConvertT
$LN8@fnConvertT:

; 1275 :          else
; 1276 :             *pch2++ = *pch1++;

	mov	ecx, DWORD PTR _pch2$[ebp]
	mov	edx, DWORD PTR _pch1$[ebp]
	mov	al, BYTE PTR [edx]
	mov	BYTE PTR [ecx], al
	mov	ecx, DWORD PTR _pch2$[ebp]
	add	ecx, 1
	mov	DWORD PTR _pch2$[ebp], ecx
	mov	edx, DWORD PTR _pch1$[ebp]
	add	edx, 1
	mov	DWORD PTR _pch1$[ebp], edx
$LN9@fnConvertT:

; 1277 :       }

	jmp	$LN7@fnConvertT
$LN6@fnConvertT:

; 1278 :       else
; 1279 :       switch ( *pch1 )

	mov	eax, DWORD PTR _pch1$[ebp]
	movsx	ecx, BYTE PTR [eax]
	mov	DWORD PTR tv76[ebp], ecx
	mov	edx, DWORD PTR tv76[ebp]
	sub	edx, 32					; 00000020H
	mov	DWORD PTR tv76[ebp], edx
	cmp	DWORD PTR tv76[ebp], 89			; 00000059H
	ja	$LN42@fnConvertT
	mov	eax, DWORD PTR tv76[ebp]
	movzx	ecx, BYTE PTR $LN50@fnConvertT[eax]
	jmp	DWORD PTR $LN51@fnConvertT[ecx*4]
$LN10@fnConvertT:

; 1280 :       {
; 1281 :        case 'd':
; 1282 :        case 'D':
; 1283 :          if ( bImbedding )

	movzx	edx, BYTE PTR _bImbedding$[ebp]
	test	edx, edx
	je	SHORT $LN11@fnConvertT

; 1284 :          {
; 1285 :             *pch2++ = '\"';

	mov	eax, DWORD PTR _pch2$[ebp]
	mov	BYTE PTR [eax], 34			; 00000022H
	mov	ecx, DWORD PTR _pch2$[ebp]
	add	ecx, 1
	mov	DWORD PTR _pch2$[ebp], ecx

; 1286 :             bImbedding = 0;

	mov	BYTE PTR _bImbedding$[ebp], 0
$LN11@fnConvertT:

; 1287 :          }
; 1288 : 
; 1289 :          if ( zstrncmpi( (pch1 + 1), "DDD", 3 ) == 0 )

	push	3
	push	OFFSET $SG98310
	mov	edx, DWORD PTR _pch1$[ebp]
	add	edx, 1
	push	edx
	call	DWORD PTR __imp___strnicmp
	add	esp, 12					; 0000000cH
	test	eax, eax
	jne	SHORT $LN12@fnConvertT

; 1290 :          {
; 1291 :             *pch2++ = 'D';

	mov	eax, DWORD PTR _pch2$[ebp]
	mov	BYTE PTR [eax], 68			; 00000044H
	mov	ecx, DWORD PTR _pch2$[ebp]
	add	ecx, 1
	mov	DWORD PTR _pch2$[ebp], ecx

; 1292 :             zmemcpy( pch2, "ddd", 3 );

	push	3
	push	OFFSET $SG98311
	mov	edx, DWORD PTR _pch2$[ebp]
	push	edx
	call	_memcpy
	add	esp, 12					; 0000000cH

; 1293 :             pch1 += 4;

	mov	eax, DWORD PTR _pch1$[ebp]
	add	eax, 4
	mov	DWORD PTR _pch1$[ebp], eax

; 1294 :             pch2 += 3;

	mov	ecx, DWORD PTR _pch2$[ebp]
	add	ecx, 3
	mov	DWORD PTR _pch2$[ebp], ecx

; 1295 :          }

	jmp	$LN13@fnConvertT
$LN12@fnConvertT:

; 1296 :          else
; 1297 :          if ( zstrncmpi( (pch1 + 1), "DD", 2 ) == 0 )

	push	2
	push	OFFSET $SG98314
	mov	edx, DWORD PTR _pch1$[ebp]
	add	edx, 1
	push	edx
	call	DWORD PTR __imp___strnicmp
	add	esp, 12					; 0000000cH
	test	eax, eax
	jne	SHORT $LN14@fnConvertT

; 1298 :          {
; 1299 :             *pch2++ = 'D';

	mov	eax, DWORD PTR _pch2$[ebp]
	mov	BYTE PTR [eax], 68			; 00000044H
	mov	ecx, DWORD PTR _pch2$[ebp]
	add	ecx, 1
	mov	DWORD PTR _pch2$[ebp], ecx

; 1300 :             *pch2++ = 'd';

	mov	edx, DWORD PTR _pch2$[ebp]
	mov	BYTE PTR [edx], 100			; 00000064H
	mov	eax, DWORD PTR _pch2$[ebp]
	add	eax, 1
	mov	DWORD PTR _pch2$[ebp], eax

; 1301 :             *pch2++ = 'd';

	mov	ecx, DWORD PTR _pch2$[ebp]
	mov	BYTE PTR [ecx], 100			; 00000064H
	mov	edx, DWORD PTR _pch2$[ebp]
	add	edx, 1
	mov	DWORD PTR _pch2$[ebp], edx

; 1302 :             pch1 += 3;

	mov	eax, DWORD PTR _pch1$[ebp]
	add	eax, 3
	mov	DWORD PTR _pch1$[ebp], eax

; 1303 :          }

	jmp	$LN13@fnConvertT
$LN14@fnConvertT:

; 1304 :          else
; 1305 :          if ( *(pch1 + 1) == 'D' ||

	mov	ecx, DWORD PTR _pch1$[ebp]
	movsx	edx, BYTE PTR [ecx+1]
	cmp	edx, 68					; 00000044H
	je	SHORT $LN18@fnConvertT
	mov	eax, DWORD PTR _pch1$[ebp]
	movsx	ecx, BYTE PTR [eax+1]
	cmp	ecx, 100				; 00000064H
	jne	SHORT $LN16@fnConvertT
$LN18@fnConvertT:

; 1306 :               *(pch1 + 1) == 'd' )
; 1307 :          {
; 1308 :             *pch2++ = 'D';

	mov	edx, DWORD PTR _pch2$[ebp]
	mov	BYTE PTR [edx], 68			; 00000044H
	mov	eax, DWORD PTR _pch2$[ebp]
	add	eax, 1
	mov	DWORD PTR _pch2$[ebp], eax

; 1309 :             *pch2++ = 'd';

	mov	ecx, DWORD PTR _pch2$[ebp]
	mov	BYTE PTR [ecx], 100			; 00000064H
	mov	edx, DWORD PTR _pch2$[ebp]
	add	edx, 1
	mov	DWORD PTR _pch2$[ebp], edx

; 1310 :             pch1 += 2;

	mov	eax, DWORD PTR _pch1$[ebp]
	add	eax, 2
	mov	DWORD PTR _pch1$[ebp], eax

; 1311 :          }

	jmp	SHORT $LN13@fnConvertT
$LN16@fnConvertT:

; 1312 :          else
; 1313 :          {
; 1314 :             *pch2++ = 'D';

	mov	ecx, DWORD PTR _pch2$[ebp]
	mov	BYTE PTR [ecx], 68			; 00000044H
	mov	edx, DWORD PTR _pch2$[ebp]
	add	edx, 1
	mov	DWORD PTR _pch2$[ebp], edx

; 1315 :             pch1++;

	mov	eax, DWORD PTR _pch1$[ebp]
	add	eax, 1
	mov	DWORD PTR _pch1$[ebp], eax
$LN13@fnConvertT:

; 1316 :          }
; 1317 : 
; 1318 :          break;

	jmp	$LN7@fnConvertT
$LN19@fnConvertT:

; 1319 : 
; 1320 :        case 'm':
; 1321 :        case 'M':
; 1322 :          if ( bImbedding )

	movzx	ecx, BYTE PTR _bImbedding$[ebp]
	test	ecx, ecx
	je	SHORT $LN20@fnConvertT

; 1323 :          {
; 1324 :             *pch2++ = '\"';

	mov	edx, DWORD PTR _pch2$[ebp]
	mov	BYTE PTR [edx], 34			; 00000022H
	mov	eax, DWORD PTR _pch2$[ebp]
	add	eax, 1
	mov	DWORD PTR _pch2$[ebp], eax

; 1325 :             bImbedding = 0;

	mov	BYTE PTR _bImbedding$[ebp], 0
$LN20@fnConvertT:

; 1326 :          }
; 1327 : 
; 1328 :          if ( zstrncmpi( (pch1 + 1), "MMM", 3 ) == 0 )

	push	3
	push	OFFSET $SG98322
	mov	ecx, DWORD PTR _pch1$[ebp]
	add	ecx, 1
	push	ecx
	call	DWORD PTR __imp___strnicmp
	add	esp, 12					; 0000000cH
	test	eax, eax
	jne	SHORT $LN21@fnConvertT

; 1329 :          {
; 1330 :             *pch2++ = 'M';

	mov	edx, DWORD PTR _pch2$[ebp]
	mov	BYTE PTR [edx], 77			; 0000004dH
	mov	eax, DWORD PTR _pch2$[ebp]
	add	eax, 1
	mov	DWORD PTR _pch2$[ebp], eax

; 1331 :             zmemcpy( pch2, "mmm", 3 );

	push	3
	push	OFFSET $SG98323
	mov	ecx, DWORD PTR _pch2$[ebp]
	push	ecx
	call	_memcpy
	add	esp, 12					; 0000000cH

; 1332 :             pch2 += 3;

	mov	edx, DWORD PTR _pch2$[ebp]
	add	edx, 3
	mov	DWORD PTR _pch2$[ebp], edx

; 1333 :             pch1 += 4;

	mov	eax, DWORD PTR _pch1$[ebp]
	add	eax, 4
	mov	DWORD PTR _pch1$[ebp], eax

; 1334 :          }

	jmp	$LN22@fnConvertT
$LN21@fnConvertT:

; 1335 :          else
; 1336 :          if ( zstrncmpi( (pch1 + 1), "MM", 2 ) == 0 )

	push	2
	push	OFFSET $SG98326
	mov	ecx, DWORD PTR _pch1$[ebp]
	add	ecx, 1
	push	ecx
	call	DWORD PTR __imp___strnicmp
	add	esp, 12					; 0000000cH
	test	eax, eax
	jne	SHORT $LN23@fnConvertT

; 1337 :          {
; 1338 :             *pch2++ = 'M';

	mov	edx, DWORD PTR _pch2$[ebp]
	mov	BYTE PTR [edx], 77			; 0000004dH
	mov	eax, DWORD PTR _pch2$[ebp]
	add	eax, 1
	mov	DWORD PTR _pch2$[ebp], eax

; 1339 :             zmemcpy( pch2, "mm", 2 );

	push	2
	push	OFFSET $SG98327
	mov	ecx, DWORD PTR _pch2$[ebp]
	push	ecx
	call	_memcpy
	add	esp, 12					; 0000000cH

; 1340 :             pch2 += 2;

	mov	edx, DWORD PTR _pch2$[ebp]
	add	edx, 2
	mov	DWORD PTR _pch2$[ebp], edx

; 1341 :             pch1 += 3;

	mov	eax, DWORD PTR _pch1$[ebp]
	add	eax, 3
	mov	DWORD PTR _pch1$[ebp], eax

; 1342 :          }

	jmp	$LN22@fnConvertT
$LN23@fnConvertT:

; 1343 :          else
; 1344 :          if ( *(pch1 + 1) == 'M' ||

	mov	ecx, DWORD PTR _pch1$[ebp]
	movsx	edx, BYTE PTR [ecx+1]
	cmp	edx, 77					; 0000004dH
	je	SHORT $LN27@fnConvertT
	mov	eax, DWORD PTR _pch1$[ebp]
	movsx	ecx, BYTE PTR [eax+1]
	cmp	ecx, 109				; 0000006dH
	jne	SHORT $LN25@fnConvertT
$LN27@fnConvertT:

; 1345 :               *(pch1 + 1) == 'm' )
; 1346 :          {
; 1347 :             *pch2++ = 'M';

	mov	edx, DWORD PTR _pch2$[ebp]
	mov	BYTE PTR [edx], 77			; 0000004dH
	mov	eax, DWORD PTR _pch2$[ebp]
	add	eax, 1
	mov	DWORD PTR _pch2$[ebp], eax

; 1348 :             *pch2++ = 'm';

	mov	ecx, DWORD PTR _pch2$[ebp]
	mov	BYTE PTR [ecx], 109			; 0000006dH
	mov	edx, DWORD PTR _pch2$[ebp]
	add	edx, 1
	mov	DWORD PTR _pch2$[ebp], edx

; 1349 :             pch1 +=2;

	mov	eax, DWORD PTR _pch1$[ebp]
	add	eax, 2
	mov	DWORD PTR _pch1$[ebp], eax

; 1350 :          }

	jmp	SHORT $LN22@fnConvertT
$LN25@fnConvertT:

; 1351 :          else
; 1352 :          {
; 1353 :             *pch2++ = 'M';

	mov	ecx, DWORD PTR _pch2$[ebp]
	mov	BYTE PTR [ecx], 77			; 0000004dH
	mov	edx, DWORD PTR _pch2$[ebp]
	add	edx, 1
	mov	DWORD PTR _pch2$[ebp], edx

; 1354 :             pch1++;

	mov	eax, DWORD PTR _pch1$[ebp]
	add	eax, 1
	mov	DWORD PTR _pch1$[ebp], eax
$LN22@fnConvertT:

; 1355 :          }
; 1356 : 
; 1357 :          break;

	jmp	$LN7@fnConvertT
$LN28@fnConvertT:

; 1358 : 
; 1359 :        case 'y':
; 1360 :        case 'Y':
; 1361 :          if ( zstrncmpi( (pch1 + 1), "YYY", 3 ) == 0 )

	push	3
	push	OFFSET $SG98334
	mov	ecx, DWORD PTR _pch1$[ebp]
	add	ecx, 1
	push	ecx
	call	DWORD PTR __imp___strnicmp
	add	esp, 12					; 0000000cH
	test	eax, eax
	jne	SHORT $LN29@fnConvertT

; 1362 :          {
; 1363 :             if ( bImbedding )

	movzx	edx, BYTE PTR _bImbedding$[ebp]
	test	edx, edx
	je	SHORT $LN31@fnConvertT

; 1364 :             {
; 1365 :                *pch2++ = '\"';

	mov	eax, DWORD PTR _pch2$[ebp]
	mov	BYTE PTR [eax], 34			; 00000022H
	mov	ecx, DWORD PTR _pch2$[ebp]
	add	ecx, 1
	mov	DWORD PTR _pch2$[ebp], ecx

; 1366 :                bImbedding = 0;

	mov	BYTE PTR _bImbedding$[ebp], 0
$LN31@fnConvertT:

; 1367 :             }
; 1368 : 
; 1369 :             zmemcpy( pch2, "YYYY", 4 );

	push	4
	push	OFFSET $SG98336
	mov	edx, DWORD PTR _pch2$[ebp]
	push	edx
	call	_memcpy
	add	esp, 12					; 0000000cH

; 1370 :             pch2 += 4;

	mov	eax, DWORD PTR _pch2$[ebp]
	add	eax, 4
	mov	DWORD PTR _pch2$[ebp], eax

; 1371 :             pch1 += 4;

	mov	ecx, DWORD PTR _pch1$[ebp]
	add	ecx, 4
	mov	DWORD PTR _pch1$[ebp], ecx

; 1372 :          }

	jmp	$LN30@fnConvertT
$LN29@fnConvertT:

; 1373 :          else
; 1374 :          if ( *(pch1 + 1) == 'Y' || *(pch1 + 1) == 'y' )

	mov	edx, DWORD PTR _pch1$[ebp]
	movsx	eax, BYTE PTR [edx+1]
	cmp	eax, 89					; 00000059H
	je	SHORT $LN34@fnConvertT
	mov	ecx, DWORD PTR _pch1$[ebp]
	movsx	edx, BYTE PTR [ecx+1]
	cmp	edx, 121				; 00000079H
	jne	SHORT $LN32@fnConvertT
$LN34@fnConvertT:

; 1375 :          {
; 1376 :             if ( bImbedding )

	movzx	eax, BYTE PTR _bImbedding$[ebp]
	test	eax, eax
	je	SHORT $LN35@fnConvertT

; 1377 :             {
; 1378 :                *pch2++ = '\"';

	mov	ecx, DWORD PTR _pch2$[ebp]
	mov	BYTE PTR [ecx], 34			; 00000022H
	mov	edx, DWORD PTR _pch2$[ebp]
	add	edx, 1
	mov	DWORD PTR _pch2$[ebp], edx

; 1379 :                bImbedding = 0;

	mov	BYTE PTR _bImbedding$[ebp], 0
$LN35@fnConvertT:

; 1380 :             }
; 1381 : 
; 1382 :             *pch2++ = 'Y';

	mov	eax, DWORD PTR _pch2$[ebp]
	mov	BYTE PTR [eax], 89			; 00000059H
	mov	ecx, DWORD PTR _pch2$[ebp]
	add	ecx, 1
	mov	DWORD PTR _pch2$[ebp], ecx

; 1383 :             *pch2++ = 'Y';

	mov	edx, DWORD PTR _pch2$[ebp]
	mov	BYTE PTR [edx], 89			; 00000059H
	mov	eax, DWORD PTR _pch2$[ebp]
	add	eax, 1
	mov	DWORD PTR _pch2$[ebp], eax

; 1384 :             pch1 += 2;

	mov	ecx, DWORD PTR _pch1$[ebp]
	add	ecx, 2
	mov	DWORD PTR _pch1$[ebp], ecx

; 1385 :          }

	jmp	SHORT $LN30@fnConvertT
$LN32@fnConvertT:

; 1386 :          else
; 1387 :          if ( bImbedding )

	movzx	edx, BYTE PTR _bImbedding$[ebp]
	test	edx, edx
	je	SHORT $LN36@fnConvertT

; 1388 :             *pch2++ = *pch1++;

	mov	eax, DWORD PTR _pch2$[ebp]
	mov	ecx, DWORD PTR _pch1$[ebp]
	mov	dl, BYTE PTR [ecx]
	mov	BYTE PTR [eax], dl
	mov	eax, DWORD PTR _pch2$[ebp]
	add	eax, 1
	mov	DWORD PTR _pch2$[ebp], eax
	mov	ecx, DWORD PTR _pch1$[ebp]
	add	ecx, 1
	mov	DWORD PTR _pch1$[ebp], ecx
	jmp	SHORT $LN30@fnConvertT
$LN36@fnConvertT:

; 1389 :          else
; 1390 :             bError = 1;

	mov	BYTE PTR _bError$[ebp], 1
$LN30@fnConvertT:

; 1391 : 
; 1392 :          break;

	jmp	$LN7@fnConvertT
$LN38@fnConvertT:

; 1393 : 
; 1394 :        case '\"':  // quote
; 1395 :          if ( bImbedding )

	movzx	edx, BYTE PTR _bImbedding$[ebp]
	test	edx, edx
	je	SHORT $LN40@fnConvertT

; 1396 :          {
; 1397 :             bImbedding = 0;

	mov	BYTE PTR _bImbedding$[ebp], 0

; 1398 :             cDelimiter = *pch1++;

	mov	eax, DWORD PTR _pch1$[ebp]
	mov	cl, BYTE PTR [eax]
	mov	BYTE PTR _cDelimiter$[ebp], cl
	mov	edx, DWORD PTR _pch1$[ebp]
	add	edx, 1
	mov	DWORD PTR _pch1$[ebp], edx

; 1399 :             break;

	jmp	$LN7@fnConvertT
$LN40@fnConvertT:

; 1400 :          }
; 1401 : 
; 1402 :        case '\'':  // apostrophe
; 1403 :          cDelimiter = *pch1;

	mov	eax, DWORD PTR _pch1$[ebp]
	mov	cl, BYTE PTR [eax]
	mov	BYTE PTR _cDelimiter$[ebp], cl

; 1404 :          *pch2++ = *pch1++;

	mov	edx, DWORD PTR _pch2$[ebp]
	mov	eax, DWORD PTR _pch1$[ebp]
	mov	cl, BYTE PTR [eax]
	mov	BYTE PTR [edx], cl
	mov	edx, DWORD PTR _pch2$[ebp]
	add	edx, 1
	mov	DWORD PTR _pch2$[ebp], edx
	mov	eax, DWORD PTR _pch1$[ebp]
	add	eax, 1
	mov	DWORD PTR _pch1$[ebp], eax

; 1405 :          break;

	jmp	$LN7@fnConvertT
$LN41@fnConvertT:

; 1406 : 
; 1407 :        case '(':   // left paren
; 1408 :        case ')':   // right paren
; 1409 :        case ':':   // colon
; 1410 :        case ',':   // comma
; 1411 :        case '-':   // dash
; 1412 :        case '/':   // slash
; 1413 :        case '.':   // period
; 1414 :        case ' ':   // space
; 1415 :          *pch2++ = *pch1++;

	mov	ecx, DWORD PTR _pch2$[ebp]
	mov	edx, DWORD PTR _pch1$[ebp]
	mov	al, BYTE PTR [edx]
	mov	BYTE PTR [ecx], al
	mov	ecx, DWORD PTR _pch2$[ebp]
	add	ecx, 1
	mov	DWORD PTR _pch2$[ebp], ecx
	mov	edx, DWORD PTR _pch1$[ebp]
	add	edx, 1
	mov	DWORD PTR _pch1$[ebp], edx

; 1416 :          break;

	jmp	SHORT $LN7@fnConvertT
$LN42@fnConvertT:

; 1417 : 
; 1418 :        default:
; 1419 :          if ( !bImbedding )

	movzx	eax, BYTE PTR _bImbedding$[ebp]
	test	eax, eax
	jne	SHORT $LN43@fnConvertT

; 1420 :          {
; 1421 :             bImbedding = 1;

	mov	BYTE PTR _bImbedding$[ebp], 1

; 1422 :             *pch2++ = '\"';

	mov	ecx, DWORD PTR _pch2$[ebp]
	mov	BYTE PTR [ecx], 34			; 00000022H
	mov	edx, DWORD PTR _pch2$[ebp]
	add	edx, 1
	mov	DWORD PTR _pch2$[ebp], edx
$LN43@fnConvertT:

; 1423 :          }
; 1424 : 
; 1425 :          *pch2++ = *pch1++;

	mov	eax, DWORD PTR _pch2$[ebp]
	mov	ecx, DWORD PTR _pch1$[ebp]
	mov	dl, BYTE PTR [ecx]
	mov	BYTE PTR [eax], dl
	mov	eax, DWORD PTR _pch2$[ebp]
	add	eax, 1
	mov	DWORD PTR _pch2$[ebp], eax
	mov	ecx, DWORD PTR _pch1$[ebp]
	add	ecx, 1
	mov	DWORD PTR _pch1$[ebp], ecx
$LN7@fnConvertT:

; 1426 :       }
; 1427 : 
; 1428 :       if ( bError )

	movzx	edx, BYTE PTR _bError$[ebp]
	test	edx, edx
	je	SHORT $LN44@fnConvertT

; 1429 :          break;

	jmp	SHORT $LN3@fnConvertT
$LN44@fnConvertT:

; 1430 :    }

	jmp	$LN2@fnConvertT
$LN3@fnConvertT:

; 1431 : 
; 1432 :    *pch2 = 0; // terminate the string.

	mov	eax, DWORD PTR _pch2$[ebp]
	mov	BYTE PTR [eax], 0

; 1433 : 
; 1434 :    if ( bError == FALSE )

	movzx	ecx, BYTE PTR _bError$[ebp]
	test	ecx, ecx
	jne	SHORT $LN45@fnConvertT

; 1435 :       zstrcpy( pchFormat, sz );   // return the zeidon format

	lea	edx, DWORD PTR _sz$[ebp]
	push	edx
	mov	eax, DWORD PTR _pchFormat$[ebp]
	push	eax
	call	_strcpy
	add	esp, 8
$LN45@fnConvertT:

; 1436 : 
; 1437 :    if ( cDelimiter && bError == FALSE )

	movsx	ecx, BYTE PTR _cDelimiter$[ebp]
	test	ecx, ecx
	je	SHORT $LN46@fnConvertT
	movzx	edx, BYTE PTR _bError$[ebp]
	test	edx, edx
	jne	SHORT $LN46@fnConvertT

; 1438 :    {
; 1439 :       zCHAR sz[ 2 ];
; 1440 : 
; 1441 :       sz[ 0 ] = cDelimiter;

	mov	eax, 1
	imul	ecx, eax, 0
	mov	dl, BYTE PTR _cDelimiter$[ebp]
	mov	BYTE PTR _sz$2[ebp+ecx], dl

; 1442 :       sz[ 1 ] = 0;

	mov	DWORD PTR $T1[ebp], 1
	cmp	DWORD PTR $T1[ebp], 2
	jae	SHORT $LN48@fnConvertT
	jmp	SHORT $LN49@fnConvertT
$LN48@fnConvertT:
	call	___report_rangecheckfailure
$LN49@fnConvertT:
	mov	eax, DWORD PTR $T1[ebp]
	mov	BYTE PTR _sz$2[ebp+eax], 0

; 1443 : 
; 1444 :       // "KZOEE360 - Missing ending delimiter "
; 1445 :       fnSysMessageBox( 0, "Zeidon Error", "Missing ending delimiter", 0 );

	push	0
	push	OFFSET $SG98352
	push	OFFSET $SG98353
	push	0
	call	_fnSysMessageBox@16
$LN46@fnConvertT:

; 1446 :    // fnIssueCoreError( 0, lpView, 16, 360, 0, sz, "from WIN.INI" );
; 1447 :    }
; 1448 : 
; 1449 :    return( bError );

	mov	al, BYTE PTR _bError$[ebp]
$LN47@fnConvertT:

; 1450 : }

	mov	ecx, DWORD PTR __$ArrayPad$[ebp]
	xor	ecx, ebp
	call	@__security_check_cookie@4
	mov	esp, ebp
	pop	ebp
	ret	0
$LN51@fnConvertT:
	DD	$LN41@fnConvertT
	DD	$LN38@fnConvertT
	DD	$LN40@fnConvertT
	DD	$LN10@fnConvertT
	DD	$LN19@fnConvertT
	DD	$LN28@fnConvertT
	DD	$LN42@fnConvertT
$LN50@fnConvertT:
	DB	0
	DB	6
	DB	1
	DB	6
	DB	6
	DB	6
	DB	6
	DB	2
	DB	0
	DB	0
	DB	6
	DB	6
	DB	0
	DB	0
	DB	0
	DB	0
	DB	6
	DB	6
	DB	6
	DB	6
	DB	6
	DB	6
	DB	6
	DB	6
	DB	6
	DB	6
	DB	0
	DB	6
	DB	6
	DB	6
	DB	6
	DB	6
	DB	6
	DB	6
	DB	6
	DB	6
	DB	3
	DB	6
	DB	6
	DB	6
	DB	6
	DB	6
	DB	6
	DB	6
	DB	6
	DB	4
	DB	6
	DB	6
	DB	6
	DB	6
	DB	6
	DB	6
	DB	6
	DB	6
	DB	6
	DB	6
	DB	6
	DB	5
	DB	6
	DB	6
	DB	6
	DB	6
	DB	6
	DB	6
	DB	6
	DB	6
	DB	6
	DB	6
	DB	3
	DB	6
	DB	6
	DB	6
	DB	6
	DB	6
	DB	6
	DB	6
	DB	6
	DB	4
	DB	6
	DB	6
	DB	6
	DB	6
	DB	6
	DB	6
	DB	6
	DB	6
	DB	6
	DB	6
	DB	6
	DB	5
_fnConvertToZeidonFormat ENDP
_TEXT	ENDS
; Function compile flags: /Odtp
; File c:\10c\w\oe\kzoesyaa.c
_TEXT	SEGMENT
_pOS_Record$ = -4					; size = 4
_cpcText$ = 8						; size = 4
_ppProcessList$ = 12					; size = 4
_fnSetProcessIdx PROC

; 415  : {

	push	ebp
	mov	ebp, esp
	push	ecx

; 416  :    LPANCHOROS_RECORD pOS_Record = &AnchorBlock->OS_Data;

	mov	eax, DWORD PTR _AnchorBlock
	add	eax, 1503				; 000005dfH
	mov	DWORD PTR _pOS_Record$[ebp], eax

; 417  : 
; 418  :    if ( g_lProcessIdx == -1 )

	cmp	DWORD PTR _g_lProcessIdx, -1
	jne	SHORT $LN5@fnSetProce

; 419  :    {
; 420  :       // Find an open cell in the Process record.
; 421  :       for ( g_lProcessIdx = 0;

	mov	DWORD PTR _g_lProcessIdx, 0
	jmp	SHORT $LN4@fnSetProce
$LN2@fnSetProce:

; 423  :             g_lProcessIdx++ )

	mov	ecx, DWORD PTR _g_lProcessIdx
	add	ecx, 1
	mov	DWORD PTR _g_lProcessIdx, ecx
$LN4@fnSetProce:

; 422  :             pOS_Record->ProcessList[ g_lProcessIdx ].lProcessID != 0;

	imul	edx, DWORD PTR _g_lProcessIdx, 20
	mov	eax, DWORD PTR _pOS_Record$[ebp]
	cmp	DWORD PTR [eax+edx+24], 0
	je	SHORT $LN3@fnSetProce

; 424  :       {
; 425  :          if ( g_lProcessIdx >= zMAX_PROCESSES )

	cmp	DWORD PTR _g_lProcessIdx, 50		; 00000032H
	jl	SHORT $LN6@fnSetProce

; 426  :          {
; 427  :             SysMessageBox( 0, szlOE_SystemError, "Exceeded Process Limit ... Contact Zeidon Support", -1 );

	push	-1
	push	OFFSET $SG98009
	mov	ecx, DWORD PTR _szlOE_SystemError
	push	ecx
	push	0
	call	_SysMessageBox@16

; 428  :             break;

	jmp	SHORT $LN3@fnSetProce
$LN6@fnSetProce:

; 429  :          }
; 430  :       }

	jmp	SHORT $LN2@fnSetProce
$LN3@fnSetProce:

; 431  : 
; 432  :       // pOS_Record->lProcessCount keeps track of the highest process idx.
; 433  :       if ( g_lProcessIdx >= pOS_Record->lProcessCount )

	mov	edx, DWORD PTR _pOS_Record$[ebp]
	mov	eax, DWORD PTR _g_lProcessIdx
	cmp	eax, DWORD PTR [edx+4]
	jl	SHORT $LN5@fnSetProce

; 434  :          pOS_Record->lProcessCount = g_lProcessIdx + 1;

	mov	ecx, DWORD PTR _g_lProcessIdx
	add	ecx, 1
	mov	edx, DWORD PTR _pOS_Record$[ebp]
	mov	DWORD PTR [edx+4], ecx
$LN5@fnSetProce:

; 435  :    }
; 436  : 
; 437  :    *ppProcessList = &pOS_Record->ProcessList[ g_lProcessIdx ];

	imul	eax, DWORD PTR _g_lProcessIdx, 20
	mov	ecx, DWORD PTR _pOS_Record$[ebp]
	lea	edx, DWORD PTR [ecx+eax+8]
	mov	eax, DWORD PTR _ppProcessList$[ebp]
	mov	DWORD PTR [eax], edx

; 438  :    (*ppProcessList)->lProcessID = GetCurrentProcessId( );

	call	DWORD PTR __imp__GetCurrentProcessId@0
	mov	ecx, DWORD PTR _ppProcessList$[ebp]
	mov	edx, DWORD PTR [ecx]
	mov	DWORD PTR [edx+16], eax

; 439  : 
; 440  : // TraceLine( "%s:  fnSetProcessIdx =======================>>>>> ProcessIdx: %d   CurrentProcess: %d",
; 441  : //            cpcText, g_lProcessIdx, (*ppProcessList)->lProcessID );
; 442  : }

	mov	esp, ebp
	pop	ebp
	ret	0
_fnSetProcessIdx ENDP
_TEXT	ENDS
; Function compile flags: /Odtp
; File c:\10c\w\oe\kzoesyaa.c
_TEXT	SEGMENT
_lStartIdx$1 = -12					; size = 4
_pv$ = -8						; size = 4
_k$2 = -4						; size = 4
_phHandle$ = 8						; size = 4
_lBytes$ = 12						; size = 4
_plPageTableIndex$ = 16					; size = 4
_cpcShareName$ = 20					; size = 4
_fnMapFile@16 PROC

; 4221 : {

	push	ebp
	mov	ebp, esp
	sub	esp, 12					; 0000000cH

; 4222 :    zPVOID pv;
; 4223 : 
; 4224 :    // If the handle is zero then we need to create one.
; 4225 :    if ( *phHandle == 0 )

	mov	eax, DWORD PTR _phHandle$[ebp]
	cmp	DWORD PTR [eax], 0
	jne	$LN5@fnMapFile

; 4226 :    {
; 4227 :       zLONG  k;
; 4228 :       zLONG  lStartIdx;
; 4229 : 
; 4230 :       // Start off by finding an empty (or open) page table entry.
; 4231 : 
; 4232 :       if ( g_bWin95 )

	movzx	ecx, BYTE PTR _g_bWin95
	test	ecx, ecx
	je	SHORT $LN7@fnMapFile

; 4233 :          lStartIdx = 1;

	mov	DWORD PTR _lStartIdx$1[ebp], 1
	jmp	SHORT $LN8@fnMapFile
$LN7@fnMapFile:

; 4234 :       else
; 4235 :       {
; 4236 : #ifdef DEBUG_PAGETABLE
; 4237 :          // When we are debugging we start with page 128 so that the high bit
; 4238 :          // in the resulting handle will always be set.
; 4239 :          lStartIdx = 128;

	mov	DWORD PTR _lStartIdx$1[ebp], 128	; 00000080H
$LN8@fnMapFile:

; 4240 : #else
; 4241 :          // We start with page one (instead of zero) so that a handle will always
; 4242 :          // be non-zero.
; 4243 :          lStartIdx = 1;
; 4244 : #endif
; 4245 :       }
; 4246 : 
; 4247 :       for ( k = lStartIdx; k < zSHR_MAX_PAGES; k++ )

	mov	edx, DWORD PTR _lStartIdx$1[ebp]
	mov	DWORD PTR _k$2[ebp], edx
	jmp	SHORT $LN4@fnMapFile
$LN2@fnMapFile:
	mov	eax, DWORD PTR _k$2[ebp]
	add	eax, 1
	mov	DWORD PTR _k$2[ebp], eax
$LN4@fnMapFile:
	cmp	DWORD PTR _k$2[ebp], 256		; 00000100H
	jge	SHORT $LN3@fnMapFile

; 4248 :       {
; 4249 :          // If we find an empty page break loop.
; 4250 :          if ( g_ZeidonPageTable[ k ] == 0 )

	mov	ecx, DWORD PTR _k$2[ebp]
	cmp	DWORD PTR _g_ZeidonPageTable[ecx*4], 0
	jne	SHORT $LN9@fnMapFile

; 4251 :             break;

	jmp	SHORT $LN3@fnMapFile
$LN9@fnMapFile:

; 4252 :       }

	jmp	SHORT $LN2@fnMapFile
$LN3@fnMapFile:

; 4253 : 
; 4254 :       if ( k >= zSHR_MAX_PAGES )

	cmp	DWORD PTR _k$2[ebp], 256		; 00000100H
	jl	SHORT $LN10@fnMapFile

; 4255 :       {
; 4256 :          SysMessageBox( 0, szlOE_SystemError, "Out of memory pages!", -1 );

	push	-1
	push	OFFSET $SG99065
	mov	edx, DWORD PTR _szlOE_SystemError
	push	edx
	push	0
	call	_SysMessageBox@16

; 4257 :          return( 0 );

	xor	eax, eax
	jmp	$LN1@fnMapFile
$LN10@fnMapFile:

; 4258 :       }
; 4259 : 
; 4260 :       if ( g_bWin95 )

	movzx	eax, BYTE PTR _g_bWin95
	test	eax, eax
	je	SHORT $LN11@fnMapFile

; 4261 :       {
; 4262 :          // Take into account that we have to store the index of the currently
; 4263 :          // allocated block of memory in the first few bytes of the memory.
; 4264 :          lBytes += sizeof( zLONG );

	mov	ecx, DWORD PTR _lBytes$[ebp]
	add	ecx, 4
	mov	DWORD PTR _lBytes$[ebp], ecx
$LN11@fnMapFile:

; 4265 :       }
; 4266 : 
; 4267 :       *plPageTableIndex = k;

	mov	edx, DWORD PTR _plPageTableIndex$[ebp]
	mov	eax, DWORD PTR _k$2[ebp]
	mov	DWORD PTR [edx], eax

; 4268 : 
; 4269 :    // TraceLine( "fnMapFile Page Table mapped at Index: %x   0x%08x   Process: %d",
; 4270 :    //            *plPageTableIndex, g_ZeidonPageTable[ *plPageTableIndex ], SysGetProcessID( 0 ) );
; 4271 : 
; 4272 :       *phHandle = CreateFileMapping( (HANDLE) -1, NULL, PAGE_READWRITE,

	mov	ecx, DWORD PTR _cpcShareName$[ebp]
	push	ecx
	mov	edx, DWORD PTR _lBytes$[ebp]
	push	edx
	push	0
	push	4
	push	0
	push	-1
	call	DWORD PTR __imp__CreateFileMappingA@24
	mov	ecx, DWORD PTR _phHandle$[ebp]
	mov	DWORD PTR [ecx], eax

; 4273 :                                      0, lBytes, cpcShareName );
; 4274 :       if ( *phHandle == 0 )

	mov	edx, DWORD PTR _phHandle$[ebp]
	cmp	DWORD PTR [edx], 0
	jne	SHORT $LN12@fnMapFile

; 4275 :          return( 0 );

	xor	eax, eax
	jmp	$LN1@fnMapFile
$LN12@fnMapFile:

; 4276 :    }

	jmp	SHORT $LN6@fnMapFile
$LN5@fnMapFile:

; 4277 :    else
; 4278 :    {
; 4279 :       if ( g_ZeidonPageTable[ *plPageTableIndex ] )

	mov	eax, DWORD PTR _plPageTableIndex$[ebp]
	mov	ecx, DWORD PTR [eax]
	cmp	DWORD PTR _g_ZeidonPageTable[ecx*4], 0
	je	SHORT $LN6@fnMapFile

; 4280 :       {
; 4281 :          TraceLine( "fnMapFile Page Table conflict at Index: %x   0x%08x   Process: %d",

	push	0
	call	_SysGetProcessID@4
	push	eax
	mov	edx, DWORD PTR _plPageTableIndex$[ebp]
	mov	eax, DWORD PTR [edx]
	mov	ecx, DWORD PTR _g_ZeidonPageTable[eax*4]
	push	ecx
	mov	edx, DWORD PTR _plPageTableIndex$[ebp]
	mov	eax, DWORD PTR [edx]
	push	eax
	push	OFFSET $SG99069
	call	_TraceLine
	add	esp, 16					; 00000010H

; 4282 :                     *plPageTableIndex, g_ZeidonPageTable[ *plPageTableIndex ], SysGetProcessID( 0 ) );
; 4283 :       // SysMessageBox( 0, szlOE_SystemError, "Page Table conflict!", -1 );
; 4284 :          return( 0 );

	xor	eax, eax
	jmp	$LN1@fnMapFile
$LN6@fnMapFile:

; 4285 :       }
; 4286 :    }
; 4287 : 
; 4288 : #ifdef SHARED_MEM_TRACE
; 4289 :    fnTraceSharedMemory( "fnMapFile" );
; 4290 : #endif
; 4291 :    pv = MapViewOfFile( *phHandle, FILE_MAP_WRITE, 0, 0, 0 );

	push	0
	push	0
	push	0
	push	2
	mov	ecx, DWORD PTR _phHandle$[ebp]
	mov	edx, DWORD PTR [ecx]
	push	edx
	call	DWORD PTR __imp__MapViewOfFile@20
	mov	DWORD PTR _pv$[ebp], eax

; 4292 : 
; 4293 :    g_ZeidonPageTable[ *plPageTableIndex ] = pv;

	mov	eax, DWORD PTR _plPageTableIndex$[ebp]
	mov	ecx, DWORD PTR [eax]
	mov	edx, DWORD PTR _pv$[ebp]
	mov	DWORD PTR _g_ZeidonPageTable[ecx*4], edx

; 4294 :    g_FileMappingHandles[ *plPageTableIndex ] = (zLONG) *phHandle;

	mov	eax, DWORD PTR _plPageTableIndex$[ebp]
	mov	ecx, DWORD PTR [eax]
	mov	edx, DWORD PTR _phHandle$[ebp]
	mov	eax, DWORD PTR [edx]
	mov	DWORD PTR _g_FileMappingHandles[ecx*4], eax

; 4295 : 
; 4296 : #ifdef SHARED_MEM_TRACE
; 4297 :    TraceLine( "fnMapFile Page Table mapped at Index: %x   0x%08x   Process: %d",
; 4298 :               *plPageTableIndex, g_ZeidonPageTable[ *plPageTableIndex ], SysGetProcessID( 0 ) );
; 4299 : #endif
; 4300 : 
; 4301 :    // Create a handle.
; 4302 :    if ( g_bWin95 )

	movzx	ecx, BYTE PTR _g_bWin95
	test	ecx, ecx
	je	SHORT $LN14@fnMapFile

; 4303 :    {
; 4304 :       // Store the index of the shared memory in the first couple of bytes of
; 4305 :       // the shared memory.
; 4306 :       *((zPLONG) pv)++ = *plPageTableIndex;

	mov	edx, DWORD PTR _pv$[ebp]
	mov	eax, DWORD PTR _plPageTableIndex$[ebp]
	mov	ecx, DWORD PTR [eax]
	mov	DWORD PTR [edx], ecx
	mov	edx, DWORD PTR _pv$[ebp]
	add	edx, 4
	mov	DWORD PTR _pv$[ebp], edx

; 4307 :       *phHandle = (HANDLE) pv;

	mov	eax, DWORD PTR _phHandle$[ebp]
	mov	ecx, DWORD PTR _pv$[ebp]
	mov	DWORD PTR [eax], ecx

; 4308 :    }

	jmp	SHORT $LN15@fnMapFile
$LN14@fnMapFile:

; 4309 :    else
; 4310 :    {
; 4311 :       if ( g_bWin95 )

	movzx	edx, BYTE PTR _g_bWin95
	test	edx, edx
	je	SHORT $LN16@fnMapFile

; 4312 :          *phHandle = (HANDLE) g_ZeidonPageTable[ *plPageTableIndex ];

	mov	eax, DWORD PTR _plPageTableIndex$[ebp]
	mov	ecx, DWORD PTR [eax]
	mov	edx, DWORD PTR _phHandle$[ebp]
	mov	eax, DWORD PTR _g_ZeidonPageTable[ecx*4]
	mov	DWORD PTR [edx], eax
	jmp	SHORT $LN15@fnMapFile
$LN16@fnMapFile:

; 4313 :       else
; 4314 :          *phHandle = (HANDLE) ((zULONG) *plPageTableIndex << 24);

	mov	ecx, DWORD PTR _plPageTableIndex$[ebp]
	mov	edx, DWORD PTR [ecx]
	shl	edx, 24					; 00000018H
	mov	eax, DWORD PTR _phHandle$[ebp]
	mov	DWORD PTR [eax], edx
$LN15@fnMapFile:

; 4315 :    }
; 4316 : 
; 4317 :    return( pv );

	mov	eax, DWORD PTR _pv$[ebp]
$LN1@fnMapFile:

; 4318 : }

	mov	esp, ebp
	pop	ebp
	ret	16					; 00000010H
_fnMapFile@16 ENDP
_TEXT	ENDS
; Function compile flags: /Odtp
; File c:\10c\w\oe\kzoesyaa.c
_TEXT	SEGMENT
_lProcessID$ = -20					; size = 4
_hMutex$ = -16						; size = 4
_hSysMutex$ = -12					; size = 4
_lpSysMutex$ = -8					; size = 4
_lpMutex$ = -4						; size = 4
_lpTask$ = 8						; size = 4
_cpcMutexName$ = 12					; size = 4
_lControl$ = 16						; size = 4
_bSkipSettingMutex$ = 20				; size = 1
_fnMutexCreate@16 PROC

; 8804 : {

	push	ebp
	mov	ebp, esp
	sub	esp, 20					; 00000014H

; 8805 :    LPMUTEX lpMutex;
; 8806 :    LPMUTEX hMutex;
; 8807 :    LPMUTEX lpSysMutex;
; 8808 :    LPMUTEX hSysMutex;
; 8809 :    zLONG   lProcessID;
; 8810 : 
; 8811 :    if ( zstrlen( cpcMutexName ) > zZEIDON_NAME_LTH * 2 )

	mov	eax, DWORD PTR _cpcMutexName$[ebp]
	push	eax
	call	_strlen
	add	esp, 4
	cmp	eax, 64					; 00000040H
	jbe	SHORT $LN2@fnMutexCre

; 8812 :    {
; 8813 :       // "KZOEE032 - Invalid mutex name"
; 8814 :    // fnIssueCoreError( lpTask, lpView, 16, 32, 0, 0, 0 );
; 8815 :       TraceLineS( "fnMutexCreate Invalid mutex name: ", cpcMutexName );

	mov	ecx, DWORD PTR _cpcMutexName$[ebp]
	push	ecx
	push	OFFSET $SG100596
	call	_TraceLineS@8

; 8816 :       return( 0 );

	xor	eax, eax
	jmp	$LN1@fnMutexCre
$LN2@fnMutexCre:

; 8817 :    }
; 8818 : 
; 8819 :    // Look for the mutex. If it is found just return it.
; 8820 :    lpMutex = fnMutexFind( lpTask, cpcMutexName );

	mov	edx, DWORD PTR _cpcMutexName$[ebp]
	push	edx
	mov	eax, DWORD PTR _lpTask$[ebp]
	push	eax
	call	_fnMutexFind@8
	mov	DWORD PTR _lpMutex$[ebp], eax

; 8821 :    if ( lpMutex )

	cmp	DWORD PTR _lpMutex$[ebp], 0
	je	SHORT $LN3@fnMutexCre

; 8822 :       return( lpMutex );

	mov	eax, DWORD PTR _lpMutex$[ebp]
	jmp	$LN1@fnMutexCre
$LN3@fnMutexCre:

; 8823 : 
; 8824 :    lProcessID = SysGetProcessID( 0 );

	push	0
	call	_SysGetProcessID@4
	mov	DWORD PTR _lProcessID$[ebp], eax

; 8825 : 
; 8826 :    // If the mutex wasn't found in the task list then try looking for it
; 8827 :    // in the system list.  We put a mutex around it so we only create the
; 8828 :    // system mutex once.
; 8829 :    if ( bSkipSettingMutex == FALSE )

	movzx	ecx, BYTE PTR _bSkipSettingMutex$[ebp]
	test	ecx, ecx
	jne	SHORT $LN4@fnMutexCre

; 8830 :       zLOCK_MUTEX( zMUTEX_MUTEX );

	push	7
	call	_fnSysLockCoreMutex@4
$LN4@fnMutexCre:

; 8831 : 
; 8832 :    lpSysMutex = fnMutexFind( (LPTASK) -1, cpcMutexName );

	mov	edx, DWORD PTR _cpcMutexName$[ebp]
	push	edx
	push	-1
	call	_fnMutexFind@8
	mov	DWORD PTR _lpSysMutex$[ebp], eax

; 8833 :    if ( lpSysMutex == 0 )

	cmp	DWORD PTR _lpSysMutex$[ebp], 0
	jne	SHORT $LN5@fnMutexCre

; 8834 :    {
; 8835 :       // We need to create the system mutex.
; 8836 :       hSysMutex = fnAllocDataspace( (LPDATAHEADER) g_hAnchorBlock,

	push	10045					; 0000273dH
	push	0
	push	1
	push	602					; 0000025aH
	mov	eax, DWORD PTR _g_hAnchorBlock
	push	eax
	call	_fnAllocDataspace
	add	esp, 20					; 00000014H
	mov	DWORD PTR _hSysMutex$[ebp], eax

; 8837 :                                     sizeof( MutexRecord ), 1, 0, iMutex );
; 8838 :       lpSysMutex = zGETPTR( hSysMutex );

	mov	ecx, DWORD PTR _hSysMutex$[ebp]
	push	ecx
	call	DWORD PTR _g_pfnGetPtr
	mov	DWORD PTR _lpSysMutex$[ebp], eax

; 8839 :       zstrcpy( lpSysMutex->szName, cpcMutexName );

	mov	edx, DWORD PTR _cpcMutexName$[ebp]
	push	edx
	mov	eax, DWORD PTR _lpSysMutex$[ebp]
	add	eax, 6
	push	eax
	call	_strcpy
	add	esp, 8

; 8840 :       lpSysMutex->lNameHash = fnHashName( cpcMutexName );

	mov	ecx, DWORD PTR _cpcMutexName$[ebp]
	push	ecx
	call	_fnHashName@4
	mov	edx, DWORD PTR _lpSysMutex$[ebp]
	mov	DWORD PTR [edx+71], eax

; 8841 :    // lpSysMutex->lProcessID = lProcessID; we don't care what process created the system mutex
; 8842 :       lpSysMutex->lProcessID = 0;

	mov	eax, DWORD PTR _lpSysMutex$[ebp]
	mov	DWORD PTR [eax+89], 0

; 8843 : 
; 8844 :       // Right now, I don't know why we want to create the OS mutex for
; 8845 :       // a "system" mutex ... so let's disable it.  // dks  2006.02.24
; 8846 :    // if ( fnMutexCreateOS( 0, lpSysMutex, lControl ) != 0 )
; 8847 :    // {
; 8848 :    //    if ( bSkipSettingMutex == FALSE )
; 8849 :    //       zUNLOCK_MUTEX( zMUTEX_MUTEX );
; 8850 :    //
; 8851 :    //    fnFreeDataspace( hSysMutex );
; 8852 :    //    return( 0 );
; 8853 :    // }
; 8854 : 
; 8855 :       lpSysMutex->hNextMutex = AnchorBlock->hFirstSysMutex;

	mov	ecx, DWORD PTR _lpSysMutex$[ebp]
	mov	edx, DWORD PTR _AnchorBlock
	mov	eax, DWORD PTR [edx+2519]
	mov	DWORD PTR [ecx+2], eax

; 8856 :       AnchorBlock->hFirstSysMutex = hSysMutex;

	mov	ecx, DWORD PTR _AnchorBlock
	mov	edx, DWORD PTR _hSysMutex$[ebp]
	mov	DWORD PTR [ecx+2519], edx

; 8857 :    }

	jmp	SHORT $LN6@fnMutexCre
$LN5@fnMutexCre:

; 8858 :    else
; 8859 :       hSysMutex = zGETHNDL( lpSysMutex );

	mov	eax, DWORD PTR _lpSysMutex$[ebp]
	push	eax
	call	DWORD PTR _g_pfnGetHndl
	mov	DWORD PTR _hSysMutex$[ebp], eax
$LN6@fnMutexCre:

; 8860 : 
; 8861 :    // lpMutex must be null, or else we'd be out of here.
; 8862 :    // Create the task mutex.
; 8863 :    hMutex = fnAllocDataspace( lpTask->hFirstDataHeader,

	push	10045					; 0000273dH
	push	0
	push	1
	push	602					; 0000025aH
	mov	ecx, DWORD PTR _lpTask$[ebp]
	mov	edx, DWORD PTR [ecx+94]
	push	edx
	call	_fnAllocDataspace
	add	esp, 20					; 00000014H
	mov	DWORD PTR _hMutex$[ebp], eax

; 8864 :                               sizeof( MutexRecord ), 1, 0, iMutex );
; 8865 :    lpMutex = zGETPTR( hMutex );

	mov	eax, DWORD PTR _hMutex$[ebp]
	push	eax
	call	DWORD PTR _g_pfnGetPtr
	mov	DWORD PTR _lpMutex$[ebp], eax

; 8866 :    zstrcpy( lpMutex->szName, cpcMutexName );

	mov	ecx, DWORD PTR _cpcMutexName$[ebp]
	push	ecx
	mov	edx, DWORD PTR _lpMutex$[ebp]
	add	edx, 6
	push	edx
	call	_strcpy
	add	esp, 8

; 8867 :    lpMutex->hSysMutex = hSysMutex;

	mov	eax, DWORD PTR _lpMutex$[ebp]
	mov	ecx, DWORD PTR _hSysMutex$[ebp]
	mov	DWORD PTR [eax+77], ecx

; 8868 :    lpMutex->lNameHash = lpSysMutex->lNameHash;

	mov	edx, DWORD PTR _lpMutex$[ebp]
	mov	eax, DWORD PTR _lpSysMutex$[ebp]
	mov	ecx, DWORD PTR [eax+71]
	mov	DWORD PTR [edx+71], ecx

; 8869 :    lpMutex->lProcessID = lProcessID;

	mov	edx, DWORD PTR _lpMutex$[ebp]
	mov	eax, DWORD PTR _lProcessID$[ebp]
	mov	DWORD PTR [edx+89], eax

; 8870 : 
; 8871 :    if ( fnMutexCreateOS( lpTask, lpMutex, lControl ) != 0 )

	mov	ecx, DWORD PTR _lControl$[ebp]
	push	ecx
	mov	edx, DWORD PTR _lpMutex$[ebp]
	push	edx
	mov	eax, DWORD PTR _lpTask$[ebp]
	push	eax
	call	_fnMutexCreateOS@12
	movsx	ecx, ax
	test	ecx, ecx
	je	SHORT $LN7@fnMutexCre

; 8872 :    {
; 8873 :       if ( bSkipSettingMutex == FALSE )

	movzx	edx, BYTE PTR _bSkipSettingMutex$[ebp]
	test	edx, edx
	jne	SHORT $LN8@fnMutexCre

; 8874 :          zUNLOCK_MUTEX( zMUTEX_MUTEX );

	push	7
	call	_fnSysUnlockCoreMutex@4
$LN8@fnMutexCre:

; 8875 : 
; 8876 :       fnFreeDataspace( hMutex );

	mov	eax, DWORD PTR _hMutex$[ebp]
	push	eax
	call	_fnFreeDataspace
	add	esp, 4

; 8877 :       return( 0 );

	xor	eax, eax
	jmp	SHORT $LN1@fnMutexCre
$LN7@fnMutexCre:

; 8878 :    }
; 8879 : 
; 8880 :    lpMutex->hNextMutex = lpTask->hFirstMutex;

	mov	ecx, DWORD PTR _lpMutex$[ebp]
	mov	edx, DWORD PTR _lpTask$[ebp]
	mov	eax, DWORD PTR [edx+150]
	mov	DWORD PTR [ecx+2], eax

; 8881 :    lpTask->hFirstMutex = hMutex;

	mov	ecx, DWORD PTR _lpTask$[ebp]
	mov	edx, DWORD PTR _hMutex$[ebp]
	mov	DWORD PTR [ecx+150], edx

; 8882 : 
; 8883 :    if ( bSkipSettingMutex == FALSE )

	movzx	eax, BYTE PTR _bSkipSettingMutex$[ebp]
	test	eax, eax
	jne	SHORT $LN9@fnMutexCre

; 8884 :       zUNLOCK_MUTEX( zMUTEX_MUTEX );

	push	7
	call	_fnSysUnlockCoreMutex@4
$LN9@fnMutexCre:

; 8885 : 
; 8886 : #ifdef TRACE_MUTEX
; 8887 : // if ( zstrcmp( lpMutex->szName, "ZDrSS" ) != 0 )
; 8888 :    TraceLine( "fnMutexCreate  (Created:) Task: 0x%08x   Mutex: 0x%08x  Handle: %d  %s  Process: 0x%08x  SysMutex: 0x%08x",
; 8889 :               zGETHNDL( lpTask ), lpMutex, lpMutex->Info.hMutexOS,
; 8890 :               lpMutex->szName, SysGetProcessID( 0 ), lpMutex->hSysMutex );
; 8891 : #endif
; 8892 : 
; 8893 :    return( lpMutex );

	mov	eax, DWORD PTR _lpMutex$[ebp]
$LN1@fnMutexCre:

; 8894 : }

	mov	esp, ebp
	pop	ebp
	ret	16					; 00000010H
_fnMutexCreate@16 ENDP
_TEXT	ENDS
; Function compile flags: /Odtp
; File c:\10c\w\oe\kzoesyaa.c
_TEXT	SEGMENT
_lHash$ = -20						; size = 4
tv136 = -16						; size = 4
tv135 = -12						; size = 4
_lProcessID$ = -8					; size = 4
_lpMutex$ = -4						; size = 4
_lpTask$ = 8						; size = 4
_cpcMutexName$ = 12					; size = 4
_fnMutexFind@8 PROC

; 8729 : {

	push	ebp
	mov	ebp, esp
	sub	esp, 20					; 00000014H

; 8730 :    zLONG   lHash = fnHashName( cpcMutexName );

	mov	eax, DWORD PTR _cpcMutexName$[ebp]
	push	eax
	call	_fnHashName@4
	mov	DWORD PTR _lHash$[ebp], eax

; 8731 :    LPMUTEX lpMutex;
; 8732 :    zLONG   lProcessID;
; 8733 : 
; 8734 :    if ( lpTask == 0 )

	cmp	DWORD PTR _lpTask$[ebp], 0
	jne	SHORT $LN5@fnMutexFin

; 8735 :    {
; 8736 :       SysMessageBox( 0, "MutexFind", "Null task", -1 );

	push	-1
	push	OFFSET $SG100566
	push	OFFSET $SG100567
	push	0
	call	_SysMessageBox@16

; 8737 :       return( 0 );

	xor	eax, eax
	jmp	$LN1@fnMutexFin
$LN5@fnMutexFin:

; 8738 :    }
; 8739 : 
; 8740 :    if ( lpTask == (LPTASK) -1 )  // processing system mutex list

	cmp	DWORD PTR _lpTask$[ebp], -1
	jne	SHORT $LN6@fnMutexFin

; 8741 :    {
; 8742 :       zLOCK_MUTEX( zMUTEX_MUTEX );

	push	7
	call	_fnSysLockCoreMutex@4

; 8743 :       lpMutex = zGETPTR( AnchorBlock->hFirstSysMutex );

	mov	ecx, DWORD PTR _AnchorBlock
	mov	edx, DWORD PTR [ecx+2519]
	push	edx
	call	DWORD PTR _g_pfnGetPtr
	mov	DWORD PTR _lpMutex$[ebp], eax

; 8744 :       lProcessID = 0;  // system mutexes are "process ignorant"

	mov	DWORD PTR _lProcessID$[ebp], 0

; 8745 :    }

	jmp	SHORT $LN7@fnMutexFin
$LN6@fnMutexFin:

; 8746 :    else
; 8747 :    {
; 8748 :       lpMutex = zGETPTR( lpTask->hFirstMutex );

	mov	eax, DWORD PTR _lpTask$[ebp]
	mov	ecx, DWORD PTR [eax+150]
	push	ecx
	call	DWORD PTR _g_pfnGetPtr
	mov	DWORD PTR _lpMutex$[ebp], eax

; 8749 :       lProcessID = SysGetProcessID( 0 );

	push	0
	call	_SysGetProcessID@4
	mov	DWORD PTR _lProcessID$[ebp], eax
$LN7@fnMutexFin:

; 8750 :    }
; 8751 : 
; 8752 :    // Try finding the mutex.
; 8753 :    for ( ;

	jmp	SHORT $LN4@fnMutexFin
$LN2@fnMutexFin:

; 8755 :          lpMutex = zGETPTR( lpMutex->hNextMutex ) )

	mov	edx, DWORD PTR _lpMutex$[ebp]
	mov	eax, DWORD PTR [edx+2]
	push	eax
	call	DWORD PTR _g_pfnGetPtr
	mov	DWORD PTR _lpMutex$[ebp], eax
$LN4@fnMutexFin:

; 8754 :          lpMutex;

	cmp	DWORD PTR _lpMutex$[ebp], 0
	je	$LN3@fnMutexFin

; 8756 :    {
; 8757 :       if ( lpMutex->lNameHash != lHash )

	mov	ecx, DWORD PTR _lpMutex$[ebp]
	mov	edx, DWORD PTR [ecx+71]
	cmp	edx, DWORD PTR _lHash$[ebp]
	je	SHORT $LN8@fnMutexFin

; 8758 :          continue;

	jmp	SHORT $LN2@fnMutexFin
$LN8@fnMutexFin:

; 8759 : 
; 8760 :       // Don't qualify on ProcessID if it is a system mutex.
; 8761 : #if 0
; 8762 :       if ( lProcessID == 0 )  // processing system mutex list
; 8763 :       {
; 8764 :          // We don't care about process ID match.
; 8765 :       }
; 8766 :       else
; 8767 :       {
; 8768 :          // We do care about process ID match.
; 8769 :          if ( lpMutex->lProcessID != lProcessID )
; 8770 :             continue;
; 8771 :       }
; 8772 : #else
; 8773 :       if ( lProcessID && lpMutex->lProcessID != lProcessID )

	cmp	DWORD PTR _lProcessID$[ebp], 0
	je	SHORT $LN9@fnMutexFin
	mov	eax, DWORD PTR _lpMutex$[ebp]
	mov	ecx, DWORD PTR [eax+89]
	cmp	ecx, DWORD PTR _lProcessID$[ebp]
	je	SHORT $LN9@fnMutexFin

; 8774 :          continue;

	jmp	SHORT $LN2@fnMutexFin
$LN9@fnMutexFin:

; 8775 : #endif
; 8776 : 
; 8777 :       if ( zstrcmp( lpMutex->szName, cpcMutexName ) != 0 )

	mov	edx, DWORD PTR _lpMutex$[ebp]
	movsx	eax, BYTE PTR [edx+6]
	mov	ecx, DWORD PTR _cpcMutexName$[ebp]
	movsx	edx, BYTE PTR [ecx]
	cmp	eax, edx
	jne	SHORT $LN15@fnMutexFin
	mov	eax, DWORD PTR _cpcMutexName$[ebp]
	push	eax
	mov	ecx, DWORD PTR _lpMutex$[ebp]
	add	ecx, 6
	push	ecx
	call	_strcmp
	add	esp, 8
	mov	DWORD PTR tv136[ebp], eax
	jmp	SHORT $LN16@fnMutexFin
$LN15@fnMutexFin:
	mov	edx, DWORD PTR _lpMutex$[ebp]
	movsx	eax, BYTE PTR [edx+6]
	mov	ecx, DWORD PTR _cpcMutexName$[ebp]
	movsx	edx, BYTE PTR [ecx]
	sub	eax, edx
	test	eax, eax
	jle	SHORT $LN13@fnMutexFin
	mov	DWORD PTR tv135[ebp], 1
	jmp	SHORT $LN14@fnMutexFin
$LN13@fnMutexFin:
	mov	DWORD PTR tv135[ebp], -1
$LN14@fnMutexFin:
	mov	eax, DWORD PTR tv135[ebp]
	mov	DWORD PTR tv136[ebp], eax
$LN16@fnMutexFin:
	cmp	DWORD PTR tv136[ebp], 0
	je	SHORT $LN10@fnMutexFin

; 8778 :          continue;

	jmp	$LN2@fnMutexFin
$LN10@fnMutexFin:

; 8779 : 
; 8780 :       // If we get here we found the right mutex.
; 8781 :       break;

	jmp	SHORT $LN3@fnMutexFin

; 8782 :    }

	jmp	$LN2@fnMutexFin
$LN3@fnMutexFin:

; 8783 : 
; 8784 :    if ( lpTask == (LPTASK) -1 )

	cmp	DWORD PTR _lpTask$[ebp], -1
	jne	SHORT $LN11@fnMutexFin

; 8785 :       zUNLOCK_MUTEX( zMUTEX_MUTEX );

	push	7
	call	_fnSysUnlockCoreMutex@4
$LN11@fnMutexFin:

; 8786 : 
; 8787 :    return( lpMutex );

	mov	eax, DWORD PTR _lpMutex$[ebp]
$LN1@fnMutexFin:

; 8788 : }

	mov	esp, ebp
	pop	ebp
	ret	8
_fnMutexFind@8 ENDP
_TEXT	ENDS
; Function compile flags: /Odtp
; File c:\program files (x86)\windows kits\10\include\10.0.10150.0\ucrt\stdio.h
;	COMDAT _sprintf
_TEXT	SEGMENT
__Result$ = -8						; size = 4
__ArgList$ = -4						; size = 4
__Buffer$ = 8						; size = 4
__Format$ = 12						; size = 4
_sprintf PROC						; COMDAT

; 1776 : {

	push	ebp
	mov	ebp, esp
	sub	esp, 8

; 1777 :     int _Result;
; 1778 :     va_list _ArgList;
; 1779 :     __crt_va_start(_ArgList, _Format);

	lea	eax, DWORD PTR __Format$[ebp+4]
	mov	DWORD PTR __ArgList$[ebp], eax

; 1780 : 
; 1781 :     #pragma warning(push)
; 1782 :     #pragma warning(disable: 4996) // Deprecation
; 1783 :     _Result = _vsprintf_l(_Buffer, _Format, NULL, _ArgList);

	mov	ecx, DWORD PTR __ArgList$[ebp]
	push	ecx
	push	0
	mov	edx, DWORD PTR __Format$[ebp]
	push	edx
	mov	eax, DWORD PTR __Buffer$[ebp]
	push	eax
	call	__vsprintf_l
	add	esp, 16					; 00000010H
	mov	DWORD PTR __Result$[ebp], eax

; 1784 :     #pragma warning(pop)
; 1785 : 
; 1786 :     __crt_va_end(_ArgList);

	mov	DWORD PTR __ArgList$[ebp], 0

; 1787 :     return _Result;

	mov	eax, DWORD PTR __Result$[ebp]

; 1788 : }

	mov	esp, ebp
	pop	ebp
	ret	0
_sprintf ENDP
_TEXT	ENDS
; Function compile flags: /Odtp
; File c:\program files (x86)\windows kits\10\include\10.0.10150.0\ucrt\stdio.h
;	COMDAT __vsprintf_l
_TEXT	SEGMENT
__Buffer$ = 8						; size = 4
__Format$ = 12						; size = 4
__Locale$ = 16						; size = 4
__ArgList$ = 20						; size = 4
__vsprintf_l PROC					; COMDAT

; 1455 : {

	push	ebp
	mov	ebp, esp

; 1456 :     #pragma warning(push)
; 1457 :     #pragma warning(disable: 4996) // Deprecation
; 1458 :     return _vsnprintf_l(_Buffer, (size_t)-1, _Format, _Locale, _ArgList);

	mov	eax, DWORD PTR __ArgList$[ebp]
	push	eax
	mov	ecx, DWORD PTR __Locale$[ebp]
	push	ecx
	mov	edx, DWORD PTR __Format$[ebp]
	push	edx
	push	-1
	mov	eax, DWORD PTR __Buffer$[ebp]
	push	eax
	call	__vsnprintf_l
	add	esp, 20					; 00000014H

; 1459 :     #pragma warning(pop)
; 1460 : }

	pop	ebp
	ret	0
__vsprintf_l ENDP
_TEXT	ENDS
; Function compile flags: /Odtp
; File c:\program files (x86)\windows kits\10\include\10.0.10150.0\ucrt\stdio.h
;	COMDAT __vsnprintf_l
_TEXT	SEGMENT
tv74 = -8						; size = 4
__Result$ = -4						; size = 4
__Buffer$ = 8						; size = 4
__BufferCount$ = 12					; size = 4
__Format$ = 16						; size = 4
__Locale$ = 20						; size = 4
__ArgList$ = 24						; size = 4
__vsnprintf_l PROC					; COMDAT

; 1385 : {

	push	ebp
	mov	ebp, esp
	sub	esp, 8

; 1386 :     int const _Result = __stdio_common_vsprintf(

	mov	eax, DWORD PTR __ArgList$[ebp]
	push	eax
	mov	ecx, DWORD PTR __Locale$[ebp]
	push	ecx
	mov	edx, DWORD PTR __Format$[ebp]
	push	edx
	mov	eax, DWORD PTR __BufferCount$[ebp]
	push	eax
	mov	ecx, DWORD PTR __Buffer$[ebp]
	push	ecx
	call	___local_stdio_printf_options
	mov	edx, DWORD PTR [eax]
	or	edx, 1
	mov	eax, DWORD PTR [eax+4]
	push	eax
	push	edx
	call	DWORD PTR __imp____stdio_common_vsprintf
	add	esp, 28					; 0000001cH
	mov	DWORD PTR __Result$[ebp], eax

; 1387 :         _CRT_INTERNAL_LOCAL_PRINTF_OPTIONS | _CRT_INTERNAL_PRINTF_LEGACY_VSPRINTF_NULL_TERMINATION,
; 1388 :         _Buffer, _BufferCount, _Format, _Locale, _ArgList);
; 1389 : 
; 1390 :     return _Result < 0 ? -1 : _Result;

	cmp	DWORD PTR __Result$[ebp], 0
	jge	SHORT $LN3@vsnprintf_
	mov	DWORD PTR tv74[ebp], -1
	jmp	SHORT $LN4@vsnprintf_
$LN3@vsnprintf_:
	mov	ecx, DWORD PTR __Result$[ebp]
	mov	DWORD PTR tv74[ebp], ecx
$LN4@vsnprintf_:
	mov	eax, DWORD PTR tv74[ebp]

; 1391 : }

	mov	esp, ebp
	pop	ebp
	ret	0
__vsnprintf_l ENDP
_TEXT	ENDS
; Function compile flags: /Odtp
; File c:\program files (x86)\windows kits\10\include\10.0.10150.0\ucrt\corecrt_stdio_config.h
;	COMDAT ___local_stdio_printf_options
_TEXT	SEGMENT
___local_stdio_printf_options PROC			; COMDAT

; 73   : {

	push	ebp
	mov	ebp, esp

; 74   :     static unsigned __int64 _OptionsStorage;
; 75   :     return &_OptionsStorage;

	mov	eax, OFFSET ?_OptionsStorage@?1??__local_stdio_printf_options@@9@9 ; `__local_stdio_printf_options'::`2'::_OptionsStorage

; 76   : }

	pop	ebp
	ret	0
___local_stdio_printf_options ENDP
_TEXT	ENDS
; Function compile flags: /Odtp
; File c:\10c\w\oe\kzoesyaa.c
_TEXT	SEGMENT
tv94 = -12						; size = 4
tv93 = -8						; size = 4
_lpTask$ = -4						; size = 4
_cpcSessionId$ = 8					; size = 4
_FindWebSubtask@4 PROC

; 461  : {

	push	ebp
	mov	ebp, esp
	sub	esp, 12					; 0000000cH

; 462  :    LPTASK lpTask;
; 463  : 
; 464  :    if ( AnchorBlock == 0 )

	cmp	DWORD PTR _AnchorBlock, 0
	jne	SHORT $LN4@FindWebSub

; 465  :       return( 0 );

	xor	eax, eax
	jmp	$LN1@FindWebSub
$LN4@FindWebSub:

; 466  : 
; 467  :    // Make sure nobody else is creating/deleting a task.
; 468  :    fnStartBrowseOfTaskList( AnchorBlock->hFirstTask, FALSE );

	push	0
	mov	eax, DWORD PTR _AnchorBlock
	mov	ecx, DWORD PTR [eax+130]
	push	ecx
	call	_fnStartBrowseOfTaskList@8

; 469  : 
; 470  :    lpTask = zGETPTR( AnchorBlock->hFirstTask );

	mov	edx, DWORD PTR _AnchorBlock
	mov	eax, DWORD PTR [edx+130]
	push	eax
	call	DWORD PTR _g_pfnGetPtr
	mov	DWORD PTR _lpTask$[ebp], eax
$LN2@FindWebSub:

; 471  :    while ( lpTask )

	cmp	DWORD PTR _lpTask$[ebp], 0
	je	$LN3@FindWebSub

; 472  :    {
; 473  :       if ( lpTask->bTransientTask && lpTask->bShutdown == FALSE &&

	mov	ecx, DWORD PTR _lpTask$[ebp]
	mov	edx, DWORD PTR [ecx+443]
	shr	edx, 10					; 0000000aH
	and	edx, 1
	je	SHORT $LN5@FindWebSub
	mov	eax, DWORD PTR _lpTask$[ebp]
	mov	ecx, DWORD PTR [eax+443]
	shr	ecx, 5
	and	ecx, 1
	jne	SHORT $LN5@FindWebSub
	mov	edx, DWORD PTR _lpTask$[ebp]
	movsx	eax, BYTE PTR [edx+194]
	mov	ecx, DWORD PTR _cpcSessionId$[ebp]
	movsx	edx, BYTE PTR [ecx]
	cmp	eax, edx
	jne	SHORT $LN11@FindWebSub
	mov	eax, DWORD PTR _cpcSessionId$[ebp]
	push	eax
	mov	ecx, DWORD PTR _lpTask$[ebp]
	add	ecx, 194				; 000000c2H
	push	ecx
	call	_strcmp
	add	esp, 8
	mov	DWORD PTR tv94[ebp], eax
	jmp	SHORT $LN12@FindWebSub
$LN11@FindWebSub:
	mov	edx, DWORD PTR _lpTask$[ebp]
	movsx	eax, BYTE PTR [edx+194]
	mov	ecx, DWORD PTR _cpcSessionId$[ebp]
	movsx	edx, BYTE PTR [ecx]
	sub	eax, edx
	test	eax, eax
	jle	SHORT $LN9@FindWebSub
	mov	DWORD PTR tv93[ebp], 1
	jmp	SHORT $LN10@FindWebSub
$LN9@FindWebSub:
	mov	DWORD PTR tv93[ebp], -1
$LN10@FindWebSub:
	mov	eax, DWORD PTR tv93[ebp]
	mov	DWORD PTR tv94[ebp], eax
$LN12@FindWebSub:
	cmp	DWORD PTR tv94[ebp], 0
	jne	SHORT $LN5@FindWebSub

; 474  :            zstrcmp( lpTask->szSessionId, cpcSessionId ) == 0 )
; 475  :       {
; 476  :          break;

	jmp	SHORT $LN3@FindWebSub
$LN5@FindWebSub:

; 477  :       }
; 478  : 
; 479  :       lpTask = zGETPTR( lpTask->hNextTask );

	mov	ecx, DWORD PTR _lpTask$[ebp]
	mov	edx, DWORD PTR [ecx+2]
	push	edx
	call	DWORD PTR _g_pfnGetPtr
	mov	DWORD PTR _lpTask$[ebp], eax

; 480  :    }

	jmp	$LN2@FindWebSub
$LN3@FindWebSub:

; 481  : 
; 482  :    fnEndBrowseOfTaskList( FALSE );

	push	0
	call	_fnEndBrowseOfTaskList@4

; 483  : 
; 484  :    if ( lpTask )

	cmp	DWORD PTR _lpTask$[ebp], 0
	je	SHORT $LN6@FindWebSub

; 485  :       return( lpTask->vWebSubtask );

	mov	eax, DWORD PTR _lpTask$[ebp]
	mov	eax, DWORD PTR [eax+28]
	jmp	SHORT $LN1@FindWebSub
	jmp	SHORT $LN1@FindWebSub
$LN6@FindWebSub:

; 486  :    else
; 487  :       return( 0 );

	xor	eax, eax
$LN1@FindWebSub:

; 488  : }

	mov	esp, ebp
	pop	ebp
	ret	4
_FindWebSubtask@4 ENDP
_TEXT	ENDS
; Function compile flags: /Odtp
; File c:\10c\w\oe\kzoesyaa.c
_TEXT	SEGMENT
_dw$1 = -108						; size = 4
_szMsg$2 = -104						; size = 100
__$ArrayPad$ = -4					; size = 4
_lpTask$ = 8						; size = 4
_lpMutex$ = 12						; size = 4
_lControl$ = 16						; size = 4
_fnMutexCreateOS@12 PROC

; 8898 : {

	push	ebp
	mov	ebp, esp
	sub	esp, 108				; 0000006cH
	mov	eax, DWORD PTR ___security_cookie
	xor	eax, ebp
	mov	DWORD PTR __$ArrayPad$[ebp], eax

; 8899 :    lpMutex->Info.bCriticalSection = FALSE;

	mov	eax, DWORD PTR _lpMutex$[ebp]
	mov	BYTE PTR [eax+93], 0

; 8900 : 
; 8901 :    lpMutex->Info.hMutexOS = (zLONG) CreateMutex( NULL, FALSE, lpMutex->szName );

	mov	ecx, DWORD PTR _lpMutex$[ebp]
	add	ecx, 6
	push	ecx
	push	0
	push	0
	call	DWORD PTR __imp__CreateMutexA@12
	mov	edx, DWORD PTR _lpMutex$[ebp]
	mov	DWORD PTR [edx+94], eax

; 8902 :    if ( lpMutex->Info.hMutexOS == 0 )

	mov	eax, DWORD PTR _lpMutex$[ebp]
	cmp	DWORD PTR [eax+94], 0
	jne	SHORT $LN2@fnMutexCre

; 8903 :    {
; 8904 :       zCHAR szMsg[ 100 ];
; 8905 :       DWORD dw = GetLastError( );

	call	DWORD PTR __imp__GetLastError@0
	mov	DWORD PTR _dw$1[ebp], eax

; 8906 :       zsprintf( szMsg, "Error creating mutex %s", lpMutex->szName );

	mov	ecx, DWORD PTR _lpMutex$[ebp]
	add	ecx, 6
	push	ecx
	push	OFFSET $SG100616
	lea	edx, DWORD PTR _szMsg$2[ebp]
	push	edx
	call	_sprintf
	add	esp, 12					; 0000000cH

; 8907 :       SysMessageBox( 0, szlOE_SystemError, szMsg, -1 );

	push	-1
	lea	eax, DWORD PTR _szMsg$2[ebp]
	push	eax
	mov	ecx, DWORD PTR _szlOE_SystemError
	push	ecx
	push	0
	call	_SysMessageBox@16

; 8908 :       return( zCALL_ERROR );

	mov	eax, -16				; fffffff0H
	jmp	SHORT $LN1@fnMutexCre
$LN2@fnMutexCre:

; 8909 :    }
; 8910 : 
; 8911 :    return( 0 );

	xor	eax, eax
$LN1@fnMutexCre:

; 8912 : }

	mov	ecx, DWORD PTR __$ArrayPad$[ebp]
	xor	ecx, ebp
	call	@__security_check_cookie@4
	mov	esp, ebp
	pop	ebp
	ret	12					; 0000000cH
_fnMutexCreateOS@12 ENDP
_TEXT	ENDS
; Function compile flags: /Odtp
; File c:\10c\w\oe\kzoesyaa.c
_TEXT	SEGMENT
_pOS_Record$1 = -120					; size = 4
_lProcessID$ = -116					; size = 4
_lpProcessList$2 = -112					; size = 4
_nProcessIdx$3 = -108					; size = 2
_szMsg$4 = -104						; size = 100
__$ArrayPad$ = -4					; size = 4
_lpTask$ = 8						; size = 4
_lpMutex$ = 12						; size = 4
_fnSysMutexDestroy@8 PROC

; 9141 : {

	push	ebp
	mov	ebp, esp
	sub	esp, 120				; 00000078H
	mov	eax, DWORD PTR ___security_cookie
	xor	eax, ebp
	mov	DWORD PTR __$ArrayPad$[ebp], eax

; 9142 :    zLONG lProcessID = SysGetProcessID( 0 );

	push	0
	call	_SysGetProcessID@4
	mov	DWORD PTR _lProcessID$[ebp], eax

; 9143 : #ifdef TRACE_MUTEX
; 9144 :    TraceLine( "fnSysMutexDestroy Task: 0x%08x  Handle: %d  %s  Mutex ProcessID %d   ProcessID %d",
; 9145 :               zGETHNDL( lpTask ), lpMutex ? lpMutex->Info.hMutexOS : 0, lpMutex ? lpMutex->szName : "",
; 9146 :               lpMutex->lProcessID, lProcessID );
; 9147 : #endif
; 9148 : 
; 9149 : // if ( lpTask == 0 || lpMutex == 0 || lpMutex->Info.hMutexOS == 0 )
; 9150 : //    return( 0 );
; 9151 : 
; 9152 : 
; 9153 :    // If lpTask is zero, we are destroying a system mutex ... which does
; 9154 :    // not have a valid mutex handle, so skip this part of the destroy.
; 9155 :    if ( lpTask && lpMutex->lProcessID != lProcessID )

	cmp	DWORD PTR _lpTask$[ebp], 0
	je	$LN5@fnSysMutex
	mov	eax, DWORD PTR _lpMutex$[ebp]
	mov	ecx, DWORD PTR [eax+89]
	cmp	ecx, DWORD PTR _lProcessID$[ebp]
	je	$LN5@fnSysMutex

; 9156 :    {
; 9157 :       // Send a message to the other process specified by
; 9158 :       // lpMutex->lProcessID to free the mutex.
; 9159 :       zSHORT nProcessIdx;
; 9160 :       LPANCHOROS_RECORD pOS_Record = &AnchorBlock->OS_Data;

	mov	edx, DWORD PTR _AnchorBlock
	add	edx, 1503				; 000005dfH
	mov	DWORD PTR _pOS_Record$1[ebp], edx

; 9161 :       LPPROCESSLIST lpProcessList;
; 9162 : 
; 9163 :       // Find the process that created the mutex.
; 9164 :       for ( nProcessIdx = AnchorBlock->OS_Data.lProcessCount - 1;

	mov	eax, DWORD PTR _AnchorBlock
	mov	ecx, DWORD PTR [eax+1507]
	sub	ecx, 1
	mov	WORD PTR _nProcessIdx$3[ebp], cx
	jmp	SHORT $LN4@fnSysMutex
$LN2@fnSysMutex:

; 9166 :             nProcessIdx-- )

	mov	dx, WORD PTR _nProcessIdx$3[ebp]
	sub	dx, 1
	mov	WORD PTR _nProcessIdx$3[ebp], dx
$LN4@fnSysMutex:

; 9165 :             pOS_Record->ProcessList[ nProcessIdx ].lProcessID != lProcessID;

	movsx	eax, WORD PTR _nProcessIdx$3[ebp]
	imul	ecx, eax, 20
	mov	edx, DWORD PTR _pOS_Record$1[ebp]
	mov	eax, DWORD PTR [edx+ecx+24]
	cmp	eax, DWORD PTR _lProcessID$[ebp]
	je	SHORT $LN3@fnSysMutex

; 9167 :       {
; 9168 :          // Nothing needs to be done here.
; 9169 :       }

	jmp	SHORT $LN2@fnSysMutex
$LN3@fnSysMutex:

; 9170 : 
; 9171 :       if ( nProcessIdx > 0 )

	movsx	ecx, WORD PTR _nProcessIdx$3[ebp]
	test	ecx, ecx
	jle	SHORT $LN6@fnSysMutex

; 9172 :       {
; 9173 :          lpProcessList = &pOS_Record->ProcessList[ nProcessIdx ];

	movsx	edx, WORD PTR _nProcessIdx$3[ebp]
	imul	eax, edx, 20
	mov	ecx, DWORD PTR _pOS_Record$1[ebp]
	lea	edx, DWORD PTR [ecx+eax+8]
	mov	DWORD PTR _lpProcessList$2[ebp], edx

; 9174 :          lpProcessList->nOE_Request  = TASKREQ_FREEMUTEX;

	mov	eax, 7
	mov	ecx, DWORD PTR _lpProcessList$2[ebp]
	mov	WORD PTR [ecx], ax

; 9175 :          lpProcessList->hMemHandle   = (zULONG) zGETHNDL( lpMutex );

	mov	edx, DWORD PTR _lpMutex$[ebp]
	push	edx
	call	DWORD PTR _g_pfnGetHndl
	mov	ecx, DWORD PTR _lpProcessList$2[ebp]
	mov	DWORD PTR [ecx+12], eax

; 9176 : 
; 9177 :          // Send the message.
; 9178 :          SendMessage( (HWND) lpProcessList->hWndAppOE_Msg,

	movsx	edx, WORD PTR _nProcessIdx$3[ebp]
	push	edx
	push	0
	mov	eax, DWORD PTR _lpProcessList$2[ebp]
	movzx	ecx, WORD PTR [eax+2]
	push	ecx
	mov	edx, DWORD PTR _lpProcessList$2[ebp]
	mov	eax, DWORD PTR [edx+4]
	push	eax
	call	DWORD PTR __imp__SendMessageA@16
$LN6@fnSysMutex:

; 9179 :                       lpProcessList->uAppOE_Msg, 0, nProcessIdx );
; 9180 :       }
; 9181 : 
; 9182 :       return( 0 );

	xor	eax, eax
	jmp	SHORT $LN1@fnSysMutex
$LN5@fnSysMutex:

; 9183 :    }
; 9184 : 
; 9185 :    if ( lpMutex->Info.hMutexOS )

	mov	ecx, DWORD PTR _lpMutex$[ebp]
	cmp	DWORD PTR [ecx+94], 0
	je	SHORT $LN7@fnSysMutex

; 9186 :    {
; 9187 :       // We don't need to do the following code since the "System Mutex" is
; 9188 :       // only used to track the lLockedTaskID.  The Info.hMutexOS should not
; 9189 :       // be set for the system mutexes.
; 9190 :    // if ( lpTask )
; 9191 :    // {
; 9192 :    //    LPMUTEX lpSysMutex = fnMutexFind( (LPTASK) -1, lpMutex->szName );
; 9193 :    //    if ( lpSysMutex && lpSysMutex->Info.hMutexOS == lpMutex->Info.hMutexOS )
; 9194 :    //       lpSysMutex->Info.hMutexOS = 0;
; 9195 :    // }
; 9196 : 
; 9197 :       if ( CloseHandle( (HANDLE) lpMutex->Info.hMutexOS ) == 0 )

	mov	edx, DWORD PTR _lpMutex$[ebp]
	mov	eax, DWORD PTR [edx+94]
	push	eax
	call	DWORD PTR __imp__CloseHandle@4
	test	eax, eax
	jne	SHORT $LN8@fnSysMutex

; 9198 :       {
; 9199 :          char szMsg[ 100 ];
; 9200 : 
; 9201 :          zsprintf( szMsg, "Error destroying mutex: %s", lpMutex->szName );

	mov	ecx, DWORD PTR _lpMutex$[ebp]
	add	ecx, 6
	push	ecx
	push	OFFSET $SG100727
	lea	edx, DWORD PTR _szMsg$4[ebp]
	push	edx
	call	_sprintf
	add	esp, 12					; 0000000cH

; 9202 :          TraceLineS( szMsg, "" );

	push	OFFSET $SG100728
	lea	eax, DWORD PTR _szMsg$4[ebp]
	push	eax
	call	_TraceLineS@8

; 9203 :          fnSysMessageBox( lpTask, szlOE_SystemError, szMsg, 1 );

	push	1
	lea	ecx, DWORD PTR _szMsg$4[ebp]
	push	ecx
	mov	edx, DWORD PTR _szlOE_SystemError
	push	edx
	mov	eax, DWORD PTR _lpTask$[ebp]
	push	eax
	call	_fnSysMessageBox@16

; 9204 :          return( zCALL_ERROR );

	mov	eax, -16				; fffffff0H
	jmp	SHORT $LN1@fnSysMutex
$LN8@fnSysMutex:

; 9205 :       }
; 9206 : 
; 9207 :       lpMutex->Info.hMutexOS = 0;

	mov	ecx, DWORD PTR _lpMutex$[ebp]
	mov	DWORD PTR [ecx+94], 0
$LN7@fnSysMutex:

; 9208 :    }
; 9209 : 
; 9210 :    return( 0 );

	xor	eax, eax
$LN1@fnSysMutex:

; 9211 : }

	mov	ecx, DWORD PTR __$ArrayPad$[ebp]
	xor	ecx, ebp
	call	@__security_check_cookie@4
	mov	esp, ebp
	pop	ebp
	ret	8
_fnSysMutexDestroy@8 ENDP
_TEXT	ENDS
; Function compile flags: /Odtp
; File c:\10c\w\oe\kzoesyaa.c
_TEXT	SEGMENT
tv71 = -8						; size = 4
_nRC$ = -4						; size = 2
_lpTask$ = 8						; size = 4
_lpMutex$ = 12						; size = 4
_ulTimeout$ = 16					; size = 4
_lControl$ = 20						; size = 4
_fnSysMutexLock@16 PROC

; 8950 : {

	push	ebp
	mov	ebp, esp
	sub	esp, 8

; 8951 :    zSHORT nRC = 0;

	xor	eax, eax
	mov	WORD PTR _nRC$[ebp], ax

; 8952 : 
; 8953 : #ifdef TRACE_MUTEX
; 8954 : // if ( zstrcmp( lpMutex->szName, "ZDrSS" ) != 0 )
; 8955 :    TraceLine( "fnSysMutexLock (WaitLock) Task: 0x%08x   Mutex: 0x%08x  Handle: %d  %s  Process: 0x%08x",
; 8956 :               zGETHNDL( lpTask ), lpMutex, lpMutex->Info.hMutexOS,
; 8957 :               lpMutex->szName, SysGetProcessID( 0 ) );
; 8958 : #endif
; 8959 :    if ( ulTimeout == 0 )

	cmp	DWORD PTR _ulTimeout$[ebp], 0
	jne	SHORT $LN4@fnSysMutex

; 8960 :       ulTimeout = INFINITE;

	mov	DWORD PTR _ulTimeout$[ebp], -1
$LN4@fnSysMutex:

; 8961 : 
; 8962 :    if ( WaitForSingleObject( (HANDLE) lpMutex->Info.hMutexOS,
; 8963 :                              ulTimeout ) == WAIT_FAILED )

	mov	ecx, DWORD PTR _ulTimeout$[ebp]
	push	ecx
	mov	edx, DWORD PTR _lpMutex$[ebp]
	mov	eax, DWORD PTR [edx+94]
	push	eax
	call	DWORD PTR __imp__WaitForSingleObject@8
	cmp	eax, -1
	jne	SHORT $LN5@fnSysMutex

; 8964 :    {
; 8965 :       switch ( GetLastError( ) )

	call	DWORD PTR __imp__GetLastError@0
	mov	DWORD PTR tv71[ebp], eax
	cmp	DWORD PTR tv71[ebp], 128		; 00000080H
	je	SHORT $LN6@fnSysMutex
	cmp	DWORD PTR tv71[ebp], 258		; 00000102H
	je	SHORT $LN7@fnSysMutex
	jmp	SHORT $LN8@fnSysMutex
$LN6@fnSysMutex:

; 8966 :       {
; 8967 :          case WAIT_ABANDONED:
; 8968 :             // This means that another thread terminated without unlocking
; 8969 :             // its mutex.  We'll consider this OK.
; 8970 :             nRC = 1;

	mov	ecx, 1
	mov	WORD PTR _nRC$[ebp], cx

; 8971 :             break;

	jmp	SHORT $LN5@fnSysMutex
$LN7@fnSysMutex:

; 8972 : 
; 8973 :          case WAIT_TIMEOUT:
; 8974 :             nRC = -1;

	or	edx, -1
	mov	WORD PTR _nRC$[ebp], dx

; 8975 :             break;

	jmp	SHORT $LN5@fnSysMutex
$LN8@fnSysMutex:

; 8976 : 
; 8977 :          default:
; 8978 :             nRC = zCALL_ERROR;

	mov	eax, -16				; fffffff0H
	mov	WORD PTR _nRC$[ebp], ax
$LN5@fnSysMutex:

; 8979 :             break;
; 8980 :       }
; 8981 :    }
; 8982 : 
; 8983 : #ifdef TRACE_MUTEX
; 8984 : // if ( zstrcmp( lpMutex->szName, "ZDrSS" ) != 0 )
; 8985 :    TraceLine( "fnSysMutexLock (Acquired) Task: 0x%08x   Mutex: 0x%08x  Handle: %d  %s  Process: 0x%08x   RC: %d",
; 8986 :               zGETHNDL( lpTask ), lpMutex, lpMutex->Info.hMutexOS,
; 8987 :               lpMutex->szName, SysGetProcessID( 0 ), nRC );
; 8988 : #endif
; 8989 : 
; 8990 :    if ( nRC == 1 )

	movsx	ecx, WORD PTR _nRC$[ebp]
	cmp	ecx, 1
	jne	SHORT $LN9@fnSysMutex

; 8991 :       nRC = 0;

	xor	edx, edx
	mov	WORD PTR _nRC$[ebp], dx
$LN9@fnSysMutex:

; 8992 : 
; 8993 :    return( nRC );

	mov	ax, WORD PTR _nRC$[ebp]

; 8994 : }

	mov	esp, ebp
	pop	ebp
	ret	16					; 00000010H
_fnSysMutexLock@16 ENDP
_TEXT	ENDS
; Function compile flags: /Odtp
; File c:\10c\w\oe\kzoesyaa.c
_TEXT	SEGMENT
_szMsg$1 = -104						; size = 100
__$ArrayPad$ = -4					; size = 4
_lpTask$ = 8						; size = 4
_lpMutex$ = 12						; size = 4
_fnSysMutexUnlock@8 PROC

; 9061 : {

	push	ebp
	mov	ebp, esp
	sub	esp, 104				; 00000068H
	mov	eax, DWORD PTR ___security_cookie
	xor	eax, ebp
	mov	DWORD PTR __$ArrayPad$[ebp], eax

; 9062 : #if 0
; 9063 :    if ( lpMutex->Info.bCriticalSection )
; 9064 :    {
; 9065 :       // If the current mutex is for a thread task, then lpParentMutex will
; 9066 :       // point to the mutex structure for the parent task.  We want to use
; 9067 :       // the parent mutex to leave the critical section.
; 9068 :       if ( lpMutex->Info.hParentMutex )
; 9069 :          lpMutex = zGETPTR( lpMutex->Info.hParentMutex );
; 9070 : 
; 9071 :       LeaveCriticalSection( (LPCRITICAL_SECTION) lpMutex->Info.CritSection );
; 9072 :    }
; 9073 :    else
; 9074 : #endif
; 9075 :    {
; 9076 :       if ( ReleaseMutex( (HANDLE) lpMutex->Info.hMutexOS ) == 0 )

	mov	eax, DWORD PTR _lpMutex$[ebp]
	mov	ecx, DWORD PTR [eax+94]
	push	ecx
	call	DWORD PTR __imp__ReleaseMutex@4
	test	eax, eax
	jne	SHORT $LN2@fnSysMutex

; 9077 :       {
; 9078 :          zCHAR szMsg[ 100 ];
; 9079 : 
; 9080 :          zsprintf( szMsg, "Error releasing mutex %s", lpMutex->szName );

	mov	edx, DWORD PTR _lpMutex$[ebp]
	add	edx, 6
	push	edx
	push	OFFSET $SG100682
	lea	eax, DWORD PTR _szMsg$1[ebp]
	push	eax
	call	_sprintf
	add	esp, 12					; 0000000cH

; 9081 :          TraceLineS( szMsg, "" );

	push	OFFSET $SG100683
	lea	ecx, DWORD PTR _szMsg$1[ebp]
	push	ecx
	call	_TraceLineS@8

; 9082 :          SysMessageBox( 0, szlOE_SystemError, szMsg, -1 );

	push	-1
	lea	edx, DWORD PTR _szMsg$1[ebp]
	push	edx
	mov	eax, DWORD PTR _szlOE_SystemError
	push	eax
	push	0
	call	_SysMessageBox@16

; 9083 :          return( zCALL_ERROR );

	mov	eax, -16				; fffffff0H
	jmp	SHORT $LN1@fnSysMutex
$LN2@fnSysMutex:

; 9084 :       }
; 9085 :    }
; 9086 : 
; 9087 : #ifdef TRACE_MUTEX
; 9088 : // if ( zstrcmp( lpMutex->szName, "ZDrSS" ) != 0 )
; 9089 :    TraceLine( "fnSysMutexUnlock (Unlock) Task: 0x%08x   Mutex: 0x%08x  Handle: %d  %s  Process: 0x%08x",
; 9090 :               zGETHNDL( lpTask ), lpMutex, lpMutex->Info.hMutexOS,
; 9091 :               lpMutex->szName, SysGetProcessID( 0 ) );
; 9092 : #endif
; 9093 : 
; 9094 :    return( 0 );

	xor	eax, eax
$LN1@fnSysMutex:

; 9095 : }

	mov	ecx, DWORD PTR __$ArrayPad$[ebp]
	xor	ecx, ebp
	call	@__security_check_cookie@4
	mov	esp, ebp
	pop	ebp
	ret	8
_fnSysMutexUnlock@8 ENDP
_TEXT	ENDS
; Function compile flags: /Odtp
; File c:\10c\w\oe\kzoesyaa.c
_TEXT	SEGMENT
_lPageTableIndex$ = -4					; size = 4
_bWebTask$ = 8						; size = 1
_fnFreeLocalAnchorBlock@4 PROC

; 2337 : {

	push	ebp
	mov	ebp, esp
	push	ecx

; 2338 :    zLONG lPageTableIndex;
; 2339 : 
; 2340 :    // If we're in Server Mode or a Web Task, then there's no anchor block
; 2341 :    // to free.
; 2342 :    if ( g_bServerMode || bWebTask )

	movzx	eax, BYTE PTR _g_bServerMode
	test	eax, eax
	jne	SHORT $LN4@fnFreeLoca
	movzx	ecx, BYTE PTR _bWebTask$[ebp]
	test	ecx, ecx
	je	SHORT $LN2@fnFreeLoca
$LN4@fnFreeLoca:

; 2343 :    {
; 2344 :       SysFree( AnchorBlock );

	mov	edx, DWORD PTR _AnchorBlock
	push	edx
	call	_SysFree@4

; 2345 :       return;

	jmp	$LN1@fnFreeLoca

; 2346 :    }

	jmp	SHORT $LN3@fnFreeLoca
$LN2@fnFreeLoca:

; 2347 :    else
; 2348 :    {
; 2349 :       if ( g_bWin95 )

	movzx	eax, BYTE PTR _g_bWin95
	test	eax, eax
	je	SHORT $LN5@fnFreeLoca

; 2350 :          lPageTableIndex = 1;

	mov	DWORD PTR _lPageTableIndex$[ebp], 1
	jmp	SHORT $LN6@fnFreeLoca
$LN5@fnFreeLoca:

; 2351 :       else
; 2352 : #ifdef DEBUG_PAGETABLE
; 2353 :          lPageTableIndex = 128;

	mov	DWORD PTR _lPageTableIndex$[ebp], 128	; 00000080H
$LN6@fnFreeLoca:

; 2354 : #else
; 2355 :          lPageTableIndex = 1;
; 2356 : #endif
; 2357 : 
; 2358 : #ifdef SHARED_MEM_TRACE
; 2359 :       fnTraceSharedMemory( "Unmapping anchor block" );
; 2360 : #endif
; 2361 : 
; 2362 :       TraceLine( "fnFreeLocalAnchorBlock Page Table UNmapping at Index: %x   0x%08x   Process: 0x%08x",

	push	0
	call	_SysGetProcessID@4
	push	eax
	mov	ecx, DWORD PTR _lPageTableIndex$[ebp]
	mov	edx, DWORD PTR _g_ZeidonPageTable[ecx*4]
	push	edx
	mov	eax, DWORD PTR _lPageTableIndex$[ebp]
	push	eax
	push	OFFSET $SG98595
	call	_TraceLine
	add	esp, 16					; 00000010H

; 2363 :                  lPageTableIndex, g_ZeidonPageTable[ lPageTableIndex ], SysGetProcessID( 0 ) );
; 2364 : 
; 2365 :       UnmapViewOfFile( g_ZeidonPageTable[ lPageTableIndex ] );

	mov	ecx, DWORD PTR _lPageTableIndex$[ebp]
	mov	edx, DWORD PTR _g_ZeidonPageTable[ecx*4]
	push	edx
	call	DWORD PTR __imp__UnmapViewOfFile@4

; 2366 :       CloseHandle( (HANDLE) g_FileMappingHandles[ lPageTableIndex ] );

	mov	eax, DWORD PTR _lPageTableIndex$[ebp]
	mov	ecx, DWORD PTR _g_FileMappingHandles[eax*4]
	push	ecx
	call	DWORD PTR __imp__CloseHandle@4

; 2367 :       g_ZeidonPageTable[ lPageTableIndex ] = 0;

	mov	edx, DWORD PTR _lPageTableIndex$[ebp]
	mov	DWORD PTR _g_ZeidonPageTable[edx*4], 0

; 2368 :       g_FileMappingHandles[ lPageTableIndex ] = 0;

	mov	eax, DWORD PTR _lPageTableIndex$[ebp]
	mov	DWORD PTR _g_FileMappingHandles[eax*4], 0
$LN3@fnFreeLoca:

; 2369 :    }
; 2370 : 
; 2371 :    g_hAnchorBlock = 0;

	mov	DWORD PTR _g_hAnchorBlock, 0

; 2372 :    AnchorBlock    = 0;

	mov	DWORD PTR _AnchorBlock, 0

; 2373 :    g_lProcessIdx  = -1;

	mov	DWORD PTR _g_lProcessIdx, -1
$LN1@fnFreeLoca:

; 2374 : }

	mov	esp, ebp
	pop	ebp
	ret	4
_fnFreeLocalAnchorBlock@4 ENDP
_TEXT	ENDS
; Function compile flags: /Odtp
; File c:\10c\w\oe\kzoesyaa.c
_TEXT	SEGMENT
_lOffset$ = -8						; size = 4
_pbBase$ = -4						; size = 4
_lpDataHeader$ = 8					; size = 4
_pPointer$ = 12						; size = 4
_fnSysCreateHandle@8 PROC

; 4179 : {

	push	ebp
	mov	ebp, esp
	sub	esp, 8

; 4180 :    zPBYTE pbBase;
; 4181 :    zLONG  lOffset;
; 4182 : 
; 4183 :    // For Win95 apps we just return the pointer back.
; 4184 :    if ( g_bWin95 )

	movzx	eax, BYTE PTR _g_bWin95
	test	eax, eax
	je	SHORT $LN2@fnSysCreat

; 4185 :       return( pPointer );

	mov	eax, DWORD PTR _pPointer$[ebp]
	jmp	SHORT $LN1@fnSysCreat
$LN2@fnSysCreat:

; 4186 : 
; 4187 : #ifdef DEBUG_PAGETABLE
; 4188 :    // Make sure that the highest bit is NOT set (this means it's a handle).
; 4189 :    if ( ((zLONG) pPointer & 0x80000000) != 0 )

	mov	ecx, DWORD PTR _pPointer$[ebp]
	and	ecx, -2147483648			; 80000000H
	je	SHORT $LN3@fnSysCreat

; 4190 :    {
; 4191 :    // char szMessage[ 16 ];
; 4192 :    // int k = 0;
; 4193 :       MessageBox( GetActiveWindow( ), "Invalid pointer: hi-bit not set!!",

	push	8208					; 00002010H
	mov	edx, DWORD PTR _szlOE_SystemError
	push	edx
	push	OFFSET $SG99034
	call	DWORD PTR __imp__GetActiveWindow@0
	push	eax
	call	DWORD PTR __imp__MessageBoxA@16

; 4194 :                   szlOE_SystemError, MB_ICONSTOP | MB_OK | MB_TASKMODAL );
; 4195 : #if 0
; 4196 :       SysReadZeidonIni( -1, "[Debug]", "BombZDr", szMessage );
; 4197 :       if ( szMessage[ 0 ] == 'Y' )
; 4198 :          k /= k;
; 4199 : #endif
; 4200 :       return( 0 );

	xor	eax, eax
	jmp	SHORT $LN1@fnSysCreat
$LN3@fnSysCreat:

; 4201 :    }
; 4202 : #endif
; 4203 : 
; 4204 :    // Get base address of dataspace.
; 4205 :    pbBase = zGETPTR( (zPVOID) lpDataHeader->hDataHandle );

	mov	eax, DWORD PTR _lpDataHeader$[ebp]
	mov	ecx, DWORD PTR [eax+6]
	push	ecx
	call	DWORD PTR _g_pfnGetPtr
	mov	DWORD PTR _pbBase$[ebp], eax

; 4206 : 
; 4207 :    // Compute the offset of the pointer from the base address.
; 4208 :    lOffset = (zLONG) pPointer - (zLONG) pbBase;

	mov	edx, DWORD PTR _pPointer$[ebp]
	sub	edx, DWORD PTR _pbBase$[ebp]
	mov	DWORD PTR _lOffset$[ebp], edx

; 4209 : 
; 4210 :    // New handle consists of the handle of the dataspace (first byte of lHandle)
; 4211 :    // and the offset in the last three bytes.
; 4212 :    pPointer = (zPVOID) (lpDataHeader->hDataHandle | lOffset);

	mov	eax, DWORD PTR _lpDataHeader$[ebp]
	mov	ecx, DWORD PTR [eax+6]
	or	ecx, DWORD PTR _lOffset$[ebp]
	mov	DWORD PTR _pPointer$[ebp], ecx

; 4213 :    return( pPointer );

	mov	eax, DWORD PTR _pPointer$[ebp]
$LN1@fnSysCreat:

; 4214 : }

	mov	esp, ebp
	pop	ebp
	ret	8
_fnSysCreateHandle@8 ENDP
_TEXT	ENDS
; Function compile flags: /Odtp
; File c:\10c\w\oe\kzoesyaa.c
_TEXT	SEGMENT
_lpProcessList$ = -276					; size = 4
_lpTgtProcess$ = -272					; size = 4
_k$ = -268						; size = 4
_lPageTableIndex$ = -264				; size = 4
_szMessage$1 = -260					; size = 256
__$ArrayPad$ = -4					; size = 4
_lpTask$ = 8						; size = 4
_hMemory$ = 12						; size = 4
_fnFreeSharedMemory@8 PROC

; 3032 : {

	push	ebp
	mov	ebp, esp
	sub	esp, 276				; 00000114H
	mov	eax, DWORD PTR ___security_cookie
	xor	eax, ebp
	mov	DWORD PTR __$ArrayPad$[ebp], eax

; 3033 :    LPPROCESSLIST lpProcessList;
; 3034 :    LPPROCESSLIST lpTgtProcess;
; 3035 :    zLONG         lPageTableIndex;
; 3036 :    zLONG         k;
; 3037 : 
; 3038 :    if ( g_bServerMode )

	movzx	eax, BYTE PTR _g_bServerMode
	test	eax, eax
	je	SHORT $LN4@fnFreeShar

; 3039 :    {
; 3040 :       SysFree( (zPVOID) hMemory );

	mov	ecx, DWORD PTR _hMemory$[ebp]
	push	ecx
	call	_SysFree@4

; 3041 :       return( 0 );

	xor	eax, eax
	jmp	$LN1@fnFreeShar
$LN4@fnFreeShar:

; 3042 :    }
; 3043 : 
; 3044 : #ifdef DEBUG_PAGETABLE
; 3045 :    // Make sure that the highest bit is set.
; 3046 :    if ( ((zLONG) hMemory & 0x80000000) == 0 )

	mov	edx, DWORD PTR _hMemory$[ebp]
	and	edx, -2147483648			; 80000000H
	jne	SHORT $LN5@fnFreeShar

; 3047 :    {
; 3048 :       char szMessage[ 256 ];
; 3049 :    // k = 0;
; 3050 :       zsprintf( szMessage, "Invalid pointer handle for free: hi-bit not set: 0x%08x", hMemory );

	mov	eax, DWORD PTR _hMemory$[ebp]
	push	eax
	push	OFFSET $SG98791
	lea	ecx, DWORD PTR _szMessage$1[ebp]
	push	ecx
	call	_sprintf
	add	esp, 12					; 0000000cH

; 3051 :       TraceLineS( szMessage, "" );

	push	OFFSET $SG98792
	lea	edx, DWORD PTR _szMessage$1[ebp]
	push	edx
	call	_TraceLineS@8

; 3052 :       SysMessageBox( 0, szlOE_SystemError, szMessage, -1 );

	push	-1
	lea	eax, DWORD PTR _szMessage$1[ebp]
	push	eax
	mov	ecx, DWORD PTR _szlOE_SystemError
	push	ecx
	push	0
	call	_SysMessageBox@16

; 3053 : #if 0
; 3054 :       SysReadZeidonIni( -1, "[Debug]", "BombZDr", szMessage );
; 3055 :       if ( szMessage[ 0 ] == 'Y' )
; 3056 :          k /= k;
; 3057 : #endif
; 3058 :       return( hMemory );

	mov	eax, DWORD PTR _hMemory$[ebp]
	jmp	$LN1@fnFreeShar
$LN5@fnFreeShar:

; 3059 :    }
; 3060 : #endif
; 3061 : 
; 3062 :    if ( g_bWin95 )

	movzx	edx, BYTE PTR _g_bWin95
	test	edx, edx
	je	SHORT $LN6@fnFreeShar

; 3063 :       lPageTableIndex = (zLONG) *((zPLONG) hMemory - 1);

	mov	eax, DWORD PTR _hMemory$[ebp]
	mov	ecx, DWORD PTR [eax-4]
	mov	DWORD PTR _lPageTableIndex$[ebp], ecx
	jmp	SHORT $LN7@fnFreeShar
$LN6@fnFreeShar:

; 3064 :    else
; 3065 :       lPageTableIndex = (zLONG) ((zULONG) hMemory >> 24);

	mov	edx, DWORD PTR _hMemory$[ebp]
	shr	edx, 24					; 00000018H
	mov	DWORD PTR _lPageTableIndex$[ebp], edx
$LN7@fnFreeShar:

; 3066 : 
; 3067 : // TraceLine( "fnFreeSharedMemory at Index: %x   0x%08x   Process: 0x%08x",
; 3068 : //            lPageTableIndex, g_ZeidonPageTable[ lPageTableIndex ], SysGetProcessID( 0 ) );
; 3069 : 
; 3070 :    // Make sure we have a valid task.  If not then we should be freeing the
; 3071 :    // anchor block so do it.
; 3072 :    if ( lpTask == 0 )

	cmp	DWORD PTR _lpTask$[ebp], 0
	jne	SHORT $LN8@fnFreeShar

; 3073 :    {
; 3074 : #if defined SHARED_MEM_TRACE
; 3075 :       fnTraceSharedMemory( "fnFreeSharedMemory" );
; 3076 : #endif
; 3077 : 
; 3078 :    // if ( lPageTableIndex == 134 )
; 3079 :    // {
; 3080 :    //    TraceLine( "fnFreeSharedMemory1 Page Table at Index: %x   0x%08x   Process: 0x%08x",
; 3081 :    //               lPageTableIndex, g_ZeidonPageTable[ lPageTableIndex ], SysGetProcessID( 0 ) );
; 3082 :    // }
; 3083 : 
; 3084 :       UnmapViewOfFile( g_ZeidonPageTable[ lPageTableIndex ] );

	mov	eax, DWORD PTR _lPageTableIndex$[ebp]
	mov	ecx, DWORD PTR _g_ZeidonPageTable[eax*4]
	push	ecx
	call	DWORD PTR __imp__UnmapViewOfFile@4

; 3085 :       CloseHandle( (HANDLE) g_FileMappingHandles[ lPageTableIndex ] );

	mov	edx, DWORD PTR _lPageTableIndex$[ebp]
	mov	eax, DWORD PTR _g_FileMappingHandles[edx*4]
	push	eax
	call	DWORD PTR __imp__CloseHandle@4

; 3086 :       g_ZeidonPageTable[ lPageTableIndex ] = 0;

	mov	ecx, DWORD PTR _lPageTableIndex$[ebp]
	mov	DWORD PTR _g_ZeidonPageTable[ecx*4], 0

; 3087 :       g_FileMappingHandles[ lPageTableIndex ] = 0;

	mov	edx, DWORD PTR _lPageTableIndex$[ebp]
	mov	DWORD PTR _g_FileMappingHandles[edx*4], 0

; 3088 :       return( 0 );

	xor	eax, eax
	jmp	$LN1@fnFreeShar
$LN8@fnFreeShar:

; 3089 :    }
; 3090 : 
; 3091 :    zLOCK_MUTEX( zMUTEX_SHAREDMEM );

	push	4
	call	_fnSysLockCoreMutex@4

; 3092 : 
; 3093 : #ifdef CHECK_MEMORY // check for memory references that will soon become invalid
; 3094 :    CheckMemory( lPageTableIndex );
; 3095 : #endif
; 3096 : 
; 3097 :    lpProcessList = &AnchorBlock->OS_Data.ProcessList[ g_lProcessIdx ];

	imul	eax, DWORD PTR _g_lProcessIdx, 20
	mov	ecx, DWORD PTR _AnchorBlock
	lea	edx, DWORD PTR [ecx+eax+1511]
	mov	DWORD PTR _lpProcessList$[ebp], edx

; 3098 :    lpProcessList->nOE_Request     = TASKREQ_FREE;  // tell OE to do free

	mov	eax, 4
	mov	ecx, DWORD PTR _lpProcessList$[ebp]
	mov	WORD PTR [ecx], ax

; 3099 :    lpProcessList->lPageTableIndex = lPageTableIndex;

	mov	edx, DWORD PTR _lpProcessList$[ebp]
	mov	eax, DWORD PTR _lPageTableIndex$[ebp]
	mov	DWORD PTR [edx+8], eax

; 3100 : 
; 3101 :    // Make sure nobody is currently deleting a task.
; 3102 :    fnStartBrowseOfTaskList( lpTask, FALSE );

	push	0
	mov	ecx, DWORD PTR _lpTask$[ebp]
	push	ecx
	call	_fnStartBrowseOfTaskList@8

; 3103 : 
; 3104 :    // Use SysSendTaskMsg to send a message to all tasks to free the memory.
; 3105 :    // We do this in reverse order so as not to blow out the anchor block ???
; 3106 :    // before we're finished with it.                                     ???
; 3107 :    k = AnchorBlock->OS_Data.lProcessCount;

	mov	edx, DWORD PTR _AnchorBlock
	mov	eax, DWORD PTR [edx+1507]
	mov	DWORD PTR _k$[ebp], eax
$LN2@fnFreeShar:

; 3108 : // TraceLineI( "fnFreeSharedMemory should SendMessage to process count: ", k );
; 3109 :    while ( k > 0 )

	cmp	DWORD PTR _k$[ebp], 0
	jle	SHORT $LN3@fnFreeShar

; 3110 :    {
; 3111 :       k--;

	mov	ecx, DWORD PTR _k$[ebp]
	sub	ecx, 1
	mov	DWORD PTR _k$[ebp], ecx

; 3112 :       lpTgtProcess = &AnchorBlock->OS_Data.ProcessList[ k ];

	imul	edx, DWORD PTR _k$[ebp], 20
	mov	eax, DWORD PTR _AnchorBlock
	lea	ecx, DWORD PTR [eax+edx+1511]
	mov	DWORD PTR _lpTgtProcess$[ebp], ecx

; 3113 : 
; 3114 :       if ( lpTgtProcess->hWndAppOE_Msg &&

	mov	edx, DWORD PTR _lpTgtProcess$[ebp]
	cmp	DWORD PTR [edx+4], 0
	je	SHORT $LN9@fnFreeShar
	mov	eax, DWORD PTR _lpTgtProcess$[ebp]
	mov	ecx, DWORD PTR [eax+4]
	push	ecx
	call	DWORD PTR __imp__IsWindow@4
	test	eax, eax
	je	SHORT $LN9@fnFreeShar

; 3115 :            IsWindow( (HWND) lpTgtProcess->hWndAppOE_Msg ) )
; 3116 :       {
; 3117 :          SendMessage( (HWND) lpTgtProcess->hWndAppOE_Msg,

	mov	edx, DWORD PTR _g_lProcessIdx
	push	edx
	push	0
	mov	eax, DWORD PTR _lpTgtProcess$[ebp]
	movzx	ecx, WORD PTR [eax+2]
	push	ecx
	mov	edx, DWORD PTR _lpTgtProcess$[ebp]
	mov	eax, DWORD PTR [edx+4]
	push	eax
	call	DWORD PTR __imp__SendMessageA@16
$LN9@fnFreeShar:

; 3118 :                       lpTgtProcess->uAppOE_Msg, 0, g_lProcessIdx );
; 3119 :       }
; 3120 :    // SysSendTaskMsg( lpCurrentTask, lpTask );
; 3121 :    }

	jmp	SHORT $LN2@fnFreeShar
$LN3@fnFreeShar:

; 3122 : 
; 3123 :    if ( hMemory != g_hAnchorBlock )

	mov	ecx, DWORD PTR _hMemory$[ebp]
	cmp	ecx, DWORD PTR _g_hAnchorBlock
	je	SHORT $LN10@fnFreeShar

; 3124 :    {
; 3125 :    // if ( lPageTableIndex == 134 )
; 3126 :    // {
; 3127 :    //    TraceLine( "fnFreeSharedMemory2 Page Table at Index: %x   0x%08x   Process: 0x%08x",
; 3128 :    //               lPageTableIndex, g_ZeidonPageTable[ lPageTableIndex ], SysGetProcessID( 0 ) );
; 3129 :    // }
; 3130 : 
; 3131 :       UnmapViewOfFile( g_ZeidonPageTable[ lPageTableIndex ] );

	mov	edx, DWORD PTR _lPageTableIndex$[ebp]
	mov	eax, DWORD PTR _g_ZeidonPageTable[edx*4]
	push	eax
	call	DWORD PTR __imp__UnmapViewOfFile@4

; 3132 :       CloseHandle( (HANDLE) g_FileMappingHandles[ lPageTableIndex ] );

	mov	ecx, DWORD PTR _lPageTableIndex$[ebp]
	mov	edx, DWORD PTR _g_FileMappingHandles[ecx*4]
	push	edx
	call	DWORD PTR __imp__CloseHandle@4

; 3133 :       g_ZeidonPageTable[ lPageTableIndex ] = 0;

	mov	eax, DWORD PTR _lPageTableIndex$[ebp]
	mov	DWORD PTR _g_ZeidonPageTable[eax*4], 0

; 3134 :       g_FileMappingHandles[ lPageTableIndex ] = 0;

	mov	ecx, DWORD PTR _lPageTableIndex$[ebp]
	mov	DWORD PTR _g_FileMappingHandles[ecx*4], 0
$LN10@fnFreeShar:

; 3135 : 
; 3136 :    // TraceLine( "fnFreeSharedMemory2 at Index: %x   0x%08x   Process: 0x%08x",
; 3137 :    //            lPageTableIndex, g_ZeidonPageTable[ lPageTableIndex ], SysGetProcessID( 0 ) );
; 3138 :    }
; 3139 : 
; 3140 :    fnEndBrowseOfTaskList( FALSE );

	push	0
	call	_fnEndBrowseOfTaskList@4

; 3141 : 
; 3142 :    zUNLOCK_MUTEX( zMUTEX_SHAREDMEM );

	push	4
	call	_fnSysUnlockCoreMutex@4

; 3143 : 
; 3144 :    return( 0 );

	xor	eax, eax
$LN1@fnFreeShar:

; 3145 : 
; 3146 : } // end of:  fnFreeSharedMemory.

	mov	ecx, DWORD PTR __$ArrayPad$[ebp]
	xor	ecx, ebp
	call	@__security_check_cookie@4
	mov	esp, ebp
	pop	ebp
	ret	8
_fnFreeSharedMemory@8 ENDP
_TEXT	ENDS
; Function compile flags: /Odtp
; File c:\10c\w\oe\kzoesyaa.c
_TEXT	SEGMENT
_lRC$1 = -20						; size = 4
_hMemory$ = -16						; size = 4
_lPageTableIndex$ = -12					; size = 4
_k$2 = -8						; size = 4
_lpProcessList$3 = -4					; size = 4
_ppvMemory$ = 8						; size = 4
_lpTask$ = 12						; size = 4
_lBytes$ = 16						; size = 4
_cpcShareName$ = 20					; size = 4
_fnAllocSharedMemory@16 PROC

; 2844 : {

	push	ebp
	mov	ebp, esp
	sub	esp, 20					; 00000014H

; 2845 :    HANDLE hMemory = 0;

	mov	DWORD PTR _hMemory$[ebp], 0

; 2846 :    zLONG  lPageTableIndex = 0;

	mov	DWORD PTR _lPageTableIndex$[ebp], 0

; 2847 : 
; 2848 :    *ppvMemory = 0;

	mov	eax, DWORD PTR _ppvMemory$[ebp]
	mov	DWORD PTR [eax], 0

; 2849 : 
; 2850 :    // If more space is requested than is available, return error.
; 2851 :    if ( lBytes <= 0 )

	cmp	DWORD PTR _lBytes$[ebp], 0
	jg	SHORT $LN4@fnAllocSha

; 2852 :       return( 0 );

	xor	eax, eax
	jmp	$LN1@fnAllocSha
$LN4@fnAllocSha:

; 2853 : 
; 2854 :    if ( g_bServerMode )

	movzx	ecx, BYTE PTR _g_bServerMode
	test	ecx, ecx
	je	SHORT $LN5@fnAllocSha

; 2855 :    {
; 2856 :       *ppvMemory = SysMalloc( lBytes );

	mov	edx, DWORD PTR _lBytes$[ebp]
	push	edx
	call	_SysMalloc@4
	mov	ecx, DWORD PTR _ppvMemory$[ebp]
	mov	DWORD PTR [ecx], eax

; 2857 :       return (zLONG) *ppvMemory;

	mov	edx, DWORD PTR _ppvMemory$[ebp]
	mov	eax, DWORD PTR [edx]
	jmp	$LN1@fnAllocSha
$LN5@fnAllocSha:

; 2858 :    }
; 2859 : 
; 2860 : // TraceLine( "fnAllocSharedMemory1   Process: 0x%08x", SysGetProcessID( 0 ) );
; 2861 : 
; 2862 :    zLOCK_MUTEX( zMUTEX_SHAREDMEM );

	push	4
	call	_fnSysLockCoreMutex@4

; 2863 : 
; 2864 :    // If the memory is shared, then we must send a message to each
; 2865 :    // registered zeidon application.
; 2866 :    //
; 2867 :    // If AnchorBlock is zero then we haven't finished initialization yet so
; 2868 :    // there are no messages to send.
; 2869 : 
; 2870 :    if ( AnchorBlock && AnchorBlock->hMainTask )

	cmp	DWORD PTR _AnchorBlock, 0
	je	$LN6@fnAllocSha
	mov	eax, DWORD PTR _AnchorBlock
	cmp	DWORD PTR [eax+106], 0
	je	$LN6@fnAllocSha

; 2871 :    {
; 2872 :       LPPROCESSLIST lpProcessList;
; 2873 :       zLONG     k;
; 2874 :       zLONG     lRC;
; 2875 : 
; 2876 :       // Create a new file mapping.
; 2877 :       *ppvMemory = fnMapFile( &hMemory, lBytes, &lPageTableIndex, 0 );

	push	0
	lea	ecx, DWORD PTR _lPageTableIndex$[ebp]
	push	ecx
	mov	edx, DWORD PTR _lBytes$[ebp]
	push	edx
	lea	eax, DWORD PTR _hMemory$[ebp]
	push	eax
	call	_fnMapFile@16
	mov	ecx, DWORD PTR _ppvMemory$[ebp]
	mov	DWORD PTR [ecx], eax

; 2878 :       if ( hMemory == 0 )

	cmp	DWORD PTR _hMemory$[ebp], 0
	jne	SHORT $LN8@fnAllocSha

; 2879 :       {
; 2880 :          zUNLOCK_MUTEX( zMUTEX_SHAREDMEM );

	push	4
	call	_fnSysUnlockCoreMutex@4

; 2881 :          return( 0 );

	xor	eax, eax
	jmp	$LN1@fnAllocSha
$LN8@fnAllocSha:

; 2882 :       }
; 2883 : 
; 2884 :       fnSetProcessIdx( "AllocShared", &lpProcessList );

	lea	edx, DWORD PTR _lpProcessList$3[ebp]
	push	edx
	push	OFFSET $SG98740
	call	_fnSetProcessIdx
	add	esp, 8

; 2885 :       lpProcessList->nOE_Request     = TASKREQ_ALLOC; // tell OE to share Memory

	mov	eax, 1
	mov	ecx, DWORD PTR _lpProcessList$3[ebp]
	mov	WORD PTR [ecx], ax

; 2886 :       lpProcessList->lPageTableIndex = lPageTableIndex;

	mov	edx, DWORD PTR _lpProcessList$3[ebp]
	mov	eax, DWORD PTR _lPageTableIndex$[ebp]
	mov	DWORD PTR [edx+8], eax

; 2887 :       lpProcessList->hMemHandle      = (zLONG) g_FileMappingHandles[ lPageTableIndex ];

	mov	ecx, DWORD PTR _lpProcessList$3[ebp]
	mov	edx, DWORD PTR _lPageTableIndex$[ebp]
	mov	eax, DWORD PTR _g_FileMappingHandles[edx*4]
	mov	DWORD PTR [ecx+12], eax

; 2888 : 
; 2889 :       // Send each task a message to open the same file mapping.
; 2890 :       k = AnchorBlock->OS_Data.lProcessCount;

	mov	ecx, DWORD PTR _AnchorBlock
	mov	edx, DWORD PTR [ecx+1507]
	mov	DWORD PTR _k$2[ebp], edx
$LN2@fnAllocSha:

; 2891 :    // TraceLine( "fnAllocSharedMemory should SendMessage from ProcessIndex: %d  to %d processes", g_lProcessIdx, k );
; 2892 :       while ( k > 0 )

	cmp	DWORD PTR _k$2[ebp], 0
	jle	$LN3@fnAllocSha

; 2893 :       {
; 2894 :          k--;

	mov	eax, DWORD PTR _k$2[ebp]
	sub	eax, 1
	mov	DWORD PTR _k$2[ebp], eax

; 2895 :          lpProcessList = &AnchorBlock->OS_Data.ProcessList[ k ];

	imul	ecx, DWORD PTR _k$2[ebp], 20
	mov	edx, DWORD PTR _AnchorBlock
	lea	eax, DWORD PTR [edx+ecx+1511]
	mov	DWORD PTR _lpProcessList$3[ebp], eax

; 2896 :       // TraceLine( "fnAllocSharedMemory SendMessage ALLOC %x Wnd: 0x%08x  Handle: 0x%08x  ProcessIdx: %d  Process: %d",
; 2897 :       //            lPageTableIndex, lpProcessList->hWndAppOE_Msg, lpProcessList->hMemHandle, k, lpProcessList->lProcessID );
; 2898 : 
; 2899 :          if ( k == g_lProcessIdx )

	mov	ecx, DWORD PTR _k$2[ebp]
	cmp	ecx, DWORD PTR _g_lProcessIdx
	jne	SHORT $LN9@fnAllocSha

; 2900 :             continue;  // don't bother sending a message to ourselves

	jmp	SHORT $LN2@fnAllocSha
$LN9@fnAllocSha:

; 2901 : 
; 2902 :          if ( IsWindow( (HWND) lpProcessList->hWndAppOE_Msg ) == 0 )

	mov	edx, DWORD PTR _lpProcessList$3[ebp]
	mov	eax, DWORD PTR [edx+4]
	push	eax
	call	DWORD PTR __imp__IsWindow@4
	test	eax, eax
	jne	SHORT $LN10@fnAllocSha

; 2903 :             continue;

	jmp	SHORT $LN2@fnAllocSha
$LN10@fnAllocSha:

; 2904 : 
; 2905 :          lRC = SendMessage( (HWND) lpProcessList->hWndAppOE_Msg,

	mov	ecx, DWORD PTR _g_lProcessIdx
	push	ecx
	push	0
	mov	edx, DWORD PTR _lpProcessList$3[ebp]
	movzx	eax, WORD PTR [edx+2]
	push	eax
	mov	ecx, DWORD PTR _lpProcessList$3[ebp]
	mov	edx, DWORD PTR [ecx+4]
	push	edx
	call	DWORD PTR __imp__SendMessageA@16
	mov	DWORD PTR _lRC$1[ebp], eax

; 2906 :                             lpProcessList->uAppOE_Msg, 0, g_lProcessIdx );
; 2907 :       // TraceLine( "fnAllocSharedMemory SendMessage ****** %s ****** Wnd: 0x%08x  ProcessIdx: %d",
; 2908 :       //            lRC ? "Failure" : "Success" , lpProcessList->hWndAppOE_Msg, g_lProcessIdx );
; 2909 :          if ( lRC )

	cmp	DWORD PTR _lRC$1[ebp], 0
	je	SHORT $LN11@fnAllocSha

; 2910 :          {
; 2911 :             MessageBox( GetActiveWindow( ), "Error Calling SendMsg( )",

	push	8208					; 00002010H
	push	OFFSET $SG98744
	push	OFFSET $SG98745
	call	DWORD PTR __imp__GetActiveWindow@0
	push	eax
	call	DWORD PTR __imp__MessageBoxA@16
$LN11@fnAllocSha:

; 2912 :                         "Zeidon Internal Error",
; 2913 :                         MB_ICONSTOP | MB_OK | MB_TASKMODAL );
; 2914 :          }
; 2915 :       }

	jmp	$LN2@fnAllocSha
$LN3@fnAllocSha:

; 2916 :    }

	jmp	SHORT $LN7@fnAllocSha
$LN6@fnAllocSha:

; 2917 :    else
; 2918 :    {
; 2919 :       // Create a new file mapping.
; 2920 :       *ppvMemory = fnMapFile( &hMemory, lBytes, &lPageTableIndex, cpcShareName );

	mov	eax, DWORD PTR _cpcShareName$[ebp]
	push	eax
	lea	ecx, DWORD PTR _lPageTableIndex$[ebp]
	push	ecx
	mov	edx, DWORD PTR _lBytes$[ebp]
	push	edx
	lea	eax, DWORD PTR _hMemory$[ebp]
	push	eax
	call	_fnMapFile@16
	mov	ecx, DWORD PTR _ppvMemory$[ebp]
	mov	DWORD PTR [ecx], eax
$LN7@fnAllocSha:

; 2921 :    }
; 2922 : 
; 2923 :    zUNLOCK_MUTEX( zMUTEX_SHAREDMEM );

	push	4
	call	_fnSysUnlockCoreMutex@4

; 2924 : 
; 2925 : #ifdef SHARED_MEM_TRACE
; 2926 :    TraceLine( "fnAllocSharedMemory (Task: 0x%08x) at Index: %x   0x%08x   Process: 0x%08x",
; 2927 :               zGETHNDL( lpTask ), lPageTableIndex,
; 2928 :               g_ZeidonPageTable[ lPageTableIndex ], SysGetProcessID( 0 ) );
; 2929 : #endif
; 2930 : 
; 2931 :    return( (zLONG) hMemory );

	mov	eax, DWORD PTR _hMemory$[ebp]
$LN1@fnAllocSha:

; 2932 : }

	mov	esp, ebp
	pop	ebp
	ret	16					; 00000010H
_fnAllocSharedMemory@16 ENDP
_TEXT	ENDS
; Function compile flags: /Odtp
; File c:\10c\w\oe\kzoesyaa.c
_TEXT	SEGMENT
_lpInternational$ = 8					; size = 4
_SysFreeInternational@4 PROC

; 1232 : {

	push	ebp
	mov	ebp, esp

; 1233 :    if ( lpInternational &&

	cmp	DWORD PTR _lpInternational$[ebp], 0
	je	SHORT $LN1@SysFreeInt
	mov	eax, DWORD PTR _lpInternational$[ebp]
	movsx	ecx, WORD PTR [eax]
	cmp	ecx, 10042				; 0000273aH
	jne	SHORT $LN1@SysFreeInt

; 1234 :         lpInternational->nTableID == iInternational )
; 1235 :    {
; 1236 :       fnFreeDataspace( zGETPTR( lpInternational->hShortDate ) );

	mov	edx, DWORD PTR _lpInternational$[ebp]
	mov	eax, DWORD PTR [edx+98]
	push	eax
	call	DWORD PTR _g_pfnGetPtr
	push	eax
	call	_fnFreeDataspace
	add	esp, 4

; 1237 :       fnFreeDataspace( zGETPTR( lpInternational->hLongDate ) );

	mov	ecx, DWORD PTR _lpInternational$[ebp]
	mov	edx, DWORD PTR [ecx+102]
	push	edx
	call	DWORD PTR _g_pfnGetPtr
	push	eax
	call	_fnFreeDataspace
	add	esp, 4

; 1238 :       fnFreeDataspace( zGETPTR( lpInternational->hTimeFmt ) );

	mov	eax, DWORD PTR _lpInternational$[ebp]
	mov	ecx, DWORD PTR [eax+106]
	push	ecx
	call	DWORD PTR _g_pfnGetPtr
	push	eax
	call	_fnFreeDataspace
	add	esp, 4

; 1239 :       fnFreeDataspace( lpInternational );

	mov	edx, DWORD PTR _lpInternational$[ebp]
	push	edx
	call	_fnFreeDataspace
	add	esp, 4
$LN1@SysFreeInt:

; 1240 :    }
; 1241 : }

	pop	ebp
	ret	4
_SysFreeInternational@4 ENDP
_TEXT	ENDS
; Function compile flags: /Odtp
; File c:\10c\w\oe\kzoesyaa.c
_TEXT	SEGMENT
_hInternational$ = -524					; size = 4
_lpInternational$ = -520				; size = 4
_sz$ = -516						; size = 512
__$ArrayPad$ = -4					; size = 4
_SysCreateInternational@0 PROC

; 1643 : {

	push	ebp
	mov	ebp, esp
	sub	esp, 524				; 0000020cH
	mov	eax, DWORD PTR ___security_cookie
	xor	eax, ebp
	mov	DWORD PTR __$ArrayPad$[ebp], eax

; 1644 :    LPINTERNATIONAL   lpInternational;
; 1645 :    zPVOID            hInternational;
; 1646 :    zCHAR             sz[ 512 ];
; 1647 : 
; 1648 :    hInternational =

	push	10042					; 0000273aH
	push	0
	push	1
	push	140					; 0000008cH
	mov	eax, DWORD PTR _AnchorBlock
	mov	ecx, DWORD PTR [eax+114]
	push	ecx
	call	_fnAllocDataspace
	add	esp, 20					; 00000014H
	mov	DWORD PTR _hInternational$[ebp], eax

; 1649 :       fnAllocDataspace( AnchorBlock->hMainFirstDataHeader,
; 1650 :                         sizeof( InternationalRecord ), 1, 0, iInternational );
; 1651 :    if ( hInternational == 0 )

	cmp	DWORD PTR _hInternational$[ebp], 0
	jne	SHORT $LN2@SysCreateI

; 1652 :       return( 0 );

	xor	eax, eax
	jmp	$LN1@SysCreateI
$LN2@SysCreateI:

; 1653 : 
; 1654 :    lpInternational = zGETPTR( hInternational );

	mov	edx, DWORD PTR _hInternational$[ebp]
	push	edx
	call	DWORD PTR _g_pfnGetPtr
	mov	DWORD PTR _lpInternational$[ebp], eax

; 1655 : 
; 1656 :    // Get country code, default to US
; 1657 :    lpInternational->nCountry = GetProfileInt( szlINTL, szlICOUNTRY, 1 );

	push	1
	mov	eax, DWORD PTR _szlICOUNTRY
	push	eax
	mov	ecx, DWORD PTR _szlINTL
	push	ecx
	call	DWORD PTR __imp__GetProfileIntA@12
	mov	edx, DWORD PTR _lpInternational$[ebp]
	mov	WORD PTR [edx+2], ax

; 1658 : 
; 1659 :    // Selected country name, no default
; 1660 :    GetProfileString( szlINTL, szlSCOUNTRY, szNullS, sz, sizeof( sz ) - 1 );

	push	511					; 000001ffH
	lea	eax, DWORD PTR _sz$[ebp]
	push	eax
	mov	ecx, DWORD PTR _szNullS
	push	ecx
	mov	edx, DWORD PTR _szlSCOUNTRY
	push	edx
	mov	eax, DWORD PTR _szlINTL
	push	eax
	call	DWORD PTR __imp__GetProfileStringA@20

; 1661 : 
; 1662 :    zstrcpy( lpInternational->szCountry, sz );

	lea	ecx, DWORD PTR _sz$[ebp]
	push	ecx
	mov	edx, DWORD PTR _lpInternational$[ebp]
	add	edx, 4
	push	edx
	call	_strcpy
	add	esp, 8

; 1663 : 
; 1664 :    // Get selected language code, default U.S. English
; 1665 :    GetProfileString( szlINTL, szlSLANGUAGE, "ENU", sz, sizeof( sz ) - 1 );

	push	511					; 000001ffH
	lea	eax, DWORD PTR _sz$[ebp]
	push	eax
	push	OFFSET $SG98362
	mov	ecx, DWORD PTR _szlSLANGUAGE
	push	ecx
	mov	edx, DWORD PTR _szlINTL
	push	edx
	call	DWORD PTR __imp__GetProfileStringA@20

; 1666 : 
; 1667 :    zstrcpy( lpInternational->szLanguage, sz );

	lea	eax, DWORD PTR _sz$[ebp]
	push	eax
	mov	ecx, DWORD PTR _lpInternational$[ebp]
	add	ecx, 37					; 00000025H
	push	ecx
	call	_strcpy
	add	esp, 8

; 1668 : 
; 1669 :    // DGC: ????????????????? OS/2 ?????????? DKS 2/21/96 ?????????
; 1670 :    // Hard code the language code from the language string.
; 1671 :    // 0 - No default defined.
; 1672 :    if ( zstrcmpi( sz, "ENU" ) == 0 )

	push	OFFSET $SG98365
	lea	edx, DWORD PTR _sz$[ebp]
	push	edx
	call	DWORD PTR __imp___stricmp
	add	esp, 8
	test	eax, eax
	jne	SHORT $LN3@SysCreateI

; 1673 :       lpInternational->nLanguage = 1;

	mov	eax, 1
	mov	ecx, DWORD PTR _lpInternational$[ebp]
	mov	WORD PTR [ecx+70], ax
	jmp	$LN4@SysCreateI
$LN3@SysCreateI:

; 1674 :    else
; 1675 :    if ( zstrcmpi( sz, "DEU" ) == 0 )

	push	OFFSET $SG98368
	lea	edx, DWORD PTR _sz$[ebp]
	push	edx
	call	DWORD PTR __imp___stricmp
	add	esp, 8
	test	eax, eax
	jne	SHORT $LN5@SysCreateI

; 1676 :       lpInternational->nLanguage = 49;

	mov	eax, 49					; 00000031H
	mov	ecx, DWORD PTR _lpInternational$[ebp]
	mov	WORD PTR [ecx+70], ax
	jmp	$LN4@SysCreateI
$LN5@SysCreateI:

; 1677 :    else
; 1678 :    if ( zstrcmpi( sz, "FRC" ) == 0 )

	push	OFFSET $SG98371
	lea	edx, DWORD PTR _sz$[ebp]
	push	edx
	call	DWORD PTR __imp___stricmp
	add	esp, 8
	test	eax, eax
	jne	SHORT $LN7@SysCreateI

; 1679 :       lpInternational->nLanguage = 2;

	mov	eax, 2
	mov	ecx, DWORD PTR _lpInternational$[ebp]
	mov	WORD PTR [ecx+70], ax
	jmp	SHORT $LN4@SysCreateI
$LN7@SysCreateI:

; 1680 :    else
; 1681 :    if ( zstrcmpi( sz, "POR" ) == 0 ) // Portuguese 351

	push	OFFSET $SG98374
	lea	edx, DWORD PTR _sz$[ebp]
	push	edx
	call	DWORD PTR __imp___stricmp
	add	esp, 8
	test	eax, eax
	jne	SHORT $LN9@SysCreateI

; 1682 :       lpInternational->nLanguage = 351;

	mov	eax, 351				; 0000015fH
	mov	ecx, DWORD PTR _lpInternational$[ebp]
	mov	WORD PTR [ecx+70], ax
	jmp	SHORT $LN4@SysCreateI
$LN9@SysCreateI:

; 1683 :    else
; 1684 :    if ( zstrcmpi( sz, "SPA" ) == 0 ) // Spanish 34

	push	OFFSET $SG98377
	lea	edx, DWORD PTR _sz$[ebp]
	push	edx
	call	DWORD PTR __imp___stricmp
	add	esp, 8
	test	eax, eax
	jne	SHORT $LN11@SysCreateI

; 1685 :       lpInternational->nLanguage = 34;

	mov	eax, 34					; 00000022H
	mov	ecx, DWORD PTR _lpInternational$[ebp]
	mov	WORD PTR [ecx+70], ax
	jmp	SHORT $LN4@SysCreateI
$LN11@SysCreateI:

; 1686 :    else
; 1687 :       lpInternational->nLanguage = 1; // lpInternational->nLanguage = 0;

	mov	edx, 1
	mov	eax, DWORD PTR _lpInternational$[ebp]
	mov	WORD PTR [eax+70], dx
$LN4@SysCreateI:

; 1688 : 
; 1689 :    // List separator, default comma
; 1690 :    GetProfileString( szlINTL, szlSLIST, ",", sz, sizeof( sz ) - 1 );

	push	511					; 000001ffH
	lea	ecx, DWORD PTR _sz$[ebp]
	push	ecx
	push	OFFSET $SG98378
	mov	edx, DWORD PTR _szlSLIST
	push	edx
	mov	eax, DWORD PTR _szlINTL
	push	eax
	call	DWORD PTR __imp__GetProfileStringA@20

; 1691 : 
; 1692 :    zstrcpy( lpInternational->szList, sz );

	lea	ecx, DWORD PTR _sz$[ebp]
	push	ecx
	mov	edx, DWORD PTR _lpInternational$[ebp]
	add	edx, 72					; 00000048H
	push	edx
	call	_strcpy
	add	esp, 8

; 1693 : 
; 1694 :    // Measurement system, default English
; 1695 :    // Time format, default 12 hour
; 1696 :    // Time Separator, default ":"
; 1697 :    lpInternational->nMeasure = GetProfileInt( szlINTL, szlIMEASURE, 1 );

	push	1
	mov	eax, DWORD PTR _szlIMEASURE
	push	eax
	mov	ecx, DWORD PTR _szlINTL
	push	ecx
	call	DWORD PTR __imp__GetProfileIntA@12
	mov	edx, DWORD PTR _lpInternational$[ebp]
	mov	WORD PTR [edx+77], ax

; 1698 :    lpInternational->nTime = GetProfileInt( szlINTL, szlITIME, 0 );

	push	0
	mov	eax, DWORD PTR _szlITIME
	push	eax
	mov	ecx, DWORD PTR _szlINTL
	push	ecx
	call	DWORD PTR __imp__GetProfileIntA@12
	mov	edx, DWORD PTR _lpInternational$[ebp]
	mov	WORD PTR [edx+79], ax

; 1699 :    GetProfileString( szlINTL, szlSTIME, ":", sz, sizeof( sz ) - 1 );

	push	511					; 000001ffH
	lea	eax, DWORD PTR _sz$[ebp]
	push	eax
	push	OFFSET $SG98379
	mov	ecx, DWORD PTR _szlSTIME
	push	ecx
	mov	edx, DWORD PTR _szlINTL
	push	edx
	call	DWORD PTR __imp__GetProfileStringA@20

; 1700 : 
; 1701 :    zstrcpy( lpInternational->szTime, sz );

	lea	eax, DWORD PTR _sz$[ebp]
	push	eax
	mov	ecx, DWORD PTR _lpInternational$[ebp]
	add	ecx, 81					; 00000051H
	push	ecx
	call	_strcpy
	add	esp, 8

; 1702 : 
; 1703 :    // Trailing string for AM, default "AM"
; 1704 :    GetProfileString( szlINTL, szlS1159, "AM", sz, sizeof( sz ) - 1 );

	push	511					; 000001ffH
	lea	edx, DWORD PTR _sz$[ebp]
	push	edx
	push	OFFSET $SG98380
	mov	eax, DWORD PTR _szlS1159
	push	eax
	mov	ecx, DWORD PTR _szlINTL
	push	ecx
	call	DWORD PTR __imp__GetProfileStringA@20

; 1705 : 
; 1706 :    zstrcpy( lpInternational->sz1159, sz );

	lea	edx, DWORD PTR _sz$[ebp]
	push	edx
	mov	eax, DWORD PTR _lpInternational$[ebp]
	add	eax, 86					; 00000056H
	push	eax
	call	_strcpy
	add	esp, 8

; 1707 : 
; 1708 :    // Trailing string for PM, default "PM"
; 1709 :    GetProfileString( szlINTL, szlS2359, "PM", sz, sizeof( sz ) - 1 );

	push	511					; 000001ffH
	lea	ecx, DWORD PTR _sz$[ebp]
	push	ecx
	push	OFFSET $SG98381
	mov	edx, DWORD PTR _szlS2359
	push	edx
	mov	eax, DWORD PTR _szlINTL
	push	eax
	call	DWORD PTR __imp__GetProfileStringA@20

; 1710 : 
; 1711 :    zstrcpy( lpInternational->sz2359, sz );

	lea	ecx, DWORD PTR _sz$[ebp]
	push	ecx
	mov	edx, DWORD PTR _lpInternational$[ebp]
	add	edx, 91					; 0000005bH
	push	edx
	call	_strcpy
	add	esp, 8

; 1712 : 
; 1713 :    // Time leading zeros for hours, default yes
; 1714 :    // Picture for short date, default "mm/dd/yy"
; 1715 :    lpInternational->nTLZero = GetProfileInt( szlINTL, szlITLZERO, 1 );

	push	1
	mov	eax, DWORD PTR _szlITLZERO
	push	eax
	mov	ecx, DWORD PTR _szlINTL
	push	ecx
	call	DWORD PTR __imp__GetProfileIntA@12
	mov	edx, DWORD PTR _lpInternational$[ebp]
	mov	WORD PTR [edx+96], ax

; 1716 :    GetProfileString( szlINTL, szlSSHORTDATE, "mm/dd/yy",

	push	511					; 000001ffH
	lea	eax, DWORD PTR _sz$[ebp]
	push	eax
	push	OFFSET $SG98382
	mov	ecx, DWORD PTR _szlSSHORTDATE
	push	ecx
	mov	edx, DWORD PTR _szlINTL
	push	edx
	call	DWORD PTR __imp__GetProfileStringA@20

; 1717 :                      sz, sizeof( sz ) - 1 );
; 1718 : 
; 1719 :    fnConvertToZeidonFormat( sz );

	lea	eax, DWORD PTR _sz$[ebp]
	push	eax
	call	_fnConvertToZeidonFormat
	add	esp, 4

; 1720 :    lpInternational->hShortDate =

	lea	ecx, DWORD PTR _sz$[ebp]
	push	ecx
	mov	edx, DWORD PTR _AnchorBlock
	mov	eax, DWORD PTR [edx+114]
	push	eax
	call	_fnStoreStringInDataspace
	add	esp, 8
	mov	ecx, DWORD PTR _lpInternational$[ebp]
	mov	DWORD PTR [ecx+98], eax

; 1721 :       fnStoreStringInDataspace( AnchorBlock->hMainFirstDataHeader, sz );
; 1722 : 
; 1723 :    // Picture for long date, default "mmm dd, yyyy"
; 1724 :    GetProfileString( szlINTL, szlSLONGDATE, "mmm dd, yyyy",

	push	511					; 000001ffH
	lea	edx, DWORD PTR _sz$[ebp]
	push	edx
	push	OFFSET $SG98383
	mov	eax, DWORD PTR _szlSLONGDATE
	push	eax
	mov	ecx, DWORD PTR _szlINTL
	push	ecx
	call	DWORD PTR __imp__GetProfileStringA@20

; 1725 :                      sz, sizeof( sz ) - 1 );
; 1726 : 
; 1727 :    fnConvertToZeidonFormat( sz );

	lea	edx, DWORD PTR _sz$[ebp]
	push	edx
	call	_fnConvertToZeidonFormat
	add	esp, 4

; 1728 :    lpInternational->hLongDate =

	lea	eax, DWORD PTR _sz$[ebp]
	push	eax
	mov	ecx, DWORD PTR _AnchorBlock
	mov	edx, DWORD PTR [ecx+114]
	push	edx
	call	_fnStoreStringInDataspace
	add	esp, 8
	mov	ecx, DWORD PTR _lpInternational$[ebp]
	mov	DWORD PTR [ecx+102], eax

; 1729 :       fnStoreStringInDataspace( AnchorBlock->hMainFirstDataHeader, sz );
; 1730 : 
; 1731 :    // Currency symbol, default "$"
; 1732 :    GetProfileString( szlINTL, szlSCURRENCY, "$", sz, sizeof( sz ) - 1 );

	push	511					; 000001ffH
	lea	edx, DWORD PTR _sz$[ebp]
	push	edx
	push	OFFSET $SG98384
	mov	eax, DWORD PTR _szlSCURRENCY
	push	eax
	mov	ecx, DWORD PTR _szlINTL
	push	ecx
	call	DWORD PTR __imp__GetProfileStringA@20

; 1733 : 
; 1734 :    zstrcpy( lpInternational->szCurrency, sz );

	lea	edx, DWORD PTR _sz$[ebp]
	push	edx
	mov	eax, DWORD PTR _lpInternational$[ebp]
	add	eax, 110				; 0000006eH
	push	eax
	call	_strcpy
	add	esp, 8

; 1735 : 
; 1736 :    // Current code format, default 0
; 1737 :    //
; 1738 :    // 0 - Currency symbol prefix with no separation ( $1 )
; 1739 :    // 1 - Currency symbol suffix with no separation ( 1$ )
; 1740 :    // 2 - Currency symbol prefix with one character separation ( $ 1 )
; 1741 :    // 3 - Currency symbol suffix with one character separation ( 1 $ )
; 1742 :    //
; 1743 : 
; 1744 :    // Number of digits used for the fractional part of a currency amount,
; 1745 :    // default 2.
; 1746 : 
; 1747 :    // Negative currency format code default 0
; 1748 :    //
; 1749 :    // 0  ($1)
; 1750 :    // 1  -$1
; 1751 :    // 2  $-1
; 1752 :    // 3  $1-
; 1753 :    // 4  (1$)
; 1754 :    // 5  -1$
; 1755 :    // 6  1-$
; 1756 :    // 7  1$-
; 1757 :    // 8  -1 $
; 1758 :    // 9  -$ 1
; 1759 :    // 10 $ 1-
; 1760 :    //
; 1761 : 
; 1762 :    // Symbol used to separate thousands in numbers with more than 3 digits,
; 1763 :    // default ","
; 1764 :    lpInternational->nCurrency = GetProfileInt( szlINTL, szlICURRENCY, 0 );

	push	0
	mov	ecx, DWORD PTR _szlICURRENCY
	push	ecx
	mov	edx, DWORD PTR _szlINTL
	push	edx
	call	DWORD PTR __imp__GetProfileIntA@12
	mov	ecx, DWORD PTR _lpInternational$[ebp]
	mov	WORD PTR [ecx+120], ax

; 1765 :    lpInternational->nCurrDigits = GetProfileInt( szlINTL, szlICURRDIGITS, 2 );

	push	2
	mov	edx, DWORD PTR _szlICURRDIGITS
	push	edx
	mov	eax, DWORD PTR _szlINTL
	push	eax
	call	DWORD PTR __imp__GetProfileIntA@12
	mov	ecx, DWORD PTR _lpInternational$[ebp]
	mov	WORD PTR [ecx+122], ax

; 1766 :    lpInternational->nNegCurr = GetProfileInt( szlINTL, szlINEGCURR, 0 );

	push	0
	mov	edx, DWORD PTR _szlINEGCURR
	push	edx
	mov	eax, DWORD PTR _szlINTL
	push	eax
	call	DWORD PTR __imp__GetProfileIntA@12
	mov	ecx, DWORD PTR _lpInternational$[ebp]
	mov	WORD PTR [ecx+124], ax

; 1767 :    GetProfileString( szlINTL, szlSTHOUSAND, ",", sz, sizeof( sz ) - 1 );

	push	511					; 000001ffH
	lea	edx, DWORD PTR _sz$[ebp]
	push	edx
	push	OFFSET $SG98385
	mov	eax, DWORD PTR _szlSTHOUSAND
	push	eax
	mov	ecx, DWORD PTR _szlINTL
	push	ecx
	call	DWORD PTR __imp__GetProfileStringA@20

; 1768 : 
; 1769 :    zstrcpy( lpInternational->szThousand, sz );

	lea	edx, DWORD PTR _sz$[ebp]
	push	edx
	mov	eax, DWORD PTR _lpInternational$[ebp]
	add	eax, 126				; 0000007eH
	push	eax
	call	_strcpy
	add	esp, 8

; 1770 : 
; 1771 :    // Symbol used to separate the integer part from the fractional part
; 1772 :    // of a number, default "."
; 1773 :    GetProfileString( szlINTL, szlSDECIMAL, ".", sz, sizeof( sz ) - 1 );

	push	511					; 000001ffH
	lea	ecx, DWORD PTR _sz$[ebp]
	push	ecx
	push	OFFSET $SG98386
	mov	edx, DWORD PTR _szlSDECIMAL
	push	edx
	mov	eax, DWORD PTR _szlINTL
	push	eax
	call	DWORD PTR __imp__GetProfileStringA@20

; 1774 : 
; 1775 :    zstrcpy( lpInternational->szDecimal, sz );

	lea	ecx, DWORD PTR _sz$[ebp]
	push	ecx
	mov	edx, DWORD PTR _lpInternational$[ebp]
	add	edx, 131				; 00000083H
	push	edx
	call	_strcpy
	add	esp, 8

; 1776 : 
; 1777 :    // Value defining the number of decimal digits that should be used in a
; 1778 :    // number, default 2
; 1779 : 
; 1780 :    // Value specifying whether a decimal value less than 1.0 (and greater
; 1781 :    // than -1.0) should contain a leading zero, as follows:
; 1782 :    //
; 1783 :    //  0    Do not use a leading zero (.7)
; 1784 :    //  1    Use a leading zero (0.7)
; 1785 :    //
; 1786 :    // Default is 1.
; 1787 :    lpInternational->nDigits = GetProfileInt( szlINTL, szlIDIGITS, 2 );

	push	2
	mov	eax, DWORD PTR _szlIDIGITS
	push	eax
	mov	ecx, DWORD PTR _szlINTL
	push	ecx
	call	DWORD PTR __imp__GetProfileIntA@12
	mov	edx, DWORD PTR _lpInternational$[ebp]
	mov	WORD PTR [edx+136], ax

; 1788 :    lpInternational->nLZero = GetProfileInt( szlINTL, szlILZERO, 1 );

	push	1
	mov	eax, DWORD PTR _szlILZERO
	push	eax
	mov	ecx, DWORD PTR _szlINTL
	push	ecx
	call	DWORD PTR __imp__GetProfileIntA@12
	mov	edx, DWORD PTR _lpInternational$[ebp]
	mov	WORD PTR [edx+138], ax

; 1789 : 
; 1790 :    // construct zeidon intl time format from the other indicators
; 1791 :    if ( lpInternational->nTLZero )

	mov	eax, DWORD PTR _lpInternational$[ebp]
	movsx	ecx, WORD PTR [eax+96]
	test	ecx, ecx
	je	SHORT $LN13@SysCreateI

; 1792 :       zstrcpy( sz, "HH" );

	push	OFFSET $SG98389
	lea	edx, DWORD PTR _sz$[ebp]
	push	edx
	call	_strcpy
	add	esp, 8
	jmp	SHORT $LN14@SysCreateI
$LN13@SysCreateI:

; 1793 :    else
; 1794 :       zstrcpy( sz, "H" );

	push	OFFSET $SG98390
	lea	eax, DWORD PTR _sz$[ebp]
	push	eax
	call	_strcpy
	add	esp, 8
$LN14@SysCreateI:

; 1795 : 
; 1796 :    zstrcat( sz, "\"" );

	push	OFFSET $SG98391
	lea	ecx, DWORD PTR _sz$[ebp]
	push	ecx
	call	_strcat
	add	esp, 8

; 1797 :    zstrcat( sz, lpInternational->szTime );

	mov	edx, DWORD PTR _lpInternational$[ebp]
	add	edx, 81					; 00000051H
	push	edx
	lea	eax, DWORD PTR _sz$[ebp]
	push	eax
	call	_strcat
	add	esp, 8

; 1798 :    zstrcat( sz, "\"" );

	push	OFFSET $SG98392
	lea	ecx, DWORD PTR _sz$[ebp]
	push	ecx
	call	_strcat
	add	esp, 8

; 1799 :    zstrcat( sz, "MI" );

	push	OFFSET $SG98393
	lea	edx, DWORD PTR _sz$[ebp]
	push	edx
	call	_strcat
	add	esp, 8

; 1800 :    if ( lpInternational->nTime == 0 )

	mov	eax, DWORD PTR _lpInternational$[ebp]
	movsx	ecx, WORD PTR [eax+79]
	test	ecx, ecx
	jne	SHORT $LN15@SysCreateI

; 1801 :       zstrcat( sz, " AM" );

	push	OFFSET $SG98395
	lea	edx, DWORD PTR _sz$[ebp]
	push	edx
	call	_strcat
	add	esp, 8
$LN15@SysCreateI:

; 1802 : 
; 1803 :    lpInternational->hTimeFmt =

	lea	eax, DWORD PTR _sz$[ebp]
	push	eax
	mov	ecx, DWORD PTR _AnchorBlock
	mov	edx, DWORD PTR [ecx+114]
	push	edx
	call	_fnStoreStringInDataspace
	add	esp, 8
	mov	ecx, DWORD PTR _lpInternational$[ebp]
	mov	DWORD PTR [ecx+106], eax

; 1804 :       fnStoreStringInDataspace( AnchorBlock->hMainFirstDataHeader, sz );
; 1805 : 
; 1806 :    return( hInternational );

	mov	eax, DWORD PTR _hInternational$[ebp]
$LN1@SysCreateI:

; 1807 : }

	mov	ecx, DWORD PTR __$ArrayPad$[ebp]
	xor	ecx, ebp
	call	@__security_check_cookie@4
	mov	esp, ebp
	pop	ebp
	ret	0
_SysCreateInternational@0 ENDP
_TEXT	ENDS
; Function compile flags: /Odtp
; File c:\10c\w\oe\kzoesyaa.c
_TEXT	SEGMENT
_SfListTasks PROC

; 7793 : {

	push	ebp
	mov	ebp, esp

; 7794 :    PostMessage( (HWND) AnchorBlock->lOE_hMainWnd,

	push	10000					; 00002710H
	push	112					; 00000070H
	push	273					; 00000111H
	mov	eax, DWORD PTR _AnchorBlock
	mov	ecx, DWORD PTR [eax+94]
	push	ecx
	call	DWORD PTR __imp__PostMessageA@16

; 7795 :                 WM_COMMAND, (WPARAM) IDM_LISTTASKS, (LPARAM) 10000L );
; 7796 : }

	pop	ebp
	ret	0
_SfListTasks ENDP
_TEXT	ENDS
; Function compile flags: /Odtp
; File c:\10c\w\oe\kzoesyaa.c
_TEXT	SEGMENT
_Startup$1 = -3184					; size = 68
_PInfo$2 = -3116					; size = 16
_l$3 = -3100						; size = 4
_ulBytes$4 = -3096					; size = 4
_hServicesStarted$5 = -3092				; size = 4
$T6 = -3088						; size = 4
$T7 = -3084						; size = 4
_hFile$8 = -3080					; size = 4
_pchOS_Name$ = -3076					; size = 4
tv252 = -3072						; size = 4
_k$9 = -3068						; size = 4
_pchPtr$10 = -3064					; size = 4
_szLine$11 = -3060					; size = 1000
_szTemp$ = -2060					; size = 513
_szMessage$12 = -1544					; size = 256
_szMessage$13 = -1288					; size = 256
_szMessage$14 = -1032					; size = 256
_szMessage$15 = -776					; size = 256
_szProgramName$ = -520					; size = 513
__$ArrayPad$ = -4					; size = 4
_lAppOE_Msg$ = 8					; size = 4
_hWndAppOE$ = 12					; size = 4
_SysStartObjectServices PROC

; 3719 : {

	push	ebp
	mov	ebp, esp
	sub	esp, 3184				; 00000c70H
	mov	eax, DWORD PTR ___security_cookie
	xor	eax, ebp
	mov	DWORD PTR __$ArrayPad$[ebp], eax

; 3720 :    char szProgramName[ zMAX_FILESPEC_LTH + 1 ];  // prevent overflow in
; 3721 :    char szTemp[ zMAX_FILESPEC_LTH + 1 ];         // fnConvertEnvironnentString
; 3722 :    zPCHAR pchOS_Name;
; 3723 : 
; 3724 :    // Validate that environment variable ZEIDON set
; 3725 :    SysGetEnvVar( szProgramName, szlZEIDON, sizeof( szProgramName ) - 1 );

	push	512					; 00000200H
	mov	eax, DWORD PTR _szlZEIDON
	push	eax
	lea	ecx, DWORD PTR _szProgramName$[ebp]
	push	ecx
	call	_SysGetEnvVar@12

; 3726 :    if ( szProgramName[ 0 ] == 0 )

	mov	edx, 1
	imul	eax, edx, 0
	movsx	ecx, BYTE PTR _szProgramName$[ebp+eax]
	test	ecx, ecx
	jne	SHORT $LN8@SysStartOb

; 3727 :    {
; 3728 :       char szMessage[ 256 ];
; 3729 : 
; 3730 :       // {2,"KZOEE002 - ZEIDON environment variable not set"},
; 3731 :       SysGetBaseMessage( szMessage, KZOEE002, 255 );

	push	255					; 000000ffH
	push	2
	lea	edx, DWORD PTR _szMessage$13[ebp]
	push	edx
	call	_SysGetBaseMessage@12

; 3732 :       SysMessageBox( 0, szlOE_SystemError, szMessage, -1 );

	push	-1
	lea	eax, DWORD PTR _szMessage$13[ebp]
	push	eax
	mov	ecx, DWORD PTR _szlOE_SystemError
	push	ecx
	push	0
	call	_SysMessageBox@16

; 3733 :       return( -1 );

	or	eax, -1
	jmp	$LN24@SysStartOb
$LN8@SysStartOb:

; 3734 :    }
; 3735 : 
; 3736 :    // Let's see if the anchor block is already initialized.  If it is then
; 3737 :    // some other process has created shared memory and named it.  Look for it.
; 3738 :    if ( g_hAnchorBlock == 0 && fnGetAnchorBlock( lAppOE_Msg, hWndAppOE ) == -1 )

	cmp	DWORD PTR _g_hAnchorBlock, 0
	jne	SHORT $LN9@SysStartOb
	mov	edx, DWORD PTR _hWndAppOE$[ebp]
	push	edx
	mov	eax, DWORD PTR _lAppOE_Msg$[ebp]
	push	eax
	call	_fnGetAnchorBlock@8
	movsx	ecx, ax
	cmp	ecx, -1
	jne	SHORT $LN9@SysStartOb

; 3739 :       return( -1 );

	or	eax, -1
	jmp	$LN24@SysStartOb
$LN9@SysStartOb:

; 3740 : 
; 3741 :    // Build qualified program name.
; 3742 :    // The ZEIDON environment variable must point to a directory
; 3743 :    // containing the ZEIDON.APP file.  From there we retrieve the
; 3744 :    // name of the Zeidon executable directory.
; 3745 :    if ( AnchorBlock == 0 && g_bServerMode == FALSE )

	cmp	DWORD PTR _AnchorBlock, 0
	jne	$LN10@SysStartOb
	movzx	edx, BYTE PTR _g_bServerMode
	test	edx, edx
	jne	$LN10@SysStartOb

; 3746 :    {
; 3747 :       zLONG               hFile;
; 3748 :       zCHAR               szLine[ 1000 ];
; 3749 :       zPCHAR              pchPtr;
; 3750 :       int                 k;
; 3751 :       HANDLE              hServicesStarted;
; 3752 :       STARTUPINFO         Startup;
; 3753 :       PROCESS_INFORMATION PInfo;
; 3754 : 
; 3755 :       // See if we can open the zeidon applications file.
; 3756 :       SysAppendcDirSep( szProgramName );

	lea	eax, DWORD PTR _szProgramName$[ebp]
	push	eax
	call	_SysAppendcDirSep@4

; 3757 :       zstrcat( szProgramName, szlAppFile );

	mov	ecx, DWORD PTR _szlAppFile
