; Listing generated by Microsoft (R) Optimizing Compiler Version 19.00.24213.1 

	TITLE	c:\10c\A\oe\KZOEATAA.C
	.686P
	.XMM
	include listing.inc
	.model	flat

INCLUDELIB MSVCRTD
INCLUDELIB OLDNAMES

_BSS	SEGMENT
?pfnInterp@?1??DfExecuteXPG@@9@9 DD 01H DUP (?)		; `DfExecuteXPG'::`2'::pfnInterp
$SG15574 DB	01H DUP (?)
	ALIGN	4

$SG16657 DB	01H DUP (?)
	ALIGN	4

$SG17274 DB	01H DUP (?)
_BSS	ENDS
_DATA	SEGMENT
$SG16607 DB	'DerivedFunction', 00H
$SG16609 DB	'ZeidonVML', 00H
	ORG $+2
$SG16612 DB	'Zeidon_Tools', 00H
	ORG $+3
$SG16613 DB	'ZeidonVML', 00H
	ORG $+2
$SG16614 DB	'StackObject', 00H
$SG16617 DB	'LastXPG', 00H
$SG16620 DB	'MetaName', 00H
	ORG $+3
$SG16621 DB	'VML_XSource', 00H
$SG16623 DB	'TZVSPOOO', 00H
	ORG $+3
$SG16625 DB	'Error reading OI from buffer', 00H
	ORG $+3
$SG16626 DB	'Internal Core Error', 00H
$SG16627 DB	'LastXPG', 00H
$SG16628 DB	'XPG', 00H
$SG16629 DB	'TZVSRTOO', 00H
	ORG $+3
$SG16630 DB	'StackObject', 00H
$SG16631 DB	'OperationCall', 00H
	ORG $+2
$SG16632 DB	'Name', 00H
	ORG $+3
$SG16633 DB	'OperationCall', 00H
	ORG $+2
$SG16634 DB	'Variable', 00H
	ORG $+3
$SG16635 DB	'ID', 00H
	ORG $+1
$SG16636 DB	'Variable', 00H
	ORG $+3
$SG16637 DB	'vSubtask', 00H
	ORG $+3
$SG16638 DB	'Name', 00H
	ORG $+3
$SG16639 DB	'Variable', 00H
	ORG $+3
$SG16640 DB	'Variable', 00H
	ORG $+3
$SG16641 DB	'ID', 00H
	ORG $+1
$SG16642 DB	'Variable', 00H
	ORG $+3
$SG16643 DB	'vView', 00H
	ORG $+2
$SG16644 DB	'Name', 00H
	ORG $+3
$SG16645 DB	'Variable', 00H
	ORG $+3
$SG16646 DB	'Value', 00H
	ORG $+2
$SG16647 DB	'Variable', 00H
	ORG $+3
$SG16648 DB	'StackObject', 00H
$SG16650 DB	'TZVMLOPR', 00H
	ORG $+3
$SG16653 DB	'Could not locate TZVMLOPR.DLL', 00H
	ORG $+2
$SG16654 DB	'Zeidon Interpretor Error', 00H
	ORG $+3
$SG16655 DB	'InvokeInterp', 00H
	ORG $+3
$SG16660 DB	'StackObject', 00H
$SG16719 DB	'DfExprVML', 00H
	ORG $+2
$SG16720 DB	'DfExprVML', 00H
	ORG $+2
$SG16721 DB	'DfExprVML', 00H
	ORG $+2
$SG16723 DB	'*xpg*', 00H
	ORG $+2
$SG16724 DB	'*xpg*', 00H
	ORG $+2
$SG16725 DB	'*xpg*', 00H
	ORG $+2
$SG17763 DB	'TZDMD101', 00H
	ORG $+3
$SG17761 DB	'Operation ''%s'' does not handle an Entry Type of %ld fo'
	DB	'r domain ''%s''', 00H
$SG17762 DB	'System Error', 00H
	ORG $+3
$SG15822 DB	'(at) Couldn''t read entire file.  Lth = ', 00H
$SG17918 DB	'Type: ', 00H
	ORG $+1
$SG17919 DB	', Domain: ', 00H
	ORG $+1
$SG17920 DB	', ', 00H
	ORG $+1
$SG16896 DB	'Entity Update not allowed', 00H
	ORG $+2
$SG17925 DB	'/', 00H
	ORG $+2
$SG17926 DB	'/', 00H
	ORG $+2
$SG17935 DB	'Operation ''%s'' does not handle an Entry Type of %ld fo'
	DB	'r domain ''%s''', 00H
$SG17936 DB	'System Error', 00H
	ORG $+3
$SG17937 DB	'TZDMD101', 00H
	ORG $+3
$SG14996 DB	'Binary large object length: %d   exceeds passed length: '
	DB	'%d', 00H
	ORG $+1
$SG16098 DB	' failed.', 00H
	ORG $+3
$SG16099 DB	'(at) in SAFA fnGetAddrForAttribute', 00H
	ORG $+1
$SG15170 DB	', ', 00H
	ORG $+1
$SG15171 DB	', ', 00H
	ORG $+1
$SG17250 DB	'Entity:', 09H, 00H
	ORG $+3
$SG17251 DB	'Attribute:', 09H, 00H
$SG17263 DB	'Type: ', 00H
	ORG $+1
$SG17264 DB	', Domain: ', 00H
	ORG $+1
$SG17265 DB	', ', 00H
	ORG $+1
$SG17271 DB	'.', 00H
	ORG $+2
$SG17272 DB	'.', 00H
	ORG $+2
$SG17273 DB	'.', 00H
	ORG $+2
$SG17275 DB	'Invalid data format.  Your data should be in the format:'
	DB	' ', 00H
	ORG $+2
$SG17276 DB	'361', 00H
$SG17283 DB	'Operation ''%s'' does not handle an Entry Type of %ld fo'
	DB	'r domain ''%s''', 00H
$SG17284 DB	'System Error', 00H
	ORG $+3
$SG17285 DB	'TZDMD101', 00H
	ORG $+3
$SG18328 DB	'Operation ''%s'' does not handle an Entry Type of %ld fo'
	DB	'r domain ''%s''', 00H
$SG18329 DB	'System Error', 00H
	ORG $+3
$SG18330 DB	'TZDMD101', 00H
	ORG $+3
$SG17370 DB	'Operation ''%s'' does not handle an Entry Type of %ld fo'
	DB	'r domain ''%s''', 00H
$SG17371 DB	'System Error', 00H
	ORG $+3
$SG17372 DB	'TZDMD101', 00H
	ORG $+3
$SG18403 DB	'(at) Couldn''t read entire file.  Lth = ', 00H
_DATA	ENDS
PUBLIC	_GetStringFromAttribute@16
PUBLIC	_AttributeUpdated@12
PUBLIC	_GetStringFromAttributeByContext@24
PUBLIC	_GetStructFromEntityAttrs@12
PUBLIC	_SetAttributeFromString@16
PUBLIC	_GetViewFromAttribute@16
PUBLIC	_GetIntegerFromAttribute@16
PUBLIC	_SetAttributeFromInteger@16
PUBLIC	_GetDecimalFromAttribute@16
PUBLIC	_SetAttributeFromDecimal@52
PUBLIC	_GetBlobFromAttribute@20
PUBLIC	_SetAttributeFromBlob@20
PUBLIC	_AddToAttributeFromInteger@16
PUBLIC	_SetAttributeFromAttribute@24
PUBLIC	_SetBlobAttributeFromAttribute@24
PUBLIC	_SetBlobFromEntityAttributes@20
PUBLIC	_SetBlobFromOI@20
PUBLIC	_WriteBlobToFile@16
PUBLIC	_SetBlobFromFile@16
PUBLIC	_SetOI_FromBlob@28
PUBLIC	_SetEntityAttributesFromBlob@20
PUBLIC	_AddToAttributeFromDecimal@52
PUBLIC	_AddToAttributeFromAttribute@24
PUBLIC	_CompareAttributeToAttribute@24
PUBLIC	_CompareAttributeToString@16
PUBLIC	_CompareAttributeToInteger@16
PUBLIC	_CompareAttributeToDecimal@52
PUBLIC	_GetAttributeLength@16
PUBLIC	_GetAttributeDisplayLength@20
PUBLIC	_GetActualAttributeLength@16
PUBLIC	_SetMatchingAttributesByName@20
PUBLIC	_SetAttributeFromVariable@32
PUBLIC	_CompareAttributeToVariable@32
PUBLIC	_GetVariableFromAttribute@36
PUBLIC	_AddToAttributeFromVariable@28
PUBLIC	_GetFirstTableEntryForAttribute@24
PUBLIC	_GetNextTableEntryForAttribute@24
PUBLIC	_SetAttributeValueNext@16
PUBLIC	_SetAttributeValuePrev@16
PUBLIC	_zdSUM@16
PUBLIC	_ziSUM@16
PUBLIC	_GetAddrForAttribute@16
PUBLIC	_StoreValueInRecord@20
PUBLIC	_StoreBytesInRecord@20
PUBLIC	_StoreStringInDerivedAttribute@16
PUBLIC	_StoreValueInDerivedAttribute@20
PUBLIC	_GetValueFromRecord@24
PUBLIC	_StoreStringInRecord@16
PUBLIC	_GetStringFromRecord@20
PUBLIC	_ConvertDecimalToString@52
PUBLIC	_GetAttributeFlags@16
PUBLIC	_fnGetAttribFlagsPtr@8
PUBLIC	_fnSetAttributeFromString
PUBLIC	_fnSetAttributeFromInteger
PUBLIC	_fnAddToAttributeFromInteger
PUBLIC	_fnSetAttributeFromDecimal
PUBLIC	_fnAddToAttributeFromDecimal
PUBLIC	_fnAddToAttributeFromVariable
PUBLIC	_fnValidateAttributeParameters
PUBLIC	_fnGetAttrAddrFromEntityInstance
PUBLIC	_fnStoreValueInEntityInstance
PUBLIC	_fnGetStringFromAttribute
PUBLIC	_fnGetIntegerFromAttribute
PUBLIC	_fnGetDecimalFromAttribute
PUBLIC	_fnGetBlobFromAttribute
PUBLIC	_fnSetAttributeFromBlob
PUBLIC	_fnGetAddrForAttribute
PUBLIC	_fnGetAttributeDisplayLength
PUBLIC	_fnGetAttributeLength
PUBLIC	_fnGetActualAttributeLength
PUBLIC	_fnCreateAttributeRecord
PUBLIC	_fnStoreStringInRecord
PUBLIC	_fnStoreBlobInRecord
PUBLIC	_fnCopyAttributeRecord
PUBLIC	_fnDeleteAttributeRecord
PUBLIC	_fnSetAttributeFromVariable
PUBLIC	_fnGetVariableFromAttribute
PUBLIC	_fnSetAttributeValue
PUBLIC	_fnCompareDateTimeToDateTime
PUBLIC	_fnCompareAttributeToVariable
PUBLIC	_fnAttributeValueNull
PUBLIC	_fnGetTaskDomain
PUBLIC	_fnGetAttribOper
PUBLIC	_fnRecordForEntityAttr
PUBLIC	_fnInvokeDerivedOperation
PUBLIC	_fnSetUpdateIndicator
PUBLIC	_fnGetTextForTableEntry
PUBLIC	___local_stdio_printf_options
PUBLIC	__vsnprintf_l
PUBLIC	__vsprintf_l
PUBLIC	_sprintf
PUBLIC	_fnEntityNameFromCsr@4
PUBLIC	_fnEntityNameFromInstance@4
PUBLIC	_fnGetLongExternalLthForContext
PUBLIC	_SetAttributeFromView@16
PUBLIC	_fnRetrieveAttribName@12
PUBLIC	_DfExprVML@16
PUBLIC	_DfExecuteXPG@16
PUBLIC	_sFormatIn
PUBLIC	_sFormatOut
PUBLIC	_fnCompareAttributeToString
PUBLIC	_fnCompareAttributeToInteger
PUBLIC	_fnCompareAttributeToDecimal
PUBLIC	_fnCompareAttributeToBlob
PUBLIC	_fnCompareAttributeToDateTime
PUBLIC	_fnSetBlobFromFile@16
PUBLIC	_fnWriteBlobToFile@16
EXTRN	___report_rangecheckfailure:PROC
EXTRN	_memcmp:PROC
EXTRN	_memcpy:PROC
EXTRN	_memset:PROC
EXTRN	__imp__strchr:PROC
EXTRN	_strcat:PROC
EXTRN	_strcmp:PROC
EXTRN	_strcpy:PROC
EXTRN	__imp___stricmp:PROC
EXTRN	_strlen:PROC
EXTRN	__imp__strncat:PROC
EXTRN	__imp__strncpy:PROC
EXTRN	__imp__atol:PROC
EXTRN	__imp___ltoa:PROC
EXTRN	_TraceLineI@8:PROC
EXTRN	_TraceLineS@8:PROC
EXTRN	_TraceLine:PROC
EXTRN	_IssueOE_Error@28:PROC
EXTRN	_ActivateEmptyObjectInstance@16:PROC
EXTRN	_ActivateOI_FromFile@20:PROC
EXTRN	_CommitOI_ToFile@12:PROC
EXTRN	_CreateViewFromViewForTask@12:PROC
EXTRN	_GetViewByName@16:PROC
EXTRN	_SetNameForView@16:PROC
EXTRN	_DropView@4:PROC
EXTRN	_CreateEntity@12:PROC
EXTRN	_SetCursorNextEntity@12:PROC
EXTRN	_SetCursorFirstEntity@12:PROC
EXTRN	_UfEditFormatString@8:PROC
EXTRN	_UfFormatString@8:PROC
EXTRN	_MessageSend@24:PROC
EXTRN	_SysAddDecimalToDecimal@12:PROC
EXTRN	_SysAssignDecimalFromDecimal@8:PROC
EXTRN	_SysAssignDecimalFromNull@4:PROC
EXTRN	_SysCompareDecimalToDecimal@8:PROC
EXTRN	_SysConvertDecimalToLong@8:PROC
EXTRN	_SysCompareDecimalToNull@4:PROC
EXTRN	_SysConvertDecimalToString@12:PROC
EXTRN	_SysConvertLongToDecimal@8:PROC
EXTRN	_SysConvertStringToDecimal@8:PROC
EXTRN	_SysSubtractDecimalFromDecimal@12:PROC
EXTRN	_TableEntryIntToExt@20:PROC
EXTRN	_GetContext@12:PROC
EXTRN	_GetDefaultContext@8:PROC
EXTRN	_SysAllocMemory@20:PROC
EXTRN	_SysCloseFile@12:PROC
EXTRN	_SysCreateTempFileName@4:PROC
EXTRN	_SysFree@4:PROC
EXTRN	_SysFreeMemory@4:PROC
EXTRN	_SysGetFileSize@4:PROC
EXTRN	_SysGetLanguageCode@4:PROC
EXTRN	_SysGetProc@8:PROC
EXTRN	_SysGetProcessID@4:PROC
EXTRN	_SysLoadLibrary@8:PROC
EXTRN	_SysMalloc@4:PROC
EXTRN	_SysMessageBox@16:PROC
EXTRN	_SysOpenFile@12:PROC
EXTRN	_SysReadFile@16:PROC
EXTRN	_SysWriteFile@16:PROC
EXTRN	_ActivateViewObject@12:PROC
EXTRN	_SfCreateSubtask@12:PROC
EXTRN	_SfDropSubtask@8:PROC
EXTRN	_UfDateTimeToString@12:PROC
EXTRN	_UfStringToDateTime@8:PROC
EXTRN	_TrueName@8:PROC
EXTRN	_SfLockView@4:PROC
EXTRN	_fnSysLockCoreMutex@4:PROC
EXTRN	_fnSysUnlockCoreMutex@4:PROC
EXTRN	_fnResetCursorForViewChildren:PROC
EXTRN	_fnEstablishCursorForView:PROC
EXTRN	_Table_Handler@36:PROC
EXTRN	_fnDomainProcessingRequired:PROC
EXTRN	_fnGetContext:PROC
EXTRN	_fnCallDomainOper@40:PROC
EXTRN	_fnCallDomainOper2@36:PROC
EXTRN	_fnAllocDataspace:PROC
EXTRN	_fnGetDataspaceLength:PROC
EXTRN	_fnFreeDataspace:PROC
EXTRN	_fnValidateInstanceParameters:PROC
EXTRN	_fnInstanceVersioned:PROC
EXTRN	_fnIssueCoreError:PROC
EXTRN	_fnCreateSubtask:PROC
EXTRN	_fnGetApplicationForSubtask@8:PROC
EXTRN	_fnOperationCall:PROC
EXTRN	_fnOperationReturn:PROC
EXTRN	_fnValidView:PROC
EXTRN	_fnValidViewCsr:PROC
EXTRN	_fnValidViewEntity@16:PROC
EXTRN	_fnValidViewAttrib:PROC
EXTRN	_fnDropView@4:PROC
EXTRN	__imp____stdio_common_vsprintf:PROC
EXTRN	__imp__isalpha:PROC
EXTRN	__imp__isupper:PROC
EXTRN	__imp__isdigit:PROC
EXTRN	__imp__isspace:PROC
EXTRN	__imp__isalnum:PROC
EXTRN	_fnActivateOI_FromBuffer@24:PROC
EXTRN	@__security_check_cookie@4:PROC
EXTRN	__chkstk:PROC
EXTRN	_memset:PROC
EXTRN	_g_pfnGetPtr:DWORD
EXTRN	_g_pfnGetHndl:DWORD
EXTRN	_AnchorBlock:DWORD
EXTRN	_g_ulMaxRecordStringLth:DWORD
EXTRN	_szNullS:DWORD
EXTRN	_lNullInteger:DWORD
EXTRN	_stNullDateTime:FWORD
EXTRN	_szlApplicationLogicError:DWORD
EXTRN	_szGAFANullS:DWORD
EXTRN	___security_cookie:DWORD
_DATA	SEGMENT
COMM	?_OptionsStorage@?1??__local_stdio_printf_options@@9@9:QWORD							; `__local_stdio_printf_options'::`2'::_OptionsStorage
_DATA	ENDS
_BSS	SEGMENT
	ALIGN	4

?dNullDecimal@?1??fnGetAddrForAttribute@@9@9 DB 028H DUP (?) ; `fnGetAddrForAttribute'::`2'::dNullDecimal
_BSS	ENDS
; Function compile flags: /Odtp
; File c:\10c\a\oe\kzoeataa.c
_TEXT	SEGMENT
_lpTask$1 = -20						; size = 4
_pchData$ = -16						; size = 4
_ulLth$ = -12						; size = 4
_hFile$ = -8						; size = 4
_nRC$ = -4						; size = 2
_lpView$ = 8						; size = 4
_lpViewEntityCsr$ = 12					; size = 4
_lpViewAttrib$ = 16					; size = 4
_cpcFileName$ = 20					; size = 4
_fnWriteBlobToFile@16 PROC

; 10741: {

	push	ebp
	mov	ebp, esp
	sub	esp, 20					; 00000014H

; 10742:    zLONG   hFile = -1;

	mov	DWORD PTR _hFile$[ebp], -1

; 10743:    zULONG  ulLth;
; 10744:    zPCHAR  pchData;
; 10745:    zSHORT  nRC;
; 10746: 
; 10747:    fnGetAddrForAttribute( &pchData, lpView, lpViewEntityCsr, 0,

	mov	eax, DWORD PTR _lpViewAttrib$[ebp]
	push	eax
	push	0
	mov	ecx, DWORD PTR _lpViewEntityCsr$[ebp]
	push	ecx
	mov	edx, DWORD PTR _lpView$[ebp]
	push	edx
	lea	eax, DWORD PTR _pchData$[ebp]
	push	eax
	call	_fnGetAddrForAttribute
	add	esp, 20					; 00000014H

; 10748:                           lpViewAttrib );
; 10749: 
; 10750:    fnGetAttributeLength( &ulLth, lpView,

	mov	ecx, DWORD PTR _lpViewAttrib$[ebp]
	push	ecx
	mov	edx, DWORD PTR _lpViewEntityCsr$[ebp]
	mov	eax, DWORD PTR [edx+26]
	push	eax
	call	DWORD PTR _g_pfnGetPtr
	push	eax
	mov	ecx, DWORD PTR _lpView$[ebp]
	push	ecx
	lea	edx, DWORD PTR _ulLth$[ebp]
	push	edx
	call	_fnGetAttributeLength
	add	esp, 16					; 00000010H

; 10751:                          zGETPTR( lpViewEntityCsr->hEntityInstance ),
; 10752:                          lpViewAttrib );
; 10753: 
; 10754:    // If there is no blob data then return -1.
; 10755:    if ( pchData == 0 || ulLth == 0 )

	cmp	DWORD PTR _pchData$[ebp], 0
	je	SHORT $LN3@fnWriteBlo
	cmp	DWORD PTR _ulLth$[ebp], 0
	jne	SHORT $LN2@fnWriteBlo
$LN3@fnWriteBlo:

; 10756:       return( -1 );

	or	eax, -1
	jmp	$LN1@fnWriteBlo
$LN2@fnWriteBlo:

; 10757: 
; 10758:    // Write the blob to a temp file.
; 10759:    hFile = SysOpenFile( lpView, cpcFileName, COREFILE_WRITE );

	push	64					; 00000040H
	mov	eax, DWORD PTR _cpcFileName$[ebp]
	push	eax
	mov	ecx, DWORD PTR _lpView$[ebp]
	push	ecx
	call	_SysOpenFile@12
	mov	DWORD PTR _hFile$[ebp], eax

; 10760:    if ( hFile == -1 )

	cmp	DWORD PTR _hFile$[ebp], -1
	jne	SHORT $LN4@fnWriteBlo

; 10761:    {
; 10762:       LPTASK lpTask = zGETPTR( lpView->hTask );

	mov	edx, DWORD PTR _lpView$[ebp]
	mov	eax, DWORD PTR [edx+14]
	push	eax
	call	DWORD PTR _g_pfnGetPtr
	mov	DWORD PTR _lpTask$1[ebp], eax

; 10763: 
; 10764:       // "KZOEE022 - Error writing file"
; 10765:       fnIssueCoreError( lpTask, lpView, 16, 22, 0, cpcFileName, 0 );

	push	0
	mov	ecx, DWORD PTR _cpcFileName$[ebp]
	push	ecx
	push	0
	push	22					; 00000016H
	push	16					; 00000010H
	mov	edx, DWORD PTR _lpView$[ebp]
	push	edx
	mov	eax, DWORD PTR _lpTask$1[ebp]
	push	eax
	call	_fnIssueCoreError
	add	esp, 28					; 0000001cH

; 10766:       return( zCALL_ERROR );

	mov	eax, -16				; fffffff0H
	jmp	SHORT $LN1@fnWriteBlo
$LN4@fnWriteBlo:

; 10767:    }
; 10768: 
; 10769:    if ( SysWriteFile( lpView, hFile, pchData, ulLth ) != (int) ulLth )

	mov	ecx, DWORD PTR _ulLth$[ebp]
	push	ecx
	mov	edx, DWORD PTR _pchData$[ebp]
	push	edx
	mov	eax, DWORD PTR _hFile$[ebp]
	push	eax
	mov	ecx, DWORD PTR _lpView$[ebp]
	push	ecx
	call	_SysWriteFile@16
	cmp	eax, DWORD PTR _ulLth$[ebp]
	je	SHORT $LN5@fnWriteBlo

; 10770:       nRC = zCALL_ERROR;

	mov	edx, -16				; fffffff0H
	mov	WORD PTR _nRC$[ebp], dx
	jmp	SHORT $LN6@fnWriteBlo
$LN5@fnWriteBlo:

; 10771:    else
; 10772:       nRC = 0;

	xor	eax, eax
	mov	WORD PTR _nRC$[ebp], ax
$LN6@fnWriteBlo:

; 10773: 
; 10774:    SysCloseFile( lpView, hFile, 0 );

	push	0
	mov	ecx, DWORD PTR _hFile$[ebp]
	push	ecx
	mov	edx, DWORD PTR _lpView$[ebp]
	push	edx
	call	_SysCloseFile@12

; 10775:    hFile = -1;

	mov	DWORD PTR _hFile$[ebp], -1

; 10776: 
; 10777:    return( nRC );

	mov	ax, WORD PTR _nRC$[ebp]
$LN1@fnWriteBlo:

; 10778: }

	mov	esp, ebp
	pop	ebp
	ret	16					; 00000010H
_fnWriteBlobToFile@16 ENDP
_TEXT	ENDS
; Function compile flags: /Odtp
; File c:\10c\a\oe\kzoeataa.c
_TEXT	SEGMENT
_lpTask$1 = -20						; size = 4
_hFile$ = -16						; size = 4
_ulLth$ = -12						; size = 4
_pchData$ = -8						; size = 4
_nRC$ = -4						; size = 2
_lpView$ = 8						; size = 4
_lpViewEntityCsr$ = 12					; size = 4
_lpViewAttrib$ = 16					; size = 4
_cpcFileName$ = 20					; size = 4
_fnSetBlobFromFile@16 PROC

; 10616: {

	push	ebp
	mov	ebp, esp
	sub	esp, 20					; 00000014H

; 10617:    zLONG   hFile = -1;

	mov	DWORD PTR _hFile$[ebp], -1

; 10618:    zULONG  ulLth;
; 10619:    zPCHAR  pchData = 0;

	mov	DWORD PTR _pchData$[ebp], 0

; 10620:    zSHORT  nRC = zCALL_ERROR;

	mov	eax, -16				; fffffff0H
	mov	WORD PTR _nRC$[ebp], ax

; 10621: 
; 10622:    hFile = SysOpenFile( lpView, cpcFileName, COREFILE_READ );

	push	128					; 00000080H
	mov	ecx, DWORD PTR _cpcFileName$[ebp]
	push	ecx
	mov	edx, DWORD PTR _lpView$[ebp]
	push	edx
	call	_SysOpenFile@12
	mov	DWORD PTR _hFile$[ebp], eax

; 10623:    if ( hFile == -1 )

	cmp	DWORD PTR _hFile$[ebp], -1
	jne	SHORT $LN2@fnSetBlobF

; 10624:    {
; 10625:       LPTASK lpTask = zGETPTR( lpView->hTask );

	mov	eax, DWORD PTR _lpView$[ebp]
	mov	ecx, DWORD PTR [eax+14]
	push	ecx
	call	DWORD PTR _g_pfnGetPtr
	mov	DWORD PTR _lpTask$1[ebp], eax

; 10626:       // "KZOEE024190 - Error opening file"
; 10627:       fnIssueCoreError( lpTask, lpView, 16, 24, 0, cpcFileName, 0 );

	push	0
	mov	edx, DWORD PTR _cpcFileName$[ebp]
	push	edx
	push	0
	push	24					; 00000018H
	push	16					; 00000010H
	mov	eax, DWORD PTR _lpView$[ebp]
	push	eax
	mov	ecx, DWORD PTR _lpTask$1[ebp]
	push	ecx
	call	_fnIssueCoreError
	add	esp, 28					; 0000001cH

; 10628:       goto EndOfFunction;

	jmp	$EndOfFunction$10
$LN2@fnSetBlobF:

; 10629:    }
; 10630: 
; 10631:    // Get the file length.
; 10632:    ulLth = SysGetFileSize( hFile );

	mov	edx, DWORD PTR _hFile$[ebp]
	push	edx
	call	_SysGetFileSize@4
	mov	DWORD PTR _ulLth$[ebp], eax

; 10633: 
; 10634:    // Now allocate space big enough to hold the entire file plus a null-terminator.
; 10635:    pchData = SysMalloc( ulLth + 1 );

	mov	eax, DWORD PTR _ulLth$[ebp]
	add	eax, 1
	push	eax
	call	_SysMalloc@4
	mov	DWORD PTR _pchData$[ebp], eax

; 10636:    if ( pchData == 0 )

	cmp	DWORD PTR _pchData$[ebp], 0
	jne	SHORT $LN3@fnSetBlobF

; 10637:       goto EndOfFunction;

	jmp	$EndOfFunction$10
$LN3@fnSetBlobF:

; 10638: 
; 10639:    if ( SysReadFile( lpView, hFile, pchData, ulLth ) != ulLth )

	mov	ecx, DWORD PTR _ulLth$[ebp]
	push	ecx
	mov	edx, DWORD PTR _pchData$[ebp]
	push	edx
	mov	eax, DWORD PTR _hFile$[ebp]
	push	eax
	mov	ecx, DWORD PTR _lpView$[ebp]
	push	ecx
	call	_SysReadFile@16
	cmp	eax, DWORD PTR _ulLth$[ebp]
	je	SHORT $LN4@fnSetBlobF

; 10640:    {
; 10641:       TraceLineI( "(at) Couldn't read entire file.  Lth = ", ulLth );

	mov	edx, DWORD PTR _ulLth$[ebp]
	push	edx
	push	OFFSET $SG18403
	call	_TraceLineI@8

; 10642:       goto EndOfFunction;

	jmp	SHORT $EndOfFunction$10
$LN4@fnSetBlobF:

; 10643:    }
; 10644: 
; 10645:    // Last thing to do--set blob attribute.
; 10646:    if ( lpViewAttrib->cType == zTYPE_STRING )

	mov	eax, DWORD PTR _lpViewAttrib$[ebp]
	movsx	ecx, BYTE PTR [eax+202]
	cmp	ecx, 83					; 00000053H
	jne	SHORT $LN5@fnSetBlobF

; 10647:    {
; 10648:       pchData[ ulLth ] = 0;

	mov	edx, DWORD PTR _pchData$[ebp]
	add	edx, DWORD PTR _ulLth$[ebp]
	mov	BYTE PTR [edx], 0

; 10649: 
; 10650:       nRC = fnSetAttributeFromString( lpView, lpViewEntityCsr,

	movzx	eax, WORD PTR _ulLth$[ebp]
	push	eax
	mov	ecx, DWORD PTR _pchData$[ebp]
	push	ecx
	mov	edx, DWORD PTR _lpViewAttrib$[ebp]
	push	edx
	mov	eax, DWORD PTR _lpViewEntityCsr$[ebp]
	push	eax
	mov	ecx, DWORD PTR _lpView$[ebp]
	push	ecx
	call	_fnSetAttributeFromString
	add	esp, 20					; 00000014H
	mov	WORD PTR _nRC$[ebp], ax

; 10651:                                       lpViewAttrib, pchData, (zSHORT) ulLth );
; 10652:    }

	jmp	SHORT $EndOfFunction$10
$LN5@fnSetBlobF:

; 10653:    else
; 10654:    {
; 10655:       nRC = fnSetAttributeFromBlob( lpView, lpViewEntityCsr,

	mov	edx, DWORD PTR _ulLth$[ebp]
	push	edx
	mov	eax, DWORD PTR _pchData$[ebp]
	push	eax
	mov	ecx, DWORD PTR _lpViewAttrib$[ebp]
	push	ecx
	mov	edx, DWORD PTR _lpViewEntityCsr$[ebp]
	push	edx
	mov	eax, DWORD PTR _lpView$[ebp]
	push	eax
	call	_fnSetAttributeFromBlob
	add	esp, 20					; 00000014H
	mov	WORD PTR _nRC$[ebp], ax
$EndOfFunction$10:

; 10656:                                     lpViewAttrib, pchData, ulLth );
; 10657:    }
; 10658: 
; 10659: EndOfFunction:
; 10660: 
; 10661:    if ( pchData )

	cmp	DWORD PTR _pchData$[ebp], 0
	je	SHORT $LN7@fnSetBlobF

; 10662:       SysFree( pchData );

	mov	ecx, DWORD PTR _pchData$[ebp]
	push	ecx
	call	_SysFree@4
$LN7@fnSetBlobF:

; 10663: 
; 10664:    if ( hFile != -1 )

	cmp	DWORD PTR _hFile$[ebp], -1
	je	SHORT $LN8@fnSetBlobF

; 10665:       SysCloseFile( lpView, hFile, 0 );

	push	0
	mov	edx, DWORD PTR _hFile$[ebp]
	push	edx
	mov	eax, DWORD PTR _lpView$[ebp]
	push	eax
	call	_SysCloseFile@12
$LN8@fnSetBlobF:

; 10666: 
; 10667:    return( nRC );

	mov	ax, WORD PTR _nRC$[ebp]

; 10668: }

	mov	esp, ebp
	pop	ebp
	ret	16					; 00000010H
_fnSetBlobFromFile@16 ENDP
_TEXT	ENDS
; Function compile flags: /Odtp
; File c:\10c\a\oe\kzoeataa.c
_TEXT	SEGMENT
_stDT$1 = -60						; size = 6
_lpViewCsr$2 = -52					; size = 4
_lpViewCsr$3 = -48					; size = 4
_lpRecdDateTime$ = -44					; size = 4
_lpExternalP$4 = -40					; size = 4
_lpView$5 = -36						; size = 4
tv148 = -32						; size = 4
_lpView$6 = -28						; size = 4
tv72 = -24						; size = 4
_pchRecord$ = -20					; size = 4
_nRC$ = -16						; size = 2
_stDateTime$ = -12					; size = 6
__$ArrayPad$ = -4					; size = 4
_lpEntityInstance$ = 8					; size = 4
_lpViewEntityCsr$ = 12					; size = 4
_lpViewAttrib$ = 16					; size = 4
_lpDateTime$ = 20					; size = 4
_fnCompareAttributeToDateTime PROC

; 8537 : {

	push	ebp
	mov	ebp, esp
	sub	esp, 60					; 0000003cH
	mov	eax, DWORD PTR ___security_cookie
	xor	eax, ebp
	mov	DWORD PTR __$ArrayPad$[ebp], eax

; 8538 :    zPCHAR         pchRecord;
; 8539 :    DateTimeRecord stDateTime;
; 8540 :    LPDTINTERNAL   lpRecdDateTime;
; 8541 :    zSHORT         nRC;
; 8542 : 
; 8543 :    pchRecord = fnRecordForEntityAttr( lpEntityInstance, lpViewAttrib );

	mov	eax, DWORD PTR _lpViewAttrib$[ebp]
	push	eax
	mov	ecx, DWORD PTR _lpEntityInstance$[ebp]
	push	ecx
	call	_fnRecordForEntityAttr
	add	esp, 8
	mov	DWORD PTR _pchRecord$[ebp], eax

; 8544 : 
; 8545 :    if ( pchRecord )

	cmp	DWORD PTR _pchRecord$[ebp], 0
	je	$LN6@fnCompareA

; 8546 :    {
; 8547 :       pchRecord += lpViewAttrib->ulRecordOffset;

	mov	edx, DWORD PTR _lpViewAttrib$[ebp]
	mov	eax, DWORD PTR _pchRecord$[ebp]
	add	eax, DWORD PTR [edx+250]
	mov	DWORD PTR _pchRecord$[ebp], eax

; 8548 :       switch ( lpViewAttrib->cType )

	mov	ecx, DWORD PTR _lpViewAttrib$[ebp]
	mov	dl, BYTE PTR [ecx+202]
	mov	BYTE PTR tv72[ebp], dl
	cmp	BYTE PTR tv72[ebp], 83			; 00000053H
	je	SHORT $LN8@fnCompareA
	cmp	BYTE PTR tv72[ebp], 84			; 00000054H
	je	SHORT $LN11@fnCompareA
	jmp	SHORT $LN12@fnCompareA
$LN8@fnCompareA:

; 8549 :       {
; 8550 :          case zTYPE_STRING:
; 8551 :             if ( pchRecord[ 0 ] == (zCHAR) '\xff' )

	mov	eax, 1
	imul	ecx, eax, 0
	mov	edx, DWORD PTR _pchRecord$[ebp]
	movsx	eax, BYTE PTR [edx+ecx]
	cmp	eax, -1
	jne	SHORT $LN9@fnCompareA

; 8552 :             {
; 8553 :                zCOREMEM  lpExternalP;
; 8554 : 
; 8555 :                lpExternalP = (zCOREMEM) (pchRecord + 1);

	mov	ecx, DWORD PTR _pchRecord$[ebp]
	add	ecx, 1
	mov	DWORD PTR _lpExternalP$4[ebp], ecx

; 8556 :                pchRecord = zGETPTR( *lpExternalP );

	mov	edx, DWORD PTR _lpExternalP$4[ebp]
	mov	eax, DWORD PTR [edx]
	push	eax
	call	DWORD PTR _g_pfnGetPtr
	mov	DWORD PTR _pchRecord$[ebp], eax
$LN9@fnCompareA:

; 8557 :             }
; 8558 : 
; 8559 :             nRC = UfStringToDateTime( pchRecord,

	lea	ecx, DWORD PTR _stDateTime$[ebp]
	push	ecx
	mov	edx, DWORD PTR _pchRecord$[ebp]
	push	edx
	call	_UfStringToDateTime@8
	mov	WORD PTR _nRC$[ebp], ax

; 8560 :                                       (LPDATETIME) &stDateTime );
; 8561 :             if ( nRC == 0 )

	movsx	eax, WORD PTR _nRC$[ebp]
	test	eax, eax
	jne	SHORT $LN10@fnCompareA

; 8562 :             {
; 8563 :                nRC = fnCompareDateTimeToDateTime( (LPDTINTERNAL) &stDateTime,

	mov	ecx, DWORD PTR _lpDateTime$[ebp]
	push	ecx
	lea	edx, DWORD PTR _stDateTime$[ebp]
	push	edx
	call	_fnCompareDateTimeToDateTime
	add	esp, 8
	mov	WORD PTR _nRC$[ebp], ax
$LN10@fnCompareA:

; 8564 :                                                   (LPDTINTERNAL) lpDateTime );
; 8565 :             }
; 8566 : 
; 8567 :             break;

	jmp	SHORT $LN2@fnCompareA
$LN11@fnCompareA:

; 8568 : 
; 8569 :          case zTYPE_DATETIME:
; 8570 :             lpRecdDateTime = (LPDTINTERNAL) pchRecord;

	mov	eax, DWORD PTR _pchRecord$[ebp]
	mov	DWORD PTR _lpRecdDateTime$[ebp], eax

; 8571 :             nRC = fnCompareDateTimeToDateTime( lpRecdDateTime,

	mov	ecx, DWORD PTR _lpDateTime$[ebp]
	push	ecx
	mov	edx, DWORD PTR _lpRecdDateTime$[ebp]
	push	edx
	call	_fnCompareDateTimeToDateTime
	add	esp, 8
	mov	WORD PTR _nRC$[ebp], ax

; 8572 :                                                (LPDTINTERNAL) lpDateTime );
; 8573 :             break;

	jmp	SHORT $LN2@fnCompareA
$LN12@fnCompareA:

; 8574 : 
; 8575 :          default:
; 8576 :          {
; 8577 :             LPVIEWCSR lpViewCsr = zGETPTR( lpViewEntityCsr->hViewCsr );

	mov	eax, DWORD PTR _lpViewEntityCsr$[ebp]
	mov	ecx, DWORD PTR [eax+18]
	push	ecx
	call	DWORD PTR _g_pfnGetPtr
	mov	DWORD PTR _lpViewCsr$3[ebp], eax

; 8578 :             zVIEW     lpView = zGETPTR( lpViewCsr->hView );

	mov	edx, DWORD PTR _lpViewCsr$3[ebp]
	mov	eax, DWORD PTR [edx+6]
	push	eax
	call	DWORD PTR _g_pfnGetPtr
	mov	DWORD PTR _lpView$6[ebp], eax

; 8579 : 
; 8580 :             // "KZOEE239 - Invalid Operation for attribute type"
; 8581 :             fnIssueCoreError( zGETPTR( lpView->hTask ), lpView, 8, 239, 0,

	mov	ecx, DWORD PTR _lpViewAttrib$[ebp]
	add	ecx, 10					; 0000000aH
	push	ecx
	mov	edx, DWORD PTR _lpViewEntityCsr$[ebp]
	push	edx
	call	_fnEntityNameFromCsr@4
	push	eax
	push	0
	push	239					; 000000efH
	push	8
	mov	eax, DWORD PTR _lpView$6[ebp]
	push	eax
	mov	ecx, DWORD PTR _lpView$6[ebp]
	mov	edx, DWORD PTR [ecx+14]
	push	edx
	call	DWORD PTR _g_pfnGetPtr
	push	eax
	call	_fnIssueCoreError
	add	esp, 28					; 0000001cH

; 8582 :                               fnEntityNameFromCsr( lpViewEntityCsr ),
; 8583 :                               lpViewAttrib->szName );
; 8584 :             nRC = zCALL_ERROR;

	mov	eax, -16				; fffffff0H
	mov	WORD PTR _nRC$[ebp], ax
$LN2@fnCompareA:

; 8585 :          }
; 8586 :       }
; 8587 :    }

	jmp	$LN7@fnCompareA
$LN6@fnCompareA:

; 8588 :    else
; 8589 :    {
; 8590 :       DateTimeInternalRecord stDT;
; 8591 : 
; 8592 :       switch ( lpViewAttrib->cType )

	mov	ecx, DWORD PTR _lpViewAttrib$[ebp]
	mov	dl, BYTE PTR [ecx+202]
	mov	BYTE PTR tv148[ebp], dl
	cmp	BYTE PTR tv148[ebp], 83			; 00000053H
	jl	SHORT $LN14@fnCompareA
	cmp	BYTE PTR tv148[ebp], 84			; 00000054H
	jle	SHORT $LN13@fnCompareA
	jmp	SHORT $LN14@fnCompareA
$LN13@fnCompareA:

; 8593 :       {
; 8594 :          case zTYPE_STRING:
; 8595 :          case zTYPE_DATETIME:
; 8596 :             stDT.ulDateMinutes = lNullInteger;

	mov	eax, DWORD PTR _lNullInteger
	mov	DWORD PTR _stDT$1[ebp], eax

; 8597 :             stDT.usTSeconds = 0;

	xor	ecx, ecx
	mov	WORD PTR _stDT$1[ebp+4], cx

; 8598 :             nRC = fnCompareDateTimeToDateTime( (LPDTINTERNAL) &stDT,

	mov	edx, DWORD PTR _lpDateTime$[ebp]
	push	edx
	lea	eax, DWORD PTR _stDT$1[ebp]
	push	eax
	call	_fnCompareDateTimeToDateTime
	add	esp, 8
	mov	WORD PTR _nRC$[ebp], ax

; 8599 :                                                (LPDTINTERNAL) lpDateTime );
; 8600 :             break;

	jmp	SHORT $LN7@fnCompareA
$LN14@fnCompareA:

; 8601 : 
; 8602 :          default:
; 8603 :          {
; 8604 :             LPVIEWCSR lpViewCsr = zGETPTR( lpViewEntityCsr->hViewCsr );

	mov	ecx, DWORD PTR _lpViewEntityCsr$[ebp]
	mov	edx, DWORD PTR [ecx+18]
	push	edx
	call	DWORD PTR _g_pfnGetPtr
	mov	DWORD PTR _lpViewCsr$2[ebp], eax

; 8605 :             zVIEW     lpView = zGETPTR( lpViewCsr->hView );

	mov	eax, DWORD PTR _lpViewCsr$2[ebp]
	mov	ecx, DWORD PTR [eax+6]
	push	ecx
	call	DWORD PTR _g_pfnGetPtr
	mov	DWORD PTR _lpView$5[ebp], eax

; 8606 : 
; 8607 :             // "KZOEE239 - Invalid Operation for attribute type"
; 8608 :             fnIssueCoreError( zGETPTR( lpView->hTask ), lpView, 8, 239, 0,

	mov	edx, DWORD PTR _lpViewAttrib$[ebp]
	add	edx, 10					; 0000000aH
	push	edx
	mov	eax, DWORD PTR _lpViewEntityCsr$[ebp]
	push	eax
	call	_fnEntityNameFromCsr@4
	push	eax
	push	0
	push	239					; 000000efH
	push	8
	mov	ecx, DWORD PTR _lpView$5[ebp]
	push	ecx
	mov	edx, DWORD PTR _lpView$5[ebp]
	mov	eax, DWORD PTR [edx+14]
	push	eax
	call	DWORD PTR _g_pfnGetPtr
	push	eax
	call	_fnIssueCoreError
	add	esp, 28					; 0000001cH

; 8609 :                               fnEntityNameFromCsr( lpViewEntityCsr ),
; 8610 :                               lpViewAttrib->szName );
; 8611 :             nRC = zCALL_ERROR;

	mov	ecx, -16				; fffffff0H
	mov	WORD PTR _nRC$[ebp], cx
$LN7@fnCompareA:

; 8612 :          }
; 8613 :       }
; 8614 :    }
; 8615 : 
; 8616 :    return( nRC );

	mov	ax, WORD PTR _nRC$[ebp]

; 8617 : }

	mov	ecx, DWORD PTR __$ArrayPad$[ebp]
	xor	ecx, ebp
	call	@__security_check_cookie@4
	mov	esp, ebp
	pop	ebp
	ret	0
_fnCompareAttributeToDateTime ENDP
_TEXT	ENDS
; Function compile flags: /Odtp
; File c:\10c\a\oe\kzoeataa.c
_TEXT	SEGMENT
_lpViewCsr$1 = -44					; size = 4
_lpViewCsr$2 = -40					; size = 4
_lpView$3 = -36						; size = 4
tv148 = -32						; size = 4
_lpView$4 = -28						; size = 4
tv91 = -24						; size = 4
tv83 = -20						; size = 4
_ulAttrBlobLth$ = -16					; size = 4
_lpExternalP$5 = -12					; size = 4
_pchRecord$ = -8					; size = 4
_nRC$ = -4						; size = 2
_lpEntityInstance$ = 8					; size = 4
_lpViewEntityCsr$ = 12					; size = 4
_lpViewAttrib$ = 16					; size = 4
_pchBlobValue$ = 20					; size = 4
_ulBlobLth$ = 24					; size = 4
_fnCompareAttributeToBlob PROC

; 8409 : {

	push	ebp
	mov	ebp, esp
	sub	esp, 44					; 0000002cH

; 8410 :    zPCHAR   pchRecord;
; 8411 :    zULONG   ulAttrBlobLth;
; 8412 :    zSHORT   nRC;
; 8413 : 
; 8414 :    pchRecord = fnRecordForEntityAttr( lpEntityInstance, lpViewAttrib );

	mov	eax, DWORD PTR _lpViewAttrib$[ebp]
	push	eax
	mov	ecx, DWORD PTR _lpEntityInstance$[ebp]
	push	ecx
	call	_fnRecordForEntityAttr
	add	esp, 8
	mov	DWORD PTR _pchRecord$[ebp], eax

; 8415 : 
; 8416 :    if ( pchRecord )

	cmp	DWORD PTR _pchRecord$[ebp], 0
	je	$LN2@fnCompareA

; 8417 :    {
; 8418 :       pchRecord += lpViewAttrib->ulRecordOffset;

	mov	edx, DWORD PTR _lpViewAttrib$[ebp]
	mov	eax, DWORD PTR _pchRecord$[ebp]
	add	eax, DWORD PTR [edx+250]
	mov	DWORD PTR _pchRecord$[ebp], eax

; 8419 :       if ( lpViewAttrib->cType == zTYPE_BLOB )

	mov	ecx, DWORD PTR _lpViewAttrib$[ebp]
	movsx	edx, BYTE PTR [ecx+202]
	cmp	edx, 66					; 00000042H
	jne	$LN4@fnCompareA

; 8420 :       {
; 8421 :          if ( pchRecord[ 0 ] == (zCHAR) '\xff' )

	mov	eax, 1
	imul	ecx, eax, 0
	mov	edx, DWORD PTR _pchRecord$[ebp]
	movsx	eax, BYTE PTR [edx+ecx]
	cmp	eax, -1
	jne	SHORT $LN6@fnCompareA

; 8422 :          {
; 8423 :             zCOREMEM  lpExternalP;
; 8424 : 
; 8425 :             lpExternalP = (zCOREMEM) (pchRecord + 1);

	mov	ecx, DWORD PTR _pchRecord$[ebp]
	add	ecx, 1
	mov	DWORD PTR _lpExternalP$5[ebp], ecx

; 8426 :             ulAttrBlobLth = *((zPULONG) (lpExternalP + 1));

	mov	edx, DWORD PTR _lpExternalP$5[ebp]
	mov	eax, DWORD PTR [edx+4]
	mov	DWORD PTR _ulAttrBlobLth$[ebp], eax

; 8427 :             pchRecord = zGETPTR( *lpExternalP );

	mov	ecx, DWORD PTR _lpExternalP$5[ebp]
	mov	edx, DWORD PTR [ecx]
	push	edx
	call	DWORD PTR _g_pfnGetPtr
	mov	DWORD PTR _pchRecord$[ebp], eax

; 8428 :             if ( ulAttrBlobLth != ulBlobLth )

	mov	eax, DWORD PTR _ulAttrBlobLth$[ebp]
	cmp	eax, DWORD PTR _ulBlobLth$[ebp]
	je	SHORT $LN8@fnCompareA

; 8429 :                nRC = (ulAttrBlobLth < ulBlobLth) ? -1 : 1;

	mov	ecx, DWORD PTR _ulAttrBlobLth$[ebp]
	cmp	ecx, DWORD PTR _ulBlobLth$[ebp]
	jae	SHORT $LN13@fnCompareA
	mov	DWORD PTR tv83[ebp], -1
	jmp	SHORT $LN14@fnCompareA
$LN13@fnCompareA:
	mov	DWORD PTR tv83[ebp], 1
$LN14@fnCompareA:
	mov	dx, WORD PTR tv83[ebp]
	mov	WORD PTR _nRC$[ebp], dx
	jmp	SHORT $LN9@fnCompareA
$LN8@fnCompareA:

; 8430 :             else
; 8431 :                nRC = zmemcmp( pchRecord, pchBlobValue,

	mov	eax, DWORD PTR _ulBlobLth$[ebp]
	push	eax
	mov	ecx, DWORD PTR _pchBlobValue$[ebp]
	push	ecx
	mov	edx, DWORD PTR _pchRecord$[ebp]
	push	edx
	call	_memcmp
	add	esp, 12					; 0000000cH
	mov	WORD PTR _nRC$[ebp], ax
$LN9@fnCompareA:

; 8432 :                               (unsigned int) ulBlobLth );
; 8433 :          }

	jmp	SHORT $LN7@fnCompareA
$LN6@fnCompareA:

; 8434 :          else
; 8435 :          {
; 8436 :             // blob is null
; 8437 :             nRC = ( ulBlobLth == 0 ) ? 0 : -1;

	cmp	DWORD PTR _ulBlobLth$[ebp], 0
	jne	SHORT $LN15@fnCompareA
	mov	DWORD PTR tv91[ebp], 0
	jmp	SHORT $LN16@fnCompareA
$LN15@fnCompareA:
	mov	DWORD PTR tv91[ebp], -1
$LN16@fnCompareA:
	mov	ax, WORD PTR tv91[ebp]
	mov	WORD PTR _nRC$[ebp], ax
$LN7@fnCompareA:

; 8438 :          }
; 8439 :       }

	jmp	SHORT $LN5@fnCompareA
$LN4@fnCompareA:

; 8440 :       else
; 8441 :       {
; 8442 :          LPVIEWCSR lpViewCsr = zGETPTR( lpViewEntityCsr->hViewCsr );

	mov	ecx, DWORD PTR _lpViewEntityCsr$[ebp]
	mov	edx, DWORD PTR [ecx+18]
	push	edx
	call	DWORD PTR _g_pfnGetPtr
	mov	DWORD PTR _lpViewCsr$2[ebp], eax

; 8443 :          zVIEW     lpView = zGETPTR( lpViewCsr->hView );

	mov	eax, DWORD PTR _lpViewCsr$2[ebp]
	mov	ecx, DWORD PTR [eax+6]
	push	ecx
	call	DWORD PTR _g_pfnGetPtr
	mov	DWORD PTR _lpView$4[ebp], eax

; 8444 : 
; 8445 :          // "KZOEE239 - Invalid Operation for attribute type"
; 8446 :          fnIssueCoreError( zGETPTR( lpView->hTask ), lpView, 8, 239, 0,

	mov	edx, DWORD PTR _lpViewAttrib$[ebp]
	add	edx, 10					; 0000000aH
	push	edx
	mov	eax, DWORD PTR _lpViewEntityCsr$[ebp]
	push	eax
	call	_fnEntityNameFromCsr@4
	push	eax
	push	0
	push	239					; 000000efH
	push	8
	mov	ecx, DWORD PTR _lpView$4[ebp]
	push	ecx
	mov	edx, DWORD PTR _lpView$4[ebp]
	mov	eax, DWORD PTR [edx+14]
	push	eax
	call	DWORD PTR _g_pfnGetPtr
	push	eax
	call	_fnIssueCoreError
	add	esp, 28					; 0000001cH

; 8447 :                            fnEntityNameFromCsr( lpViewEntityCsr ),
; 8448 :                            lpViewAttrib->szName );
; 8449 :          nRC = zCALL_ERROR;

	mov	ecx, -16				; fffffff0H
	mov	WORD PTR _nRC$[ebp], cx
$LN5@fnCompareA:

; 8450 :       }
; 8451 :    }

	jmp	$LN3@fnCompareA
$LN2@fnCompareA:

; 8452 :    else
; 8453 :    {
; 8454 :       if ( lpViewAttrib->cType == zTYPE_BLOB )

	mov	edx, DWORD PTR _lpViewAttrib$[ebp]
	movsx	eax, BYTE PTR [edx+202]
	cmp	eax, 66					; 00000042H
	jne	SHORT $LN10@fnCompareA

; 8455 :          nRC = ( ulBlobLth == 0 ) ? 0 : -1;

	cmp	DWORD PTR _ulBlobLth$[ebp], 0
	jne	SHORT $LN17@fnCompareA
	mov	DWORD PTR tv148[ebp], 0
	jmp	SHORT $LN18@fnCompareA
$LN17@fnCompareA:
	mov	DWORD PTR tv148[ebp], -1
$LN18@fnCompareA:
	mov	cx, WORD PTR tv148[ebp]
	mov	WORD PTR _nRC$[ebp], cx
	jmp	SHORT $LN3@fnCompareA
$LN10@fnCompareA:

; 8456 :       else
; 8457 :       {
; 8458 :          LPVIEWCSR lpViewCsr = zGETPTR( lpViewEntityCsr->hViewCsr );

	mov	edx, DWORD PTR _lpViewEntityCsr$[ebp]
	mov	eax, DWORD PTR [edx+18]
	push	eax
	call	DWORD PTR _g_pfnGetPtr
	mov	DWORD PTR _lpViewCsr$1[ebp], eax

; 8459 :          zVIEW     lpView = zGETPTR( lpViewCsr->hView );

	mov	ecx, DWORD PTR _lpViewCsr$1[ebp]
	mov	edx, DWORD PTR [ecx+6]
	push	edx
	call	DWORD PTR _g_pfnGetPtr
	mov	DWORD PTR _lpView$3[ebp], eax

; 8460 : 
; 8461 :          // "KZOEE239 - Invalid Operation for attribute type"
; 8462 :          fnIssueCoreError( zGETPTR( lpView->hTask ), lpView, 8, 239, 0,

	mov	eax, DWORD PTR _lpViewAttrib$[ebp]
	add	eax, 10					; 0000000aH
	push	eax
	mov	ecx, DWORD PTR _lpViewEntityCsr$[ebp]
	push	ecx
	call	_fnEntityNameFromCsr@4
	push	eax
	push	0
	push	239					; 000000efH
	push	8
	mov	edx, DWORD PTR _lpView$3[ebp]
	push	edx
	mov	eax, DWORD PTR _lpView$3[ebp]
	mov	ecx, DWORD PTR [eax+14]
	push	ecx
	call	DWORD PTR _g_pfnGetPtr
	push	eax
	call	_fnIssueCoreError
	add	esp, 28					; 0000001cH

; 8463 :                            fnEntityNameFromCsr( lpViewEntityCsr ),
; 8464 :                            lpViewAttrib->szName );
; 8465 :          nRC = zCALL_ERROR;

	mov	edx, -16				; fffffff0H
	mov	WORD PTR _nRC$[ebp], dx
$LN3@fnCompareA:

; 8466 :       }
; 8467 :    }
; 8468 : 
; 8469 :    return( nRC );

	mov	ax, WORD PTR _nRC$[ebp]

; 8470 : }

	mov	esp, ebp
	pop	ebp
	ret	0
_fnCompareAttributeToBlob ENDP
_TEXT	ENDS
; Function compile flags: /Odtp
; File c:\10c\a\oe\kzoeataa.c
_TEXT	SEGMENT
_lpViewOI$ = -84					; size = 4
_lpViewCsr$1 = -80					; size = 4
_lpViewCsr$2 = -76					; size = 4
_lpExternalP$3 = -72					; size = 4
_lpView$4 = -68						; size = 4
_lpView$5 = -64						; size = 4
tv154 = -60						; size = 4
tv75 = -56						; size = 4
_pchRecord$ = -52					; size = 4
_nRC$ = -48						; size = 2
_dWork$ = -44						; size = 40
__$ArrayPad$ = -4					; size = 4
_lpEntityInstance$ = 8					; size = 4
_lpViewEntityCsr$ = 12					; size = 4
_lpViewAttrib$ = 16					; size = 4
_dDecimalValue$ = 20					; size = 40
_fnCompareAttributeToDecimal PROC

; 8316 : {

	push	ebp
	mov	ebp, esp
	sub	esp, 84					; 00000054H
	mov	eax, DWORD PTR ___security_cookie
	xor	eax, ebp
	mov	DWORD PTR __$ArrayPad$[ebp], eax

; 8317 :    zPCHAR   pchRecord;
; 8318 :    zDECIMAL dWork;
; 8319 :    LPVIEWOI lpViewOI = zGETPTR( lpEntityInstance->hViewOI );

	mov	eax, DWORD PTR _lpEntityInstance$[ebp]
	mov	ecx, DWORD PTR [eax+10]
	push	ecx
	call	DWORD PTR _g_pfnGetPtr
	mov	DWORD PTR _lpViewOI$[ebp], eax

; 8320 :    zSHORT   nRC;
; 8321 : 
; 8322 :    pchRecord = fnRecordForEntityAttr( lpEntityInstance, lpViewAttrib );

	mov	edx, DWORD PTR _lpViewAttrib$[ebp]
	push	edx
	mov	eax, DWORD PTR _lpEntityInstance$[ebp]
	push	eax
	call	_fnRecordForEntityAttr
	add	esp, 8
	mov	DWORD PTR _pchRecord$[ebp], eax

; 8323 : 
; 8324 :    if ( pchRecord )

	cmp	DWORD PTR _pchRecord$[ebp], 0
	je	$LN6@fnCompareA

; 8325 :    {
; 8326 :       pchRecord += lpViewAttrib->ulRecordOffset;

	mov	ecx, DWORD PTR _lpViewAttrib$[ebp]
	mov	edx, DWORD PTR _pchRecord$[ebp]
	add	edx, DWORD PTR [ecx+250]
	mov	DWORD PTR _pchRecord$[ebp], edx

; 8327 :       switch ( lpViewAttrib->cType )

	mov	eax, DWORD PTR _lpViewAttrib$[ebp]
	mov	cl, BYTE PTR [eax+202]
	mov	BYTE PTR tv75[ebp], cl
	cmp	BYTE PTR tv75[ebp], 76			; 0000004cH
	je	SHORT $LN10@fnCompareA
	cmp	BYTE PTR tv75[ebp], 77			; 0000004dH
	je	SHORT $LN11@fnCompareA
	cmp	BYTE PTR tv75[ebp], 83			; 00000053H
	je	SHORT $LN8@fnCompareA
	jmp	$LN12@fnCompareA
$LN8@fnCompareA:

; 8328 :       {
; 8329 :          case zTYPE_STRING:
; 8330 :             if ( pchRecord[ 0 ] == (zCHAR) '\xff' )

	mov	edx, 1
	imul	eax, edx, 0
	mov	ecx, DWORD PTR _pchRecord$[ebp]
	movsx	edx, BYTE PTR [ecx+eax]
	cmp	edx, -1
	jne	SHORT $LN9@fnCompareA

; 8331 :             {
; 8332 :                zCOREMEM  lpExternalP;
; 8333 : 
; 8334 :                lpExternalP = (zCOREMEM) (pchRecord + 1);

	mov	eax, DWORD PTR _pchRecord$[ebp]
	add	eax, 1
	mov	DWORD PTR _lpExternalP$3[ebp], eax

; 8335 :                pchRecord = zGETPTR( *lpExternalP );

	mov	ecx, DWORD PTR _lpExternalP$3[ebp]
	mov	edx, DWORD PTR [ecx]
	push	edx
	call	DWORD PTR _g_pfnGetPtr
	mov	DWORD PTR _pchRecord$[ebp], eax
$LN9@fnCompareA:

; 8336 :             }
; 8337 : 
; 8338 :             SysConvertStringToDecimal( pchRecord, &dWork );

	lea	eax, DWORD PTR _dWork$[ebp]
	push	eax
	mov	ecx, DWORD PTR _pchRecord$[ebp]
	push	ecx
	call	_SysConvertStringToDecimal@8

; 8339 :             nRC = SysCompareDecimalToDecimal( &dWork, &dDecimalValue );

	lea	edx, DWORD PTR _dDecimalValue$[ebp]
	push	edx
	lea	eax, DWORD PTR _dWork$[ebp]
	push	eax
	call	_SysCompareDecimalToDecimal@8
	mov	WORD PTR _nRC$[ebp], ax

; 8340 :             break;

	jmp	$LN2@fnCompareA
$LN10@fnCompareA:

; 8341 : 
; 8342 :          case zTYPE_INTEGER:
; 8343 :             SysConvertLongToDecimal( *((zPLONG) pchRecord), &dWork );

	lea	ecx, DWORD PTR _dWork$[ebp]
	push	ecx
	mov	edx, DWORD PTR _pchRecord$[ebp]
	mov	eax, DWORD PTR [edx]
	push	eax
	call	_SysConvertLongToDecimal@8

; 8344 :             nRC = SysCompareDecimalToDecimal( &dWork, &dDecimalValue );

	lea	ecx, DWORD PTR _dDecimalValue$[ebp]
	push	ecx
	lea	edx, DWORD PTR _dWork$[ebp]
	push	edx
	call	_SysCompareDecimalToDecimal@8
	mov	WORD PTR _nRC$[ebp], ax

; 8345 :             break;

	jmp	SHORT $LN2@fnCompareA
$LN11@fnCompareA:

; 8346 : 
; 8347 :          case zTYPE_DECIMAL:
; 8348 :             nRC = SysCompareDecimalToDecimal( (zPDECIMAL) pchRecord,

	lea	eax, DWORD PTR _dDecimalValue$[ebp]
	push	eax
	mov	ecx, DWORD PTR _pchRecord$[ebp]
	push	ecx
	call	_SysCompareDecimalToDecimal@8
	mov	WORD PTR _nRC$[ebp], ax

; 8349 :                                               &dDecimalValue );
; 8350 :             break;

	jmp	SHORT $LN2@fnCompareA
$LN12@fnCompareA:

; 8351 : 
; 8352 :          default:
; 8353 :          {
; 8354 :             LPVIEWCSR lpViewCsr = zGETPTR( lpViewEntityCsr->hViewCsr );

	mov	edx, DWORD PTR _lpViewEntityCsr$[ebp]
	mov	eax, DWORD PTR [edx+18]
	push	eax
	call	DWORD PTR _g_pfnGetPtr
	mov	DWORD PTR _lpViewCsr$2[ebp], eax

; 8355 :             zVIEW     lpView = zGETPTR( lpViewCsr->hView );

	mov	ecx, DWORD PTR _lpViewCsr$2[ebp]
	mov	edx, DWORD PTR [ecx+6]
	push	edx
	call	DWORD PTR _g_pfnGetPtr
	mov	DWORD PTR _lpView$5[ebp], eax

; 8356 : 
; 8357 :             // "KZOEE239 - Invalid Operation for attribute type"
; 8358 :             fnIssueCoreError( zGETPTR( lpView->hTask ), lpView, 8, 239, 0,

	mov	eax, DWORD PTR _lpViewAttrib$[ebp]
	add	eax, 10					; 0000000aH
	push	eax
	mov	ecx, DWORD PTR _lpViewEntityCsr$[ebp]
	push	ecx
	call	_fnEntityNameFromCsr@4
	push	eax
	push	0
	push	239					; 000000efH
	push	8
	mov	edx, DWORD PTR _lpView$5[ebp]
	push	edx
	mov	eax, DWORD PTR _lpView$5[ebp]
	mov	ecx, DWORD PTR [eax+14]
	push	ecx
	call	DWORD PTR _g_pfnGetPtr
	push	eax
	call	_fnIssueCoreError
	add	esp, 28					; 0000001cH

; 8359 :                               fnEntityNameFromCsr( lpViewEntityCsr ),
; 8360 :                               lpViewAttrib->szName );
; 8361 :             nRC = zCALL_ERROR;

	mov	edx, -16				; fffffff0H
	mov	WORD PTR _nRC$[ebp], dx
$LN2@fnCompareA:

; 8362 :          }
; 8363 :       }
; 8364 :    }

	jmp	$LN7@fnCompareA
$LN6@fnCompareA:

; 8365 :    else
; 8366 :    {
; 8367 :       switch ( lpViewAttrib->cType )

	mov	eax, DWORD PTR _lpViewAttrib$[ebp]
	mov	cl, BYTE PTR [eax+202]
	mov	BYTE PTR tv154[ebp], cl
	cmp	BYTE PTR tv154[ebp], 76			; 0000004cH
	jl	SHORT $LN14@fnCompareA
	cmp	BYTE PTR tv154[ebp], 77			; 0000004dH
	jle	SHORT $LN13@fnCompareA
	cmp	BYTE PTR tv154[ebp], 83			; 00000053H
	je	SHORT $LN13@fnCompareA
	jmp	SHORT $LN14@fnCompareA
$LN13@fnCompareA:

; 8368 :       {
; 8369 :          case zTYPE_STRING:
; 8370 :          case zTYPE_INTEGER:
; 8371 :          case zTYPE_DECIMAL:
; 8372 :             SysConvertLongToDecimal( 0, &dWork );

	lea	edx, DWORD PTR _dWork$[ebp]
	push	edx
	push	0
	call	_SysConvertLongToDecimal@8

; 8373 :             nRC = SysCompareDecimalToDecimal( (zPDECIMAL) pchRecord,

	lea	eax, DWORD PTR _dDecimalValue$[ebp]
	push	eax
	mov	ecx, DWORD PTR _pchRecord$[ebp]
	push	ecx
	call	_SysCompareDecimalToDecimal@8
	mov	WORD PTR _nRC$[ebp], ax

; 8374 :                                               &dDecimalValue );
; 8375 :             break;

	jmp	SHORT $LN7@fnCompareA
$LN14@fnCompareA:

; 8376 : 
; 8377 :          default:
; 8378 :          {
; 8379 :             LPVIEWCSR lpViewCsr = zGETPTR( lpViewEntityCsr->hViewCsr );

	mov	edx, DWORD PTR _lpViewEntityCsr$[ebp]
	mov	eax, DWORD PTR [edx+18]
	push	eax
	call	DWORD PTR _g_pfnGetPtr
	mov	DWORD PTR _lpViewCsr$1[ebp], eax

; 8380 :             zVIEW     lpView = zGETPTR( lpViewCsr->hView );

	mov	ecx, DWORD PTR _lpViewCsr$1[ebp]
	mov	edx, DWORD PTR [ecx+6]
	push	edx
	call	DWORD PTR _g_pfnGetPtr
	mov	DWORD PTR _lpView$4[ebp], eax

; 8381 : 
; 8382 :             // "KZOEE239 - Invalid Operation for attribute type"
; 8383 :             fnIssueCoreError( zGETPTR( lpView->hTask ), lpView, 8, 239, 0,

	mov	eax, DWORD PTR _lpViewAttrib$[ebp]
	add	eax, 10					; 0000000aH
	push	eax
	mov	ecx, DWORD PTR _lpViewEntityCsr$[ebp]
	push	ecx
	call	_fnEntityNameFromCsr@4
	push	eax
	push	0
	push	239					; 000000efH
	push	8
	mov	edx, DWORD PTR _lpView$4[ebp]
	push	edx
	mov	eax, DWORD PTR _lpView$4[ebp]
	mov	ecx, DWORD PTR [eax+14]
	push	ecx
	call	DWORD PTR _g_pfnGetPtr
	push	eax
	call	_fnIssueCoreError
	add	esp, 28					; 0000001cH

; 8384 :                               fnEntityNameFromCsr( lpViewEntityCsr ),
; 8385 :                               lpViewAttrib->szName );
; 8386 :             nRC = zCALL_ERROR;

	mov	edx, -16				; fffffff0H
	mov	WORD PTR _nRC$[ebp], dx
$LN7@fnCompareA:

; 8387 :          }
; 8388 :       }
; 8389 :    }
; 8390 : 
; 8391 :    return( nRC );

	mov	ax, WORD PTR _nRC$[ebp]

; 8392 : }

	mov	ecx, DWORD PTR __$ArrayPad$[ebp]
	xor	ecx, ebp
	call	@__security_check_cookie@4
	mov	esp, ebp
	pop	ebp
	ret	0
_fnCompareAttributeToDecimal ENDP
_TEXT	ENDS
; Function compile flags: /Odtp
; File c:\10c\a\oe\kzoeataa.c
_TEXT	SEGMENT
_lpViewOI$ = -112					; size = 4
_lpViewCsr$1 = -108					; size = 4
_lpViewCsr$2 = -104					; size = 4
_lpExternalP$3 = -100					; size = 4
_lpView$4 = -96						; size = 4
tv165 = -92						; size = 4
tv164 = -88						; size = 4
_lpView$5 = -84						; size = 4
tv95 = -80						; size = 4
tv94 = -76						; size = 4
tv89 = -72						; size = 4
tv88 = -68						; size = 4
tv160 = -64						; size = 4
tv75 = -60						; size = 4
_pchRecord$ = -56					; size = 4
_lWork$ = -52						; size = 4
_nRC$ = -48						; size = 2
_dWork$ = -44						; size = 40
__$ArrayPad$ = -4					; size = 4
_lpEntityInstance$ = 8					; size = 4
_lpViewEntityCsr$ = 12					; size = 4
_lpViewAttrib$ = 16					; size = 4
_lIntegerValue$ = 20					; size = 4
_fnCompareAttributeToInteger PROC

; 8222 : {

	push	ebp
	mov	ebp, esp
	sub	esp, 112				; 00000070H
	mov	eax, DWORD PTR ___security_cookie
	xor	eax, ebp
	mov	DWORD PTR __$ArrayPad$[ebp], eax

; 8223 :    zPCHAR   pchRecord;
; 8224 :    zLONG    lWork;
; 8225 :    zDECIMAL dWork;
; 8226 :    LPVIEWOI lpViewOI = zGETPTR( lpEntityInstance->hViewOI );

	mov	eax, DWORD PTR _lpEntityInstance$[ebp]
	mov	ecx, DWORD PTR [eax+10]
	push	ecx
	call	DWORD PTR _g_pfnGetPtr
	mov	DWORD PTR _lpViewOI$[ebp], eax

; 8227 :    zSHORT   nRC;
; 8228 : 
; 8229 :    pchRecord = fnRecordForEntityAttr( lpEntityInstance, lpViewAttrib );

	mov	edx, DWORD PTR _lpViewAttrib$[ebp]
	push	edx
	mov	eax, DWORD PTR _lpEntityInstance$[ebp]
	push	eax
	call	_fnRecordForEntityAttr
	add	esp, 8
	mov	DWORD PTR _pchRecord$[ebp], eax

; 8230 : 
; 8231 :    if ( pchRecord )

	cmp	DWORD PTR _pchRecord$[ebp], 0
	je	$LN6@fnCompareA

; 8232 :    {
; 8233 :       pchRecord += lpViewAttrib->ulRecordOffset;

	mov	ecx, DWORD PTR _lpViewAttrib$[ebp]
	mov	edx, DWORD PTR _pchRecord$[ebp]
	add	edx, DWORD PTR [ecx+250]
	mov	DWORD PTR _pchRecord$[ebp], edx

; 8234 :       switch ( lpViewAttrib->cType )

	mov	eax, DWORD PTR _lpViewAttrib$[ebp]
	mov	cl, BYTE PTR [eax+202]
	mov	BYTE PTR tv75[ebp], cl
	cmp	BYTE PTR tv75[ebp], 76			; 0000004cH
	je	$LN10@fnCompareA
	cmp	BYTE PTR tv75[ebp], 77			; 0000004dH
	je	$LN11@fnCompareA
	cmp	BYTE PTR tv75[ebp], 83			; 00000053H
	je	SHORT $LN8@fnCompareA
	jmp	$LN12@fnCompareA
$LN8@fnCompareA:

; 8235 :       {
; 8236 :          case zTYPE_STRING:
; 8237 :             if ( pchRecord[ 0 ] == (zCHAR) '\xff' )

	mov	edx, 1
	imul	eax, edx, 0
	mov	ecx, DWORD PTR _pchRecord$[ebp]
	movsx	edx, BYTE PTR [ecx+eax]
	cmp	edx, -1
	jne	SHORT $LN9@fnCompareA

; 8238 :             {
; 8239 :                zCOREMEM  lpExternalP;
; 8240 : 
; 8241 :                lpExternalP = (zCOREMEM) (pchRecord + 1);

	mov	eax, DWORD PTR _pchRecord$[ebp]
	add	eax, 1
	mov	DWORD PTR _lpExternalP$3[ebp], eax

; 8242 :                pchRecord = zGETPTR( *lpExternalP );

	mov	ecx, DWORD PTR _lpExternalP$3[ebp]
	mov	edx, DWORD PTR [ecx]
	push	edx
	call	DWORD PTR _g_pfnGetPtr
	mov	DWORD PTR _pchRecord$[ebp], eax
$LN9@fnCompareA:

; 8243 :             }
; 8244 : 
; 8245 :             lWork = zatol( pchRecord );

	mov	eax, DWORD PTR _pchRecord$[ebp]
	push	eax
	call	DWORD PTR __imp__atol
	add	esp, 4
	mov	DWORD PTR _lWork$[ebp], eax

; 8246 :             lWork -= lIntegerValue;

	mov	ecx, DWORD PTR _lWork$[ebp]
	sub	ecx, DWORD PTR _lIntegerValue$[ebp]
	mov	DWORD PTR _lWork$[ebp], ecx

; 8247 :             nRC = (lWork == 0) ? 0 : (lWork < 0) ? -1 : 1;

	jne	SHORT $LN18@fnCompareA
	mov	DWORD PTR tv89[ebp], 0
	jmp	SHORT $LN19@fnCompareA
$LN18@fnCompareA:
	cmp	DWORD PTR _lWork$[ebp], 0
	jge	SHORT $LN16@fnCompareA
	mov	DWORD PTR tv88[ebp], -1
	jmp	SHORT $LN17@fnCompareA
$LN16@fnCompareA:
	mov	DWORD PTR tv88[ebp], 1
$LN17@fnCompareA:
	mov	edx, DWORD PTR tv88[ebp]
	mov	DWORD PTR tv89[ebp], edx
$LN19@fnCompareA:
	mov	ax, WORD PTR tv89[ebp]
	mov	WORD PTR _nRC$[ebp], ax

; 8248 :             break;

	jmp	$LN2@fnCompareA
$LN10@fnCompareA:

; 8249 : 
; 8250 :          case zTYPE_INTEGER:
; 8251 :             lWork = *((zPLONG) pchRecord) - lIntegerValue;

	mov	ecx, DWORD PTR _pchRecord$[ebp]
	mov	edx, DWORD PTR [ecx]
	sub	edx, DWORD PTR _lIntegerValue$[ebp]
	mov	DWORD PTR _lWork$[ebp], edx

; 8252 :             nRC = (lWork == 0) ? 0 : (lWork < 0) ? -1 : 1;

	jne	SHORT $LN22@fnCompareA
	mov	DWORD PTR tv95[ebp], 0
	jmp	SHORT $LN23@fnCompareA
$LN22@fnCompareA:
	cmp	DWORD PTR _lWork$[ebp], 0
	jge	SHORT $LN20@fnCompareA
	mov	DWORD PTR tv94[ebp], -1
	jmp	SHORT $LN21@fnCompareA
$LN20@fnCompareA:
	mov	DWORD PTR tv94[ebp], 1
$LN21@fnCompareA:
	mov	eax, DWORD PTR tv94[ebp]
	mov	DWORD PTR tv95[ebp], eax
$LN23@fnCompareA:
	mov	cx, WORD PTR tv95[ebp]
	mov	WORD PTR _nRC$[ebp], cx

; 8253 :             break;

	jmp	SHORT $LN2@fnCompareA
$LN11@fnCompareA:

; 8254 : 
; 8255 :          case zTYPE_DECIMAL:
; 8256 :             SysConvertLongToDecimal( lIntegerValue, &dWork );

	lea	edx, DWORD PTR _dWork$[ebp]
	push	edx
	mov	eax, DWORD PTR _lIntegerValue$[ebp]
	push	eax
	call	_SysConvertLongToDecimal@8

; 8257 :             nRC = SysCompareDecimalToDecimal( (zPDECIMAL) pchRecord, &dWork );

	lea	ecx, DWORD PTR _dWork$[ebp]
	push	ecx
	mov	edx, DWORD PTR _pchRecord$[ebp]
	push	edx
	call	_SysCompareDecimalToDecimal@8
	mov	WORD PTR _nRC$[ebp], ax

; 8258 :             break;

	jmp	SHORT $LN2@fnCompareA
$LN12@fnCompareA:

; 8259 : 
; 8260 :          default:
; 8261 :          {
; 8262 :             LPVIEWCSR lpViewCsr = zGETPTR( lpViewEntityCsr->hViewCsr );

	mov	eax, DWORD PTR _lpViewEntityCsr$[ebp]
	mov	ecx, DWORD PTR [eax+18]
	push	ecx
	call	DWORD PTR _g_pfnGetPtr
	mov	DWORD PTR _lpViewCsr$2[ebp], eax

; 8263 :             zVIEW     lpView = zGETPTR( lpViewCsr->hView );

	mov	edx, DWORD PTR _lpViewCsr$2[ebp]
	mov	eax, DWORD PTR [edx+6]
	push	eax
	call	DWORD PTR _g_pfnGetPtr
	mov	DWORD PTR _lpView$5[ebp], eax

; 8264 : 
; 8265 :             // "KZOEE239 - Invalid Operation for attribute type"
; 8266 :             fnIssueCoreError( zGETPTR( lpView->hTask ), lpView, 8, 239, 0,

	mov	ecx, DWORD PTR _lpViewAttrib$[ebp]
	add	ecx, 10					; 0000000aH
	push	ecx
	mov	edx, DWORD PTR _lpViewEntityCsr$[ebp]
	push	edx
	call	_fnEntityNameFromCsr@4
	push	eax
	push	0
	push	239					; 000000efH
	push	8
	mov	eax, DWORD PTR _lpView$5[ebp]
	push	eax
	mov	ecx, DWORD PTR _lpView$5[ebp]
	mov	edx, DWORD PTR [ecx+14]
	push	edx
	call	DWORD PTR _g_pfnGetPtr
	push	eax
	call	_fnIssueCoreError
	add	esp, 28					; 0000001cH

; 8267 :                               fnEntityNameFromCsr( lpViewEntityCsr ),
; 8268 :                               lpViewAttrib->szName );
; 8269 :             nRC = zCALL_ERROR;

	mov	eax, -16				; fffffff0H
	mov	WORD PTR _nRC$[ebp], ax
$LN2@fnCompareA:

; 8270 :          }
; 8271 :       }
; 8272 :    }

	jmp	$LN7@fnCompareA
$LN6@fnCompareA:

; 8273 :    else
; 8274 :    {
; 8275 :       switch ( lpViewAttrib->cType )

	mov	ecx, DWORD PTR _lpViewAttrib$[ebp]
	mov	dl, BYTE PTR [ecx+202]
	mov	BYTE PTR tv160[ebp], dl
	cmp	BYTE PTR tv160[ebp], 76			; 0000004cH
	jl	SHORT $LN14@fnCompareA
	cmp	BYTE PTR tv160[ebp], 77			; 0000004dH
	jle	SHORT $LN13@fnCompareA
	cmp	BYTE PTR tv160[ebp], 83			; 00000053H
	je	SHORT $LN13@fnCompareA
	jmp	SHORT $LN14@fnCompareA
$LN13@fnCompareA:

; 8276 :       {
; 8277 :          case zTYPE_STRING:
; 8278 :          case zTYPE_INTEGER:
; 8279 :          case zTYPE_DECIMAL:
; 8280 :             lWork = 0;

	mov	DWORD PTR _lWork$[ebp], 0

; 8281 :             lWork -= lIntegerValue;

	mov	eax, DWORD PTR _lWork$[ebp]
	sub	eax, DWORD PTR _lIntegerValue$[ebp]
	mov	DWORD PTR _lWork$[ebp], eax

; 8282 :             nRC = (lWork == 0) ? 0 : (lWork < 0) ? -1 : 1;

	jne	SHORT $LN26@fnCompareA
	mov	DWORD PTR tv165[ebp], 0
	jmp	SHORT $LN27@fnCompareA
$LN26@fnCompareA:
	cmp	DWORD PTR _lWork$[ebp], 0
	jge	SHORT $LN24@fnCompareA
	mov	DWORD PTR tv164[ebp], -1
	jmp	SHORT $LN25@fnCompareA
$LN24@fnCompareA:
	mov	DWORD PTR tv164[ebp], 1
$LN25@fnCompareA:
	mov	ecx, DWORD PTR tv164[ebp]
	mov	DWORD PTR tv165[ebp], ecx
$LN27@fnCompareA:
	mov	dx, WORD PTR tv165[ebp]
	mov	WORD PTR _nRC$[ebp], dx

; 8283 :             break;

	jmp	SHORT $LN7@fnCompareA
$LN14@fnCompareA:

; 8284 : 
; 8285 :          default:
; 8286 :          {
; 8287 :             LPVIEWCSR lpViewCsr = zGETPTR( lpViewEntityCsr->hViewCsr );

	mov	eax, DWORD PTR _lpViewEntityCsr$[ebp]
	mov	ecx, DWORD PTR [eax+18]
	push	ecx
	call	DWORD PTR _g_pfnGetPtr
	mov	DWORD PTR _lpViewCsr$1[ebp], eax

; 8288 :             zVIEW     lpView = zGETPTR( lpViewCsr->hView );

	mov	edx, DWORD PTR _lpViewCsr$1[ebp]
	mov	eax, DWORD PTR [edx+6]
	push	eax
	call	DWORD PTR _g_pfnGetPtr
	mov	DWORD PTR _lpView$4[ebp], eax

; 8289 : 
; 8290 :             // "KZOEE239 - Invalid Operation for attribute type"
; 8291 :             fnIssueCoreError( zGETPTR( lpView->hTask ), lpView, 8, 239, 0,

	mov	ecx, DWORD PTR _lpViewAttrib$[ebp]
	add	ecx, 10					; 0000000aH
	push	ecx
	mov	edx, DWORD PTR _lpViewEntityCsr$[ebp]
	push	edx
	call	_fnEntityNameFromCsr@4
	push	eax
	push	0
	push	239					; 000000efH
	push	8
	mov	eax, DWORD PTR _lpView$4[ebp]
	push	eax
	mov	ecx, DWORD PTR _lpView$4[ebp]
	mov	edx, DWORD PTR [ecx+14]
	push	edx
	call	DWORD PTR _g_pfnGetPtr
	push	eax
	call	_fnIssueCoreError
	add	esp, 28					; 0000001cH

; 8292 :                               fnEntityNameFromCsr( lpViewEntityCsr ),
; 8293 :                               lpViewAttrib->szName );
; 8294 :             nRC = zCALL_ERROR;

	mov	eax, -16				; fffffff0H
	mov	WORD PTR _nRC$[ebp], ax
$LN7@fnCompareA:

; 8295 :          }
; 8296 :       }
; 8297 :    }
; 8298 : 
; 8299 :    return( nRC );

	mov	ax, WORD PTR _nRC$[ebp]

; 8300 : }

	mov	ecx, DWORD PTR __$ArrayPad$[ebp]
	xor	ecx, ebp
	call	@__security_check_cookie@4
	mov	esp, ebp
	pop	ebp
	ret	0
_fnCompareAttributeToInteger ENDP
_TEXT	ENDS
; Function compile flags: /Odtp
; File c:\10c\a\oe\kzoeataa.c
_TEXT	SEGMENT
_lpViewOI$ = -144					; size = 4
_lpViewCsr$1 = -140					; size = 4
_lpViewCsr$2 = -136					; size = 4
_lpExternalP$3 = -132					; size = 4
_lpView$4 = -128					; size = 4
tv233 = -124						; size = 4
tv232 = -120						; size = 4
$T5 = -116						; size = 4
_lpView$6 = -112					; size = 4
tv180 = -108						; size = 4
tv179 = -104						; size = 4
_lTemp$ = -100						; size = 4
tv130 = -96						; size = 4
tv129 = -92						; size = 4
tv218 = -88						; size = 4
tv75 = -84						; size = 4
_pchRecord$ = -80					; size = 4
_nRC$ = -76						; size = 2
_dTemp$ = -72						; size = 40
_szWorkString$ = -32					; size = 25
__$ArrayPad$ = -4					; size = 4
_lpEntityInstance$ = 8					; size = 4
_lpViewEntityCsr$ = 12					; size = 4
_lpViewAttrib$ = 16					; size = 4
_pchStringValue$ = 20					; size = 4
_fnCompareAttributeToString PROC

; 8042 : {

	push	ebp
	mov	ebp, esp
	sub	esp, 144				; 00000090H
	mov	eax, DWORD PTR ___security_cookie
	xor	eax, ebp
	mov	DWORD PTR __$ArrayPad$[ebp], eax

; 8043 :    zPCHAR   pchRecord;
; 8044 :    zCHAR    szWorkString[ 25 ];
; 8045 :    zDECIMAL dTemp;
; 8046 :    zLONG    lTemp;
; 8047 :    LPVIEWOI lpViewOI = zGETPTR( lpEntityInstance->hViewOI );

	mov	eax, DWORD PTR _lpEntityInstance$[ebp]
	mov	ecx, DWORD PTR [eax+10]
	push	ecx
	call	DWORD PTR _g_pfnGetPtr
	mov	DWORD PTR _lpViewOI$[ebp], eax

; 8048 :    zSHORT   nRC;
; 8049 : 
; 8050 :    pchRecord = fnRecordForEntityAttr( lpEntityInstance, lpViewAttrib );

	mov	edx, DWORD PTR _lpViewAttrib$[ebp]
	push	edx
	mov	eax, DWORD PTR _lpEntityInstance$[ebp]
	push	eax
	call	_fnRecordForEntityAttr
	add	esp, 8
	mov	DWORD PTR _pchRecord$[ebp], eax

; 8051 : 
; 8052 :    if ( pchRecord )

	cmp	DWORD PTR _pchRecord$[ebp], 0
	je	$LN6@fnCompareA

; 8053 :    {
; 8054 :       pchRecord += lpViewAttrib->ulRecordOffset;

	mov	ecx, DWORD PTR _lpViewAttrib$[ebp]
	mov	edx, DWORD PTR _pchRecord$[ebp]
	add	edx, DWORD PTR [ecx+250]
	mov	DWORD PTR _pchRecord$[ebp], edx

; 8055 :       switch ( lpViewAttrib->cType )

	mov	eax, DWORD PTR _lpViewAttrib$[ebp]
	movsx	ecx, BYTE PTR [eax+202]
	mov	DWORD PTR tv75[ebp], ecx
	mov	edx, DWORD PTR tv75[ebp]
	sub	edx, 66					; 00000042H
	mov	DWORD PTR tv75[ebp], edx
	cmp	DWORD PTR tv75[ebp], 18			; 00000012H
	ja	$LN35@fnCompareA
	mov	eax, DWORD PTR tv75[ebp]
	movzx	ecx, BYTE PTR $LN59@fnCompareA[eax]
	jmp	DWORD PTR $LN61@fnCompareA[ecx*4]
$LN8@fnCompareA:

; 8056 :       {
; 8057 :          case zTYPE_STRING:
; 8058 :             if ( pchRecord[ 0 ] == (zCHAR) '\xff' )

	mov	edx, 1
	imul	eax, edx, 0
	mov	ecx, DWORD PTR _pchRecord$[ebp]
	movsx	edx, BYTE PTR [ecx+eax]
	cmp	edx, -1
	jne	SHORT $LN9@fnCompareA

; 8059 :             {
; 8060 :                zCOREMEM  lpExternalP;
; 8061 : 
; 8062 :                lpExternalP = (zCOREMEM) (pchRecord + 1);

	mov	eax, DWORD PTR _pchRecord$[ebp]
	add	eax, 1
	mov	DWORD PTR _lpExternalP$3[ebp], eax

; 8063 :                pchRecord = zGETPTR( *lpExternalP );

	mov	ecx, DWORD PTR _lpExternalP$3[ebp]
	mov	edx, DWORD PTR [ecx]
	push	edx
	call	DWORD PTR _g_pfnGetPtr
	mov	DWORD PTR _pchRecord$[ebp], eax
$LN9@fnCompareA:

; 8064 :             }
; 8065 : 
; 8066 :             if ( lpViewAttrib->bCaseSens )

	mov	eax, DWORD PTR _lpViewAttrib$[ebp]
	mov	ecx, DWORD PTR [eax+193]
	shr	ecx, 6
	and	ecx, 1
	je	SHORT $LN10@fnCompareA

; 8067 :                nRC = zstrcmp( pchRecord, pchStringValue );

	mov	edx, DWORD PTR _pchRecord$[ebp]
	movsx	eax, BYTE PTR [edx]
	mov	ecx, DWORD PTR _pchStringValue$[ebp]
	movsx	edx, BYTE PTR [ecx]
	cmp	eax, edx
	jne	SHORT $LN47@fnCompareA
	mov	eax, DWORD PTR _pchStringValue$[ebp]
	push	eax
	mov	ecx, DWORD PTR _pchRecord$[ebp]
	push	ecx
	call	_strcmp
	add	esp, 8
	mov	DWORD PTR tv130[ebp], eax
	jmp	SHORT $LN48@fnCompareA
$LN47@fnCompareA:
	mov	edx, DWORD PTR _pchRecord$[ebp]
	movsx	eax, BYTE PTR [edx]
	mov	ecx, DWORD PTR _pchStringValue$[ebp]
	movsx	edx, BYTE PTR [ecx]
	sub	eax, edx
	test	eax, eax
	jle	SHORT $LN45@fnCompareA
	mov	DWORD PTR tv129[ebp], 1
	jmp	SHORT $LN46@fnCompareA
$LN45@fnCompareA:
	mov	DWORD PTR tv129[ebp], -1
$LN46@fnCompareA:
	mov	eax, DWORD PTR tv129[ebp]
	mov	DWORD PTR tv130[ebp], eax
$LN48@fnCompareA:
	mov	cx, WORD PTR tv130[ebp]
	mov	WORD PTR _nRC$[ebp], cx
	jmp	SHORT $LN11@fnCompareA
$LN10@fnCompareA:

; 8068 :             else
; 8069 :                nRC = zstrcmpi( pchRecord, pchStringValue );

	mov	edx, DWORD PTR _pchStringValue$[ebp]
	push	edx
	mov	eax, DWORD PTR _pchRecord$[ebp]
	push	eax
	call	DWORD PTR __imp___stricmp
	add	esp, 8
	mov	WORD PTR _nRC$[ebp], ax
$LN11@fnCompareA:

; 8070 : 
; 8071 :             if ( nRC < 0 )

	movsx	ecx, WORD PTR _nRC$[ebp]
	test	ecx, ecx
	jge	SHORT $LN12@fnCompareA

; 8072 :                nRC = -1;

	or	edx, -1
	mov	WORD PTR _nRC$[ebp], dx
	jmp	SHORT $LN13@fnCompareA
$LN12@fnCompareA:

; 8073 :             else
; 8074 :             if ( nRC > 0 )

	movsx	eax, WORD PTR _nRC$[ebp]
	test	eax, eax
	jle	SHORT $LN13@fnCompareA

; 8075 :                nRC = 1;

	mov	ecx, 1
	mov	WORD PTR _nRC$[ebp], cx
$LN13@fnCompareA:

; 8076 : 
; 8077 :             break;

	jmp	$LN2@fnCompareA
$LN15@fnCompareA:

; 8078 : 
; 8079 :          case zTYPE_INTEGER:
; 8080 :             if ( pchStringValue[ 0 ] == 0 &&

	mov	edx, 1
	imul	eax, edx, 0
	mov	ecx, DWORD PTR _pchStringValue$[ebp]
	movsx	edx, BYTE PTR [ecx+eax]
	test	edx, edx
	jne	SHORT $LN16@fnCompareA
	mov	eax, DWORD PTR _pchRecord$[ebp]
	mov	ecx, DWORD PTR [eax]
	cmp	ecx, DWORD PTR _lNullInteger
	jne	SHORT $LN16@fnCompareA

; 8081 :                  *((zPLONG) pchRecord) == lNullInteger )
; 8082 :             {
; 8083 :                // empty string matches NULL integer
; 8084 :                nRC = 0;

	xor	edx, edx
	mov	WORD PTR _nRC$[ebp], dx

; 8085 :                break;

	jmp	$LN2@fnCompareA
$LN16@fnCompareA:

; 8086 :             }
; 8087 : 
; 8088 :             lTemp = zatol( szWorkString );

	lea	eax, DWORD PTR _szWorkString$[ebp]
	push	eax
	call	DWORD PTR __imp__atol
	add	esp, 4
	mov	DWORD PTR _lTemp$[ebp], eax

; 8089 :             if ( *((zPLONG) pchRecord) < lTemp )

	mov	ecx, DWORD PTR _pchRecord$[ebp]
	mov	edx, DWORD PTR [ecx]
	cmp	edx, DWORD PTR _lTemp$[ebp]
	jge	SHORT $LN17@fnCompareA

; 8090 :                nRC = -1;

	or	eax, -1
	mov	WORD PTR _nRC$[ebp], ax
	jmp	SHORT $LN18@fnCompareA
$LN17@fnCompareA:

; 8091 :             else
; 8092 :             if ( *((zPLONG) pchRecord) > lTemp )

	mov	ecx, DWORD PTR _pchRecord$[ebp]
	mov	edx, DWORD PTR [ecx]
	cmp	edx, DWORD PTR _lTemp$[ebp]
	jle	SHORT $LN19@fnCompareA

; 8093 :                nRC = 1;

	mov	eax, 1
	mov	WORD PTR _nRC$[ebp], ax
	jmp	SHORT $LN18@fnCompareA
$LN19@fnCompareA:

; 8094 :             else
; 8095 :                nRC = 0;

	xor	ecx, ecx
	mov	WORD PTR _nRC$[ebp], cx
$LN18@fnCompareA:

; 8096 : 
; 8097 :             break;

	jmp	$LN2@fnCompareA
$LN21@fnCompareA:

; 8098 : 
; 8099 :          case zTYPE_DECIMAL:
; 8100 :             // fnConvertDecimalToString and string comparison
; 8101 :             // is invalid, because the string representation is not unique
; 8102 :             if ( pchStringValue[ 0 ] == 0 &&

	mov	edx, 1
	imul	eax, edx, 0
	mov	ecx, DWORD PTR _pchStringValue$[ebp]
	movsx	edx, BYTE PTR [ecx+eax]
	test	edx, edx
	jne	SHORT $LN22@fnCompareA
	mov	eax, DWORD PTR _pchRecord$[ebp]
	push	eax
	call	_SysCompareDecimalToNull@4
	movsx	ecx, ax
	test	ecx, ecx
	jne	SHORT $LN22@fnCompareA

; 8103 :                  SysCompareDecimalToNull( (zPDECIMAL) pchRecord) == 0 )
; 8104 :             {
; 8105 :                // empty string matches NULL decimal
; 8106 :                nRC = 0;

	xor	edx, edx
	mov	WORD PTR _nRC$[ebp], dx

; 8107 :                break;

	jmp	$LN2@fnCompareA
$LN22@fnCompareA:

; 8108 :             }
; 8109 : 
; 8110 :             SysConvertStringToDecimal( pchStringValue, &dTemp );

	lea	eax, DWORD PTR _dTemp$[ebp]
	push	eax
	mov	ecx, DWORD PTR _pchStringValue$[ebp]
	push	ecx
	call	_SysConvertStringToDecimal@8

; 8111 :             nRC = SysCompareDecimalToDecimal( (zPDECIMAL) pchRecord, &dTemp );

	lea	edx, DWORD PTR _dTemp$[ebp]
	push	edx
	mov	eax, DWORD PTR _pchRecord$[ebp]
	push	eax
	call	_SysCompareDecimalToDecimal@8
	mov	WORD PTR _nRC$[ebp], ax

; 8112 :             if ( nRC < 0 )

	movsx	ecx, WORD PTR _nRC$[ebp]
	test	ecx, ecx
	jge	SHORT $LN23@fnCompareA

; 8113 :                nRC = -1;

	or	edx, -1
	mov	WORD PTR _nRC$[ebp], dx
	jmp	SHORT $LN24@fnCompareA
$LN23@fnCompareA:

; 8114 :             else
; 8115 :             if ( nRC > 0 )

	movsx	eax, WORD PTR _nRC$[ebp]
	test	eax, eax
	jle	SHORT $LN24@fnCompareA

; 8116 :                nRC = 1;

	mov	ecx, 1
	mov	WORD PTR _nRC$[ebp], cx
$LN24@fnCompareA:

; 8117 : 
; 8118 :             break;

	jmp	$LN2@fnCompareA
$LN26@fnCompareA:

; 8119 : 
; 8120 :          case zTYPE_DATETIME:
; 8121 :             UfDateTimeToString( (LPDATETIME) pchRecord, szWorkString, 18 );

	push	18					; 00000012H
	lea	edx, DWORD PTR _szWorkString$[ebp]
	push	edx
	mov	eax, DWORD PTR _pchRecord$[ebp]
	push	eax
	call	_UfDateTimeToString@12

; 8122 :             nRC = zstrcmp( szWorkString, pchStringValue );

	movsx	ecx, BYTE PTR _szWorkString$[ebp]
	mov	edx, DWORD PTR _pchStringValue$[ebp]
	movsx	eax, BYTE PTR [edx]
	cmp	ecx, eax
	jne	SHORT $LN51@fnCompareA
	mov	ecx, DWORD PTR _pchStringValue$[ebp]
	push	ecx
	lea	edx, DWORD PTR _szWorkString$[ebp]
	push	edx
	call	_strcmp
	add	esp, 8
	mov	DWORD PTR tv180[ebp], eax
	jmp	SHORT $LN52@fnCompareA
$LN51@fnCompareA:
	movsx	eax, BYTE PTR _szWorkString$[ebp]
	mov	ecx, DWORD PTR _pchStringValue$[ebp]
	movsx	edx, BYTE PTR [ecx]
	sub	eax, edx
	test	eax, eax
	jle	SHORT $LN49@fnCompareA
	mov	DWORD PTR tv179[ebp], 1
	jmp	SHORT $LN50@fnCompareA
$LN49@fnCompareA:
	mov	DWORD PTR tv179[ebp], -1
$LN50@fnCompareA:
	mov	eax, DWORD PTR tv179[ebp]
	mov	DWORD PTR tv180[ebp], eax
$LN52@fnCompareA:
	mov	cx, WORD PTR tv180[ebp]
	mov	WORD PTR _nRC$[ebp], cx

; 8123 :             if ( nRC < 0 )

	movsx	edx, WORD PTR _nRC$[ebp]
	test	edx, edx
	jge	SHORT $LN27@fnCompareA

; 8124 :                nRC = -1;

	or	eax, -1
	mov	WORD PTR _nRC$[ebp], ax
	jmp	SHORT $LN28@fnCompareA
$LN27@fnCompareA:

; 8125 :             else
; 8126 :             if ( nRC > 0 )

	movsx	ecx, WORD PTR _nRC$[ebp]
	test	ecx, ecx
	jle	SHORT $LN28@fnCompareA

; 8127 :                nRC = 1;

	mov	edx, 1
	mov	WORD PTR _nRC$[ebp], dx
$LN28@fnCompareA:

; 8128 : 
; 8129 :             break;

	jmp	$LN2@fnCompareA
$LN30@fnCompareA:

; 8130 : 
; 8131 :          case zTYPE_BLOB:
; 8132 :             // We only allow a comparison of strings to blobs if the comparison
; 8133 :             // string is NULL.
; 8134 :             if ( pchStringValue == 0 || pchStringValue[ 0 ] == 0 )

	cmp	DWORD PTR _pchStringValue$[ebp], 0
	je	SHORT $LN32@fnCompareA
	mov	eax, 1
	imul	ecx, eax, 0
	mov	edx, DWORD PTR _pchStringValue$[ebp]
	movsx	eax, BYTE PTR [edx+ecx]
	test	eax, eax
	jne	SHORT $LN35@fnCompareA
$LN32@fnCompareA:

; 8135 :             {
; 8136 :               if ( pchRecord[ 0 ] != (zCHAR) '\xff' )

	mov	ecx, 1
	imul	edx, ecx, 0
	mov	eax, DWORD PTR _pchRecord$[ebp]
	movsx	ecx, BYTE PTR [eax+edx]
	cmp	ecx, -1
	je	SHORT $LN33@fnCompareA

; 8137 :                  nRC = 0;

	xor	edx, edx
	mov	WORD PTR _nRC$[ebp], dx
	jmp	SHORT $LN34@fnCompareA
$LN33@fnCompareA:

; 8138 :               else
; 8139 :                  nRC = -1;

	or	eax, -1
	mov	WORD PTR _nRC$[ebp], ax
$LN34@fnCompareA:

; 8140 : 
; 8141 :               break;

	jmp	SHORT $LN2@fnCompareA
$LN35@fnCompareA:

; 8142 :             }
; 8143 : 
; 8144 :             // NOTE: FALL THROUGH...
; 8145 :             // NOTE: FALL THROUGH...
; 8146 :             // NOTE: FALL THROUGH...
; 8147 : 
; 8148 :          default:
; 8149 :          {
; 8150 :             LPVIEWCSR lpViewCsr = zGETPTR( lpViewEntityCsr->hViewCsr );

	mov	ecx, DWORD PTR _lpViewEntityCsr$[ebp]
	mov	edx, DWORD PTR [ecx+18]
	push	edx
	call	DWORD PTR _g_pfnGetPtr
	mov	DWORD PTR _lpViewCsr$2[ebp], eax

; 8151 :             zVIEW     lpView = zGETPTR( lpViewCsr->hView );

	mov	eax, DWORD PTR _lpViewCsr$2[ebp]
	mov	ecx, DWORD PTR [eax+6]
	push	ecx
	call	DWORD PTR _g_pfnGetPtr
	mov	DWORD PTR _lpView$6[ebp], eax

; 8152 : 
; 8153 :             // "KZOEE239 - Invalid Operation for attribute type"
; 8154 :             fnIssueCoreError( zGETPTR( lpView->hTask ), lpView, 8, 239, 0,

	mov	edx, DWORD PTR _lpViewAttrib$[ebp]
	add	edx, 10					; 0000000aH
	push	edx
	mov	eax, DWORD PTR _lpViewEntityCsr$[ebp]
	push	eax
	call	_fnEntityNameFromCsr@4
	push	eax
	push	0
	push	239					; 000000efH
	push	8
	mov	ecx, DWORD PTR _lpView$6[ebp]
	push	ecx
	mov	edx, DWORD PTR _lpView$6[ebp]
	mov	eax, DWORD PTR [edx+14]
	push	eax
	call	DWORD PTR _g_pfnGetPtr
	push	eax
	call	_fnIssueCoreError
	add	esp, 28					; 0000001cH

; 8155 :                               fnEntityNameFromCsr( lpViewEntityCsr ),
; 8156 :                               lpViewAttrib->szName );
; 8157 :             nRC = zCALL_ERROR;

	mov	ecx, -16				; fffffff0H
	mov	WORD PTR _nRC$[ebp], cx
$LN2@fnCompareA:

; 8158 :          }
; 8159 :       }
; 8160 :    }

	jmp	$LN7@fnCompareA
$LN6@fnCompareA:

; 8161 :    else
; 8162 :    {
; 8163 :       switch ( lpViewAttrib->cType )

	mov	edx, DWORD PTR _lpViewAttrib$[ebp]
	movsx	eax, BYTE PTR [edx+202]
	mov	DWORD PTR tv218[ebp], eax
	mov	ecx, DWORD PTR tv218[ebp]
	sub	ecx, 66					; 00000042H
	mov	DWORD PTR tv218[ebp], ecx
	cmp	DWORD PTR tv218[ebp], 18		; 00000012H
	ja	$LN43@fnCompareA
	mov	edx, DWORD PTR tv218[ebp]
	movzx	eax, BYTE PTR $LN60@fnCompareA[edx]
	jmp	DWORD PTR $LN62@fnCompareA[eax*4]
$LN36@fnCompareA:

; 8164 :       {
; 8165 :          case zTYPE_STRING:
; 8166 :          case zTYPE_INTEGER:
; 8167 :          case zTYPE_DECIMAL:
; 8168 :          case zTYPE_DATETIME:
; 8169 :             szWorkString[ 0 ] = 0;

	mov	ecx, 1
	imul	edx, ecx, 0
	mov	DWORD PTR $T5[ebp], edx
	cmp	DWORD PTR $T5[ebp], 25			; 00000019H
	jae	SHORT $LN53@fnCompareA
	jmp	SHORT $LN54@fnCompareA
$LN53@fnCompareA:
	call	___report_rangecheckfailure
$LN54@fnCompareA:
	mov	eax, DWORD PTR $T5[ebp]
	mov	BYTE PTR _szWorkString$[ebp+eax], 0

; 8170 :             nRC = zstrcmp( szWorkString, pchStringValue );

	movsx	ecx, BYTE PTR _szWorkString$[ebp]
	mov	edx, DWORD PTR _pchStringValue$[ebp]
	movsx	eax, BYTE PTR [edx]
	cmp	ecx, eax
	jne	SHORT $LN57@fnCompareA
	mov	ecx, DWORD PTR _pchStringValue$[ebp]
	push	ecx
	lea	edx, DWORD PTR _szWorkString$[ebp]
	push	edx
	call	_strcmp
	add	esp, 8
	mov	DWORD PTR tv233[ebp], eax
	jmp	SHORT $LN58@fnCompareA
$LN57@fnCompareA:
	movsx	eax, BYTE PTR _szWorkString$[ebp]
	mov	ecx, DWORD PTR _pchStringValue$[ebp]
	movsx	edx, BYTE PTR [ecx]
	sub	eax, edx
	test	eax, eax
	jle	SHORT $LN55@fnCompareA
	mov	DWORD PTR tv232[ebp], 1
	jmp	SHORT $LN56@fnCompareA
$LN55@fnCompareA:
	mov	DWORD PTR tv232[ebp], -1
$LN56@fnCompareA:
	mov	eax, DWORD PTR tv232[ebp]
	mov	DWORD PTR tv233[ebp], eax
$LN58@fnCompareA:
	mov	cx, WORD PTR tv233[ebp]
	mov	WORD PTR _nRC$[ebp], cx

; 8171 :             if ( nRC < 0 )

	movsx	edx, WORD PTR _nRC$[ebp]
	test	edx, edx
	jge	SHORT $LN37@fnCompareA

; 8172 :                nRC = -1;

	or	eax, -1
	mov	WORD PTR _nRC$[ebp], ax
	jmp	SHORT $LN38@fnCompareA
$LN37@fnCompareA:

; 8173 :             else
; 8174 :             if ( nRC > 0 )

	movsx	ecx, WORD PTR _nRC$[ebp]
	test	ecx, ecx
	jle	SHORT $LN38@fnCompareA

; 8175 :                nRC = 1;

	mov	edx, 1
	mov	WORD PTR _nRC$[ebp], dx
$LN38@fnCompareA:

; 8176 : 
; 8177 :             break;

	jmp	$LN7@fnCompareA
$LN40@fnCompareA:

; 8178 : 
; 8179 :          case zTYPE_BLOB:
; 8180 :             // We only allow a comparison of strings to blobs if the comparison
; 8181 :             // string is NULL.
; 8182 :             if ( pchStringValue == 0 || pchStringValue[ 0 ] == 0 )

	cmp	DWORD PTR _pchStringValue$[ebp], 0
	je	SHORT $LN42@fnCompareA
	mov	eax, 1
	imul	ecx, eax, 0
	mov	edx, DWORD PTR _pchStringValue$[ebp]
	movsx	eax, BYTE PTR [edx+ecx]
	test	eax, eax
	jne	SHORT $LN43@fnCompareA
$LN42@fnCompareA:

; 8183 :             {
; 8184 :                nRC = 0;

	xor	ecx, ecx
	mov	WORD PTR _nRC$[ebp], cx

; 8185 :                break;

	jmp	SHORT $LN7@fnCompareA
$LN43@fnCompareA:

; 8186 :             }
; 8187 : 
; 8188 :             // NOTE: FALL THROUGH...
; 8189 :             // NOTE: FALL THROUGH...
; 8190 :             // NOTE: FALL THROUGH...
; 8191 : 
; 8192 :          default:
; 8193 :          {
; 8194 :             LPVIEWCSR lpViewCsr = zGETPTR( lpViewEntityCsr->hViewCsr );

	mov	edx, DWORD PTR _lpViewEntityCsr$[ebp]
	mov	eax, DWORD PTR [edx+18]
	push	eax
	call	DWORD PTR _g_pfnGetPtr
	mov	DWORD PTR _lpViewCsr$1[ebp], eax

; 8195 :             zVIEW     lpView = zGETPTR( lpViewCsr->hView );

	mov	ecx, DWORD PTR _lpViewCsr$1[ebp]
	mov	edx, DWORD PTR [ecx+6]
	push	edx
	call	DWORD PTR _g_pfnGetPtr
	mov	DWORD PTR _lpView$4[ebp], eax

; 8196 : 
; 8197 :             // "KZOEE239 - Invalid Operation for attribute type"
; 8198 :             fnIssueCoreError( zGETPTR( lpView->hTask ), lpView, 8, 239, 0,

	mov	eax, DWORD PTR _lpViewAttrib$[ebp]
	add	eax, 10					; 0000000aH
	push	eax
	mov	ecx, DWORD PTR _lpViewEntityCsr$[ebp]
	push	ecx
	call	_fnEntityNameFromCsr@4
	push	eax
	push	0
	push	239					; 000000efH
	push	8
	mov	edx, DWORD PTR _lpView$4[ebp]
	push	edx
	mov	eax, DWORD PTR _lpView$4[ebp]
	mov	ecx, DWORD PTR [eax+14]
	push	ecx
	call	DWORD PTR _g_pfnGetPtr
	push	eax
	call	_fnIssueCoreError
	add	esp, 28					; 0000001cH

; 8199 :                               fnEntityNameFromCsr( lpViewEntityCsr ),
; 8200 :                               lpViewAttrib->szName );
; 8201 :             nRC = zCALL_ERROR;

	mov	edx, -16				; fffffff0H
	mov	WORD PTR _nRC$[ebp], dx
$LN7@fnCompareA:

; 8202 :          }
; 8203 :       }
; 8204 :    }
; 8205 : 
; 8206 :    return( nRC );

	mov	ax, WORD PTR _nRC$[ebp]
$LN44@fnCompareA:

; 8207 : }

	mov	ecx, DWORD PTR __$ArrayPad$[ebp]
	xor	ecx, ebp
	call	@__security_check_cookie@4
	mov	esp, ebp
	pop	ebp
	ret	0
	npad	2
$LN61@fnCompareA:
	DD	$LN30@fnCompareA
	DD	$LN15@fnCompareA
	DD	$LN21@fnCompareA
	DD	$LN8@fnCompareA
	DD	$LN26@fnCompareA
	DD	$LN35@fnCompareA
$LN59@fnCompareA:
	DB	0
	DB	5
	DB	5
	DB	5
	DB	5
	DB	5
	DB	5
	DB	5
	DB	5
	DB	5
	DB	1
	DB	2
	DB	5
	DB	5
	DB	5
	DB	5
	DB	5
	DB	3
	DB	4
	npad	1
$LN62@fnCompareA:
	DD	$LN40@fnCompareA
	DD	$LN36@fnCompareA
	DD	$LN43@fnCompareA
$LN60@fnCompareA:
	DB	0
	DB	2
	DB	2
	DB	2
	DB	2
	DB	2
	DB	2
	DB	2
	DB	2
	DB	2
	DB	1
	DB	1
	DB	2
	DB	2
	DB	2
	DB	2
	DB	2
	DB	1
	DB	1
_fnCompareAttributeToString ENDP
_TEXT	ENDS
; Function compile flags: /Odtp
; File c:\10c\a\oe\kzoeataa.c
_TEXT	SEGMENT
tv77 = -16						; size = 4
_j$ = -12						; size = 2
_k$ = -8						; size = 2
_i$ = -4						; size = 2
_pchString$ = 8						; size = 4
_pchFormat$ = 12					; size = 4
_sFormatOut PROC

; 6415 : {

	push	ebp
	mov	ebp, esp
	sub	esp, 16					; 00000010H
	push	esi

; 6416 :    zSHORT i, j, k;
; 6417 : 
; 6418 :    i = 0;

	xor	eax, eax
	mov	WORD PTR _i$[ebp], ax

; 6419 :    j = 0;

	xor	ecx, ecx
	mov	WORD PTR _j$[ebp], cx

; 6420 : 
; 6421 :    if ( pchString[ 0 ] == 0 )

	mov	edx, 1
	imul	eax, edx, 0
	mov	ecx, DWORD PTR _pchString$[ebp]
	movsx	edx, BYTE PTR [ecx+eax]
	test	edx, edx
	jne	SHORT $LN2@sFormatOut

; 6422 :       return( 0 );

	xor	eax, eax
	jmp	$LN1@sFormatOut
$LN2@sFormatOut:

; 6423 : 
; 6424 :    while ( pchFormat[ i ] )

	movsx	eax, WORD PTR _i$[ebp]
	mov	ecx, DWORD PTR _pchFormat$[ebp]
	movsx	edx, BYTE PTR [ecx+eax]
	test	edx, edx
	je	$LN3@sFormatOut

; 6425 :    {
; 6426 :       switch ( pchFormat[ i ] )

	movsx	eax, WORD PTR _i$[ebp]
	mov	ecx, DWORD PTR _pchFormat$[ebp]
	movsx	edx, BYTE PTR [ecx+eax]
	mov	DWORD PTR tv77[ebp], edx
	mov	eax, DWORD PTR tv77[ebp]
	sub	eax, 42					; 0000002aH
	mov	DWORD PTR tv77[ebp], eax
	cmp	DWORD PTR tv77[ebp], 55			; 00000037H
	ja	SHORT $LN13@sFormatOut
	mov	ecx, DWORD PTR tv77[ebp]
	movzx	edx, BYTE PTR $LN16@sFormatOut[ecx]
	jmp	DWORD PTR $LN17@sFormatOut[edx*4]
$LN11@sFormatOut:

; 6427 :       {
; 6428 :          case  '9':
; 6429 :          case  'A':
; 6430 :          case  'a':
; 6431 :          case  'X':
; 6432 :          case  '*':
; 6433 :             if ( pchString[ j ] == 0 )

	movsx	eax, WORD PTR _j$[ebp]
	mov	ecx, DWORD PTR _pchString$[ebp]
	movsx	edx, BYTE PTR [ecx+eax]
	test	edx, edx
	jne	SHORT $LN12@sFormatOut

; 6434 :                return( 1 );

	mov	eax, 1
	jmp	$LN1@sFormatOut
$LN12@sFormatOut:

; 6435 : 
; 6436 :             break;

	jmp	$LN4@sFormatOut
$LN13@sFormatOut:

; 6437 : 
; 6438 :          default:
; 6439 :             if ( pchFormat[ i ] == '\\' && pchFormat[ i + 1 ] )

	movsx	eax, WORD PTR _i$[ebp]
	mov	ecx, DWORD PTR _pchFormat$[ebp]
	movsx	edx, BYTE PTR [ecx+eax]
	cmp	edx, 92					; 0000005cH
	jne	SHORT $LN14@sFormatOut
	movsx	eax, WORD PTR _i$[ebp]
	mov	ecx, DWORD PTR _pchFormat$[ebp]
	movsx	edx, BYTE PTR [ecx+eax+1]
	test	edx, edx
	je	SHORT $LN14@sFormatOut

; 6440 :                i++;

	mov	ax, WORD PTR _i$[ebp]
	add	ax, 1
	mov	WORD PTR _i$[ebp], ax
$LN14@sFormatOut:

; 6441 : 
; 6442 :             k = j;

	mov	cx, WORD PTR _j$[ebp]
	mov	WORD PTR _k$[ebp], cx
$LN6@sFormatOut:

; 6443 :             while ( pchString[ k ] )

	movsx	edx, WORD PTR _k$[ebp]
	mov	eax, DWORD PTR _pchString$[ebp]
	movsx	ecx, BYTE PTR [eax+edx]
	test	ecx, ecx
	je	SHORT $LN8@sFormatOut

; 6444 :                k++;

	mov	dx, WORD PTR _k$[ebp]
	add	dx, 1
	mov	WORD PTR _k$[ebp], dx
	jmp	SHORT $LN6@sFormatOut
$LN8@sFormatOut:

; 6445 : 
; 6446 :             while ( k >= j )

	movsx	eax, WORD PTR _k$[ebp]
	movsx	ecx, WORD PTR _j$[ebp]
	cmp	eax, ecx
	jl	SHORT $LN9@sFormatOut

; 6447 :             {
; 6448 :                pchString[ k + 1 ] = pchString[ k ];

	movsx	edx, WORD PTR _k$[ebp]
	movsx	eax, WORD PTR _k$[ebp]
	mov	ecx, DWORD PTR _pchString$[ebp]
	mov	esi, DWORD PTR _pchString$[ebp]
	mov	dl, BYTE PTR [esi+edx]
	mov	BYTE PTR [ecx+eax+1], dl

; 6449 :                k--;

	mov	ax, WORD PTR _k$[ebp]
	sub	ax, 1
	mov	WORD PTR _k$[ebp], ax

; 6450 :             }

	jmp	SHORT $LN8@sFormatOut
$LN9@sFormatOut:

; 6451 : 
; 6452 :             pchString[ j ] = pchFormat[ i ];

	movsx	ecx, WORD PTR _i$[ebp]
	movsx	edx, WORD PTR _j$[ebp]
	mov	eax, DWORD PTR _pchString$[ebp]
	mov	esi, DWORD PTR _pchFormat$[ebp]
	mov	cl, BYTE PTR [esi+ecx]
	mov	BYTE PTR [eax+edx], cl
$LN4@sFormatOut:

; 6453 :       }
; 6454 : 
; 6455 :       i++;

	mov	dx, WORD PTR _i$[ebp]
	add	dx, 1
	mov	WORD PTR _i$[ebp], dx

; 6456 :       j++;

	mov	ax, WORD PTR _j$[ebp]
	add	ax, 1
	mov	WORD PTR _j$[ebp], ax

; 6457 :    }

	jmp	$LN2@sFormatOut
$LN3@sFormatOut:

; 6458 : 
; 6459 :    return( 0 );

	xor	eax, eax
$LN1@sFormatOut:

; 6460 : }

	pop	esi
	mov	esp, ebp
	pop	ebp
	ret	0
$LN17@sFormatOut:
	DD	$LN11@sFormatOut
	DD	$LN13@sFormatOut
$LN16@sFormatOut:
	DB	0
	DB	1
	DB	1
	DB	1
	DB	1
	DB	1
	DB	1
	DB	1
	DB	1
	DB	1
	DB	1
	DB	1
	DB	1
	DB	1
	DB	1
	DB	0
	DB	1
	DB	1
	DB	1
	DB	1
	DB	1
	DB	1
	DB	1
	DB	0
	DB	1
	DB	1
	DB	1
	DB	1
	DB	1
	DB	1
	DB	1
	DB	1
	DB	1
	DB	1
	DB	1
	DB	1
	DB	1
	DB	1
	DB	1
	DB	1
	DB	1
	DB	1
	DB	1
	DB	1
	DB	1
	DB	1
	DB	0
	DB	1
	DB	1
	DB	1
	DB	1
	DB	1
	DB	1
	DB	1
	DB	1
	DB	0
_sFormatOut ENDP
_TEXT	ENDS
; Function compile flags: /Odtp
; File c:\10c\a\oe\kzoeataa.c
_TEXT	SEGMENT
tv73 = -20						; size = 4
_l$ = -16						; size = 2
_i$ = -12						; size = 2
_k$ = -8						; size = 2
_j$ = -4						; size = 2
_pchString$ = 8						; size = 4
_pchFormat$ = 12					; size = 4
_pchEdit$ = 16						; size = 4
_sFormatIn PROC

; 6302 : {

	push	ebp
	mov	ebp, esp
	sub	esp, 20					; 00000014H
	push	esi

; 6303 :    short i, j, k, l;
; 6304 : 
; 6305 :    i = 0;

	xor	eax, eax
	mov	WORD PTR _i$[ebp], ax

; 6306 :    j = 0;

	xor	ecx, ecx
	mov	WORD PTR _j$[ebp], cx
$LN2@sFormatIn:

; 6307 :    while ( pchString[ j ] )

	movsx	edx, WORD PTR _j$[ebp]
	mov	eax, DWORD PTR _pchString$[ebp]
	movsx	ecx, BYTE PTR [eax+edx]
	test	ecx, ecx
	je	$LN3@sFormatIn

; 6308 :    {
; 6309 :       switch ( pchFormat[ i ] )

	movsx	edx, WORD PTR _i$[ebp]
	mov	eax, DWORD PTR _pchFormat$[ebp]
	movsx	ecx, BYTE PTR [eax+edx]
	mov	DWORD PTR tv73[ebp], ecx
	cmp	DWORD PTR tv73[ebp], 97			; 00000061H
	ja	$LN29@sFormatIn
	mov	edx, DWORD PTR tv73[ebp]
	movzx	eax, BYTE PTR $LN34@sFormatIn[edx]
	jmp	DWORD PTR $LN35@sFormatIn[eax*4]
$LN14@sFormatIn:

; 6310 :       {
; 6311 :          case  0:
; 6312 :             return( 1 );

	mov	al, 1
	jmp	$LN1@sFormatIn
$LN15@sFormatIn:

; 6313 : 
; 6314 :          case  '9':
; 6315 :             if ( isdigit( pchString[ j ] ) == FALSE )

	movsx	ecx, WORD PTR _j$[ebp]
	mov	edx, DWORD PTR _pchString$[ebp]
	movsx	eax, BYTE PTR [edx+ecx]
	push	eax
	call	DWORD PTR __imp__isdigit
	add	esp, 4
	test	eax, eax
	jne	SHORT $LN16@sFormatIn

; 6316 :                return( 1 );

	mov	al, 1
	jmp	$LN1@sFormatIn
$LN16@sFormatIn:

; 6317 : 
; 6318 :             break;

	jmp	$LN4@sFormatIn
$LN17@sFormatIn:

; 6319 : 
; 6320 :          case  'A':
; 6321 :             if ( isupper( pchString[ j ] ) == FALSE )

	movsx	ecx, WORD PTR _j$[ebp]
	mov	edx, DWORD PTR _pchString$[ebp]
	movsx	eax, BYTE PTR [edx+ecx]
	push	eax
	call	DWORD PTR __imp__isupper
	add	esp, 4
	test	eax, eax
	jne	SHORT $LN18@sFormatIn

; 6322 :                return( 1 );

	mov	al, 1
	jmp	$LN1@sFormatIn
$LN18@sFormatIn:

; 6323 : 
; 6324 :             break;

	jmp	$LN4@sFormatIn
$LN19@sFormatIn:

; 6325 : 
; 6326 :          case  'a':
; 6327 :             if ( isalpha( pchString[ j ] ) == FALSE )

	movsx	ecx, WORD PTR _j$[ebp]
	mov	edx, DWORD PTR _pchString$[ebp]
	movsx	eax, BYTE PTR [edx+ecx]
	push	eax
	call	DWORD PTR __imp__isalpha
	add	esp, 4
	test	eax, eax
	jne	SHORT $LN20@sFormatIn

; 6328 :                return( 1 );

	mov	al, 1
	jmp	$LN1@sFormatIn
$LN20@sFormatIn:

; 6329 : 
; 6330 :             break;

	jmp	$LN4@sFormatIn
$LN21@sFormatIn:

; 6331 : 
; 6332 :          case  'X':
; 6333 :             if ( zisalnum( pchString[ j ] ) == FALSE )

	movsx	ecx, WORD PTR _j$[ebp]
	mov	edx, DWORD PTR _pchString$[ebp]
	movsx	eax, BYTE PTR [edx+ecx]
	push	eax
	call	DWORD PTR __imp__isalnum
	add	esp, 4
	test	eax, eax
	jne	SHORT $LN22@sFormatIn

; 6334 :                return( 1 );

	mov	al, 1
	jmp	$LN1@sFormatIn
$LN22@sFormatIn:

; 6335 : 
; 6336 :             break;

	jmp	$LN4@sFormatIn
$LN23@sFormatIn:

; 6337 : 
; 6338 :          case  '*':
; 6339 :             break;

	jmp	$LN4@sFormatIn
$LN24@sFormatIn:

; 6340 : 
; 6341 :          case  '\\':
; 6342 :             j--;

	mov	cx, WORD PTR _j$[ebp]
	sub	cx, 1
	mov	WORD PTR _j$[ebp], cx

; 6343 :             break;

	jmp	$LN4@sFormatIn
$LN25@sFormatIn:

; 6344 : 
; 6345 :          case  ' ':
; 6346 :             if ( pchString[ j ] == ' ' )

	movsx	edx, WORD PTR _j$[ebp]
	mov	eax, DWORD PTR _pchString$[ebp]
	movsx	ecx, BYTE PTR [eax+edx]
	cmp	ecx, 32					; 00000020H
	jne	SHORT $LN26@sFormatIn

; 6347 :             {
; 6348 :                k = j + 1;

	movsx	edx, WORD PTR _j$[ebp]
	add	edx, 1
	mov	WORD PTR _k$[ebp], dx
$LN6@sFormatIn:

; 6349 :                while( pchString[ k ] == ' ' )

	movsx	eax, WORD PTR _k$[ebp]
	mov	ecx, DWORD PTR _pchString$[ebp]
	movsx	edx, BYTE PTR [ecx+eax]
	cmp	edx, 32					; 00000020H
	jne	SHORT $LN7@sFormatIn

; 6350 :                   k++;

	mov	ax, WORD PTR _k$[ebp]
	add	ax, 1
	mov	WORD PTR _k$[ebp], ax
	jmp	SHORT $LN6@sFormatIn
$LN7@sFormatIn:

; 6351 : 
; 6352 :                l = j;

	mov	cx, WORD PTR _j$[ebp]
	mov	WORD PTR _l$[ebp], cx
$LN10@sFormatIn:

; 6353 :                for ( ; ; )
; 6354 :                {
; 6355 :                   pchString[ l++ ] = pchString[ k ];

	movsx	edx, WORD PTR _k$[ebp]
	movsx	eax, WORD PTR _l$[ebp]
	mov	ecx, DWORD PTR _pchString$[ebp]
	mov	esi, DWORD PTR _pchString$[ebp]
	mov	dl, BYTE PTR [esi+edx]
	mov	BYTE PTR [ecx+eax], dl
	mov	ax, WORD PTR _l$[ebp]
	add	ax, 1
	mov	WORD PTR _l$[ebp], ax

; 6356 :                   if ( pchString[ k ] == 0 )

	movsx	ecx, WORD PTR _k$[ebp]
	mov	edx, DWORD PTR _pchString$[ebp]
	movsx	eax, BYTE PTR [edx+ecx]
	test	eax, eax
	jne	SHORT $LN28@sFormatIn

; 6357 :                      break;

	jmp	SHORT $LN9@sFormatIn
$LN28@sFormatIn:

; 6358 : 
; 6359 :                   k++;

	mov	cx, WORD PTR _k$[ebp]
	add	cx, 1
	mov	WORD PTR _k$[ebp], cx

; 6360 :                }

	jmp	SHORT $LN10@sFormatIn
$LN9@sFormatIn:

; 6361 : 
; 6362 :                break;

	jmp	SHORT $LN4@sFormatIn

; 6363 :             }

	jmp	SHORT $LN29@sFormatIn
$LN26@sFormatIn:

; 6364 :             else
; 6365 :                return( 1 );

	mov	al, 1
	jmp	$LN1@sFormatIn
$LN29@sFormatIn:

; 6366 : 
; 6367 :          default:
; 6368 :             if ( pchFormat[ i ] != pchString[ j ] )

	movsx	edx, WORD PTR _i$[ebp]
	mov	eax, DWORD PTR _pchFormat$[ebp]
	movsx	ecx, BYTE PTR [eax+edx]
	movsx	edx, WORD PTR _j$[ebp]
	mov	eax, DWORD PTR _pchString$[ebp]
	movsx	edx, BYTE PTR [eax+edx]
	cmp	ecx, edx
	je	SHORT $LN30@sFormatIn

; 6369 :                return( 1 );

	mov	al, 1
	jmp	SHORT $LN1@sFormatIn
$LN30@sFormatIn:

; 6370 : 
; 6371 :             k = j;

	mov	ax, WORD PTR _j$[ebp]
	mov	WORD PTR _k$[ebp], ax
$LN13@sFormatIn:

; 6372 :             for ( ; ; )
; 6373 :             {
; 6374 :                pchString[ k ] = pchString[ k + 1 ];

	movsx	ecx, WORD PTR _k$[ebp]
	movsx	edx, WORD PTR _k$[ebp]
	mov	eax, DWORD PTR _pchString$[ebp]
	mov	esi, DWORD PTR _pchString$[ebp]
	mov	cl, BYTE PTR [esi+ecx+1]
	mov	BYTE PTR [eax+edx], cl

; 6375 :                if ( pchString[ k ] == 0 )

	movsx	edx, WORD PTR _k$[ebp]
	mov	eax, DWORD PTR _pchString$[ebp]
	movsx	ecx, BYTE PTR [eax+edx]
	test	ecx, ecx
	jne	SHORT $LN31@sFormatIn

; 6376 :                   break;

	jmp	SHORT $LN12@sFormatIn
$LN31@sFormatIn:

; 6377 : 
; 6378 :                k++;

	mov	dx, WORD PTR _k$[ebp]
	add	dx, 1
	mov	WORD PTR _k$[ebp], dx

; 6379 :             }

	jmp	SHORT $LN13@sFormatIn
$LN12@sFormatIn:

; 6380 : 
; 6381 :             j--;

	mov	ax, WORD PTR _j$[ebp]
	sub	ax, 1
	mov	WORD PTR _j$[ebp], ax
$LN4@sFormatIn:

; 6382 :         }
; 6383 : 
; 6384 :         i++;

	mov	cx, WORD PTR _i$[ebp]
	add	cx, 1
	mov	WORD PTR _i$[ebp], cx

; 6385 :         j++;

	mov	dx, WORD PTR _j$[ebp]
	add	dx, 1
	mov	WORD PTR _j$[ebp], dx

; 6386 :     }

	jmp	$LN2@sFormatIn
$LN3@sFormatIn:

; 6387 : 
; 6388 :     if ( pchFormat[ i ] )

	movsx	eax, WORD PTR _i$[ebp]
	mov	ecx, DWORD PTR _pchFormat$[ebp]
	movsx	edx, BYTE PTR [ecx+eax]
	test	edx, edx
	je	SHORT $LN32@sFormatIn

; 6389 :        return( 1 );

	mov	al, 1
	jmp	SHORT $LN1@sFormatIn
$LN32@sFormatIn:

; 6390 : 
; 6391 :     return( 0 );

	xor	al, al
$LN1@sFormatIn:

; 6392 : }

	pop	esi
	mov	esp, ebp
	pop	ebp
	ret	0
$LN35@sFormatIn:
	DD	$LN14@sFormatIn
	DD	$LN25@sFormatIn
	DD	$LN23@sFormatIn
	DD	$LN15@sFormatIn
	DD	$LN17@sFormatIn
	DD	$LN21@sFormatIn
	DD	$LN24@sFormatIn
	DD	$LN19@sFormatIn
	DD	$LN29@sFormatIn
$LN34@sFormatIn:
	DB	0
	DB	8
	DB	8
	DB	8
	DB	8
	DB	8
	DB	8
	DB	8
	DB	8
	DB	8
	DB	8
	DB	8
	DB	8
	DB	8
	DB	8
	DB	8
	DB	8
	DB	8
	DB	8
	DB	8
	DB	8
	DB	8
	DB	8
	DB	8
	DB	8
	DB	8
	DB	8
	DB	8
	DB	8
	DB	8
	DB	8
	DB	8
	DB	1
	DB	8
	DB	8
	DB	8
	DB	8
	DB	8
	DB	8
	DB	8
	DB	8
	DB	8
	DB	2
	DB	8
	DB	8
	DB	8
	DB	8
	DB	8
	DB	8
	DB	8
	DB	8
	DB	8
	DB	8
	DB	8
	DB	8
	DB	8
	DB	8
	DB	3
	DB	8
	DB	8
	DB	8
	DB	8
	DB	8
	DB	8
	DB	8
	DB	4
	DB	8
	DB	8
	DB	8
	DB	8
	DB	8
	DB	8
	DB	8
	DB	8
	DB	8
	DB	8
	DB	8
	DB	8
	DB	8
	DB	8
	DB	8
	DB	8
	DB	8
	DB	8
	DB	8
	DB	8
	DB	8
	DB	8
	DB	5
	DB	8
	DB	8
	DB	8
	DB	6
	DB	8
	DB	8
	DB	8
	DB	8
	DB	7
_sFormatIn ENDP
_TEXT	ENDS
; Function compile flags: /Odtp
; File c:\10c\a\oe\kzoeataa.c
_TEXT	SEGMENT
_lReturn$ = -80						; size = 4
_vOldStackObject$ = -76					; size = 4
_pchObjectName$ = -72					; size = 4
_lpViewOD$1 = -68					; size = 4
_lpCurrentTask$ = -64					; size = 4
_lpApp$ = -60						; size = 4
_vAppSubtask$ = -56					; size = 4
_hLibrary$2 = -52					; size = 4
_ulLth$ = -48						; size = 4
_vXPG$ = -44						; size = 4
_pchData$ = -40						; size = 4
_nRC$ = -36						; size = 2
_bDropSubtask$ = -29					; size = 1
_vStackObject$ = -28					; size = 4
_vSubtask$ = -24					; size = 4
_szOperName$ = -20					; size = 16
__$ArrayPad$ = -4					; size = 4
_lpView$ = 8						; size = 4
_lpViewEntity$ = 12					; size = 4
_lpViewAttrib$ = 16					; size = 4
_nFlag$ = 20						; size = 2
_DfExecuteXPG@16 PROC

; 6014 : {

	push	ebp
	mov	ebp, esp
	sub	esp, 80					; 00000050H
	mov	eax, DWORD PTR ___security_cookie
	xor	eax, ebp
	mov	DWORD PTR __$ArrayPad$[ebp], eax

; 6015 :    LPAPP  lpApp;
; 6016 :    zVIEW  vSubtask;
; 6017 :    zVIEW  vAppSubtask;
; 6018 :    zVIEW  vXPG;
; 6019 :    zVIEW  vStackObject;
; 6020 :    zVIEW  vOldStackObject;
; 6021 :    LPTASK lpCurrentTask;
; 6022 :    zCHAR  szOperName[] = "DerivedFunction";

	mov	eax, DWORD PTR $SG16607
	mov	DWORD PTR _szOperName$[ebp], eax
	mov	ecx, DWORD PTR $SG16607+4
	mov	DWORD PTR _szOperName$[ebp+4], ecx
	mov	edx, DWORD PTR $SG16607+8
	mov	DWORD PTR _szOperName$[ebp+8], edx
	mov	eax, DWORD PTR $SG16607+12
	mov	DWORD PTR _szOperName$[ebp+12], eax

; 6023 :    zULONG ulLth;
; 6024 :    zPCHAR pchData;
; 6025 :    zPCHAR pchObjectName;
; 6026 :    zLONG  lReturn;
; 6027 :    zBOOL  bDropSubtask;
; 6028 :    zSHORT nRC;
; 6029 : 
; 6030 :    static PFNINTERP pfnInterp = 0;
; 6031 : 
; 6032 :    // We'll never set this attribute.
; 6033 :    if ( nFlag == zDERIVED_SET )

	movsx	ecx, WORD PTR _nFlag$[ebp]
	cmp	ecx, 1
	jne	SHORT $LN2@DfExecuteX

; 6034 :       return( 0 );

	xor	eax, eax
	jmp	$LN1@DfExecuteX
$LN2@DfExecuteX:

; 6035 : 
; 6036 :    lpCurrentTask = zGETPTR( lpView->hTask );

	mov	edx, DWORD PTR _lpView$[ebp]
	mov	eax, DWORD PTR [edx+14]
	push	eax
	call	DWORD PTR _g_pfnGetPtr
	mov	DWORD PTR _lpCurrentTask$[ebp], eax

; 6037 : // lpCurrentTask = fnFindTask( 0 );  // dks 2006.05.07  back to 10B
; 6038 : 
; 6039 :    // Set up interpreter.
; 6040 :    // Create the appl subtask.
; 6041 :    fnGetApplicationForSubtask( &lpApp, lpView );

	mov	ecx, DWORD PTR _lpView$[ebp]
	push	ecx
	lea	edx, DWORD PTR _lpApp$[ebp]
	push	edx
	call	_fnGetApplicationForSubtask@8

; 6042 :    zLOCK_MUTEX( zMUTEX_ANCHORBLOCK );

	push	2
	call	_fnSysLockCoreMutex@4

; 6043 :    vAppSubtask = fnCreateSubtask( lpCurrentTask, lpApp );

	mov	eax, DWORD PTR _lpApp$[ebp]
	push	eax
	mov	ecx, DWORD PTR _lpCurrentTask$[ebp]
	push	ecx
	call	_fnCreateSubtask
	add	esp, 8
	mov	DWORD PTR _vAppSubtask$[ebp], eax

; 6044 :    zUNLOCK_MUTEX( zMUTEX_ANCHORBLOCK );

	push	2
	call	_fnSysUnlockCoreMutex@4

; 6045 : 
; 6046 :    // It's possible that we are being called recursively.  This will happen if
; 6047 :    // a derived expression references another attrib with a derived expr.  We
; 6048 :    // need to make sure that when we leave this function the OIs needed for the
; 6049 :    // parent derived expr are still in place.
; 6050 :    GetViewByName( &vSubtask, "ZeidonVML", lpView, zLEVEL_TASK );

	push	2
	mov	edx, DWORD PTR _lpView$[ebp]
	push	edx
	push	OFFSET $SG16609
	lea	eax, DWORD PTR _vSubtask$[ebp]
	push	eax
	call	_GetViewByName@16

; 6051 :    if ( vSubtask == 0 )

	cmp	DWORD PTR _vSubtask$[ebp], 0
	jne	SHORT $LN3@DfExecuteX

; 6052 :    {
; 6053 :       // No parent derived expr.  Do normal init processing.
; 6054 :       bDropSubtask = TRUE;

	mov	BYTE PTR _bDropSubtask$[ebp], 1

; 6055 :       SfCreateSubtask( &vSubtask, lpView, "Zeidon_Tools" );

	push	OFFSET $SG16612
	mov	ecx, DWORD PTR _lpView$[ebp]
	push	ecx
	lea	edx, DWORD PTR _vSubtask$[ebp]
	push	edx
	call	_SfCreateSubtask@12

; 6056 : 
; 6057 :       // name the ZeidonVML subtask at the task level.
; 6058 :       SetNameForView( vSubtask, "ZeidonVML", lpView, zLEVEL_TASK );

	push	2
	mov	eax, DWORD PTR _lpView$[ebp]
	push	eax
	push	OFFSET $SG16613
	mov	ecx, DWORD PTR _vSubtask$[ebp]
	push	ecx
	call	_SetNameForView@16

; 6059 :    }

	jmp	SHORT $LN4@DfExecuteX
$LN3@DfExecuteX:

; 6060 :    else
; 6061 :    {
; 6062 :       // We must be in the process of being called recursively.  Don't create
; 6063 :       // a new subtask and save the current stack OI.
; 6064 :       bDropSubtask = FALSE;

	mov	BYTE PTR _bDropSubtask$[ebp], 0

; 6065 : 
; 6066 :       // Save the current stack object OI.
; 6067 :       GetViewByName( &vOldStackObject, "StackObject", vSubtask, zLEVEL_SUBTASK );

	push	1
	mov	edx, DWORD PTR _vSubtask$[ebp]
	push	edx
	push	OFFSET $SG16614
	lea	eax, DWORD PTR _vOldStackObject$[ebp]
	push	eax
	call	_GetViewByName@16
$LN4@DfExecuteX:

; 6068 :    }
; 6069 : 
; 6070 :    // Get a pointer to the begining of the OI data.  For OIs stored as blobs
; 6071 :    // there is some header information that we don't need, so skip over it.
; 6072 :    pchData = (zPCHAR) zGETPTR( lpViewAttrib->hDerivedXPG );

	mov	ecx, DWORD PTR _lpViewAttrib$[ebp]
	mov	edx, DWORD PTR [ecx+255]
	push	edx
	call	DWORD PTR _g_pfnGetPtr
	mov	DWORD PTR _pchData$[ebp], eax

; 6073 :    ulLth  = fnGetDataspaceLength( pchData );

	mov	eax, DWORD PTR _pchData$[ebp]
	push	eax
	call	_fnGetDataspaceLength
	add	esp, 4
	mov	DWORD PTR _ulLth$[ebp], eax

; 6074 :    pchData += sizeof( BlobOI_Record );

	mov	ecx, DWORD PTR _pchData$[ebp]
	add	ecx, 137				; 00000089H
	mov	DWORD PTR _pchData$[ebp], ecx

; 6075 :    ulLth  -= sizeof( BlobOI_Record );

	mov	edx, DWORD PTR _ulLth$[ebp]
	sub	edx, 137				; 00000089H
	mov	DWORD PTR _ulLth$[ebp], edx

; 6076 : 
; 6077 :    // "Activate" the XPG from the binary data.
; 6078 :    if ( GetViewByName( &vXPG, "LastXPG", vSubtask, zLEVEL_TASK ) < 0 )

	push	2
	mov	eax, DWORD PTR _vSubtask$[ebp]
	push	eax
	push	OFFSET $SG16617
	lea	ecx, DWORD PTR _vXPG$[ebp]
	push	ecx
	call	_GetViewByName@16
	movsx	edx, ax
	test	edx, edx
	jge	SHORT $LN5@DfExecuteX

; 6079 :       nRC = -1;

	or	eax, -1
	mov	WORD PTR _nRC$[ebp], ax
	jmp	SHORT $LN6@DfExecuteX
$LN5@DfExecuteX:

; 6080 :    else
; 6081 :    {
; 6082 :       LPVIEWOD lpViewOD = zGETPTR( lpView->hViewOD );

	mov	ecx, DWORD PTR _lpView$[ebp]
	mov	edx, DWORD PTR [ecx+6]
	push	edx
	call	DWORD PTR _g_pfnGetPtr
	mov	DWORD PTR _lpViewOD$1[ebp], eax

; 6083 : 
; 6084 :       pchObjectName = lpViewOD->szName;

	mov	eax, DWORD PTR _lpViewOD$1[ebp]
	add	eax, 10					; 0000000aH
	mov	DWORD PTR _pchObjectName$[ebp], eax

; 6085 :       if ( CompareAttributeToString( vXPG, "VML_XSource",
; 6086 :                                      "MetaName", pchObjectName ) == 0 )

	mov	ecx, DWORD PTR _pchObjectName$[ebp]
	push	ecx
	push	OFFSET $SG16620
	push	OFFSET $SG16621
	mov	edx, DWORD PTR _vXPG$[ebp]
	push	edx
	call	_CompareAttributeToString@16
	cwde
	test	eax, eax
	jne	SHORT $LN7@DfExecuteX

; 6087 :       {
; 6088 :          nRC = 0;

	xor	ecx, ecx
	mov	WORD PTR _nRC$[ebp], cx

; 6089 :       }

	jmp	SHORT $LN6@DfExecuteX
$LN7@DfExecuteX:

; 6090 :       else
; 6091 :       {
; 6092 :          nRC = -1;

	or	edx, -1
	mov	WORD PTR _nRC$[ebp], dx
$LN6@DfExecuteX:

; 6093 :       }
; 6094 :    }
; 6095 : 
; 6096 :    if ( nRC < 0 )

	movsx	eax, WORD PTR _nRC$[ebp]
	test	eax, eax
	jge	SHORT $LN9@DfExecuteX

; 6097 :    {
; 6098 :       nRC = fnActivateOI_FromBuffer( &vXPG, "TZVSPOOO", vSubtask,

	push	0
	mov	ecx, DWORD PTR _ulLth$[ebp]
	push	ecx
	mov	edx, DWORD PTR _pchData$[ebp]
	push	edx
	mov	eax, DWORD PTR _vSubtask$[ebp]
	push	eax
	push	OFFSET $SG16623
	lea	ecx, DWORD PTR _vXPG$[ebp]
	push	ecx
	call	_fnActivateOI_FromBuffer@24
	mov	WORD PTR _nRC$[ebp], ax

; 6099 :                                      pchData, ulLth, zSINGLE );
; 6100 :       if ( nRC < 0 )

	movsx	edx, WORD PTR _nRC$[ebp]
	test	edx, edx
	jge	SHORT $LN10@DfExecuteX

; 6101 :       {
; 6102 :          SysMessageBox( lpView, "Internal Core Error",

	push	1
	push	OFFSET $SG16625
	push	OFFSET $SG16626
	mov	eax, DWORD PTR _lpView$[ebp]
	push	eax
	call	_SysMessageBox@16

; 6103 :                         "Error reading OI from buffer", 1 );
; 6104 :          return( zCALL_ERROR );

	mov	eax, -16				; fffffff0H
	jmp	$LN1@DfExecuteX
$LN10@DfExecuteX:

; 6105 :       }
; 6106 : 
; 6107 :       SetNameForView( vXPG, "LastXPG", vSubtask, zLEVEL_TASK );

	push	2
	mov	ecx, DWORD PTR _vSubtask$[ebp]
	push	ecx
	push	OFFSET $SG16627
	mov	edx, DWORD PTR _vXPG$[ebp]
	push	edx
	call	_SetNameForView@16
$LN9@DfExecuteX:

; 6108 :    }
; 6109 : 
; 6110 :    SetNameForView( vXPG, "XPG", vSubtask, zLEVEL_SUBTASK );

	push	1
	mov	eax, DWORD PTR _vSubtask$[ebp]
	push	eax
	push	OFFSET $SG16628
	mov	ecx, DWORD PTR _vXPG$[ebp]
	push	ecx
	call	_SetNameForView@16

; 6111 : 
; 6112 :    // Initialize the stack object with arguments for the operation.
; 6113 :    ActivateEmptyObjectInstance( &vStackObject, "TZVSRTOO", vSubtask, zSINGLE );

	push	0
	mov	edx, DWORD PTR _vSubtask$[ebp]
	push	edx
	push	OFFSET $SG16629
	lea	eax, DWORD PTR _vStackObject$[ebp]
	push	eax
	call	_ActivateEmptyObjectInstance@16

; 6114 :    CreateEntity( vStackObject, "StackObject", zPOS_AFTER );

	push	3
	push	OFFSET $SG16630
	mov	ecx, DWORD PTR _vStackObject$[ebp]
	push	ecx
	call	_CreateEntity@12

; 6115 :    CreateEntity( vStackObject, "OperationCall", zPOS_AFTER );

	push	3
	push	OFFSET $SG16631
	mov	edx, DWORD PTR _vStackObject$[ebp]
	push	edx
	call	_CreateEntity@12

; 6116 :    SetAttributeFromString( vStackObject, "OperationCall", "Name",

	lea	eax, DWORD PTR _szOperName$[ebp]
	push	eax
	push	OFFSET $SG16632
	push	OFFSET $SG16633
	mov	ecx, DWORD PTR _vStackObject$[ebp]
	push	ecx
	call	_SetAttributeFromString@16

; 6117 :                            szOperName );
; 6118 : 
; 6119 :    CreateEntity( vStackObject, "Variable", zPOS_AFTER );

	push	3
	push	OFFSET $SG16634
	mov	edx, DWORD PTR _vStackObject$[ebp]
	push	edx
	call	_CreateEntity@12

; 6120 :    SetAttributeFromInteger( vStackObject, "Variable", "ID", 1 );

	push	1
	push	OFFSET $SG16635
	push	OFFSET $SG16636
	mov	eax, DWORD PTR _vStackObject$[ebp]
	push	eax
	call	_SetAttributeFromInteger@16

; 6121 :    SetAttributeFromString( vStackObject, "Variable", "Name",

	push	OFFSET $SG16637
	push	OFFSET $SG16638
	push	OFFSET $SG16639
	mov	ecx, DWORD PTR _vStackObject$[ebp]
	push	ecx
	call	_SetAttributeFromString@16

; 6122 :                            "vSubtask" );
; 6123 : 
; 6124 :    CreateEntity( vStackObject, "Variable", zPOS_AFTER );

	push	3
	push	OFFSET $SG16640
	mov	edx, DWORD PTR _vStackObject$[ebp]
	push	edx
	call	_CreateEntity@12

; 6125 :    SetAttributeFromInteger( vStackObject, "Variable", "ID", 2 );

	push	2
	push	OFFSET $SG16641
	push	OFFSET $SG16642
	mov	eax, DWORD PTR _vStackObject$[ebp]
	push	eax
	call	_SetAttributeFromInteger@16

; 6126 :    SetAttributeFromString( vStackObject, "Variable", "Name",

	push	OFFSET $SG16643
	push	OFFSET $SG16644
	push	OFFSET $SG16645
	mov	ecx, DWORD PTR _vStackObject$[ebp]
	push	ecx
	call	_SetAttributeFromString@16

; 6127 :                            "vView" );
; 6128 :    SetAttributeFromBlob( vStackObject, "Variable", "Value",

	push	4
	lea	edx, DWORD PTR _lpView$[ebp]
	push	edx
	push	OFFSET $SG16646
	push	OFFSET $SG16647
	mov	eax, DWORD PTR _vStackObject$[ebp]
	push	eax
	call	_SetAttributeFromBlob@20

; 6129 :                          (zPVOID) &lpView, sizeof( lpView ) );
; 6130 : 
; 6131 :    // Name the Stack Object
; 6132 :    SetNameForView( vStackObject, "StackObject", vSubtask, zLEVEL_SUBTASK );

	push	1
	mov	ecx, DWORD PTR _vSubtask$[ebp]
	push	ecx
	push	OFFSET $SG16648
	mov	edx, DWORD PTR _vStackObject$[ebp]
	push	edx
	call	_SetNameForView@16

; 6133 : 
; 6134 :    if ( pfnInterp == 0 )

	cmp	DWORD PTR ?pfnInterp@?1??DfExecuteXPG@@9@9, 0
	jne	SHORT $LN11@DfExecuteX

; 6135 :    {
; 6136 :       // Load the library.  We'll let core clean it up for us later.
; 6137 :       LPLIBRARY hLibrary = SysLoadLibrary( vSubtask, "TZVMLOPR" );

	push	OFFSET $SG16650
	mov	eax, DWORD PTR _vSubtask$[ebp]
	push	eax
	call	_SysLoadLibrary@8
	mov	DWORD PTR _hLibrary$2[ebp], eax

; 6138 : 
; 6139 :       if ( hLibrary == 0 )

	cmp	DWORD PTR _hLibrary$2[ebp], 0
	jne	SHORT $LN12@DfExecuteX

; 6140 :       {
; 6141 :          SysMessageBox( lpView, "Zeidon Interpretor Error",

	push	1
	push	OFFSET $SG16653
	push	OFFSET $SG16654
	mov	ecx, DWORD PTR _lpView$[ebp]
	push	ecx
	call	_SysMessageBox@16

; 6142 :                         "Could not locate TZVMLOPR.DLL", TRUE );
; 6143 :       }

	jmp	SHORT $LN11@DfExecuteX
$LN12@DfExecuteX:

; 6144 :       else
; 6145 :          pfnInterp = (PFNINTERP) SysGetProc( hLibrary, "InvokeInterp" );

	push	OFFSET $SG16655
	mov	edx, DWORD PTR _hLibrary$2[ebp]
	push	edx
	call	_SysGetProc@8
	mov	DWORD PTR ?pfnInterp@?1??DfExecuteXPG@@9@9, eax
$LN11@DfExecuteX:

; 6146 :    }
; 6147 : 
; 6148 :    if ( pfnInterp )

	cmp	DWORD PTR ?pfnInterp@?1??DfExecuteXPG@@9@9, 0
	je	SHORT $LN14@DfExecuteX

; 6149 :       (*pfnInterp)( vSubtask, vAppSubtask, "", szOperName, &lReturn );

	lea	eax, DWORD PTR _lReturn$[ebp]
	push	eax
	lea	ecx, DWORD PTR _szOperName$[ebp]
	push	ecx
	push	OFFSET $SG16657
	mov	edx, DWORD PTR _vAppSubtask$[ebp]
	push	edx
	mov	eax, DWORD PTR _vSubtask$[ebp]
	push	eax
	call	DWORD PTR ?pfnInterp@?1??DfExecuteXPG@@9@9
$LN14@DfExecuteX:

; 6150 : 
; 6151 :    // Drop views.  Note that vXPG has already been dropped by InvokeInterp( ).
; 6152 :    fnDropView( vStackObject );

	mov	ecx, DWORD PTR _vStackObject$[ebp]
	push	ecx
	call	_fnDropView@4

; 6153 :    SfDropSubtask( vAppSubtask, 0 );

	push	0
	mov	edx, DWORD PTR _vAppSubtask$[ebp]
	push	edx
	call	_SfDropSubtask@8

; 6154 :    if ( bDropSubtask )

	movzx	eax, BYTE PTR _bDropSubtask$[ebp]
	test	eax, eax
	je	SHORT $LN15@DfExecuteX

; 6155 :       SfDropSubtask( vSubtask, 0 );

	push	0
	mov	ecx, DWORD PTR _vSubtask$[ebp]
	push	ecx
	call	_SfDropSubtask@8
	jmp	SHORT $LN16@DfExecuteX
$LN15@DfExecuteX:

; 6156 :    else
; 6157 :       SetNameForView( vOldStackObject, "StackObject", vSubtask, zLEVEL_SUBTASK );

	push	1
	mov	edx, DWORD PTR _vSubtask$[ebp]
	push	edx
	push	OFFSET $SG16660
	mov	eax, DWORD PTR _vOldStackObject$[ebp]
	push	eax
	call	_SetNameForView@16
$LN16@DfExecuteX:

; 6158 : 
; 6159 :    return( 0 );

	xor	eax, eax
$LN1@DfExecuteX:

; 6160 : }

	mov	ecx, DWORD PTR __$ArrayPad$[ebp]
	xor	ecx, ebp
	call	@__security_check_cookie@4
	mov	esp, ebp
	pop	ebp
	ret	16					; 00000010H
_DfExecuteXPG@16 ENDP
_TEXT	ENDS
; Function compile flags: /Odtp
; File c:\10c\a\oe\kzoeataa.c
_TEXT	SEGMENT
_lNewValue$1 = -2204					; size = 4
$T2 = -2200						; size = 4
$T3 = -2196						; size = 4
$T4 = -2192						; size = 4
$T5 = -2188						; size = 4
$T6 = -2184						; size = 4
_lpSrcViewAttrib$ = -2180				; size = 4
tv156 = -2176						; size = 4
_lIntValue$ = -2172					; size = 4
_pchExpr$ = -2168					; size = 4
_chSign$ = -2162					; size = 1
_bInQuote$ = -2161					; size = 1
_idx$ = -2160						; size = 2
_dNewValue$7 = -2156					; size = 40
_dDecValue$ = -2116					; size = 40
_szConcatBuffer$ = -2076				; size = 2000
_szAttribName$ = -76					; size = 33
_szContextName$ = -40					; size = 33
__$ArrayPad$ = -4					; size = 4
_lpView$ = 8						; size = 4
_lpViewEntity$ = 12					; size = 4
_lpViewAttrib$ = 16					; size = 4
_nFlag$ = 20						; size = 2
_DfExprVML@16 PROC

; 5821 : {

	push	ebp
	mov	ebp, esp
	sub	esp, 2204				; 0000089cH
	mov	eax, DWORD PTR ___security_cookie
	xor	eax, ebp
	mov	DWORD PTR __$ArrayPad$[ebp], eax

; 5822 :    zCHAR        szConcatBuffer[ 2000 ];
; 5823 :    zCHAR        szContextName[ zZEIDON_NAME_LTH + 1 ];
; 5824 :    zCHAR        szAttribName[ zZEIDON_NAME_LTH + 1 ];
; 5825 :    zCHAR        chSign;
; 5826 :    zSHORT       idx;
; 5827 :    zBOOL        bInQuote;
; 5828 :    zLONG        lIntValue;
; 5829 :    zDECIMAL     dDecValue;
; 5830 :    zPCHAR       pchExpr = zGETPTR( lpViewAttrib->hDerivedExpr );

	mov	eax, DWORD PTR _lpViewAttrib$[ebp]
	mov	ecx, DWORD PTR [eax+246]
	push	ecx
	call	DWORD PTR _g_pfnGetPtr
	mov	DWORD PTR _pchExpr$[ebp], eax

; 5831 :    LPVIEWATTRIB lpSrcViewAttrib;
; 5832 : 
; 5833 :    // We'll never set this attribute.
; 5834 :    if ( nFlag == zDERIVED_SET )

	movsx	edx, WORD PTR _nFlag$[ebp]
	cmp	edx, 1
	jne	SHORT $LN9@DfExprVML

; 5835 :       return( 0 );

	xor	eax, eax
	jmp	$LN31@DfExprVML
$LN9@DfExprVML:

; 5836 : 
; 5837 :    // Initialize each of the temp storage areas.
; 5838 :    szConcatBuffer[ 0 ] = 0;

	mov	eax, 1
	imul	ecx, eax, 0
	mov	DWORD PTR $T6[ebp], ecx
	cmp	DWORD PTR $T6[ebp], 2000		; 000007d0H
	jae	SHORT $LN32@DfExprVML
	jmp	SHORT $LN33@DfExprVML
$LN32@DfExprVML:
	call	___report_rangecheckfailure
$LN33@DfExprVML:
	mov	edx, DWORD PTR $T6[ebp]
	mov	BYTE PTR _szConcatBuffer$[ebp+edx], 0

; 5839 :    bInQuote            = FALSE;

	mov	BYTE PTR _bInQuote$[ebp], 0

; 5840 :    szContextName[ 0 ]  = 0;

	mov	eax, 1
	imul	ecx, eax, 0
	mov	DWORD PTR $T5[ebp], ecx
	cmp	DWORD PTR $T5[ebp], 33			; 00000021H
	jae	SHORT $LN34@DfExprVML
	jmp	SHORT $LN35@DfExprVML
$LN34@DfExprVML:
	call	___report_rangecheckfailure
$LN35@DfExprVML:
	mov	edx, DWORD PTR $T5[ebp]
	mov	BYTE PTR _szContextName$[ebp+edx], 0

; 5841 :    lIntValue           = 0;

	mov	DWORD PTR _lIntValue$[ebp], 0

; 5842 :    SysConvertLongToDecimal( 0, &dDecValue );

	lea	eax, DWORD PTR _dDecValue$[ebp]
	push	eax
	push	0
	call	_SysConvertLongToDecimal@8

; 5843 :    chSign              = 0;

	mov	BYTE PTR _chSign$[ebp], 0

; 5844 : 
; 5845 :    // Loop through the expression and copy values to the concat buffer.
; 5846 :    // Anything in quotes is copied verbatim.  Anything not in quotes had
; 5847 :    // better be an attribute name or + signs.
; 5848 :    // 'idx' points to the null-terminator in szConcatBuffer.
; 5849 :    for ( idx = 0; *pchExpr; pchExpr++ )

	xor	ecx, ecx
	mov	WORD PTR _idx$[ebp], cx
	jmp	SHORT $LN4@DfExprVML
$LN2@DfExprVML:
	mov	edx, DWORD PTR _pchExpr$[ebp]
	add	edx, 1
	mov	DWORD PTR _pchExpr$[ebp], edx
$LN4@DfExprVML:
	mov	eax, DWORD PTR _pchExpr$[ebp]
	movsx	ecx, BYTE PTR [eax]
	test	ecx, ecx
	je	$LN3@DfExprVML

; 5850 :    {
; 5851 :       // Check to see if we are inside a quoted string.  If so we just copy
; 5852 :       // the character from the expression to the buffer.
; 5853 :       if ( bInQuote )

	movzx	edx, BYTE PTR _bInQuote$[ebp]
	test	edx, edx
	je	SHORT $LN10@DfExprVML

; 5854 :       {
; 5855 :          if ( *pchExpr == '\"' )

	mov	eax, DWORD PTR _pchExpr$[ebp]
	movsx	ecx, BYTE PTR [eax]
	cmp	ecx, 34					; 00000022H
	jne	SHORT $LN11@DfExprVML

; 5856 :          {
; 5857 :             bInQuote = FALSE;

	mov	BYTE PTR _bInQuote$[ebp], 0

; 5858 : 
; 5859 :             // We'll terminate the buffer here.
; 5860 :             szConcatBuffer[ idx ] = 0;

	movsx	edx, WORD PTR _idx$[ebp]
	mov	DWORD PTR $T4[ebp], edx
	cmp	DWORD PTR $T4[ebp], 2000		; 000007d0H
	jae	SHORT $LN36@DfExprVML
	jmp	SHORT $LN37@DfExprVML
$LN36@DfExprVML:
	call	___report_rangecheckfailure
$LN37@DfExprVML:
	mov	eax, DWORD PTR $T4[ebp]
	mov	BYTE PTR _szConcatBuffer$[ebp+eax], 0

; 5861 :          }

	jmp	SHORT $LN12@DfExprVML
$LN11@DfExprVML:

; 5862 :          else
; 5863 :             szConcatBuffer[ idx++ ] = *pchExpr;

	movsx	ecx, WORD PTR _idx$[ebp]
	mov	edx, DWORD PTR _pchExpr$[ebp]
	mov	al, BYTE PTR [edx]
	mov	BYTE PTR _szConcatBuffer$[ebp+ecx], al
	mov	cx, WORD PTR _idx$[ebp]
	add	cx, 1
	mov	WORD PTR _idx$[ebp], cx
$LN12@DfExprVML:

; 5864 : 
; 5865 :          continue;

	jmp	$LN2@DfExprVML
$LN10@DfExprVML:

; 5866 :       }
; 5867 : 
; 5868 :       // Check for plus or minus sign.
; 5869 :       if ( *pchExpr == '+' || *pchExpr == '-' )

	mov	edx, DWORD PTR _pchExpr$[ebp]
	movsx	eax, BYTE PTR [edx]
	cmp	eax, 43					; 0000002bH
	je	SHORT $LN14@DfExprVML
	mov	ecx, DWORD PTR _pchExpr$[ebp]
	movsx	edx, BYTE PTR [ecx]
	cmp	edx, 45					; 0000002dH
	jne	SHORT $LN13@DfExprVML
$LN14@DfExprVML:

; 5870 :       {
; 5871 :          chSign = *pchExpr;

	mov	eax, DWORD PTR _pchExpr$[ebp]
	mov	cl, BYTE PTR [eax]
	mov	BYTE PTR _chSign$[ebp], cl

; 5872 :          continue;

	jmp	$LN2@DfExprVML
$LN13@DfExprVML:

; 5873 :       }
; 5874 : 
; 5875 :       // OK, we're not in a quote or context name.  Check to see if we are
; 5876 :       // starting a quoted section.
; 5877 :       if ( *pchExpr == '\"' )

	mov	edx, DWORD PTR _pchExpr$[ebp]
	movsx	eax, BYTE PTR [edx]
	cmp	eax, 34					; 00000022H
	jne	SHORT $LN15@DfExprVML

; 5878 :       {
; 5879 :          bInQuote = TRUE;

	mov	BYTE PTR _bInQuote$[ebp], 1
$LN5@DfExprVML:

; 5880 : 
; 5881 :          // Increment idx so that it points to the null-terminator.  We do
; 5882 :          // this because it's possible that we've added an attribute value
; 5883 :          // before now and we want idx to point to the end of the string.
; 5884 :          while ( szConcatBuffer[ idx ] )

	movsx	ecx, WORD PTR _idx$[ebp]
	movsx	edx, BYTE PTR _szConcatBuffer$[ebp+ecx]
	test	edx, edx
	je	SHORT $LN6@DfExprVML

; 5885 :             idx++;

	mov	ax, WORD PTR _idx$[ebp]
	add	ax, 1
	mov	WORD PTR _idx$[ebp], ax
	jmp	SHORT $LN5@DfExprVML
$LN6@DfExprVML:

; 5886 : 
; 5887 :          // We're starting a new quoted string.  We'll assume that adding
; 5888 :          // attributes will start from here.
; 5889 :          lIntValue = 0;

	mov	DWORD PTR _lIntValue$[ebp], 0

; 5890 :          SysConvertLongToDecimal( 0, &dDecValue );

	lea	ecx, DWORD PTR _dDecValue$[ebp]
	push	ecx
	push	0
	call	_SysConvertLongToDecimal@8

; 5891 :          continue;

	jmp	$LN2@DfExprVML
$LN15@DfExprVML:

; 5892 :       }
; 5893 : 
; 5894 :       // We'll ignore non-alphanumerics.  We can ignore the '+' sign because
; 5895 :       // we'll assume string concatenation/addition.
; 5896 :       if ( zisalnum( *pchExpr ) == FALSE )

	mov	edx, DWORD PTR _pchExpr$[ebp]
	movsx	eax, BYTE PTR [edx]
	push	eax
	call	DWORD PTR __imp__isalnum
	add	esp, 4
	test	eax, eax
	jne	SHORT $LN16@DfExprVML

; 5897 :          continue;

	jmp	$LN2@DfExprVML
$LN16@DfExprVML:

; 5898 : 
; 5899 :       // At this point pchExpr had better be pointing to an attribute name.
; 5900 :       // Retrieve the name.
; 5901 :       if ( fnRetrieveAttribName( &pchExpr, szAttribName, szContextName ) != 0 )

	lea	ecx, DWORD PTR _szContextName$[ebp]
	push	ecx
	lea	edx, DWORD PTR _szAttribName$[ebp]
	push	edx
	lea	eax, DWORD PTR _pchExpr$[ebp]
	push	eax
	call	_fnRetrieveAttribName@12
	movsx	ecx, ax
	test	ecx, ecx
	je	SHORT $LN17@DfExprVML

; 5902 :          return( zCALL_ERROR );

	mov	eax, -16				; fffffff0H
	jmp	$LN31@DfExprVML
$LN17@DfExprVML:

; 5903 : 
; 5904 :       pchExpr--;  // Go back one to the space.

	mov	edx, DWORD PTR _pchExpr$[ebp]
	sub	edx, 1
	mov	DWORD PTR _pchExpr$[ebp], edx

; 5905 :       lpSrcViewAttrib = fnValidViewAttrib( lpView, lpViewEntity, szAttribName, 0 );

	push	0
	lea	eax, DWORD PTR _szAttribName$[ebp]
	push	eax
	mov	ecx, DWORD PTR _lpViewEntity$[ebp]
	push	ecx
	mov	edx, DWORD PTR _lpView$[ebp]
	push	edx
	call	_fnValidViewAttrib
	add	esp, 16					; 00000010H
	mov	DWORD PTR _lpSrcViewAttrib$[ebp], eax

; 5906 :       if ( lpSrcViewAttrib == 0 )

	cmp	DWORD PTR _lpSrcViewAttrib$[ebp], 0
	jne	SHORT $LN18@DfExprVML

; 5907 :          return( zCALL_ERROR );

	mov	eax, -16				; fffffff0H
	jmp	$LN31@DfExprVML
$LN18@DfExprVML:

; 5908 : 
; 5909 :       // The source attribute type determines how we are going to add a value
; 5910 :       // to the buffer.
; 5911 :       switch ( lpSrcViewAttrib->cType )

	mov	eax, DWORD PTR _lpSrcViewAttrib$[ebp]
	movsx	ecx, BYTE PTR [eax+202]
	mov	DWORD PTR tv156[ebp], ecx
	mov	edx, DWORD PTR tv156[ebp]
	sub	edx, 76					; 0000004cH
	mov	DWORD PTR tv156[ebp], edx
	cmp	DWORD PTR tv156[ebp], 8
	ja	$LN7@DfExprVML
	mov	eax, DWORD PTR tv156[ebp]
	movzx	ecx, BYTE PTR $LN42@DfExprVML[eax]
	jmp	DWORD PTR $LN43@DfExprVML[ecx*4]
$LN19@DfExprVML:

; 5912 :       {
; 5913 :          case zTYPE_DATETIME:
; 5914 :          case zTYPE_STRING:
; 5915 :             // We'll just concatenate the attribute's value to the buffer.
; 5916 :             if ( szContextName[ 0 ] )

	mov	edx, 1
	imul	eax, edx, 0
	movsx	ecx, BYTE PTR _szContextName$[ebp+eax]
	test	ecx, ecx
	je	SHORT $LN20@DfExprVML

; 5917 :                GetStringFromAttributeByContext( &szConcatBuffer[ idx ], lpView,

	movsx	edx, WORD PTR _idx$[ebp]
	mov	eax, 1999				; 000007cfH
	sub	eax, edx
	push	eax
	lea	ecx, DWORD PTR _szContextName$[ebp]
	push	ecx
	mov	edx, DWORD PTR _lpSrcViewAttrib$[ebp]
	add	edx, 10					; 0000000aH
	push	edx
	mov	eax, DWORD PTR _lpViewEntity$[ebp]
	add	eax, 14					; 0000000eH
	push	eax
	mov	ecx, DWORD PTR _lpView$[ebp]
	push	ecx
	movsx	edx, WORD PTR _idx$[ebp]
	lea	eax, DWORD PTR _szConcatBuffer$[ebp+edx]
	push	eax
	call	_GetStringFromAttributeByContext@24
	jmp	SHORT $LN21@DfExprVML
$LN20@DfExprVML:

; 5918 :                                                 lpViewEntity->szName,
; 5919 :                                                 lpSrcViewAttrib->szName,
; 5920 :                                                 szContextName, 1999 - idx );
; 5921 :             else
; 5922 :                GetStringFromAttribute( &szConcatBuffer[ idx ], lpView,

	lea	ecx, DWORD PTR _szAttribName$[ebp]
	push	ecx
	mov	edx, DWORD PTR _lpViewEntity$[ebp]
	add	edx, 14					; 0000000eH
	push	edx
	mov	eax, DWORD PTR _lpView$[ebp]
	push	eax
	movsx	ecx, WORD PTR _idx$[ebp]
	lea	edx, DWORD PTR _szConcatBuffer$[ebp+ecx]
	push	edx
	call	_GetStringFromAttribute@16
$LN21@DfExprVML:

; 5923 :                                        lpViewEntity->szName, szAttribName );
; 5924 : 
; 5925 :             // Increment idx so that it points to the null-terminator.
; 5926 :             idx += zstrlen( &szConcatBuffer[ idx ] );

	movsx	eax, WORD PTR _idx$[ebp]
	lea	ecx, DWORD PTR _szConcatBuffer$[ebp+eax]
	push	ecx
	call	_strlen
	add	esp, 4
	movsx	edx, WORD PTR _idx$[ebp]
	add	edx, eax
	mov	WORD PTR _idx$[ebp], dx

; 5927 :             break;

	jmp	$LN7@DfExprVML
$LN22@DfExprVML:

; 5928 : 
; 5929 :          case zTYPE_DECIMAL:
; 5930 :          {
; 5931 :             zDECIMAL dNewValue;
; 5932 : 
; 5933 :             // Get the attribute's value as a decimal and add it to the
; 5934 :             // "current" value.
; 5935 :             if ( szContextName[ 0 ] )

	mov	eax, 1
	imul	ecx, eax, 0
	movsx	edx, BYTE PTR _szContextName$[ebp+ecx]
	test	edx, edx
	je	SHORT $LN23@DfExprVML

; 5936 :                szContextName[ 0 ] = 0;  // ignore context on decimals for now

	mov	eax, 1
	imul	ecx, eax, 0
	mov	DWORD PTR $T3[ebp], ecx
	cmp	DWORD PTR $T3[ebp], 33			; 00000021H
	jae	SHORT $LN38@DfExprVML
	jmp	SHORT $LN39@DfExprVML
$LN38@DfExprVML:
	call	___report_rangecheckfailure
$LN39@DfExprVML:
	mov	edx, DWORD PTR $T3[ebp]
	mov	BYTE PTR _szContextName$[ebp+edx], 0
$LN23@DfExprVML:

; 5937 : 
; 5938 :             GetDecimalFromAttribute( &dNewValue, lpView,

	lea	eax, DWORD PTR _szAttribName$[ebp]
	push	eax
	mov	ecx, DWORD PTR _lpViewEntity$[ebp]
	add	ecx, 14					; 0000000eH
	push	ecx
	mov	edx, DWORD PTR _lpView$[ebp]
	push	edx
	lea	eax, DWORD PTR _dNewValue$7[ebp]
	push	eax
	call	_GetDecimalFromAttribute@16

; 5939 :                                      lpViewEntity->szName, szAttribName );
; 5940 : 
; 5941 :             if ( chSign == '-' )

	movsx	ecx, BYTE PTR _chSign$[ebp]
	cmp	ecx, 45					; 0000002dH
	jne	SHORT $LN24@DfExprVML

; 5942 :                SysSubtractDecimalFromDecimal( &dDecValue, &dDecValue, &dNewValue );

	lea	edx, DWORD PTR _dNewValue$7[ebp]
	push	edx
	lea	eax, DWORD PTR _dDecValue$[ebp]
	push	eax
	lea	ecx, DWORD PTR _dDecValue$[ebp]
	push	ecx
	call	_SysSubtractDecimalFromDecimal@12
	jmp	SHORT $LN25@DfExprVML
$LN24@DfExprVML:

; 5943 :             else
; 5944 :                SysAddDecimalToDecimal( &dDecValue, &dDecValue, &dNewValue );

	lea	edx, DWORD PTR _dNewValue$7[ebp]
	push	edx
	lea	eax, DWORD PTR _dDecValue$[ebp]
	push	eax
	lea	ecx, DWORD PTR _dDecValue$[ebp]
	push	ecx
	call	_SysAddDecimalToDecimal@12
$LN25@DfExprVML:

; 5945 : 
; 5946 :             // Add the decimal value to the end of the string.
; 5947 :             SysConvertDecimalToString( &dDecValue, &szConcatBuffer[ idx ], 3 );

	push	3
	movsx	edx, WORD PTR _idx$[ebp]
	lea	eax, DWORD PTR _szConcatBuffer$[ebp+edx]
	push	eax
	lea	ecx, DWORD PTR _dDecValue$[ebp]
	push	ecx
	call	_SysConvertDecimalToString@12

; 5948 : 
; 5949 :             // Convert the value to the temp long variable so that if the next
; 5950 :             // token is a long it will added correctly.
; 5951 :             SysConvertDecimalToLong( &dDecValue, &lIntValue );

	lea	edx, DWORD PTR _lIntValue$[ebp]
	push	edx
	lea	eax, DWORD PTR _dDecValue$[ebp]
	push	eax
	call	_SysConvertDecimalToLong@8

; 5952 : 
; 5953 :             // Note that we *don't* increment idx.  This way if the next token
; 5954 :             // is another decimal attribute we can add the two decimal values
; 5955 :             // together and overwrite the value we just concatenated to the
; 5956 :             // buffer.
; 5957 :             break;

	jmp	$LN7@DfExprVML
$LN26@DfExprVML:

; 5958 :          }
; 5959 : 
; 5960 :          case zTYPE_INTEGER:
; 5961 :          {
; 5962 :             zLONG lNewValue;
; 5963 : 
; 5964 :             // Get the attribute's value as an integer and add it to the
; 5965 :             // "current" value.
; 5966 :             if ( szContextName[ 0 ] )

	mov	ecx, 1
	imul	edx, ecx, 0
	movsx	eax, BYTE PTR _szContextName$[ebp+edx]
	test	eax, eax
	je	SHORT $LN27@DfExprVML

; 5967 :                szContextName[ 0 ] = 0;  // ignore context on integers for now

	mov	ecx, 1
	imul	edx, ecx, 0
	mov	DWORD PTR $T2[ebp], edx
	cmp	DWORD PTR $T2[ebp], 33			; 00000021H
	jae	SHORT $LN40@DfExprVML
	jmp	SHORT $LN41@DfExprVML
$LN40@DfExprVML:
	call	___report_rangecheckfailure
$LN41@DfExprVML:
	mov	eax, DWORD PTR $T2[ebp]
	mov	BYTE PTR _szContextName$[ebp+eax], 0
$LN27@DfExprVML:

; 5968 : 
; 5969 :             GetIntegerFromAttribute( &lNewValue, lpView,

	lea	ecx, DWORD PTR _szAttribName$[ebp]
	push	ecx
	mov	edx, DWORD PTR _lpViewEntity$[ebp]
	add	edx, 14					; 0000000eH
	push	edx
	mov	eax, DWORD PTR _lpView$[ebp]
	push	eax
	lea	ecx, DWORD PTR _lNewValue$1[ebp]
	push	ecx
	call	_GetIntegerFromAttribute@16

; 5970 :                                      lpViewEntity->szName, szAttribName );
; 5971 :             if ( chSign == '-' )

	movsx	edx, BYTE PTR _chSign$[ebp]
	cmp	edx, 45					; 0000002dH
	jne	SHORT $LN28@DfExprVML

; 5972 :                lIntValue -= lNewValue;

	mov	eax, DWORD PTR _lIntValue$[ebp]
	sub	eax, DWORD PTR _lNewValue$1[ebp]
	mov	DWORD PTR _lIntValue$[ebp], eax
	jmp	SHORT $LN29@DfExprVML
$LN28@DfExprVML:

; 5973 :             else
; 5974 :                lIntValue += lNewValue;

	mov	ecx, DWORD PTR _lIntValue$[ebp]
	add	ecx, DWORD PTR _lNewValue$1[ebp]
	mov	DWORD PTR _lIntValue$[ebp], ecx
$LN29@DfExprVML:

; 5975 : 
; 5976 :             // Add the integer value to the end of the string.
; 5977 :             zltoa( lIntValue, &szConcatBuffer[ idx ] );

	push	10					; 0000000aH
	movsx	edx, WORD PTR _idx$[ebp]
	lea	eax, DWORD PTR _szConcatBuffer$[ebp+edx]
	push	eax
	mov	ecx, DWORD PTR _lIntValue$[ebp]
	push	ecx
	call	DWORD PTR __imp___ltoa
	add	esp, 12					; 0000000cH

; 5978 : 
; 5979 :             // Convert the value to the temp decimal variable so that if the next
; 5980 :             // token is a decimal it will added correctly.
; 5981 :             SysConvertLongToDecimal( lIntValue, &dDecValue );

	lea	edx, DWORD PTR _dDecValue$[ebp]
	push	edx
	mov	eax, DWORD PTR _lIntValue$[ebp]
	push	eax
	call	_SysConvertLongToDecimal@8
$LN7@DfExprVML:

; 5982 : 
; 5983 :             // Note that we *don't* increment idx.  This way if the next token
; 5984 :             // is another integer attribute we can add the two integer values
; 5985 :             // together and overwrite the value we just concatenated to the
; 5986 :             // buffer.
; 5987 : 
; 5988 :             break;
; 5989 :          }
; 5990 :       }
; 5991 : 
; 5992 :       if ( pchExpr[ 0 ] == 0 )

	mov	ecx, 1
	imul	edx, ecx, 0
	mov	eax, DWORD PTR _pchExpr$[ebp]
	movsx	ecx, BYTE PTR [eax+edx]
	test	ecx, ecx
	jne	SHORT $LN30@DfExprVML

; 5993 :          break;

	jmp	SHORT $LN3@DfExprVML
$LN30@DfExprVML:

; 5994 : 
; 5995 :    } // for ( idx... )

	jmp	$LN2@DfExprVML
$LN3@DfExprVML:

; 5996 : 
; 5997 :    StoreStringInRecord( lpView, lpViewEntity, lpViewAttrib,

	lea	edx, DWORD PTR _szConcatBuffer$[ebp]
	push	edx
	mov	eax, DWORD PTR _lpViewAttrib$[ebp]
	push	eax
	mov	ecx, DWORD PTR _lpViewEntity$[ebp]
	push	ecx
	mov	edx, DWORD PTR _lpView$[ebp]
	push	edx
	call	_StoreStringInRecord@16

; 5998 :                         szConcatBuffer );
; 5999 :    return( 0 );

	xor	eax, eax
$LN31@DfExprVML:

; 6000 : }

	mov	ecx, DWORD PTR __$ArrayPad$[ebp]
	xor	ecx, ebp
	call	@__security_check_cookie@4
	mov	esp, ebp
	pop	ebp
	ret	16					; 00000010H
	npad	3
$LN43@DfExprVML:
	DD	$LN26@DfExprVML
	DD	$LN22@DfExprVML
	DD	$LN19@DfExprVML
	DD	$LN7@DfExprVML
$LN42@DfExprVML:
	DB	0
	DB	1
	DB	3
	DB	3
	DB	3
	DB	3
	DB	3
	DB	2
	DB	2
_DfExprVML@16 ENDP
_TEXT	ENDS
; Function compile flags: /Odtp
; File c:\10c\a\oe\kzoeataa.c
_TEXT	SEGMENT
_pchExpr$ = -8						; size = 4
_n$ = -4						; size = 2
_ppchInput$ = 8						; size = 4
_pchAttribName$ = 12					; size = 4
_pchContextName$ = 16					; size = 4
_fnRetrieveAttribName@12 PROC

; 5764 : {

	push	ebp
	mov	ebp, esp
	sub	esp, 8

; 5765 :    zSHORT n;
; 5766 :    zPCHAR pchExpr = *ppchInput;

	mov	eax, DWORD PTR _ppchInput$[ebp]
	mov	ecx, DWORD PTR [eax]
	mov	DWORD PTR _pchExpr$[ebp], ecx

; 5767 : 
; 5768 :    for ( n = 0; zisalnum( *pchExpr ); pchExpr++ )

	xor	edx, edx
	mov	WORD PTR _n$[ebp], dx
	jmp	SHORT $LN4@fnRetrieve
$LN2@fnRetrieve:
	mov	eax, DWORD PTR _pchExpr$[ebp]
	add	eax, 1
	mov	DWORD PTR _pchExpr$[ebp], eax
$LN4@fnRetrieve:
	mov	ecx, DWORD PTR _pchExpr$[ebp]
	movsx	edx, BYTE PTR [ecx]
	push	edx
	call	DWORD PTR __imp__isalnum
	add	esp, 4
	test	eax, eax
	je	SHORT $LN3@fnRetrieve

; 5769 :       pchAttribName[ n++ ] = *pchExpr;

	movsx	eax, WORD PTR _n$[ebp]
	mov	ecx, DWORD PTR _pchAttribName$[ebp]
	mov	edx, DWORD PTR _pchExpr$[ebp]
	mov	dl, BYTE PTR [edx]
	mov	BYTE PTR [ecx+eax], dl
	mov	ax, WORD PTR _n$[ebp]
	add	ax, 1
	mov	WORD PTR _n$[ebp], ax
	jmp	SHORT $LN2@fnRetrieve
$LN3@fnRetrieve:

; 5770 : 
; 5771 :    pchAttribName[ n ] = 0;

	movsx	ecx, WORD PTR _n$[ebp]
	mov	edx, DWORD PTR _pchAttribName$[ebp]
	mov	BYTE PTR [edx+ecx], 0
$LN5@fnRetrieve:

; 5772 : 
; 5773 :    // Skip whitespaces.
; 5774 :    while ( zisspace( *pchExpr ) )

	mov	eax, DWORD PTR _pchExpr$[ebp]
	movsx	ecx, BYTE PTR [eax]
	push	ecx
	call	DWORD PTR __imp__isspace
	add	esp, 4
	test	eax, eax
	je	SHORT $LN6@fnRetrieve

; 5775 :       pchExpr++;

	mov	edx, DWORD PTR _pchExpr$[ebp]
	add	edx, 1
	mov	DWORD PTR _pchExpr$[ebp], edx
	jmp	SHORT $LN5@fnRetrieve
$LN6@fnRetrieve:

; 5776 : 
; 5777 :    // Check to see if the character immediately following the attribute name
; 5778 :    // is a [ to indicate that a context is to be used for the get of the attribute.
; 5779 :    if ( *pchExpr == '[' )

	mov	eax, DWORD PTR _pchExpr$[ebp]
	movsx	ecx, BYTE PTR [eax]
	cmp	ecx, 91					; 0000005bH
	jne	$LN14@fnRetrieve

; 5780 :    {
; 5781 :       pchExpr++;

	mov	edx, DWORD PTR _pchExpr$[ebp]
	add	edx, 1
	mov	DWORD PTR _pchExpr$[ebp], edx
$LN7@fnRetrieve:

; 5782 : 
; 5783 :       // Skip whitespaces.
; 5784 :       while ( zisspace( *pchExpr ) )

	mov	eax, DWORD PTR _pchExpr$[ebp]
	movsx	ecx, BYTE PTR [eax]
	push	ecx
	call	DWORD PTR __imp__isspace
	add	esp, 4
	test	eax, eax
	je	SHORT $LN8@fnRetrieve

; 5785 :          pchExpr++;

	mov	edx, DWORD PTR _pchExpr$[ebp]
	add	edx, 1
	mov	DWORD PTR _pchExpr$[ebp], edx
	jmp	SHORT $LN7@fnRetrieve
$LN8@fnRetrieve:

; 5786 : 
; 5787 :       // Retrieve the context name.  We allow any non-space characters to
; 5788 :       // be part of the context name.
; 5789 :       for ( n = 0;

	xor	eax, eax
	mov	WORD PTR _n$[ebp], ax
	jmp	SHORT $LN11@fnRetrieve
$LN9@fnRetrieve:

; 5791 :             pchExpr++ )

	mov	ecx, DWORD PTR _pchExpr$[ebp]
	add	ecx, 1
	mov	DWORD PTR _pchExpr$[ebp], ecx
$LN11@fnRetrieve:

; 5790 :             *pchExpr && zisspace( *pchExpr ) == FALSE && *pchExpr != ']';

	mov	edx, DWORD PTR _pchExpr$[ebp]
	movsx	eax, BYTE PTR [edx]
	test	eax, eax
	je	SHORT $LN10@fnRetrieve
	mov	ecx, DWORD PTR _pchExpr$[ebp]
	movsx	edx, BYTE PTR [ecx]
	push	edx
	call	DWORD PTR __imp__isspace
	add	esp, 4
	test	eax, eax
	jne	SHORT $LN10@fnRetrieve
	mov	eax, DWORD PTR _pchExpr$[ebp]
	movsx	ecx, BYTE PTR [eax]
	cmp	ecx, 93					; 0000005dH
	je	SHORT $LN10@fnRetrieve

; 5792 :       {
; 5793 :          pchContextName[ n++ ] = *pchExpr;

	movsx	edx, WORD PTR _n$[ebp]
	mov	eax, DWORD PTR _pchContextName$[ebp]
	mov	ecx, DWORD PTR _pchExpr$[ebp]
	mov	cl, BYTE PTR [ecx]
	mov	BYTE PTR [eax+edx], cl
	mov	dx, WORD PTR _n$[ebp]
	add	dx, 1
	mov	WORD PTR _n$[ebp], dx

; 5794 :       }

	jmp	SHORT $LN9@fnRetrieve
$LN10@fnRetrieve:

; 5795 : 
; 5796 :       pchContextName[ n ] = 0;

	movsx	eax, WORD PTR _n$[ebp]
	mov	ecx, DWORD PTR _pchContextName$[ebp]
	mov	BYTE PTR [ecx+eax], 0
$LN12@fnRetrieve:

; 5797 : 
; 5798 :       // Skip whitespaces.
; 5799 :       while ( zisspace( *pchExpr ) )

	mov	edx, DWORD PTR _pchExpr$[ebp]
	movsx	eax, BYTE PTR [edx]
	push	eax
	call	DWORD PTR __imp__isspace
	add	esp, 4
	test	eax, eax
	je	SHORT $LN13@fnRetrieve

; 5800 :          pchExpr++;

	mov	ecx, DWORD PTR _pchExpr$[ebp]
	add	ecx, 1
	mov	DWORD PTR _pchExpr$[ebp], ecx
	jmp	SHORT $LN12@fnRetrieve
$LN13@fnRetrieve:

; 5801 : 
; 5802 :       if ( *pchExpr == ']' )

	mov	edx, DWORD PTR _pchExpr$[ebp]
	movsx	eax, BYTE PTR [edx]
	cmp	eax, 93					; 0000005dH
	jne	SHORT $LN16@fnRetrieve

; 5803 :          pchExpr++;

	mov	ecx, DWORD PTR _pchExpr$[ebp]
	add	ecx, 1
	mov	DWORD PTR _pchExpr$[ebp], ecx
	jmp	SHORT $LN17@fnRetrieve
$LN16@fnRetrieve:

; 5804 :       else
; 5805 :          return( zCALL_ERROR );

	mov	eax, -16				; fffffff0H
	jmp	SHORT $LN1@fnRetrieve
$LN17@fnRetrieve:

; 5806 :    }

	jmp	SHORT $LN15@fnRetrieve
$LN14@fnRetrieve:

; 5807 :    else
; 5808 :      *pchContextName = 0;  // No context.

	mov	edx, DWORD PTR _pchContextName$[ebp]
	mov	BYTE PTR [edx], 0
$LN15@fnRetrieve:

; 5809 : 
; 5810 :    *ppchInput = pchExpr;

	mov	eax, DWORD PTR _ppchInput$[ebp]
	mov	ecx, DWORD PTR _pchExpr$[ebp]
	mov	DWORD PTR [eax], ecx

; 5811 : 
; 5812 :    return( 0 );

	xor	eax, eax
$LN1@fnRetrieve:

; 5813 : }

	mov	esp, ebp
	pop	ebp
	ret	12					; 0000000cH
_fnRetrieveAttribName@12 ENDP
_TEXT	ENDS
; Function compile flags: /Odtp
; File c:\10c\a\oe\kzoeataa.c
_TEXT	SEGMENT
_lpView$ = 8						; size = 4
_cpcEntityName$ = 12					; size = 4
_cpcAttributeName$ = 16					; size = 4
_vViewValue$ = 20					; size = 4
_SetAttributeFromView@16 PROC

; 2611 : {

	push	ebp
	mov	ebp, esp

; 2612 :    SfLockView( vViewValue );  // we lock this view because it is being stored

	mov	eax, DWORD PTR _vViewValue$[ebp]
	push	eax
	call	_SfLockView@4

; 2613 :                               // in an attribute and we don't want it automatically
; 2614 :                               // cleaned up.
; 2615 :    return( SetAttributeFromInteger( lpView, cpcEntityName,

	mov	ecx, DWORD PTR _vViewValue$[ebp]
	push	ecx
	mov	edx, DWORD PTR _cpcAttributeName$[ebp]
	push	edx
	mov	eax, DWORD PTR _cpcEntityName$[ebp]
	push	eax
	mov	ecx, DWORD PTR _lpView$[ebp]
	push	ecx
	call	_SetAttributeFromInteger@16

; 2616 :                                     cpcAttributeName, (zLONG) vViewValue ) );
; 2617 : }

	pop	ebp
	ret	16					; 00000010H
_SetAttributeFromView@16 ENDP
_TEXT	ENDS
; Function compile flags: /Odtp
; File c:\10c\a\oe\kzoeataa.c
_TEXT	SEGMENT
_n$ = -16						; size = 4
_pch$ = -12						; size = 4
_nMax$ = -8						; size = 4
_lpTableEntry$ = -4					; size = 4
_lpContext$ = 8						; size = 4
_fnGetLongExternalLthForContext PROC

; 2018 : {

	push	ebp
	mov	ebp, esp
	sub	esp, 16					; 00000010H

; 2019 :    zPCHAR         pch;
; 2020 :    zULONG         n, nMax = 0;

	mov	DWORD PTR _nMax$[ebp], 0

; 2021 :    LPTABLEENTRY   lpTableEntry;
; 2022 : 
; 2023 :    for ( lpTableEntry = zGETPTR( lpContext->hFirstTableEntry );

	mov	eax, DWORD PTR _lpContext$[ebp]
	mov	ecx, DWORD PTR [eax+47]
	push	ecx
	call	DWORD PTR _g_pfnGetPtr
	mov	DWORD PTR _lpTableEntry$[ebp], eax
	jmp	SHORT $LN4@fnGetLongE
$LN2@fnGetLongE:

; 2025 :          lpTableEntry = zGETPTR( lpTableEntry->hNextTableEntry ) )

	mov	edx, DWORD PTR _lpTableEntry$[ebp]
	mov	eax, DWORD PTR [edx+2]
	push	eax
	call	DWORD PTR _g_pfnGetPtr
	mov	DWORD PTR _lpTableEntry$[ebp], eax
$LN4@fnGetLongE:

; 2024 :          lpTableEntry;

	cmp	DWORD PTR _lpTableEntry$[ebp], 0
	je	SHORT $LN3@fnGetLongE

; 2026 :    {
; 2027 :       pch = fnGetTextForTableEntry( lpTableEntry );

	mov	ecx, DWORD PTR _lpTableEntry$[ebp]
	push	ecx
	call	_fnGetTextForTableEntry
	add	esp, 4
	mov	DWORD PTR _pch$[ebp], eax

; 2028 : 
; 2029 :       if ( pch && (n = zstrlen( pch )) > nMax )

	cmp	DWORD PTR _pch$[ebp], 0
	je	SHORT $LN5@fnGetLongE
	mov	edx, DWORD PTR _pch$[ebp]
	push	edx
	call	_strlen
	add	esp, 4
	mov	DWORD PTR _n$[ebp], eax
	mov	eax, DWORD PTR _n$[ebp]
	cmp	eax, DWORD PTR _nMax$[ebp]
	jbe	SHORT $LN5@fnGetLongE

; 2030 :          nMax = n;

	mov	ecx, DWORD PTR _n$[ebp]
	mov	DWORD PTR _nMax$[ebp], ecx
$LN5@fnGetLongE:

; 2031 :    }

	jmp	SHORT $LN2@fnGetLongE
$LN3@fnGetLongE:

; 2032 : 
; 2033 :    return( nMax );

	mov	eax, DWORD PTR _nMax$[ebp]

; 2034 : }

	mov	esp, ebp
	pop	ebp
	ret	0
_fnGetLongExternalLthForContext ENDP
_TEXT	ENDS
; Function compile flags: /Odtp
; File c:\10c\a\oe\kzoeataa.c
_TEXT	SEGMENT
_lpViewEntity$ = -4					; size = 4
_lpEntityInstance$ = 8					; size = 4
_fnEntityNameFromInstance@4 PROC

; 199  : {

	push	ebp
	mov	ebp, esp
	push	ecx

; 200  :    LPVIEWENTITY lpViewEntity = zGETPTR( lpEntityInstance->hViewEntity );

	mov	eax, DWORD PTR _lpEntityInstance$[ebp]
	mov	ecx, DWORD PTR [eax+2]
	push	ecx
	call	DWORD PTR _g_pfnGetPtr
	mov	DWORD PTR _lpViewEntity$[ebp], eax

; 201  :    return( lpViewEntity->szName );

	mov	eax, DWORD PTR _lpViewEntity$[ebp]
	add	eax, 14					; 0000000eH

; 202  : }

	mov	esp, ebp
	pop	ebp
	ret	4
_fnEntityNameFromInstance@4 ENDP
_TEXT	ENDS
; Function compile flags: /Odtp
; File c:\10c\a\oe\kzoeataa.c
_TEXT	SEGMENT
_lpViewEntity$ = -4					; size = 4
_lpViewEntityCsr$ = 8					; size = 4
_fnEntityNameFromCsr@4 PROC

; 192  : {

	push	ebp
	mov	ebp, esp
	push	ecx

; 193  :    LPVIEWENTITY lpViewEntity = zGETPTR( lpViewEntityCsr->hViewEntity );

	mov	eax, DWORD PTR _lpViewEntityCsr$[ebp]
	mov	ecx, DWORD PTR [eax+14]
	push	ecx
	call	DWORD PTR _g_pfnGetPtr
	mov	DWORD PTR _lpViewEntity$[ebp], eax

; 194  :    return( lpViewEntity->szName );

	mov	eax, DWORD PTR _lpViewEntity$[ebp]
	add	eax, 14					; 0000000eH

; 195  : }

	mov	esp, ebp
	pop	ebp
	ret	4
_fnEntityNameFromCsr@4 ENDP
_TEXT	ENDS
; Function compile flags: /Odtp
; File c:\program files (x86)\windows kits\10\include\10.0.10150.0\ucrt\stdio.h
;	COMDAT _sprintf
_TEXT	SEGMENT
__Result$ = -8						; size = 4
__ArgList$ = -4						; size = 4
__Buffer$ = 8						; size = 4
__Format$ = 12						; size = 4
_sprintf PROC						; COMDAT

; 1776 : {

	push	ebp
	mov	ebp, esp
	sub	esp, 8

; 1777 :     int _Result;
; 1778 :     va_list _ArgList;
; 1779 :     __crt_va_start(_ArgList, _Format);

	lea	eax, DWORD PTR __Format$[ebp+4]
	mov	DWORD PTR __ArgList$[ebp], eax

; 1780 : 
; 1781 :     #pragma warning(push)
; 1782 :     #pragma warning(disable: 4996) // Deprecation
; 1783 :     _Result = _vsprintf_l(_Buffer, _Format, NULL, _ArgList);

	mov	ecx, DWORD PTR __ArgList$[ebp]
	push	ecx
	push	0
	mov	edx, DWORD PTR __Format$[ebp]
	push	edx
	mov	eax, DWORD PTR __Buffer$[ebp]
	push	eax
	call	__vsprintf_l
	add	esp, 16					; 00000010H
	mov	DWORD PTR __Result$[ebp], eax

; 1784 :     #pragma warning(pop)
; 1785 : 
; 1786 :     __crt_va_end(_ArgList);

	mov	DWORD PTR __ArgList$[ebp], 0

; 1787 :     return _Result;

	mov	eax, DWORD PTR __Result$[ebp]

; 1788 : }

	mov	esp, ebp
	pop	ebp
	ret	0
_sprintf ENDP
_TEXT	ENDS
; Function compile flags: /Odtp
; File c:\program files (x86)\windows kits\10\include\10.0.10150.0\ucrt\stdio.h
;	COMDAT __vsprintf_l
_TEXT	SEGMENT
__Buffer$ = 8						; size = 4
__Format$ = 12						; size = 4
__Locale$ = 16						; size = 4
__ArgList$ = 20						; size = 4
__vsprintf_l PROC					; COMDAT

; 1455 : {

	push	ebp
	mov	ebp, esp

; 1456 :     #pragma warning(push)
; 1457 :     #pragma warning(disable: 4996) // Deprecation
; 1458 :     return _vsnprintf_l(_Buffer, (size_t)-1, _Format, _Locale, _ArgList);

	mov	eax, DWORD PTR __ArgList$[ebp]
	push	eax
	mov	ecx, DWORD PTR __Locale$[ebp]
	push	ecx
	mov	edx, DWORD PTR __Format$[ebp]
	push	edx
	push	-1
	mov	eax, DWORD PTR __Buffer$[ebp]
	push	eax
	call	__vsnprintf_l
	add	esp, 20					; 00000014H

; 1459 :     #pragma warning(pop)
; 1460 : }

	pop	ebp
	ret	0
__vsprintf_l ENDP
_TEXT	ENDS
; Function compile flags: /Odtp
; File c:\program files (x86)\windows kits\10\include\10.0.10150.0\ucrt\stdio.h
;	COMDAT __vsnprintf_l
_TEXT	SEGMENT
tv74 = -8						; size = 4
__Result$ = -4						; size = 4
__Buffer$ = 8						; size = 4
__BufferCount$ = 12					; size = 4
__Format$ = 16						; size = 4
__Locale$ = 20						; size = 4
__ArgList$ = 24						; size = 4
__vsnprintf_l PROC					; COMDAT

; 1385 : {

	push	ebp
	mov	ebp, esp
	sub	esp, 8

; 1386 :     int const _Result = __stdio_common_vsprintf(

	mov	eax, DWORD PTR __ArgList$[ebp]
	push	eax
	mov	ecx, DWORD PTR __Locale$[ebp]
	push	ecx
	mov	edx, DWORD PTR __Format$[ebp]
	push	edx
	mov	eax, DWORD PTR __BufferCount$[ebp]
	push	eax
	mov	ecx, DWORD PTR __Buffer$[ebp]
	push	ecx
	call	___local_stdio_printf_options
	mov	edx, DWORD PTR [eax]
	or	edx, 1
	mov	eax, DWORD PTR [eax+4]
	push	eax
	push	edx
	call	DWORD PTR __imp____stdio_common_vsprintf
	add	esp, 28					; 0000001cH
	mov	DWORD PTR __Result$[ebp], eax

; 1387 :         _CRT_INTERNAL_LOCAL_PRINTF_OPTIONS | _CRT_INTERNAL_PRINTF_LEGACY_VSPRINTF_NULL_TERMINATION,
; 1388 :         _Buffer, _BufferCount, _Format, _Locale, _ArgList);
; 1389 : 
; 1390 :     return _Result < 0 ? -1 : _Result;

	cmp	DWORD PTR __Result$[ebp], 0
	jge	SHORT $LN3@vsnprintf_
	mov	DWORD PTR tv74[ebp], -1
	jmp	SHORT $LN4@vsnprintf_
$LN3@vsnprintf_:
	mov	ecx, DWORD PTR __Result$[ebp]
	mov	DWORD PTR tv74[ebp], ecx
$LN4@vsnprintf_:
	mov	eax, DWORD PTR tv74[ebp]

; 1391 : }

	mov	esp, ebp
	pop	ebp
	ret	0
__vsnprintf_l ENDP
_TEXT	ENDS
; Function compile flags: /Odtp
; File c:\program files (x86)\windows kits\10\include\10.0.10150.0\ucrt\corecrt_stdio_config.h
;	COMDAT ___local_stdio_printf_options
_TEXT	SEGMENT
___local_stdio_printf_options PROC			; COMDAT

; 73   : {

	push	ebp
	mov	ebp, esp

; 74   :     static unsigned __int64 _OptionsStorage;
; 75   :     return &_OptionsStorage;

	mov	eax, OFFSET ?_OptionsStorage@?1??__local_stdio_printf_options@@9@9 ; `__local_stdio_printf_options'::`2'::_OptionsStorage

; 76   : }

	pop	ebp
	ret	0
___local_stdio_printf_options ENDP
_TEXT	ENDS
; Function compile flags: /Odtp
; File c:\10c\a\oe\kzoeataa.c
_TEXT	SEGMENT
_lpNLS_TableEntry$ = -8					; size = 4
_nLanguageCode$ = -4					; size = 2
_lpTableEntry$ = 8					; size = 4
_fnGetTextForTableEntry PROC

; 1993 : {

	push	ebp
	mov	ebp, esp
	sub	esp, 8

; 1994 :    zSHORT          nLanguageCode;
; 1995 :    LPNLSTABLEENTRY lpNLS_TableEntry;
; 1996 : 
; 1997 :    // Look for an NLS_TableEntry that matches the current country code.
; 1998 :    SysGetLanguageCode( &nLanguageCode );

	lea	eax, DWORD PTR _nLanguageCode$[ebp]
	push	eax
	call	_SysGetLanguageCode@4

; 1999 :    for ( lpNLS_TableEntry = zGETPTR( lpTableEntry->hFirstNLS_TableEntry );

	mov	ecx, DWORD PTR _lpTableEntry$[ebp]
	mov	edx, DWORD PTR [ecx+22]
	push	edx
	call	DWORD PTR _g_pfnGetPtr
	mov	DWORD PTR _lpNLS_TableEntry$[ebp], eax
	jmp	SHORT $LN4@fnGetTextF
$LN2@fnGetTextF:

; 2001 :          lpNLS_TableEntry = zGETPTR( lpNLS_TableEntry->hNextNLS_TableEntry ) )

	mov	eax, DWORD PTR _lpNLS_TableEntry$[ebp]
	mov	ecx, DWORD PTR [eax+2]
	push	ecx
	call	DWORD PTR _g_pfnGetPtr
	mov	DWORD PTR _lpNLS_TableEntry$[ebp], eax
$LN4@fnGetTextF:

; 2000 :          lpNLS_TableEntry && lpNLS_TableEntry->nLanguageCode != nLanguageCode;

	cmp	DWORD PTR _lpNLS_TableEntry$[ebp], 0
	je	SHORT $LN3@fnGetTextF
	mov	edx, DWORD PTR _lpNLS_TableEntry$[ebp]
	movsx	eax, WORD PTR [edx+10]
	movsx	ecx, WORD PTR _nLanguageCode$[ebp]
	cmp	eax, ecx
	je	SHORT $LN3@fnGetTextF

; 2002 :    {
; 2003 :       // nothing needs to be done here.
; 2004 :    }

	jmp	SHORT $LN2@fnGetTextF
$LN3@fnGetTextF:

; 2005 : 
; 2006 :    // If lpNLS_TableEntry is non-null, then a match was found.
; 2007 :    if ( lpNLS_TableEntry )

	cmp	DWORD PTR _lpNLS_TableEntry$[ebp], 0
	je	SHORT $LN5@fnGetTextF

; 2008 :       return( zGETPTR( lpNLS_TableEntry->pszNLS_Text ) );

	mov	edx, DWORD PTR _lpNLS_TableEntry$[ebp]
	mov	eax, DWORD PTR [edx+6]
	push	eax
	call	DWORD PTR _g_pfnGetPtr
	jmp	SHORT $LN1@fnGetTextF
$LN5@fnGetTextF:

; 2009 : 
; 2010 :    // No match found for the current language code, so return the "normal"
; 2011 :    // external value.
; 2012 :    return( zGETPTR( lpTableEntry->hExternalValue ) );

	mov	ecx, DWORD PTR _lpTableEntry$[ebp]
	mov	edx, DWORD PTR [ecx+18]
	push	edx
	call	DWORD PTR _g_pfnGetPtr
$LN1@fnGetTextF:

; 2013 : 
; 2014 : } // fnGetTextForTableEntry

	mov	esp, ebp
	pop	ebp
	ret	0
_fnGetTextForTableEntry ENDP
_TEXT	ENDS
; Function compile flags: /Odtp
; File c:\10c\a\oe\kzoeataa.c
_TEXT	SEGMENT
_lpLinkedViewEntity$1 = -24				; size = 4
_lpAttribFlags$2 = -20					; size = 4
_lpViewEntity$ = -16					; size = 4
_lpLinkedOI$3 = -12					; size = 4
_lpLinked$4 = -8					; size = 4
_bPersist$ = -1						; size = 1
_lpViewOI$ = 8						; size = 4
_lpEntityInstance$ = 12					; size = 4
_lpViewAttrib$ = 16					; size = 4
_bUpdated$ = 20						; size = 1
_bSetLinked$ = 24					; size = 1
_bUpdateEntity$ = 28					; size = 1
_fnSetUpdateIndicator PROC

; 10875: {

	push	ebp
	mov	ebp, esp
	sub	esp, 24					; 00000018H

; 10876:    LPVIEWENTITY lpViewEntity = zGETPTR( lpEntityInstance->hViewEntity );

	mov	eax, DWORD PTR _lpEntityInstance$[ebp]
	mov	ecx, DWORD PTR [eax+2]
	push	ecx
	call	DWORD PTR _g_pfnGetPtr
	mov	DWORD PTR _lpViewEntity$[ebp], eax

; 10877:    zBOOL        bPersist;
; 10878: 
; 10879:    // Set update indicator.
; 10880:    if ( bUpdated == FALSE )

	movzx	edx, BYTE PTR _bUpdated$[ebp]
	test	edx, edx
	jne	SHORT $LN5@fnSetUpdat

; 10881:       return;

	jmp	$LN1@fnSetUpdat
$LN5@fnSetUpdat:

; 10882: 
; 10883:    if ( lpViewOI == 0 )

	cmp	DWORD PTR _lpViewOI$[ebp], 0
	jne	SHORT $LN6@fnSetUpdat

; 10884:       lpViewOI = zGETPTR( lpEntityInstance->hViewOI );

	mov	eax, DWORD PTR _lpEntityInstance$[ebp]
	mov	ecx, DWORD PTR [eax+10]
	push	ecx
	call	DWORD PTR _g_pfnGetPtr
	mov	DWORD PTR _lpViewOI$[ebp], eax
$LN6@fnSetUpdat:

; 10885: 
; 10886:    if ( lpViewEntity->bDerived || lpViewEntity->bDerivedPath )

	mov	edx, DWORD PTR _lpViewEntity$[ebp]
	mov	eax, DWORD PTR [edx+235]
	shr	eax, 13					; 0000000dH
	and	eax, 1
	jne	SHORT $LN9@fnSetUpdat
	mov	ecx, DWORD PTR _lpViewEntity$[ebp]
	mov	edx, DWORD PTR [ecx+235]
	shr	edx, 14					; 0000000eH
	and	edx, 1
	je	SHORT $LN7@fnSetUpdat
$LN9@fnSetUpdat:

; 10887:       bPersist = FALSE;

	mov	BYTE PTR _bPersist$[ebp], 0
	jmp	SHORT $LN8@fnSetUpdat
$LN7@fnSetUpdat:

; 10888:    else
; 10889:       bPersist = TRUE;

	mov	BYTE PTR _bPersist$[ebp], 1
$LN8@fnSetUpdat:

; 10890: 
; 10891:    if ( lpViewAttrib )

	cmp	DWORD PTR _lpViewAttrib$[ebp], 0
	je	SHORT $LN10@fnSetUpdat

; 10892:    {
; 10893:       LPATTRIBFLAGS lpAttribFlags;
; 10894: 
; 10895:       // If changing a derived attribute then nothing gets changed.
; 10896:       if ( lpViewAttrib->szDerivedOper[ 0 ] )

	mov	eax, 1
	imul	ecx, eax, 0
	mov	edx, DWORD PTR _lpViewAttrib$[ebp]
	movsx	eax, BYTE PTR [edx+ecx+213]
	test	eax, eax
	je	SHORT $LN11@fnSetUpdat

; 10897:          return;

	jmp	$LN1@fnSetUpdat
$LN11@fnSetUpdat:

; 10898: 
; 10899:       if ( lpViewAttrib->bPersist == FALSE )

	mov	ecx, DWORD PTR _lpViewAttrib$[ebp]
	mov	edx, DWORD PTR [ecx+193]
	and	edx, 1
	jne	SHORT $LN12@fnSetUpdat

; 10900:       {
; 10901:          bPersist = FALSE;

	mov	BYTE PTR _bPersist$[ebp], 0

; 10902: 
; 10903:          // If the attribute is not persistent, then we don't want to change
; 10904:          // the updated flags of linked entities.
; 10905:          bSetLinked = FALSE;

	mov	BYTE PTR _bSetLinked$[ebp], 0
$LN12@fnSetUpdat:

; 10906:       }
; 10907: 
; 10908:       lpAttribFlags = fnGetAttribFlagsPtr( lpEntityInstance, lpViewAttrib );

	mov	eax, DWORD PTR _lpViewAttrib$[ebp]
	push	eax
	mov	ecx, DWORD PTR _lpEntityInstance$[ebp]
	push	ecx
	call	_fnGetAttribFlagsPtr@8
	mov	DWORD PTR _lpAttribFlags$2[ebp], eax

; 10909:       lpAttribFlags->u.bFlags.bUpdated = TRUE;

	mov	edx, DWORD PTR _lpAttribFlags$2[ebp]
	mov	eax, DWORD PTR [edx]
	or	eax, 2
	mov	ecx, DWORD PTR _lpAttribFlags$2[ebp]
	mov	DWORD PTR [ecx], eax
$LN10@fnSetUpdat:

; 10910:    }
; 10911: 
; 10912:    // KJS 08/22/14 - I am confused here because fnInstanceVersioned returns 0 if there is no
; 10913:    // versioning, so it would seem that the check should be > 0.
; 10914:    //if ( fnInstanceVersioned( lpEntityInstance ) > 0 )
; 10915:    // KJS 06/25/15 - Not asking for Save in domains when I create a new domain, so going to set this back to original.
; 10916:    if ( fnInstanceVersioned( lpEntityInstance ) == 0 )

	mov	edx, DWORD PTR _lpEntityInstance$[ebp]
	push	edx
	call	_fnInstanceVersioned
	add	esp, 4
	movzx	eax, al
	test	eax, eax
	jne	SHORT $LN13@fnSetUpdat

; 10917:    {
; 10918:       lpViewOI->bUpdatedFile = TRUE;

	mov	ecx, DWORD PTR _lpViewOI$[ebp]
	mov	edx, DWORD PTR [ecx+36]
	or	edx, 32					; 00000020H
	mov	eax, DWORD PTR _lpViewOI$[ebp]
	mov	DWORD PTR [eax+36], edx

; 10919: 
; 10920:       if ( bPersist )

	movzx	ecx, BYTE PTR _bPersist$[ebp]
	test	ecx, ecx
	je	SHORT $LN15@fnSetUpdat

; 10921:          lpViewOI->bUpdated = TRUE;

	mov	edx, DWORD PTR _lpViewOI$[ebp]
	mov	eax, DWORD PTR [edx+36]
	or	eax, 16					; 00000010H
	mov	ecx, DWORD PTR _lpViewOI$[ebp]
	mov	DWORD PTR [ecx+36], eax
$LN15@fnSetUpdat:

; 10922:    }

	jmp	SHORT $LN14@fnSetUpdat
$LN13@fnSetUpdat:

; 10923:    else
; 10924:    {
; 10925:       // The entity instance is versioned, set the version updated flags.
; 10926:       lpEntityInstance->u.nInd.bVersionUpdFile = TRUE;

	mov	edx, DWORD PTR _lpEntityInstance$[ebp]
	mov	eax, DWORD PTR [edx+6]
	or	eax, 33554432				; 02000000H
	mov	ecx, DWORD PTR _lpEntityInstance$[ebp]
	mov	DWORD PTR [ecx+6], eax

; 10927: 
; 10928:       if ( bPersist )

	movzx	edx, BYTE PTR _bPersist$[ebp]
	test	edx, edx
	je	SHORT $LN14@fnSetUpdat

; 10929:          lpEntityInstance->u.nInd.bVersionUpdated = TRUE;

	mov	eax, DWORD PTR _lpEntityInstance$[ebp]
	mov	ecx, DWORD PTR [eax+6]
	or	ecx, 16777216				; 01000000H
	mov	edx, DWORD PTR _lpEntityInstance$[ebp]
	mov	DWORD PTR [edx+6], ecx
$LN14@fnSetUpdat:

; 10930:    }
; 10931: 
; 10932:    if ( bUpdateEntity )

	movzx	eax, BYTE PTR _bUpdateEntity$[ebp]
	test	eax, eax
	je	$LN1@fnSetUpdat

; 10933:    {
; 10934:       lpEntityInstance->u.nInd.bUpdated = TRUE;

	mov	ecx, DWORD PTR _lpEntityInstance$[ebp]
	mov	edx, DWORD PTR [ecx+6]
	or	edx, 4
	mov	eax, DWORD PTR _lpEntityInstance$[ebp]
	mov	DWORD PTR [eax+6], edx

; 10935: 
; 10936:       //*******************************************************************
; 10937:       //*******************************************************************
; 10938:       // We shouldn't go through and set the update flags for linked OIs if
; 10939:       // the lpEntityInstance is a subobject version.  Accept should do it.
; 10940:       // This should be changed at some point.
; 10941:       //*******************************************************************
; 10942:       //*******************************************************************
; 10943:       if ( bSetLinked && lpEntityInstance->hNextLinked )

	movzx	ecx, BYTE PTR _bSetLinked$[ebp]
	test	ecx, ecx
	je	$LN1@fnSetUpdat
	mov	edx, DWORD PTR _lpEntityInstance$[ebp]
	cmp	DWORD PTR [edx+42], 0
	je	$LN1@fnSetUpdat

; 10944:       {
; 10945:          LPENTITYINSTANCE lpLinked;
; 10946: 
; 10947:          for ( lpLinked = zGETPTR( lpEntityInstance->hNextLinked );

	mov	eax, DWORD PTR _lpEntityInstance$[ebp]
	mov	ecx, DWORD PTR [eax+42]
	push	ecx
	call	DWORD PTR _g_pfnGetPtr
	mov	DWORD PTR _lpLinked$4[ebp], eax
	jmp	SHORT $LN4@fnSetUpdat
$LN2@fnSetUpdat:

; 10949:                lpLinked = zGETPTR( lpLinked->hNextLinked ) )

	mov	edx, DWORD PTR _lpLinked$4[ebp]
	mov	eax, DWORD PTR [edx+42]
	push	eax
	call	DWORD PTR _g_pfnGetPtr
	mov	DWORD PTR _lpLinked$4[ebp], eax
$LN4@fnSetUpdat:

; 10948:                lpLinked != lpEntityInstance;

	mov	ecx, DWORD PTR _lpLinked$4[ebp]
	cmp	ecx, DWORD PTR _lpEntityInstance$[ebp]
	je	SHORT $LN1@fnSetUpdat

; 10950:          {
; 10951:             LPVIEWENTITY lpLinkedViewEntity = zGETPTR( lpLinked->hViewEntity );

	mov	edx, DWORD PTR _lpLinked$4[ebp]
	mov	eax, DWORD PTR [edx+2]
	push	eax
	call	DWORD PTR _g_pfnGetPtr
	mov	DWORD PTR _lpLinkedViewEntity$1[ebp], eax

; 10952: 
; 10953:             lpLinked->u.nInd.bUpdated = TRUE;

	mov	ecx, DWORD PTR _lpLinked$4[ebp]
	mov	edx, DWORD PTR [ecx+6]
	or	edx, 4
	mov	eax, DWORD PTR _lpLinked$4[ebp]
	mov	DWORD PTR [eax+6], edx

; 10954: 
; 10955:             // Now make sure the OI for the linked EI gets flagged as updated.
; 10956:             if ( lpLinkedViewEntity->bDerived == FALSE &&

	mov	ecx, DWORD PTR _lpLinkedViewEntity$1[ebp]
	mov	edx, DWORD PTR [ecx+235]
	shr	edx, 13					; 0000000dH
	and	edx, 1
	jne	SHORT $LN19@fnSetUpdat
	mov	eax, DWORD PTR _lpLinkedViewEntity$1[ebp]
	mov	ecx, DWORD PTR [eax+235]
	shr	ecx, 14					; 0000000eH
	and	ecx, 1
	jne	SHORT $LN19@fnSetUpdat

; 10957:                  lpLinkedViewEntity->bDerivedPath == FALSE )
; 10958:             {
; 10959:                LPVIEWOI lpLinkedOI = zGETPTR( lpLinked->hViewOI );

	mov	edx, DWORD PTR _lpLinked$4[ebp]
	mov	eax, DWORD PTR [edx+10]
	push	eax
	call	DWORD PTR _g_pfnGetPtr
	mov	DWORD PTR _lpLinkedOI$3[ebp], eax

; 10960: 
; 10961:                lpLinkedOI->bUpdatedFile = lpLinkedOI->bUpdated = TRUE;

	mov	ecx, DWORD PTR _lpLinkedOI$3[ebp]
	mov	edx, DWORD PTR [ecx+36]
	or	edx, 16					; 00000010H
	mov	eax, DWORD PTR _lpLinkedOI$3[ebp]
	mov	DWORD PTR [eax+36], edx
	mov	ecx, DWORD PTR _lpLinkedOI$3[ebp]
	mov	edx, DWORD PTR [ecx+36]
	or	edx, 32					; 00000020H
	mov	eax, DWORD PTR _lpLinkedOI$3[ebp]
	mov	DWORD PTR [eax+36], edx
$LN19@fnSetUpdat:

; 10962:             }
; 10963:          }

	jmp	$LN2@fnSetUpdat
$LN1@fnSetUpdat:

; 10964:       }
; 10965:    }
; 10966: 
; 10967: } // fnSetUpdateIndicator

	mov	esp, ebp
	pop	ebp
	ret	0
_fnSetUpdateIndicator ENDP
_TEXT	ENDS
; Function compile flags: /Odtp
; File c:\10c\a\oe\kzoeataa.c
_TEXT	SEGMENT
_pfObjectOper$ = -4					; size = 4
_lpView$ = 8						; size = 4
_lpViewEntity$ = 12					; size = 4
_lpViewAttrib$ = 16					; size = 4
_lpCurrentTask$ = 20					; size = 4
_nControl$ = 24						; size = 2
_fnInvokeDerivedOperation PROC

; 10602: {

	push	ebp
	mov	ebp, esp
	push	ecx

; 10603:    zPOBJOPER pfObjectOper = fnGetAttribOper( lpView, lpViewAttrib,

	mov	eax, DWORD PTR _lpCurrentTask$[ebp]
	push	eax
	mov	ecx, DWORD PTR _lpViewAttrib$[ebp]
	push	ecx
	mov	edx, DWORD PTR _lpView$[ebp]
	push	edx
	call	_fnGetAttribOper
	add	esp, 12					; 0000000cH
	mov	DWORD PTR _pfObjectOper$[ebp], eax

; 10604:                                              lpCurrentTask );
; 10605:    if ( pfObjectOper )

	cmp	DWORD PTR _pfObjectOper$[ebp], 0
	je	SHORT $LN2@fnInvokeDe

; 10606:       return( (*pfObjectOper)( lpView, lpViewEntity, lpViewAttrib, nControl ) );

	movzx	eax, WORD PTR _nControl$[ebp]
	push	eax
	mov	ecx, DWORD PTR _lpViewAttrib$[ebp]
	push	ecx
	mov	edx, DWORD PTR _lpViewEntity$[ebp]
	push	edx
	mov	eax, DWORD PTR _lpView$[ebp]
	push	eax
	call	DWORD PTR _pfObjectOper$[ebp]
	jmp	SHORT $LN1@fnInvokeDe
$LN2@fnInvokeDe:

; 10607: 
; 10608:    return( 0 );

	xor	eax, eax
$LN1@fnInvokeDe:

; 10609: }

	mov	esp, ebp
	pop	ebp
	ret	0
_fnInvokeDerivedOperation ENDP
_TEXT	ENDS
; Function compile flags: /Odtp
; File c:\10c\a\oe\kzoeataa.c
_TEXT	SEGMENT
_lpEntityInstance$ = 8					; size = 4
_lpViewAttribute$ = 12					; size = 4
_fnRecordForEntityAttr PROC

; 10543: {

	push	ebp
	mov	ebp, esp

; 10544:    // Get record to retrieve from.
; 10545:    if ( lpViewAttribute->bPersist ) // is attribute persistent

	mov	eax, DWORD PTR _lpViewAttribute$[ebp]
	mov	ecx, DWORD PTR [eax+193]
	and	ecx, 1
	je	SHORT $LN2@fnRecordFo

; 10546:    {
; 10547: #if 0
; 10548:       if ( SysSendOE_Message( IDM_GETTRACELOGFILE, 0 ) != -1 )
; 10549:       {
; 10550:          LPVIEWENTITY  lpViewEntity = zGETPTR( lpEntityInstance->hViewEntity );
; 10551: 
; 10552:          if ( zstrcmp( lpViewEntity->szName, "StudentAccountProfile" ) == 0 &&
; 10553:               zstrcmp( lpViewAttribute->szName, "wTotalInterestToApply" ) == 0 )
; 10554:          {
; 10555:             TraceLine( "RecordForEntityAttr %s.%s: 0x%08x",
; 10556:                        lpViewEntity->szName, lpViewAttribute->szName,
; 10557:                        lpEntityInstance->hPersistRecord );
; 10558:          }
; 10559:       }
; 10560: #endif
; 10561:       return( (zPCHAR) zGETPTR( lpEntityInstance->hPersistRecord ) );

	mov	edx, DWORD PTR _lpEntityInstance$[ebp]
	mov	eax, DWORD PTR [edx+60]
	push	eax
	call	DWORD PTR _g_pfnGetPtr
	jmp	SHORT $LN1@fnRecordFo

; 10562:    }

	jmp	SHORT $LN1@fnRecordFo
$LN2@fnRecordFo:

; 10563:    else
; 10564:    {
; 10565: #if 0
; 10566:       if ( SysSendOE_Message( IDM_GETTRACELOGFILE, 0 ) != -1 )
; 10567:       {
; 10568:          LPVIEWENTITY  lpViewEntity = zGETPTR( lpEntityInstance->hViewEntity );
; 10569: 
; 10570:          if ( zstrcmp( lpViewEntity->szName, "StudentAccountProfile" ) == 0 &&
; 10571:               zstrcmp( lpViewAttribute->szName, "wTotalInterestToApply" ) == 0 )
; 10572:          {
; 10573:             TraceLine( "RecordForEntityAttr (non-persist) %s.%s: 0x%08x",
; 10574:                        lpViewEntity->szName, lpViewAttribute->szName,
; 10575:                        lpEntityInstance->hNonPersistRecord );
; 10576:          }
; 10577:       }
; 10578: #endif
; 10579:       return( (zPCHAR) zGETPTR( lpEntityInstance->hNonPersistRecord ) );

	mov	ecx, DWORD PTR _lpEntityInstance$[ebp]
	mov	edx, DWORD PTR [ecx+64]
	push	edx
	call	DWORD PTR _g_pfnGetPtr
$LN1@fnRecordFo:

; 10580:    }
; 10581: }

	pop	ebp
	ret	0
_fnRecordForEntityAttr ENDP
_TEXT	ENDS
; Function compile flags: /Odtp
; File c:\10c\a\oe\kzoeataa.c
_TEXT	SEGMENT
_lpTempOperation$1 = -52				; size = 4
_lpViewOD$ = -48					; size = 4
tv193 = -44						; size = 4
tv192 = -40						; size = 4
tv176 = -36						; size = 4
tv175 = -32						; size = 4
_lProcessID$ = -28					; size = 4
_hLibrary$ = -24					; size = 4
_hCurrentTask$ = -20					; size = 4
_pchOperLibName$ = -16					; size = 4
_hTaskOperation$ = -12					; size = 4
_lpTaskOperation$ = -8					; size = 4
_bMutexLocked$ = -1					; size = 1
_lpView$ = 8						; size = 4
_lpViewAttrib$ = 12					; size = 4
_lpCurrentTask$ = 16					; size = 4
_fnGetAttribOper PROC

; 6174 : {

	push	ebp
	mov	ebp, esp
	sub	esp, 52					; 00000034H

; 6175 :    LPTASK      hCurrentTask = zGETHNDL( lpCurrentTask );

	mov	eax, DWORD PTR _lpCurrentTask$[ebp]
	push	eax
	call	DWORD PTR _g_pfnGetHndl
	mov	DWORD PTR _hCurrentTask$[ebp], eax

; 6176 :    LPVIEWOD    lpViewOD;
; 6177 :    zPCHAR      pchOperLibName;
; 6178 :    LPLIBRARY   hLibrary;
; 6179 :    zPVOID      hTaskOperation;
; 6180 :    LPTASKOPER  lpTaskOperation;
; 6181 :    zBOOL       bMutexLocked;
; 6182 :    zLONG       lProcessID = SysGetProcessID( 0 );

	push	0
	call	_SysGetProcessID@4
	mov	DWORD PTR _lProcessID$[ebp], eax

; 6183 : 
; 6184 :    // If there is no derived operation pointer, return 0 ==> not found.
; 6185 :    if ( lpViewAttrib->szDerivedOper[ 0 ] == 0 )

	mov	ecx, 1
	imul	edx, ecx, 0
	mov	eax, DWORD PTR _lpViewAttrib$[ebp]
	movsx	ecx, BYTE PTR [eax+edx+213]
	test	ecx, ecx
	jne	SHORT $LN5@fnGetAttri

; 6186 :       return( 0 );

	xor	eax, eax
	jmp	$LN1@fnGetAttri
$LN5@fnGetAttri:

; 6187 : 
; 6188 :    lpViewOD = zGETPTR( lpView->hViewOD );

	mov	edx, DWORD PTR _lpView$[ebp]
	mov	eax, DWORD PTR [edx+6]
	push	eax
	call	DWORD PTR _g_pfnGetPtr
	mov	DWORD PTR _lpViewOD$[ebp], eax

; 6189 : 
; 6190 :    for ( lpTaskOperation = zGETPTR( lpViewAttrib->hFirstTaskOperation );

	mov	ecx, DWORD PTR _lpViewAttrib$[ebp]
	mov	edx, DWORD PTR [ecx+185]
	push	edx
	call	DWORD PTR _g_pfnGetPtr
	mov	DWORD PTR _lpTaskOperation$[ebp], eax
	jmp	SHORT $LN4@fnGetAttri
$LN2@fnGetAttri:

; 6192 :          lpTaskOperation = zGETPTR( lpTaskOperation->hNextTaskOperationForOEA ) )

	mov	eax, DWORD PTR _lpTaskOperation$[ebp]
	mov	ecx, DWORD PTR [eax+6]
	push	ecx
	call	DWORD PTR _g_pfnGetPtr
	mov	DWORD PTR _lpTaskOperation$[ebp], eax
$LN4@fnGetAttri:

; 6191 :          lpTaskOperation;

	cmp	DWORD PTR _lpTaskOperation$[ebp], 0
	je	SHORT $LN3@fnGetAttri

; 6193 :    {
; 6194 :       if ( lpTaskOperation->hTask == hCurrentTask &&

	mov	edx, DWORD PTR _lpTaskOperation$[ebp]
	mov	eax, DWORD PTR [edx+14]
	cmp	eax, DWORD PTR _hCurrentTask$[ebp]
	jne	SHORT $LN6@fnGetAttri
	mov	ecx, DWORD PTR _lpTaskOperation$[ebp]
	mov	edx, DWORD PTR [ecx+34]
	cmp	edx, DWORD PTR _lProcessID$[ebp]
	jne	SHORT $LN6@fnGetAttri

; 6195 :            lpTaskOperation->lProcessID == lProcessID )
; 6196 :       {
; 6197 :          return( (zPOBJOPER) lpTaskOperation->pfnTaskOper );

	mov	eax, DWORD PTR _lpTaskOperation$[ebp]
	mov	eax, DWORD PTR [eax+30]
	jmp	$LN1@fnGetAttri
$LN6@fnGetAttri:

; 6198 :       }
; 6199 :    }

	jmp	SHORT $LN2@fnGetAttri
$LN3@fnGetAttri:

; 6200 : 
; 6201 :    if ( lpViewAttrib->bDerivedIntrnl )

	mov	ecx, DWORD PTR _lpViewAttrib$[ebp]
	mov	edx, DWORD PTR [ecx+193]
	shr	edx, 15					; 0000000fH
	and	edx, 1
	je	SHORT $LN7@fnGetAttri

; 6202 :       hLibrary = 0;

	mov	DWORD PTR _hLibrary$[ebp], 0
	jmp	SHORT $LN8@fnGetAttri
$LN7@fnGetAttri:

; 6203 :    else
; 6204 :    {
; 6205 :       // No task object oper exists yet, create one if possible.
; 6206 :       pchOperLibName = lpViewOD->szOperLibname;

	mov	eax, DWORD PTR _lpViewOD$[ebp]
	add	eax, 142				; 0000008eH
	mov	DWORD PTR _pchOperLibName$[ebp], eax

; 6207 :       if ( pchOperLibName == 0 || pchOperLibName[ 0 ] == 0 )

	je	SHORT $LN10@fnGetAttri
	mov	ecx, 1
	imul	edx, ecx, 0
	mov	eax, DWORD PTR _pchOperLibName$[ebp]
	movsx	ecx, BYTE PTR [eax+edx]
	test	ecx, ecx
	jne	SHORT $LN9@fnGetAttri
$LN10@fnGetAttri:

; 6208 :          return( 0 );

	xor	eax, eax
	jmp	$LN1@fnGetAttri
$LN9@fnGetAttri:

; 6209 : 
; 6210 :       hLibrary = SysLoadLibrary( lpView, pchOperLibName );  // dks 2006.04.06  back to 10b

	mov	edx, DWORD PTR _pchOperLibName$[ebp]
	push	edx
	mov	eax, DWORD PTR _lpView$[ebp]
	push	eax
	call	_SysLoadLibrary@8
	mov	DWORD PTR _hLibrary$[ebp], eax

; 6211 :       if ( hLibrary == 0 )

	cmp	DWORD PTR _hLibrary$[ebp], 0
	jne	SHORT $LN8@fnGetAttri

; 6212 :          return( 0 );

	xor	eax, eax
	jmp	$LN1@fnGetAttri
$LN8@fnGetAttri:

; 6213 :    }
; 6214 : 
; 6215 :    hTaskOperation = fnAllocDataspace( AnchorBlock->hMainFirstDataHeader,

	push	10034					; 00002732H
	push	0
	push	1
	push	38					; 00000026H
	mov	ecx, DWORD PTR _AnchorBlock
	mov	edx, DWORD PTR [ecx+114]
	push	edx
	call	_fnAllocDataspace
	add	esp, 20					; 00000014H
	mov	DWORD PTR _hTaskOperation$[ebp], eax

; 6216 :                                       sizeof( TaskOperationRecord ), 1, 0,
; 6217 :                                       iTaskOperation );
; 6218 :    if ( hTaskOperation == 0 )

	cmp	DWORD PTR _hTaskOperation$[ebp], 0
	jne	SHORT $LN12@fnGetAttri

; 6219 :       return( 0 );

	xor	eax, eax
	jmp	$LN1@fnGetAttri
$LN12@fnGetAttri:

; 6220 : 
; 6221 :    lpTaskOperation = zGETPTR( hTaskOperation );

	mov	eax, DWORD PTR _hTaskOperation$[ebp]
	push	eax
	call	DWORD PTR _g_pfnGetPtr
	mov	DWORD PTR _lpTaskOperation$[ebp], eax

; 6222 :    lpTaskOperation->hViewAttrib = zGETHNDL( lpViewAttrib );

	mov	ecx, DWORD PTR _lpViewAttrib$[ebp]
	push	ecx
	call	DWORD PTR _g_pfnGetHndl
	mov	edx, DWORD PTR _lpTaskOperation$[ebp]
	mov	DWORD PTR [edx+26], eax

; 6223 :    lpTaskOperation->hTask       = hCurrentTask;

	mov	eax, DWORD PTR _lpTaskOperation$[ebp]
	mov	ecx, DWORD PTR _hCurrentTask$[ebp]
	mov	DWORD PTR [eax+14], ecx

; 6224 :    lpTaskOperation->lProcessID  = lProcessID;

	mov	edx, DWORD PTR _lpTaskOperation$[ebp]
	mov	eax, DWORD PTR _lProcessID$[ebp]
	mov	DWORD PTR [edx+34], eax

; 6225 : 
; 6226 :    // Set pointers for TaskOperation chain off of Task structure.
; 6227 :    // Note: this is a single linked list.
; 6228 :    if ( hCurrentTask == AnchorBlock->hMainTask )

	mov	ecx, DWORD PTR _AnchorBlock
	mov	edx, DWORD PTR _hCurrentTask$[ebp]
	cmp	edx, DWORD PTR [ecx+106]
	jne	SHORT $LN13@fnGetAttri

; 6229 :    {
; 6230 :       bMutexLocked = TRUE;

	mov	BYTE PTR _bMutexLocked$[ebp], 1

; 6231 :       zLOCK_MUTEX( zMUTEX_ANCHORBLOCK );

	push	2
	call	_fnSysLockCoreMutex@4

; 6232 :    }

	jmp	SHORT $LN14@fnGetAttri
$LN13@fnGetAttri:

; 6233 :    else
; 6234 :       bMutexLocked = FALSE;

	mov	BYTE PTR _bMutexLocked$[ebp], 0
$LN14@fnGetAttri:

; 6235 : 
; 6236 :    lpTaskOperation->hNextTaskOperationForTask =

	mov	eax, DWORD PTR _lpTaskOperation$[ebp]
	mov	ecx, DWORD PTR _lpCurrentTask$[ebp]
	mov	edx, DWORD PTR [ecx+130]
	mov	DWORD PTR [eax+2], edx

; 6237 :                                           lpCurrentTask->hFirstTaskOperation;
; 6238 :    lpCurrentTask->hFirstTaskOperation = hTaskOperation;

	mov	eax, DWORD PTR _lpCurrentTask$[ebp]
	mov	ecx, DWORD PTR _hTaskOperation$[ebp]
	mov	DWORD PTR [eax+130], ecx

; 6239 : 
; 6240 :    if ( bMutexLocked )

	movzx	edx, BYTE PTR _bMutexLocked$[ebp]
	test	edx, edx
	je	SHORT $LN15@fnGetAttri

; 6241 :       zUNLOCK_MUTEX( zMUTEX_ANCHORBLOCK );

	push	2
	call	_fnSysUnlockCoreMutex@4
$LN15@fnGetAttri:

; 6242 : 
; 6243 :    if ( lpViewAttrib->bDerivedIntrnl )

	mov	eax, DWORD PTR _lpViewAttrib$[ebp]
	mov	ecx, DWORD PTR [eax+193]
	shr	ecx, 15					; 0000000fH
	and	ecx, 1
	je	$LN16@fnGetAttri

; 6244 :    {
; 6245 :       if ( zstrcmp( lpViewAttrib->szDerivedOper, "DfExprVML" ) == 0 )

	mov	edx, DWORD PTR _lpViewAttrib$[ebp]
	movsx	eax, BYTE PTR [edx+213]
	movsx	ecx, BYTE PTR $SG16719
	cmp	eax, ecx
	jne	SHORT $LN26@fnGetAttri
	push	OFFSET $SG16720
	mov	edx, DWORD PTR _lpViewAttrib$[ebp]
	add	edx, 213				; 000000d5H
	push	edx
	call	_strcmp
	add	esp, 8
	mov	DWORD PTR tv176[ebp], eax
	jmp	SHORT $LN27@fnGetAttri
$LN26@fnGetAttri:
	mov	eax, DWORD PTR _lpViewAttrib$[ebp]
	movsx	ecx, BYTE PTR [eax+213]
	movsx	edx, BYTE PTR $SG16721
	sub	ecx, edx
	test	ecx, ecx
	jle	SHORT $LN24@fnGetAttri
	mov	DWORD PTR tv175[ebp], 1
	jmp	SHORT $LN25@fnGetAttri
$LN24@fnGetAttri:
	mov	DWORD PTR tv175[ebp], -1
$LN25@fnGetAttri:
	mov	eax, DWORD PTR tv175[ebp]
	mov	DWORD PTR tv176[ebp], eax
$LN27@fnGetAttri:
	cmp	DWORD PTR tv176[ebp], 0
	jne	SHORT $LN18@fnGetAttri

; 6246 :          lpTaskOperation->pfnTaskOper = (zPVOID) DfExprVML;

	mov	ecx, DWORD PTR _lpTaskOperation$[ebp]
	mov	DWORD PTR [ecx+30], OFFSET _DfExprVML@16
	jmp	SHORT $LN19@fnGetAttri
$LN18@fnGetAttri:

; 6247 :       else
; 6248 :       if ( zstrcmp( lpViewAttrib->szDerivedOper, "*xpg*" ) == 0 )

	mov	edx, DWORD PTR _lpViewAttrib$[ebp]
	movsx	eax, BYTE PTR [edx+213]
	movsx	ecx, BYTE PTR $SG16723
	cmp	eax, ecx
	jne	SHORT $LN30@fnGetAttri
	push	OFFSET $SG16724
	mov	edx, DWORD PTR _lpViewAttrib$[ebp]
	add	edx, 213				; 000000d5H
	push	edx
	call	_strcmp
	add	esp, 8
	mov	DWORD PTR tv193[ebp], eax
	jmp	SHORT $LN31@fnGetAttri
$LN30@fnGetAttri:
	mov	eax, DWORD PTR _lpViewAttrib$[ebp]
	movsx	ecx, BYTE PTR [eax+213]
	movsx	edx, BYTE PTR $SG16725
	sub	ecx, edx
	test	ecx, ecx
	jle	SHORT $LN28@fnGetAttri
	mov	DWORD PTR tv192[ebp], 1
	jmp	SHORT $LN29@fnGetAttri
$LN28@fnGetAttri:
	mov	DWORD PTR tv192[ebp], -1
$LN29@fnGetAttri:
	mov	eax, DWORD PTR tv192[ebp]
	mov	DWORD PTR tv193[ebp], eax
$LN31@fnGetAttri:
	cmp	DWORD PTR tv193[ebp], 0
	jne	SHORT $LN19@fnGetAttri

; 6249 :          lpTaskOperation->pfnTaskOper = (zPVOID) DfExecuteXPG;

	mov	ecx, DWORD PTR _lpTaskOperation$[ebp]
	mov	DWORD PTR [ecx+30], OFFSET _DfExecuteXPG@16
$LN19@fnGetAttri:

; 6250 :    }

	jmp	SHORT $LN17@fnGetAttri
$LN16@fnGetAttri:

; 6251 :    else
; 6252 :    {
; 6253 :       lpTaskOperation->pfnTaskOper = SysGetProc( hLibrary,

	mov	edx, DWORD PTR _lpViewAttrib$[ebp]
	add	edx, 213				; 000000d5H
	push	edx
	mov	eax, DWORD PTR _hLibrary$[ebp]
	push	eax
	call	_SysGetProc@8
	mov	ecx, DWORD PTR _lpTaskOperation$[ebp]
	mov	DWORD PTR [ecx+30], eax
$LN17@fnGetAttri:

; 6254 :                                                  lpViewAttrib->szDerivedOper );
; 6255 :    }
; 6256 : 
; 6257 :    // Set pointers for TaskOperation chain off of ViewAttrib structure
; 6258 :    // Note: this is a double linked list
; 6259 :    if ( lpViewAttrib->hLastTaskOperation )

	mov	edx, DWORD PTR _lpViewAttrib$[ebp]
	cmp	DWORD PTR [edx+189], 0
	je	SHORT $LN21@fnGetAttri

; 6260 :    {
; 6261 :       LPTASKOPER  lpTempOperation;
; 6262 : 
; 6263 :       lpTempOperation = zGETPTR( lpViewAttrib->hLastTaskOperation );

	mov	eax, DWORD PTR _lpViewAttrib$[ebp]
	mov	ecx, DWORD PTR [eax+189]
	push	ecx
	call	DWORD PTR _g_pfnGetPtr
	mov	DWORD PTR _lpTempOperation$1[ebp], eax

; 6264 :       lpTempOperation->hNextTaskOperationForOEA = hTaskOperation;

	mov	edx, DWORD PTR _lpTempOperation$1[ebp]
	mov	eax, DWORD PTR _hTaskOperation$[ebp]
	mov	DWORD PTR [edx+6], eax

; 6265 :       lpTaskOperation->hPrevTaskOperationForOEA =

	mov	ecx, DWORD PTR _lpTaskOperation$[ebp]
	mov	edx, DWORD PTR _lpViewAttrib$[ebp]
	mov	eax, DWORD PTR [edx+189]
	mov	DWORD PTR [ecx+10], eax

; 6266 :                                             lpViewAttrib->hLastTaskOperation;
; 6267 :       lpViewAttrib->hLastTaskOperation = hTaskOperation;

	mov	ecx, DWORD PTR _lpViewAttrib$[ebp]
	mov	edx, DWORD PTR _hTaskOperation$[ebp]
	mov	DWORD PTR [ecx+189], edx

; 6268 :    }

	jmp	SHORT $LN22@fnGetAttri
$LN21@fnGetAttri:

; 6269 :    else
; 6270 :    {
; 6271 :       lpViewAttrib->hFirstTaskOperation = hTaskOperation;

	mov	eax, DWORD PTR _lpViewAttrib$[ebp]
	mov	ecx, DWORD PTR _hTaskOperation$[ebp]
	mov	DWORD PTR [eax+185], ecx

; 6272 :       lpViewAttrib->hLastTaskOperation  = hTaskOperation;

	mov	edx, DWORD PTR _lpViewAttrib$[ebp]
	mov	eax, DWORD PTR _hTaskOperation$[ebp]
	mov	DWORD PTR [edx+189], eax
$LN22@fnGetAttri:

; 6273 :    }
; 6274 : 
; 6275 :    return( (zPOBJOPER) lpTaskOperation->pfnTaskOper );

	mov	ecx, DWORD PTR _lpTaskOperation$[ebp]
	mov	eax, DWORD PTR [ecx+30]
$LN1@fnGetAttri:

; 6276 : }

	mov	esp, ebp
	pop	ebp
	ret	0
_fnGetAttribOper ENDP
_TEXT	ENDS
; Function compile flags: /Odtp
; File c:\10c\a\oe\kzoeataa.c
_TEXT	SEGMENT
_lpLastTaskDomain$1 = -32				; size = 4
_lProcessID$ = -28					; size = 4
_hCurrentTask$ = -24					; size = 4
tv82 = -20						; size = 4
_hLibrary$ = -16					; size = 4
_hTaskDomain$ = -12					; size = 4
_lpTaskDomain$ = -8					; size = 4
_cDomainType$ = -1					; size = 1
_lpView$ = 8						; size = 4
_lpCurrentTask$ = 12					; size = 4
_lpDomain$ = 16						; size = 4
_fnGetTaskDomain PROC

; 5643 : {

	push	ebp
	mov	ebp, esp
	sub	esp, 32					; 00000020H

; 5644 :    LPTASK         hCurrentTask = zGETHNDL( lpCurrentTask );

	mov	eax, DWORD PTR _lpCurrentTask$[ebp]
	push	eax
	call	DWORD PTR _g_pfnGetHndl
	mov	DWORD PTR _hCurrentTask$[ebp], eax

; 5645 :    LPLIBRARY      hLibrary = 0;

	mov	DWORD PTR _hLibrary$[ebp], 0

; 5646 :    LPTASKDOMAIN   lpTaskDomain;
; 5647 :    zPVOID         hTaskDomain;
; 5648 :    zCHAR          cDomainType;
; 5649 :    zLONG          lProcessID = SysGetProcessID( 0 );

	push	0
	call	_SysGetProcessID@4
	mov	DWORD PTR _lProcessID$[ebp], eax

; 5650 : 
; 5651 :    if ( lpDomain == 0 )  // no domain pointer ...

	cmp	DWORD PTR _lpDomain$[ebp], 0
	jne	SHORT $LN6@fnGetTaskD

; 5652 :       return( 0 );       //   return not found!

	xor	eax, eax
	jmp	$LN1@fnGetTaskD
$LN6@fnGetTaskD:

; 5653 : 
; 5654 :    lpTaskDomain = zGETPTR( lpDomain->hFirstTaskDomain );

	mov	ecx, DWORD PTR _lpDomain$[ebp]
	mov	edx, DWORD PTR [ecx+51]
	push	edx
	call	DWORD PTR _g_pfnGetPtr
	mov	DWORD PTR _lpTaskDomain$[ebp], eax
$LN2@fnGetTaskD:

; 5655 :    while ( lpTaskDomain )

	cmp	DWORD PTR _lpTaskDomain$[ebp], 0
	je	SHORT $LN3@fnGetTaskD

; 5656 :    {
; 5657 :       if ( lpTaskDomain->hTask == hCurrentTask &&

	mov	eax, DWORD PTR _lpTaskDomain$[ebp]
	mov	ecx, DWORD PTR [eax+18]
	cmp	ecx, DWORD PTR _hCurrentTask$[ebp]
	jne	SHORT $LN7@fnGetTaskD
	mov	edx, DWORD PTR _lpTaskDomain$[ebp]
	mov	eax, DWORD PTR [edx+22]
	cmp	eax, DWORD PTR _lProcessID$[ebp]
	jne	SHORT $LN7@fnGetTaskD

; 5658 :            lpTaskDomain->lProcessID == lProcessID )
; 5659 :       {
; 5660 :          return( lpTaskDomain );

	mov	eax, DWORD PTR _lpTaskDomain$[ebp]
	jmp	$LN1@fnGetTaskD
$LN7@fnGetTaskD:

; 5661 :       }
; 5662 : 
; 5663 :       lpTaskDomain = zGETPTR( lpTaskDomain->hNextTaskDomainForDomain );

	mov	ecx, DWORD PTR _lpTaskDomain$[ebp]
	mov	edx, DWORD PTR [ecx+6]
	push	edx
	call	DWORD PTR _g_pfnGetPtr
	mov	DWORD PTR _lpTaskDomain$[ebp], eax

; 5664 :    }

	jmp	SHORT $LN2@fnGetTaskD
$LN3@fnGetTaskD:

; 5665 : 
; 5666 :    cDomainType = lpDomain->cDomainType;

	mov	eax, DWORD PTR _lpDomain$[ebp]
	mov	cl, BYTE PTR [eax+65]
	mov	BYTE PTR _cDomainType$[ebp], cl

; 5667 : 
; 5668 :    switch ( cDomainType )

	movsx	edx, BYTE PTR _cDomainType$[ebp]
	mov	DWORD PTR tv82[ebp], edx
	mov	eax, DWORD PTR tv82[ebp]
	sub	eax, 65					; 00000041H
	mov	DWORD PTR tv82[ebp], eax
	cmp	DWORD PTR tv82[ebp], 19			; 00000013H
	ja	$LN4@fnGetTaskD
	mov	ecx, DWORD PTR tv82[ebp]
	movzx	edx, BYTE PTR $LN21@fnGetTaskD[ecx]
	jmp	DWORD PTR $LN22@fnGetTaskD[edx*4]
$LN8@fnGetTaskD:

; 5669 :    {
; 5670 :       case zDM_TYPE_EXPRESSION:
; 5671 :       case zDM_TYPE_ALGORITHM:
; 5672 :          if ( lpDomain->szLibraryName[ 0 ] == 0 )

	mov	eax, 1
	imul	ecx, eax, 0
	mov	edx, DWORD PTR _lpDomain$[ebp]
	movsx	eax, BYTE PTR [edx+ecx+67]
	test	eax, eax
	jne	SHORT $LN9@fnGetTaskD

; 5673 :             return( 0 );

	xor	eax, eax
	jmp	$LN1@fnGetTaskD
$LN9@fnGetTaskD:

; 5674 : 
; 5675 :          hLibrary = SysLoadLibrary( lpView, lpDomain->szLibraryName );

	mov	ecx, DWORD PTR _lpDomain$[ebp]
	add	ecx, 67					; 00000043H
	push	ecx
	mov	edx, DWORD PTR _lpView$[ebp]
	push	edx
	call	_SysLoadLibrary@8
	mov	DWORD PTR _hLibrary$[ebp], eax

; 5676 :          if ( hLibrary == 0 )

	cmp	DWORD PTR _hLibrary$[ebp], 0
	jne	SHORT $LN11@fnGetTaskD

; 5677 :             return( 0 );

	xor	eax, eax
	jmp	$LN1@fnGetTaskD
$LN11@fnGetTaskD:

; 5678 : 
; 5679 :          // Yes, we should fall through.
; 5680 : 
; 5681 :       case zDM_TYPE_TABLE:
; 5682 :       case zDM_TYPE_FORMAT:
; 5683 :       {
; 5684 :          // If a table Domain has an operation, make sure the library routine
; 5685 :          // is properly accessed, the same as for Algorithm above.
; 5686 :          if ( cDomainType == zDM_TYPE_TABLE &&
; 5687 :               lpDomain->szDomainOper[ 0 ] && lpDomain->szLibraryName[ 0 ] )

	movsx	eax, BYTE PTR _cDomainType$[ebp]
	cmp	eax, 84					; 00000054H
	jne	SHORT $LN12@fnGetTaskD
	mov	ecx, 1
	imul	edx, ecx, 0
	mov	eax, DWORD PTR _lpDomain$[ebp]
	movsx	ecx, BYTE PTR [eax+edx+100]
	test	ecx, ecx
	je	SHORT $LN12@fnGetTaskD
	mov	edx, 1
	imul	eax, edx, 0
	mov	ecx, DWORD PTR _lpDomain$[ebp]
	movsx	edx, BYTE PTR [ecx+eax+67]
	test	edx, edx
	je	SHORT $LN12@fnGetTaskD

; 5688 :          {
; 5689 :             hLibrary = SysLoadLibrary( lpView, lpDomain->szLibraryName );

	mov	eax, DWORD PTR _lpDomain$[ebp]
	add	eax, 67					; 00000043H
	push	eax
	mov	ecx, DWORD PTR _lpView$[ebp]
	push	ecx
	call	_SysLoadLibrary@8
	mov	DWORD PTR _hLibrary$[ebp], eax
$LN12@fnGetTaskD:

; 5690 :          }
; 5691 : 
; 5692 :          hTaskDomain = fnAllocDataspace( AnchorBlock->hMainFirstDataHeader,

	push	10008					; 00002718H
	push	0
	push	1
	push	34					; 00000022H
	mov	edx, DWORD PTR _AnchorBlock
	mov	eax, DWORD PTR [edx+114]
	push	eax
	call	_fnAllocDataspace
	add	esp, 20					; 00000014H
	mov	DWORD PTR _hTaskDomain$[ebp], eax

; 5693 :                                          sizeof( TaskDomainRecord ), 1, 0,
; 5694 :                                          iTaskDomain );
; 5695 :          if ( hTaskDomain == 0 )

	cmp	DWORD PTR _hTaskDomain$[ebp], 0
	jne	SHORT $LN13@fnGetTaskD

; 5696 :             return( 0 );

	xor	eax, eax
	jmp	$LN1@fnGetTaskD
$LN13@fnGetTaskD:

; 5697 : 
; 5698 :          lpTaskDomain = zGETPTR( hTaskDomain );

	mov	ecx, DWORD PTR _hTaskDomain$[ebp]
	push	ecx
	call	DWORD PTR _g_pfnGetPtr
	mov	DWORD PTR _lpTaskDomain$[ebp], eax

; 5699 : 
; 5700 :          lpTaskDomain->hDomain    = zGETHNDL( lpDomain );

	mov	edx, DWORD PTR _lpDomain$[ebp]
	push	edx
	call	DWORD PTR _g_pfnGetHndl
	mov	ecx, DWORD PTR _lpTaskDomain$[ebp]
	mov	DWORD PTR [ecx+14], eax

; 5701 :          lpTaskDomain->hTask      = hCurrentTask;

	mov	edx, DWORD PTR _lpTaskDomain$[ebp]
	mov	eax, DWORD PTR _hCurrentTask$[ebp]
	mov	DWORD PTR [edx+18], eax

; 5702 :          lpTaskDomain->lProcessID = lProcessID;

	mov	ecx, DWORD PTR _lpTaskDomain$[ebp]
	mov	edx, DWORD PTR _lProcessID$[ebp]
	mov	DWORD PTR [ecx+22], edx

; 5703 :          lpTaskDomain->hLibrary   = hLibrary;

	mov	eax, DWORD PTR _lpTaskDomain$[ebp]
	mov	ecx, DWORD PTR _hLibrary$[ebp]
	mov	DWORD PTR [eax+26], ecx

; 5704 : 
; 5705 :          // Set pointers for TaskDomain chain off of Task structure.
; 5706 :          // Note: this is a single linked list.
; 5707 :          if ( hCurrentTask == AnchorBlock->hMainTask )

	mov	edx, DWORD PTR _AnchorBlock
	mov	eax, DWORD PTR _hCurrentTask$[ebp]
	cmp	eax, DWORD PTR [edx+106]
	jne	SHORT $LN14@fnGetTaskD

; 5708 :             zLOCK_MUTEX( zMUTEX_ANCHORBLOCK );

	push	2
	call	_fnSysLockCoreMutex@4
$LN14@fnGetTaskD:

; 5709 : 
; 5710 :          lpTaskDomain->hNextTaskDomainForTask = lpCurrentTask->hFirstTaskDomain;

	mov	ecx, DWORD PTR _lpTaskDomain$[ebp]
	mov	edx, DWORD PTR _lpCurrentTask$[ebp]
	mov	eax, DWORD PTR [edx+126]
	mov	DWORD PTR [ecx+2], eax

; 5711 :          lpCurrentTask->hFirstTaskDomain = hTaskDomain;

	mov	ecx, DWORD PTR _lpCurrentTask$[ebp]
	mov	edx, DWORD PTR _hTaskDomain$[ebp]
	mov	DWORD PTR [ecx+126], edx

; 5712 : 
; 5713 :          if ( hCurrentTask == AnchorBlock->hMainTask )

	mov	eax, DWORD PTR _AnchorBlock
	mov	ecx, DWORD PTR _hCurrentTask$[ebp]
	cmp	ecx, DWORD PTR [eax+106]
	jne	SHORT $LN15@fnGetTaskD

; 5714 :             zUNLOCK_MUTEX( zMUTEX_ANCHORBLOCK );

	push	2
	call	_fnSysUnlockCoreMutex@4
$LN15@fnGetTaskD:

; 5715 : #if 0
; 5716 :          // debugging only dks 2005.12.01
; 5717 :          if ( lpTaskDomain->hTask == AnchorBlock->hMainTask )
; 5718 :          {
; 5719 :             LPAPP lpApp = zGETPTR( lpDomain->hApp );
; 5720 :             if ( zstricmp( lpApp->szName, "ZENCAS" ) == 0 )
; 5721 :                TraceLineS( "", "" );
; 5722 :          }
; 5723 : #endif
; 5724 :          // Set pointers for TaskDomain chain off of Domain structure.
; 5725 :          // Note: this is a double linked list.
; 5726 :          if ( lpDomain->hLastTaskDomain )

	mov	edx, DWORD PTR _lpDomain$[ebp]
	cmp	DWORD PTR [edx+55], 0
	je	SHORT $LN16@fnGetTaskD

; 5727 :          {
; 5728 :             LPTASKDOMAIN lpLastTaskDomain;
; 5729 : 
; 5730 :             lpLastTaskDomain = zGETPTR( lpDomain->hLastTaskDomain );

	mov	eax, DWORD PTR _lpDomain$[ebp]
	mov	ecx, DWORD PTR [eax+55]
	push	ecx
	call	DWORD PTR _g_pfnGetPtr
	mov	DWORD PTR _lpLastTaskDomain$1[ebp], eax

; 5731 :             lpLastTaskDomain->hNextTaskDomainForDomain = hTaskDomain;

	mov	edx, DWORD PTR _lpLastTaskDomain$1[ebp]
	mov	eax, DWORD PTR _hTaskDomain$[ebp]
	mov	DWORD PTR [edx+6], eax

; 5732 :             lpTaskDomain->hPrevTaskDomainForDomain =

	mov	ecx, DWORD PTR _lpTaskDomain$[ebp]
	mov	edx, DWORD PTR _lpDomain$[ebp]
	mov	eax, DWORD PTR [edx+55]
	mov	DWORD PTR [ecx+10], eax

; 5733 :                                           lpDomain->hLastTaskDomain;
; 5734 :             lpDomain->hLastTaskDomain = hTaskDomain;

	mov	ecx, DWORD PTR _lpDomain$[ebp]
	mov	edx, DWORD PTR _hTaskDomain$[ebp]
	mov	DWORD PTR [ecx+55], edx

; 5735 :          }

	jmp	SHORT $LN17@fnGetTaskD
$LN16@fnGetTaskD:

; 5736 :          else
; 5737 :          {
; 5738 :             lpDomain->hFirstTaskDomain = hTaskDomain;

	mov	eax, DWORD PTR _lpDomain$[ebp]
	mov	ecx, DWORD PTR _hTaskDomain$[ebp]
	mov	DWORD PTR [eax+51], ecx

; 5739 :             lpDomain->hLastTaskDomain  = hTaskDomain;

	mov	edx, DWORD PTR _lpDomain$[ebp]
	mov	eax, DWORD PTR _hTaskDomain$[ebp]
	mov	DWORD PTR [edx+55], eax
$LN17@fnGetTaskD:

; 5740 :          }
; 5741 : 
; 5742 :          if ( hLibrary )

	cmp	DWORD PTR _hLibrary$[ebp], 0
	je	SHORT $LN4@fnGetTaskD

; 5743 :          {
; 5744 :          // LPLIBRARY lpLibrary = zGETPTR( hLibrary );
; 5745 :          // TraceLine( "fnGetTaskDomain Task: 0x%08x   Domain: 0x%08x   Lib: %s",
; 5746 :          //            lpView->hTask, lpTaskDomain, lpLibrary->szName );
; 5747 :             if ( lpDomain->szDomainOper[ 0 ] )

	mov	ecx, 1
	imul	edx, ecx, 0
	mov	eax, DWORD PTR _lpDomain$[ebp]
	movsx	ecx, BYTE PTR [eax+edx+100]
	test	ecx, ecx
	je	SHORT $LN4@fnGetTaskD

; 5748 :             {
; 5749 :                lpTaskDomain->pfDomainOper =

	mov	edx, DWORD PTR _lpDomain$[ebp]
	add	edx, 100				; 00000064H
	push	edx
	mov	eax, DWORD PTR _hLibrary$[ebp]
	push	eax
	call	_SysGetProc@8
	mov	ecx, DWORD PTR _lpTaskDomain$[ebp]
	mov	DWORD PTR [ecx+30], eax
$LN4@fnGetTaskD:

; 5750 :                               (zPDMOPER) SysGetProc( hLibrary,
; 5751 :                                                      lpDomain->szDomainOper );
; 5752 :             }
; 5753 :          }
; 5754 :       }
; 5755 :    }
; 5756 : 
; 5757 :    return( lpTaskDomain );

	mov	eax, DWORD PTR _lpTaskDomain$[ebp]
$LN1@fnGetTaskD:

; 5758 : }

	mov	esp, ebp
	pop	ebp
	ret	0
	npad	1
$LN22@fnGetTaskD:
	DD	$LN8@fnGetTaskD
	DD	$LN11@fnGetTaskD
	DD	$LN4@fnGetTaskD
$LN21@fnGetTaskD:
	DB	0
	DB	2
	DB	2
	DB	2
	DB	0
	DB	1
	DB	2
	DB	2
	DB	2
	DB	2
	DB	2
	DB	2
	DB	2
	DB	2
	DB	2
	DB	2
	DB	2
	DB	2
	DB	2
	DB	1
_fnGetTaskDomain ENDP
_TEXT	ENDS
; Function compile flags: /Odtp
; File c:\10c\a\oe\kzoeataa.c
_TEXT	SEGMENT
_lpTask$1 = -36						; size = 4
_lpViewEntity$2 = -32					; size = 4
tv93 = -28						; size = 4
tv90 = -24						; size = 4
tv86 = -20						; size = 4
tv79 = -16						; size = 4
tv73 = -12						; size = 4
tv71 = -8						; size = 4
_lpAttrValue$ = -4					; size = 4
_lpView$ = 8						; size = 4
_lpEntityInstance$ = 12					; size = 4
_lpViewAttrib$ = 16					; size = 4
_fnAttributeValueNull PROC

; 10491: {

	push	ebp
	mov	ebp, esp
	sub	esp, 36					; 00000024H

; 10492:    zPVOID   lpAttrValue;
; 10493: 
; 10494:    fnGetAddrForAttribute( (zCOREMEM) &lpAttrValue, lpView, 0, lpEntityInstance,

	mov	eax, DWORD PTR _lpViewAttrib$[ebp]
	push	eax
	mov	ecx, DWORD PTR _lpEntityInstance$[ebp]
	push	ecx
	push	0
	mov	edx, DWORD PTR _lpView$[ebp]
	push	edx
	lea	eax, DWORD PTR _lpAttrValue$[ebp]
	push	eax
	call	_fnGetAddrForAttribute
	add	esp, 20					; 00000014H

; 10495:                           lpViewAttrib );
; 10496:    switch ( lpViewAttrib->cType )

	mov	ecx, DWORD PTR _lpViewAttrib$[ebp]
	movsx	edx, BYTE PTR [ecx+202]
	mov	DWORD PTR tv71[ebp], edx
	mov	eax, DWORD PTR tv71[ebp]
	sub	eax, 66					; 00000042H
	mov	DWORD PTR tv71[ebp], eax
	cmp	DWORD PTR tv71[ebp], 18			; 00000012H
	ja	$LN9@fnAttribut
	mov	ecx, DWORD PTR tv71[ebp]
	movzx	edx, BYTE PTR $LN21@fnAttribut[ecx]
	jmp	DWORD PTR $LN22@fnAttribut[edx*4]
$LN4@fnAttribut:

; 10497:    {
; 10498:       case zTYPE_INTEGER:
; 10499:          return( (*((zPLONG) lpAttrValue) == lNullInteger) ? 1 : 0 );

	mov	eax, DWORD PTR _lpAttrValue$[ebp]
	mov	ecx, DWORD PTR [eax]
	cmp	ecx, DWORD PTR _lNullInteger
	jne	SHORT $LN11@fnAttribut
	mov	DWORD PTR tv73[ebp], 1
	jmp	SHORT $LN12@fnAttribut
$LN11@fnAttribut:
	mov	DWORD PTR tv73[ebp], 0
$LN12@fnAttribut:
	mov	ax, WORD PTR tv73[ebp]
	jmp	$LN1@fnAttribut
$LN5@fnAttribut:

; 10500: 
; 10501:       case zTYPE_DECIMAL:
; 10502:          return( SysCompareDecimalToNull( (zPDECIMAL) lpAttrValue ) == 0 ? 1 : 0 );

	mov	edx, DWORD PTR _lpAttrValue$[ebp]
	push	edx
	call	_SysCompareDecimalToNull@4
	cwde
	test	eax, eax
	jne	SHORT $LN13@fnAttribut
	mov	DWORD PTR tv79[ebp], 1
	jmp	SHORT $LN14@fnAttribut
$LN13@fnAttribut:
	mov	DWORD PTR tv79[ebp], 0
$LN14@fnAttribut:
	mov	ax, WORD PTR tv79[ebp]
	jmp	$LN1@fnAttribut
$LN6@fnAttribut:

; 10503: 
; 10504:       case zTYPE_DATETIME:
; 10505:          return( (fnCompareDateTimeToDateTime( (LPDTINTERNAL) lpAttrValue,

	push	OFFSET _stNullDateTime
	mov	ecx, DWORD PTR _lpAttrValue$[ebp]
	push	ecx
	call	_fnCompareDateTimeToDateTime
	add	esp, 8
	movsx	edx, ax
	test	edx, edx
	jne	SHORT $LN15@fnAttribut
	mov	DWORD PTR tv86[ebp], 1
	jmp	SHORT $LN16@fnAttribut
$LN15@fnAttribut:
	mov	DWORD PTR tv86[ebp], 0
$LN16@fnAttribut:
	mov	ax, WORD PTR tv86[ebp]
	jmp	$LN1@fnAttribut
$LN7@fnAttribut:

; 10506:                              (LPDTINTERNAL) &stNullDateTime ) == 0 ) ? 1 : 0 );
; 10507: 
; 10508:       case zTYPE_STRING:
; 10509:          return( (*((zPCHAR) lpAttrValue) == 0) ? 1 : 0 );

	mov	eax, DWORD PTR _lpAttrValue$[ebp]
	movsx	ecx, BYTE PTR [eax]
	test	ecx, ecx
	jne	SHORT $LN17@fnAttribut
	mov	DWORD PTR tv90[ebp], 1
	jmp	SHORT $LN18@fnAttribut
$LN17@fnAttribut:
	mov	DWORD PTR tv90[ebp], 0
$LN18@fnAttribut:
	mov	ax, WORD PTR tv90[ebp]
	jmp	SHORT $LN1@fnAttribut
$LN8@fnAttribut:

; 10510: 
; 10511:       case zTYPE_BLOB:
; 10512:          return( (lpAttrValue == 0) ? 1 : 0 );

	cmp	DWORD PTR _lpAttrValue$[ebp], 0
	jne	SHORT $LN19@fnAttribut
	mov	DWORD PTR tv93[ebp], 1
	jmp	SHORT $LN20@fnAttribut
$LN19@fnAttribut:
	mov	DWORD PTR tv93[ebp], 0
$LN20@fnAttribut:
	mov	ax, WORD PTR tv93[ebp]
	jmp	SHORT $LN1@fnAttribut
$LN9@fnAttribut:

; 10513: 
; 10514:       default:
; 10515:       {
; 10516:          LPTASK lpTask = zGETPTR( lpView->hTask );

	mov	edx, DWORD PTR _lpView$[ebp]
	mov	eax, DWORD PTR [edx+14]
	push	eax
	call	DWORD PTR _g_pfnGetPtr
	mov	DWORD PTR _lpTask$1[ebp], eax

; 10517:          LPVIEWENTITY lpViewEntity = zGETPTR( lpEntityInstance->hViewEntity );

	mov	ecx, DWORD PTR _lpEntityInstance$[ebp]
	mov	edx, DWORD PTR [ecx+2]
	push	edx
	call	DWORD PTR _g_pfnGetPtr
	mov	DWORD PTR _lpViewEntity$2[ebp], eax

; 10518: 
; 10519:          // "KZOEE246 - Invalid Attribute type "
; 10520:          fnIssueCoreError( lpTask, lpView, 8, 246, 0,

	mov	eax, DWORD PTR _lpViewAttrib$[ebp]
	add	eax, 10					; 0000000aH
	push	eax
	mov	ecx, DWORD PTR _lpViewEntity$2[ebp]
	add	ecx, 14					; 0000000eH
	push	ecx
	push	0
	push	246					; 000000f6H
	push	8
	mov	edx, DWORD PTR _lpView$[ebp]
	push	edx
	mov	eax, DWORD PTR _lpTask$1[ebp]
	push	eax
	call	_fnIssueCoreError
	add	esp, 28					; 0000001cH

; 10521:                            lpViewEntity->szName, lpViewAttrib->szName );
; 10522:          return( zCALL_ERROR );

	mov	eax, -16				; fffffff0H
$LN1@fnAttribut:

; 10523:       }
; 10524:    }
; 10525: }

	mov	esp, ebp
	pop	ebp
	ret	0
	npad	1
$LN22@fnAttribut:
	DD	$LN8@fnAttribut
	DD	$LN4@fnAttribut
	DD	$LN5@fnAttribut
	DD	$LN7@fnAttribut
	DD	$LN6@fnAttribut
	DD	$LN9@fnAttribut
$LN21@fnAttribut:
	DB	0
	DB	5
	DB	5
	DB	5
	DB	5
	DB	5
	DB	5
	DB	5
	DB	5
	DB	5
	DB	1
	DB	2
	DB	5
	DB	5
	DB	5
	DB	5
	DB	5
	DB	3
	DB	4
_fnAttributeValueNull ENDP
_TEXT	ENDS
; Function compile flags: /Odtp
; File c:\10c\a\oe\kzoeataa.c
_TEXT	SEGMENT
_pdDecimal$ = -556					; size = 4
_plInteger$ = -552					; size = 4
_lpTask$1 = -548					; size = 4
_lpTaskDomain$ = -544					; size = 4
$T2 = -540						; size = 4
_lpDomain$ = -536					; size = 4
_lpViewEntity$ = -532					; size = 4
tv89 = -528						; size = 4
tv163 = -524						; size = 4
_lpEntityInstance$ = -520				; size = 4
_szTempStr$ = -516					; size = 2
_cDomainType$ = -509					; size = 1
_nRC$ = -508						; size = 2
_szMsg$3 = -504						; size = 500
__$ArrayPad$ = -4					; size = 4
_lpView$ = 8						; size = 4
_lpViewEntityCsr$ = 12					; size = 4
_lpViewAttrib$ = 16					; size = 4
_lpVariable$ = 20					; size = 4
_cVariableType$ = 24					; size = 1
_ulVariableLth$ = 28					; size = 4
_cpcContextName$ = 32					; size = 4
_lpCurrentTask$ = 36					; size = 4
_nFlag$ = 40						; size = 2
_fnCompareAttributeToVariable PROC

; 8719 : {

	push	ebp
	mov	ebp, esp
	sub	esp, 556				; 0000022cH
	mov	eax, DWORD PTR ___security_cookie
	xor	eax, ebp
	mov	DWORD PTR __$ArrayPad$[ebp], eax
	push	esi
	push	edi

; 8720 :    LPVIEWENTITY      lpViewEntity;
; 8721 :    LPENTITYINSTANCE  lpEntityInstance;
; 8722 :    LPDOMAIN          lpDomain;
; 8723 :    LPTASKDOMAIN      lpTaskDomain;
; 8724 :    zCHAR             cDomainType;
; 8725 :    zCHAR             szTempStr[ 2 ];
; 8726 :    zPLONG            plInteger;
; 8727 :    zPDECIMAL         pdDecimal;
; 8728 :    zSHORT            nRC;
; 8729 : 
; 8730 :    // Get view Entity from cursor
; 8731 :    lpViewEntity = zGETPTR( lpViewEntityCsr->hViewEntity );

	mov	eax, DWORD PTR _lpViewEntityCsr$[ebp]
	mov	ecx, DWORD PTR [eax+14]
	push	ecx
	call	DWORD PTR _g_pfnGetPtr
	mov	DWORD PTR _lpViewEntity$[ebp], eax

; 8732 : 
; 8733 :    // If there is an object operation for this attribute,
; 8734 :    // invoke it now...
; 8735 :    if ( lpViewAttrib->szDerivedOper[ 0 ] )

	mov	edx, 1
	imul	eax, edx, 0
	mov	ecx, DWORD PTR _lpViewAttrib$[ebp]
	movsx	edx, BYTE PTR [ecx+eax+213]
	test	edx, edx
	je	SHORT $LN6@fnCompareA

; 8736 :    {
; 8737 :       nRC = fnInvokeDerivedOperation( lpView, lpViewEntity, lpViewAttrib,

	push	2
	mov	eax, DWORD PTR _lpCurrentTask$[ebp]
	push	eax
	mov	ecx, DWORD PTR _lpViewAttrib$[ebp]
	push	ecx
	mov	edx, DWORD PTR _lpViewEntity$[ebp]
	push	edx
	mov	eax, DWORD PTR _lpView$[ebp]
	push	eax
	call	_fnInvokeDerivedOperation
	add	esp, 20					; 00000014H
	mov	WORD PTR _nRC$[ebp], ax

; 8738 :                                       lpCurrentTask, zDERIVED_GET );
; 8739 :       if ( nRC == zCALL_ERROR )

	movsx	ecx, WORD PTR _nRC$[ebp]
	cmp	ecx, -16				; fffffff0H
	jne	SHORT $LN6@fnCompareA

; 8740 :          return( nRC );

	mov	ax, WORD PTR _nRC$[ebp]
	jmp	$LN18@fnCompareA
$LN6@fnCompareA:

; 8741 :    }
; 8742 : 
; 8743 :    lpDomain = zGETPTR( lpViewAttrib->hDomain );

	mov	edx, DWORD PTR _lpViewAttrib$[ebp]
	mov	eax, DWORD PTR [edx+198]
	push	eax
	call	DWORD PTR _g_pfnGetPtr
	mov	DWORD PTR _lpDomain$[ebp], eax

; 8744 :    cDomainType = fnDomainProcessingRequired( &lpTaskDomain, lpView,

	mov	ecx, DWORD PTR _lpDomain$[ebp]
	push	ecx
	mov	edx, DWORD PTR _lpCurrentTask$[ebp]
	push	edx
	mov	eax, DWORD PTR _lpView$[ebp]
	push	eax
	lea	ecx, DWORD PTR _lpTaskDomain$[ebp]
	push	ecx
	call	_fnDomainProcessingRequired
	add	esp, 16					; 00000010H
	mov	BYTE PTR _cDomainType$[ebp], al

; 8745 :                                              lpCurrentTask, lpDomain );
; 8746 :    switch ( cDomainType )

	mov	dl, BYTE PTR _cDomainType$[ebp]
	mov	BYTE PTR tv89[ebp], dl
	cmp	BYTE PTR tv89[ebp], 65			; 00000041H
	je	SHORT $LN9@fnCompareA
	cmp	BYTE PTR tv89[ebp], 69			; 00000045H
	je	SHORT $LN9@fnCompareA
	cmp	BYTE PTR tv89[ebp], 84			; 00000054H
	je	SHORT $LN8@fnCompareA
	jmp	$LN11@fnCompareA
$LN8@fnCompareA:

; 8747 :    {
; 8748 :       case zDM_TYPE_TABLE:
; 8749 :          nRC = Table_Handler( (zLONG) zDME_COMPARE_ATTRIBUTE,

	push	0
	movsx	eax, WORD PTR _ulVariableLth$[ebp]
	push	eax
	mov	ecx, DWORD PTR _lpViewAttrib$[ebp]
	push	ecx
	mov	edx, DWORD PTR _lpViewEntity$[ebp]
	push	edx
	mov	eax, DWORD PTR _lpView$[ebp]
	push	eax
	mov	ecx, DWORD PTR _cpcContextName$[ebp]
	push	ecx
	mov	edx, DWORD PTR _lpVariable$[ebp]
	push	edx
	movzx	eax, BYTE PTR _cVariableType$[ebp]
	push	eax
	push	3
	call	_Table_Handler@36
	mov	WORD PTR _nRC$[ebp], ax

; 8750 :                               cVariableType,
; 8751 :                               lpVariable,
; 8752 :                               cpcContextName,
; 8753 :                               lpView,
; 8754 :                               lpViewEntity,
; 8755 :                               lpViewAttrib,
; 8756 :                               (zSHORT) ulVariableLth,
; 8757 :                               (zPVOID) 0 );
; 8758 :          break;

	jmp	$LN2@fnCompareA
$LN9@fnCompareA:

; 8759 : 
; 8760 :       case zDM_TYPE_EXPRESSION:
; 8761 :       case zDM_TYPE_ALGORITHM:
; 8762 :          nRC = fnCallDomainOper( lpCurrentTask, lpTaskDomain,

	mov	ecx, DWORD PTR _ulVariableLth$[ebp]
	push	ecx
	mov	edx, DWORD PTR _lpViewAttrib$[ebp]
	push	edx
	mov	eax, DWORD PTR _lpViewEntity$[ebp]
	push	eax
	mov	ecx, DWORD PTR _lpView$[ebp]
	push	ecx
	mov	edx, DWORD PTR _cpcContextName$[ebp]
	push	edx
	mov	eax, DWORD PTR _lpVariable$[ebp]
	push	eax
	movzx	ecx, BYTE PTR _cVariableType$[ebp]
	push	ecx
	push	3
	mov	edx, DWORD PTR _lpTaskDomain$[ebp]
	push	edx
	mov	eax, DWORD PTR _lpCurrentTask$[ebp]
	push	eax
	call	_fnCallDomainOper@40
	mov	WORD PTR _nRC$[ebp], ax

; 8763 :                                  zDME_COMPARE_ATTRIBUTE,
; 8764 :                                  cVariableType,
; 8765 :                                  lpVariable,
; 8766 :                                  cpcContextName,
; 8767 :                                  lpView,
; 8768 :                                  lpViewEntity,
; 8769 :                                  lpViewAttrib,
; 8770 :                                  ulVariableLth );
; 8771 : 
; 8772 :          if ( nRC == zDME_NOT_HANDLED )

	movsx	ecx, WORD PTR _nRC$[ebp]
	cmp	ecx, -10				; fffffff6H
	jne	SHORT $LN10@fnCompareA

; 8773 :          {
; 8774 :             zCHAR szMsg[ 500 ];
; 8775 : 
; 8776 :             zsprintf( szMsg, "Operation '%s' does not handle an Entry "

	mov	edx, DWORD PTR _lpDomain$[ebp]
	add	edx, 6
	push	edx
	push	3
	mov	eax, DWORD PTR _lpDomain$[ebp]
	add	eax, 100				; 00000064H
	push	eax
	push	OFFSET $SG17761
	lea	ecx, DWORD PTR _szMsg$3[ebp]
	push	ecx
	call	_sprintf
	add	esp, 20					; 00000014H

; 8777 :                       "Type of %ld for domain '%s'", lpDomain->szDomainOper,
; 8778 :                       zDME_COMPARE_ATTRIBUTE, lpDomain->szName );
; 8779 :             MessageSend( lpView, "TZDMD101", "System Error",

	push	0
	push	200					; 000000c8H
	lea	edx, DWORD PTR _szMsg$3[ebp]
	push	edx
	push	OFFSET $SG17762
	push	OFFSET $SG17763
	mov	eax, DWORD PTR _lpView$[ebp]
	push	eax
	call	_MessageSend@24

; 8780 :                          szMsg, zMSGQ_DOMAIN_ERROR, 0 );
; 8781 :             return( zCALL_ERROR );

	mov	eax, -16				; fffffff0H
	jmp	$LN18@fnCompareA
$LN10@fnCompareA:

; 8782 :          }
; 8783 : 
; 8784 :          break;

	jmp	$LN2@fnCompareA
$LN11@fnCompareA:

; 8785 : 
; 8786 :       case zDM_TYPE_FORMAT:
; 8787 :       default:
; 8788 :          // Get Entity Instance pointer
; 8789 :          lpEntityInstance = zGETPTR( lpViewEntityCsr->hEntityInstance );

	mov	ecx, DWORD PTR _lpViewEntityCsr$[ebp]
	mov	edx, DWORD PTR [ecx+26]
	push	edx
	call	DWORD PTR _g_pfnGetPtr
	mov	DWORD PTR _lpEntityInstance$[ebp], eax

; 8790 : 
; 8791 :          // do it without a domain...
; 8792 :          switch ( cVariableType )

	movsx	eax, BYTE PTR _cVariableType$[ebp]
	mov	DWORD PTR tv163[ebp], eax
	mov	ecx, DWORD PTR tv163[ebp]
	sub	ecx, 66					; 00000042H
	mov	DWORD PTR tv163[ebp], ecx
	cmp	DWORD PTR tv163[ebp], 18		; 00000012H
	ja	$LN17@fnCompareA
	mov	edx, DWORD PTR tv163[ebp]
	movzx	eax, BYTE PTR $LN21@fnCompareA[edx]
	jmp	DWORD PTR $LN22@fnCompareA[eax*4]
$LN12@fnCompareA:

; 8793 :          {
; 8794 :             case zTYPE_STRING:
; 8795 :                nRC = fnCompareAttributeToString( lpEntityInstance,

	mov	ecx, DWORD PTR _lpVariable$[ebp]
	push	ecx
	mov	edx, DWORD PTR _lpViewAttrib$[ebp]
	push	edx
	mov	eax, DWORD PTR _lpViewEntityCsr$[ebp]
	push	eax
	mov	ecx, DWORD PTR _lpEntityInstance$[ebp]
	push	ecx
	call	_fnCompareAttributeToString
	add	esp, 16					; 00000010H
	mov	WORD PTR _nRC$[ebp], ax

; 8796 :                                                  lpViewEntityCsr,
; 8797 :                                                  lpViewAttrib,
; 8798 :                                                  (zPCHAR) lpVariable );
; 8799 :                break;

	jmp	$LN2@fnCompareA
$LN13@fnCompareA:

; 8800 : 
; 8801 :             case zTYPE_BLOB:
; 8802 :                nRC = fnCompareAttributeToBlob( lpEntityInstance,

	mov	edx, DWORD PTR _ulVariableLth$[ebp]
	push	edx
	mov	eax, DWORD PTR _lpVariable$[ebp]
	push	eax
	mov	ecx, DWORD PTR _lpViewAttrib$[ebp]
	push	ecx
	mov	edx, DWORD PTR _lpViewEntityCsr$[ebp]
	push	edx
	mov	eax, DWORD PTR _lpEntityInstance$[ebp]
	push	eax
	call	_fnCompareAttributeToBlob
	add	esp, 20					; 00000014H
	mov	WORD PTR _nRC$[ebp], ax

; 8803 :                                                lpViewEntityCsr,
; 8804 :                                                lpViewAttrib,
; 8805 :                                                (zPCHAR) lpVariable,
; 8806 :                                                ulVariableLth );
; 8807 :                break;

	jmp	$LN2@fnCompareA
$LN14@fnCompareA:

; 8808 : 
; 8809 :             case zTYPE_INTEGER:
; 8810 :                plInteger = (zPLONG) lpVariable;

	mov	ecx, DWORD PTR _lpVariable$[ebp]
	mov	DWORD PTR _plInteger$[ebp], ecx

; 8811 :                nRC = fnCompareAttributeToInteger( lpEntityInstance,

	mov	edx, DWORD PTR _lpVariable$[ebp]
	mov	eax, DWORD PTR [edx]
	push	eax
	mov	ecx, DWORD PTR _lpViewAttrib$[ebp]
	push	ecx
	mov	edx, DWORD PTR _lpViewEntityCsr$[ebp]
	push	edx
	mov	eax, DWORD PTR _lpEntityInstance$[ebp]
	push	eax
	call	_fnCompareAttributeToInteger
	add	esp, 16					; 00000010H
	mov	WORD PTR _nRC$[ebp], ax

; 8812 :                                                   lpViewEntityCsr,
; 8813 :                                                   lpViewAttrib,
; 8814 :                                                   *((zPLONG) lpVariable) );
; 8815 :                break;

	jmp	$LN2@fnCompareA
$LN15@fnCompareA:

; 8816 : 
; 8817 :             case zTYPE_DECIMAL:
; 8818 :                pdDecimal = (zPDECIMAL) lpVariable;

	mov	ecx, DWORD PTR _lpVariable$[ebp]
	mov	DWORD PTR _pdDecimal$[ebp], ecx

; 8819 :                nRC = fnCompareAttributeToDecimal( lpEntityInstance,

	mov	esi, DWORD PTR _lpVariable$[ebp]
	sub	esp, 40					; 00000028H
	mov	ecx, 10					; 0000000aH
	mov	edi, esp
	rep movsd
	mov	edx, DWORD PTR _lpViewAttrib$[ebp]
	push	edx
	mov	eax, DWORD PTR _lpViewEntityCsr$[ebp]
	push	eax
	mov	ecx, DWORD PTR _lpEntityInstance$[ebp]
	push	ecx
	call	_fnCompareAttributeToDecimal
	add	esp, 52					; 00000034H
	mov	WORD PTR _nRC$[ebp], ax

; 8820 :                                                   lpViewEntityCsr,
; 8821 :                                                   lpViewAttrib,
; 8822 :                                                   *((zPDECIMAL) lpVariable) );
; 8823 :                break;

	jmp	$LN2@fnCompareA
$LN16@fnCompareA:

; 8824 : 
; 8825 :             case zTYPE_DATETIME:
; 8826 :                nRC = fnCompareAttributeToDateTime( lpEntityInstance,

	mov	edx, DWORD PTR _lpVariable$[ebp]
	push	edx
	mov	eax, DWORD PTR _lpViewAttrib$[ebp]
	push	eax
	mov	ecx, DWORD PTR _lpViewEntityCsr$[ebp]
	push	ecx
	mov	edx, DWORD PTR _lpEntityInstance$[ebp]
	push	edx
	call	_fnCompareAttributeToDateTime
	add	esp, 16					; 00000010H
	mov	WORD PTR _nRC$[ebp], ax

; 8827 :                                                    lpViewEntityCsr,
; 8828 :                                                    lpViewAttrib,
; 8829 :                                                    (LPDATETIME) lpVariable );
; 8830 :                break;

	jmp	SHORT $LN2@fnCompareA
$LN17@fnCompareA:

; 8831 : 
; 8832 :             default:
; 8833 :             {
; 8834 :                LPTASK lpTask = zGETPTR( lpView->hTask );

	mov	eax, DWORD PTR _lpView$[ebp]
	mov	ecx, DWORD PTR [eax+14]
	push	ecx
	call	DWORD PTR _g_pfnGetPtr
	mov	DWORD PTR _lpTask$1[ebp], eax

; 8835 :                szTempStr[ 0 ] = cVariableType;

	mov	edx, 1
	imul	eax, edx, 0
	mov	cl, BYTE PTR _cVariableType$[ebp]
	mov	BYTE PTR _szTempStr$[ebp+eax], cl

; 8836 :                szTempStr[ 1 ] = '\x00';

	mov	DWORD PTR $T2[ebp], 1
	cmp	DWORD PTR $T2[ebp], 2
	jae	SHORT $LN19@fnCompareA
	jmp	SHORT $LN20@fnCompareA
$LN19@fnCompareA:
	call	___report_rangecheckfailure
$LN20@fnCompareA:
	mov	edx, DWORD PTR $T2[ebp]
	mov	BYTE PTR _szTempStr$[ebp+edx], 0

; 8837 :                // "KZOEE241 - Invalid Variable Type"
; 8838 :                fnIssueCoreError( lpTask, lpView, 8, 241, 0, szTempStr, 0 );

	push	0
	lea	eax, DWORD PTR _szTempStr$[ebp]
	push	eax
	push	0
	push	241					; 000000f1H
	push	8
	mov	ecx, DWORD PTR _lpView$[ebp]
	push	ecx
	mov	edx, DWORD PTR _lpTask$1[ebp]
	push	edx
	call	_fnIssueCoreError
	add	esp, 28					; 0000001cH

; 8839 :                nRC = zCALL_ERROR;

	mov	eax, -16				; fffffff0H
	mov	WORD PTR _nRC$[ebp], ax
$LN2@fnCompareA:

; 8840 :             }
; 8841 :          }
; 8842 :    }
; 8843 : 
; 8844 :    return( nRC );

	mov	ax, WORD PTR _nRC$[ebp]
$LN18@fnCompareA:

; 8845 : }

	pop	edi
	pop	esi
	mov	ecx, DWORD PTR __$ArrayPad$[ebp]
	xor	ecx, ebp
	call	@__security_check_cookie@4
	mov	esp, ebp
	pop	ebp
	ret	0
	npad	1
$LN22@fnCompareA:
	DD	$LN13@fnCompareA
	DD	$LN14@fnCompareA
	DD	$LN15@fnCompareA
	DD	$LN12@fnCompareA
	DD	$LN16@fnCompareA
	DD	$LN17@fnCompareA
$LN21@fnCompareA:
	DB	0
	DB	5
	DB	5
	DB	5
	DB	5
	DB	5
	DB	5
	DB	5
	DB	5
	DB	5
	DB	1
	DB	2
	DB	5
	DB	5
	DB	5
	DB	5
	DB	5
	DB	3
	DB	4
_fnCompareAttributeToVariable ENDP
_TEXT	ENDS
; Function compile flags: /Odtp
; File c:\10c\a\oe\kzoeataa.c
_TEXT	SEGMENT
tv88 = -12						; size = 4
tv79 = -8						; size = 4
_nRC$ = -4						; size = 2
_lpDateTime1$ = 8					; size = 4
_lpDateTime2$ = 12					; size = 4
_fnCompareDateTimeToDateTime PROC

; 8490 : {

	push	ebp
	mov	ebp, esp
	sub	esp, 12					; 0000000cH

; 8491 :    zSHORT   nRC;
; 8492 : 
; 8493 :    if ( lpDateTime1->ulDateMinutes == lpDateTime2->ulDateMinutes )

	mov	eax, DWORD PTR _lpDateTime1$[ebp]
	mov	ecx, DWORD PTR _lpDateTime2$[ebp]
	mov	edx, DWORD PTR [eax]
	cmp	edx, DWORD PTR [ecx]
	jne	SHORT $LN2@fnCompareD

; 8494 :    {
; 8495 :       if ( (zLONG) lpDateTime1->ulDateMinutes == lNullInteger ||

	mov	eax, DWORD PTR _lpDateTime1$[ebp]
	mov	ecx, DWORD PTR [eax]
	cmp	ecx, DWORD PTR _lNullInteger
	je	SHORT $LN6@fnCompareD
	mov	edx, DWORD PTR _lpDateTime1$[ebp]
	movzx	eax, WORD PTR [edx+4]
	mov	ecx, DWORD PTR _lpDateTime2$[ebp]
	movzx	edx, WORD PTR [ecx+4]
	cmp	eax, edx
	jne	SHORT $LN4@fnCompareD
$LN6@fnCompareD:

; 8496 :            lpDateTime1->usTSeconds == lpDateTime2->usTSeconds )
; 8497 :       {
; 8498 :          nRC = 0;

	xor	eax, eax
	mov	WORD PTR _nRC$[ebp], ax

; 8499 :       }

	jmp	SHORT $LN5@fnCompareD
$LN4@fnCompareD:

; 8500 :       else
; 8501 :          nRC = (lpDateTime1->usTSeconds < lpDateTime2->usTSeconds) ? -1 : 1;

	mov	ecx, DWORD PTR _lpDateTime1$[ebp]
	movzx	edx, WORD PTR [ecx+4]
	mov	eax, DWORD PTR _lpDateTime2$[ebp]
	movzx	ecx, WORD PTR [eax+4]
	cmp	edx, ecx
	jge	SHORT $LN12@fnCompareD
	mov	DWORD PTR tv79[ebp], -1
	jmp	SHORT $LN13@fnCompareD
$LN12@fnCompareD:
	mov	DWORD PTR tv79[ebp], 1
$LN13@fnCompareD:
	mov	dx, WORD PTR tv79[ebp]
	mov	WORD PTR _nRC$[ebp], dx
$LN5@fnCompareD:

; 8502 :    }

	jmp	SHORT $LN3@fnCompareD
$LN2@fnCompareD:

; 8503 :    else
; 8504 :    {
; 8505 :       if ( (zLONG) lpDateTime1->ulDateMinutes == lNullInteger )

	mov	eax, DWORD PTR _lpDateTime1$[ebp]
	mov	ecx, DWORD PTR [eax]
	cmp	ecx, DWORD PTR _lNullInteger
	jne	SHORT $LN7@fnCompareD

; 8506 :          nRC = -1;

	or	edx, -1
	mov	WORD PTR _nRC$[ebp], dx
	jmp	SHORT $LN3@fnCompareD
$LN7@fnCompareD:

; 8507 :       else
; 8508 :          if ( (zLONG) lpDateTime2->ulDateMinutes == lNullInteger )

	mov	eax, DWORD PTR _lpDateTime2$[ebp]
	mov	ecx, DWORD PTR [eax]
	cmp	ecx, DWORD PTR _lNullInteger
	jne	SHORT $LN9@fnCompareD

; 8509 :             nRC = 1;

	mov	edx, 1
	mov	WORD PTR _nRC$[ebp], dx
	jmp	SHORT $LN3@fnCompareD
$LN9@fnCompareD:

; 8510 :          else
; 8511 :             nRC = (lpDateTime1->ulDateMinutes < lpDateTime2->ulDateMinutes) ? -1 : 1;

	mov	eax, DWORD PTR _lpDateTime1$[ebp]
	mov	ecx, DWORD PTR _lpDateTime2$[ebp]
	mov	edx, DWORD PTR [eax]
	cmp	edx, DWORD PTR [ecx]
	jae	SHORT $LN14@fnCompareD
	mov	DWORD PTR tv88[ebp], -1
	jmp	SHORT $LN15@fnCompareD
$LN14@fnCompareD:
	mov	DWORD PTR tv88[ebp], 1
$LN15@fnCompareD:
	mov	ax, WORD PTR tv88[ebp]
	mov	WORD PTR _nRC$[ebp], ax
$LN3@fnCompareD:

; 8512 :    }
; 8513 : 
; 8514 :    return( nRC );

	mov	ax, WORD PTR _nRC$[ebp]

; 8515 : }

	mov	esp, ebp
	pop	ebp
	ret	0
_fnCompareDateTimeToDateTime ENDP
_TEXT	ENDS
; Function compile flags: /Odtp
; File c:\10c\a\oe\kzoeataa.c
_TEXT	SEGMENT
_lpTaskDomain$ = -552					; size = 4
tv140 = -548						; size = 4
_lpViewEntityCsr$ = -544				; size = 4
_lpAttrValue$ = -540					; size = 4
_lpDomain$ = -536					; size = 4
_lDomainEntryType$ = -532				; size = 4
_lpViewEntity$ = -528					; size = 4
tv147 = -524						; size = 4
_lpViewAttrib$ = -520					; size = 4
_cDomainType$ = -513					; size = 1
_lpCurrentTask$ = -512					; size = 4
_nRC$ = -508						; size = 2
_szMsg$1 = -504						; size = 500
__$ArrayPad$ = -4					; size = 4
_lpView$ = 8						; size = 4
_cpcEntityName$ = 12					; size = 4
_cpcAttributeName$ = 16					; size = 4
_cpcContextName$ = 20					; size = 4
_iOperationID$ = 24					; size = 2
_fnSetAttributeValue PROC

; 10348: {

	push	ebp
	mov	ebp, esp
	sub	esp, 552				; 00000228H
	mov	eax, DWORD PTR ___security_cookie
	xor	eax, ebp
	mov	DWORD PTR __$ArrayPad$[ebp], eax

; 10349:    LPTASK            lpCurrentTask;
; 10350:    LPVIEWENTITY      lpViewEntity;
; 10351:    LPVIEWENTITYCSR   lpViewEntityCsr;
; 10352:    LPVIEWATTRIB      lpViewAttrib;
; 10353:    zPVOID            lpAttrValue;
; 10354:    LPTASKDOMAIN      lpTaskDomain;
; 10355:    LPDOMAIN          lpDomain;
; 10356:    zCHAR             cDomainType;
; 10357:    zLONG             lDomainEntryType;
; 10358:    zSHORT            nRC;
; 10359: 
; 10360:    // Validate parameters
; 10361:    nRC = fnValidateAttributeParameters( &lpCurrentTask,

	push	0
	mov	eax, DWORD PTR _cpcAttributeName$[ebp]
	push	eax
	mov	ecx, DWORD PTR _cpcEntityName$[ebp]
	push	ecx
	mov	edx, DWORD PTR _lpView$[ebp]
	push	edx
	push	1
	movzx	eax, WORD PTR _iOperationID$[ebp]
	push	eax
	lea	ecx, DWORD PTR _lpViewAttrib$[ebp]
	push	ecx
	lea	edx, DWORD PTR _lpViewEntityCsr$[ebp]
	push	edx
	lea	eax, DWORD PTR _lpViewEntity$[ebp]
	push	eax
	lea	ecx, DWORD PTR _lpCurrentTask$[ebp]
	push	ecx
	call	_fnValidateAttributeParameters
	add	esp, 40					; 00000028H
	mov	WORD PTR _nRC$[ebp], ax

; 10362:                                         &lpViewEntity,
; 10363:                                         &lpViewEntityCsr,
; 10364:                                         &lpViewAttrib,
; 10365:                                         iOperationID, // next prev
; 10366:                                         1,   // We intend to update
; 10367:                                         lpView,
; 10368:                                         cpcEntityName,
; 10369:                                         cpcAttributeName, 0 );
; 10370:    if ( nRC > 0 )

	movsx	edx, WORD PTR _nRC$[ebp]
	test	edx, edx
	jle	SHORT $LN4@fnSetAttri

; 10371:       return( zCALL_ERROR );   // don't call fnOperationReturn

	mov	eax, -16				; fffffff0H
	jmp	$LN1@fnSetAttri
$LN4@fnSetAttri:

; 10372: 
; 10373:    if ( nRC < 0 )

	movsx	eax, WORD PTR _nRC$[ebp]
	test	eax, eax
	jge	SHORT $LN5@fnSetAttri

; 10374:    {
; 10375:       fnOperationReturn( iOperationID, lpCurrentTask );

	mov	ecx, DWORD PTR _lpCurrentTask$[ebp]
	push	ecx
	movzx	edx, WORD PTR _iOperationID$[ebp]
	push	edx
	call	_fnOperationReturn
	add	esp, 8

; 10376:       return( zCALL_ERROR );

	mov	eax, -16				; fffffff0H
	jmp	$LN1@fnSetAttri
$LN5@fnSetAttri:

; 10377:    }
; 10378: 
; 10379:    if ( lpViewAttrib->hDomain == 0 )

	mov	eax, DWORD PTR _lpViewAttrib$[ebp]
	cmp	DWORD PTR [eax+198], 0
	jne	SHORT $LN6@fnSetAttri

; 10380:    {
; 10381:       // "KZOEE244 - Attribute has no Domain"
; 10382: //    fnIssueCoreError( lpTask, lpView, 8, 244, 0, cpcEntityName, cpcAttributeName );
; 10383:       fnOperationReturn( iOperationID, lpCurrentTask );

	mov	ecx, DWORD PTR _lpCurrentTask$[ebp]
	push	ecx
	movzx	edx, WORD PTR _iOperationID$[ebp]
	push	edx
	call	_fnOperationReturn
	add	esp, 8

; 10384:       return( zCALL_ERROR );

	mov	eax, -16				; fffffff0H
	jmp	$LN1@fnSetAttri
$LN6@fnSetAttri:

; 10385:    }
; 10386: 
; 10387:    lpDomain = zGETPTR( lpViewAttrib->hDomain );

	mov	eax, DWORD PTR _lpViewAttrib$[ebp]
	mov	ecx, DWORD PTR [eax+198]
	push	ecx
	call	DWORD PTR _g_pfnGetPtr
	mov	DWORD PTR _lpDomain$[ebp], eax

; 10388: 
; 10389:    fnGetAddrForAttribute( (zCOREMEM) &lpAttrValue, lpView, lpViewEntityCsr, 0,

	mov	edx, DWORD PTR _lpViewAttrib$[ebp]
	push	edx
	push	0
	mov	eax, DWORD PTR _lpViewEntityCsr$[ebp]
	push	eax
	mov	ecx, DWORD PTR _lpView$[ebp]
	push	ecx
	lea	edx, DWORD PTR _lpAttrValue$[ebp]
	push	edx
	call	_fnGetAddrForAttribute
	add	esp, 20					; 00000014H

; 10390:                           lpViewAttrib );
; 10391:    if ( lpViewAttrib->cType == zTYPE_STRING )

	mov	eax, DWORD PTR _lpViewAttrib$[ebp]
	movsx	ecx, BYTE PTR [eax+202]
	cmp	ecx, 83					; 00000053H
	jne	SHORT $LN7@fnSetAttri

; 10392:    {
; 10393:       if ( *((zPCHAR) lpAttrValue) == 0 )

	mov	edx, DWORD PTR _lpAttrValue$[ebp]
	movsx	eax, BYTE PTR [edx]
	test	eax, eax
	jne	SHORT $LN9@fnSetAttri

; 10394:       {
; 10395:          // Attribute value is null, it cannot be set to prev/next value
; 10396:          fnOperationReturn( iOperationID, lpCurrentTask );

	mov	ecx, DWORD PTR _lpCurrentTask$[ebp]
	push	ecx
	movzx	edx, WORD PTR _iOperationID$[ebp]
	push	edx
	call	_fnOperationReturn
	add	esp, 8

; 10397:          return( -1 );

	or	eax, -1
	jmp	$LN1@fnSetAttri
$LN9@fnSetAttri:

; 10398:       }
; 10399:    }

	jmp	SHORT $LN8@fnSetAttri
$LN7@fnSetAttri:

; 10400:    else
; 10401:    {
; 10402:       // we must be working with an integer type if it isn't a string
; 10403:       if ( *((zPLONG) lpAttrValue) == lNullInteger )

	mov	eax, DWORD PTR _lpAttrValue$[ebp]
	mov	ecx, DWORD PTR [eax]
	cmp	ecx, DWORD PTR _lNullInteger
	jne	SHORT $LN8@fnSetAttri

; 10404:       {
; 10405:          // Attribute value is null, it cannot be set to prev/next value
; 10406:          fnOperationReturn( iOperationID, lpCurrentTask );

	mov	edx, DWORD PTR _lpCurrentTask$[ebp]
	push	edx
	movzx	eax, WORD PTR _iOperationID$[ebp]
	push	eax
	call	_fnOperationReturn
	add	esp, 8

; 10407:          return( -1 );

	or	eax, -1
	jmp	$LN1@fnSetAttri
$LN8@fnSetAttri:

; 10408:       }
; 10409:    }
; 10410: 
; 10411:    // Get view Entity from cursor.
; 10412:    lpViewEntity = zGETPTR( lpViewEntityCsr->hViewEntity );

	mov	ecx, DWORD PTR _lpViewEntityCsr$[ebp]
	mov	edx, DWORD PTR [ecx+14]
	push	edx
	call	DWORD PTR _g_pfnGetPtr
	mov	DWORD PTR _lpViewEntity$[ebp], eax

; 10413: 
; 10414:    lDomainEntryType = (iOperationID == iSetAttributeValueNext) ?

	movsx	eax, WORD PTR _iOperationID$[ebp]
	cmp	eax, 282				; 0000011aH
	jne	SHORT $LN16@fnSetAttri
	mov	DWORD PTR tv140[ebp], 6
	jmp	SHORT $LN17@fnSetAttri
$LN16@fnSetAttri:
	mov	DWORD PTR tv140[ebp], 7
$LN17@fnSetAttri:
	mov	ecx, DWORD PTR tv140[ebp]
	mov	DWORD PTR _lDomainEntryType$[ebp], ecx

; 10415:       zDME_SET_ATTRIBUTE_VALUE_NEXT : zDME_SET_ATTRIBUTE_VALUE_PREV ;
; 10416: 
; 10417:    cDomainType = fnDomainProcessingRequired( &lpTaskDomain, lpView,

	mov	edx, DWORD PTR _lpDomain$[ebp]
	push	edx
	mov	eax, DWORD PTR _lpCurrentTask$[ebp]
	push	eax
	mov	ecx, DWORD PTR _lpView$[ebp]
	push	ecx
	lea	edx, DWORD PTR _lpTaskDomain$[ebp]
	push	edx
	call	_fnDomainProcessingRequired
	add	esp, 16					; 00000010H
	mov	BYTE PTR _cDomainType$[ebp], al

; 10418:                                              lpCurrentTask, lpDomain );
; 10419:    switch ( cDomainType )

	mov	al, BYTE PTR _cDomainType$[ebp]
	mov	BYTE PTR tv147[ebp], al
	cmp	BYTE PTR tv147[ebp], 65			; 00000041H
	je	SHORT $LN12@fnSetAttri
	cmp	BYTE PTR tv147[ebp], 69			; 00000045H
	je	SHORT $LN12@fnSetAttri
	cmp	BYTE PTR tv147[ebp], 84			; 00000054H
	je	SHORT $LN11@fnSetAttri
	jmp	$LN14@fnSetAttri
$LN11@fnSetAttri:

; 10420:    {
; 10421:       case zDM_TYPE_TABLE:
; 10422:          nRC = Table_Handler( lDomainEntryType,

	push	0
	push	0
	mov	ecx, DWORD PTR _lpViewAttrib$[ebp]
	push	ecx
	mov	edx, DWORD PTR _lpViewEntity$[ebp]
	push	edx
	mov	eax, DWORD PTR _lpView$[ebp]
	push	eax
	mov	ecx, DWORD PTR _cpcContextName$[ebp]
	push	ecx
	push	0
	push	0
	mov	edx, DWORD PTR _lDomainEntryType$[ebp]
	push	edx
	call	_Table_Handler@36
	mov	WORD PTR _nRC$[ebp], ax

; 10423:                               0,
; 10424:                               0,
; 10425:                               cpcContextName,
; 10426:                               lpView,
; 10427:                               lpViewEntity,
; 10428:                               lpViewAttrib,
; 10429:                               0,
; 10430:                               (zPVOID) 0 );
; 10431:          break;

	jmp	$LN2@fnSetAttri
$LN12@fnSetAttri:

; 10432: 
; 10433:       case zDM_TYPE_EXPRESSION:
; 10434:       case zDM_TYPE_ALGORITHM:
; 10435:          nRC = fnCallDomainOper( lpCurrentTask,

	push	0
	mov	eax, DWORD PTR _lpViewAttrib$[ebp]
	push	eax
	mov	ecx, DWORD PTR _lpViewEntity$[ebp]
	push	ecx
	mov	edx, DWORD PTR _lpView$[ebp]
	push	edx
	mov	eax, DWORD PTR _cpcContextName$[ebp]
	push	eax
	push	0
	push	0
	mov	ecx, DWORD PTR _lDomainEntryType$[ebp]
	push	ecx
	mov	edx, DWORD PTR _lpTaskDomain$[ebp]
	push	edx
	mov	eax, DWORD PTR _lpCurrentTask$[ebp]
	push	eax
	call	_fnCallDomainOper@40
	mov	WORD PTR _nRC$[ebp], ax

; 10436:                                  lpTaskDomain,
; 10437:                                  lDomainEntryType,
; 10438:                                  0,
; 10439:                                  0,
; 10440:                                  cpcContextName,
; 10441:                                  lpView,
; 10442:                                  lpViewEntity,
; 10443:                                  lpViewAttrib,
; 10444:                                  0 );
; 10445:          if ( nRC == zDME_NOT_HANDLED )

	movsx	ecx, WORD PTR _nRC$[ebp]
	cmp	ecx, -10				; fffffff6H
	jne	SHORT $LN13@fnSetAttri

; 10446:          {
; 10447:             zCHAR szMsg[ 500 ];
; 10448: 
; 10449:             zsprintf( szMsg, "Operation '%s' does not handle an Entry "

	mov	edx, DWORD PTR _lpDomain$[ebp]
	add	edx, 6
	push	edx
	mov	eax, DWORD PTR _lDomainEntryType$[ebp]
	push	eax
	mov	ecx, DWORD PTR _lpDomain$[ebp]
	add	ecx, 100				; 00000064H
	push	ecx
	push	OFFSET $SG18328
	lea	edx, DWORD PTR _szMsg$1[ebp]
	push	edx
	call	_sprintf
	add	esp, 20					; 00000014H

; 10450:                       "Type of %ld for domain '%s'", lpDomain->szDomainOper,
; 10451:                       lDomainEntryType, lpDomain->szName );
; 10452:             MessageSend( lpView, "TZDMD101", "System Error",

	push	0
	push	200					; 000000c8H
	lea	eax, DWORD PTR _szMsg$1[ebp]
	push	eax
	push	OFFSET $SG18329
	push	OFFSET $SG18330
	mov	ecx, DWORD PTR _lpView$[ebp]
	push	ecx
	call	_MessageSend@24

; 10453:                          szMsg, zMSGQ_DOMAIN_ERROR, 0 );
; 10454:             fnOperationReturn( iOperationID, lpCurrentTask );

	mov	edx, DWORD PTR _lpCurrentTask$[ebp]
	push	edx
	movzx	eax, WORD PTR _iOperationID$[ebp]
	push	eax
	call	_fnOperationReturn
	add	esp, 8

; 10455:             return( zCALL_ERROR );

	mov	eax, -16				; fffffff0H
	jmp	SHORT $LN1@fnSetAttri
$LN13@fnSetAttri:

; 10456:          }
; 10457: 
; 10458:          break;

	jmp	SHORT $LN2@fnSetAttri
$LN14@fnSetAttri:

; 10459: 
; 10460:       case zDM_TYPE_FORMAT:
; 10461:       default:
; 10462:          nRC = -1;

	or	ecx, -1
	mov	WORD PTR _nRC$[ebp], cx
$LN2@fnSetAttri:

; 10463:    }
; 10464: 
; 10465:    fnOperationReturn( iOperationID, lpCurrentTask );

	mov	edx, DWORD PTR _lpCurrentTask$[ebp]
	push	edx
	movzx	eax, WORD PTR _iOperationID$[ebp]
	push	eax
	call	_fnOperationReturn
	add	esp, 8

; 10466:    return( nRC );

	mov	ax, WORD PTR _nRC$[ebp]
$LN1@fnSetAttri:

; 10467: }

	mov	ecx, DWORD PTR __$ArrayPad$[ebp]
	xor	ecx, ebp
	call	@__security_check_cookie@4
	mov	esp, ebp
	pop	ebp
	ret	0
_fnSetAttributeValue ENDP
_TEXT	ENDS
; Function compile flags: /Odtp
; File c:\10c\a\oe\kzoeataa.c
_TEXT	SEGMENT
_lpEntityInstance$ = -936				; size = 4
_lpTask$1 = -932					; size = 4
_pdDecimal$ = -928					; size = 4
_plInteger$ = -924					; size = 4
_lpTaskDomain$ = -920					; size = 4
_lpTask$2 = -916					; size = 4
_lpTask$3 = -912					; size = 4
tv266 = -908						; size = 4
_lpTask$4 = -904					; size = 4
_lpTask$5 = -900					; size = 4
_lpTask$6 = -896					; size = 4
_lpTask$7 = -892					; size = 4
$T8 = -888						; size = 4
_lpContext$9 = -884					; size = 4
$T10 = -880						; size = 4
_u$11 = -876						; size = 2
tv369 = -872						; size = 4
_lpContext$12 = -868					; size = 4
tv142 = -864						; size = 4
_lpViewEntity$ = -860					; size = 4
_szTempStr$ = -856					; size = 2
_lpDomain$ = -852					; size = 4
_cDomainType$ = -845					; size = 1
_nRC$ = -844						; size = 2
_szMsg$13 = -840					; size = 500
_sz2$14 = -340						; size = 100
_sz1$15 = -240						; size = 100
_sz1$16 = -140						; size = 66
_sz2$17 = -72						; size = 66
__$ArrayPad$ = -4					; size = 4
_lpVariable$ = 8					; size = 4
_pulReturnLth$ = 12					; size = 4
_cVariableType$ = 16					; size = 1
_ulVariableLth$ = 20					; size = 4
_lpView$ = 24						; size = 4
_lpViewEntityCsr$ = 28					; size = 4
_lpViewAttrib$ = 32					; size = 4
_cpcContextName$ = 36					; size = 4
_lpCurrentTask$ = 40					; size = 4
_nFlag$ = 44						; size = 2
_fnGetVariableFromAttribute PROC

; 9018 : {

	push	ebp
	mov	ebp, esp
	sub	esp, 936				; 000003a8H
	mov	eax, DWORD PTR ___security_cookie
	xor	eax, ebp
	mov	DWORD PTR __$ArrayPad$[ebp], eax

; 9019 :    LPVIEWENTITY      lpViewEntity;
; 9020 :    LPENTITYINSTANCE  lpEntityInstance;
; 9021 :    LPTASKDOMAIN      lpTaskDomain;
; 9022 :    LPDOMAIN          lpDomain;
; 9023 :    zCHAR             cDomainType;
; 9024 :    zCHAR             szTempStr[ 2 ];
; 9025 :    zPLONG            plInteger;
; 9026 :    zPDECIMAL         pdDecimal;
; 9027 :    zSHORT            nRC;
; 9028 : 
; 9029 :    // Get view Entity from cursor.
; 9030 :    lpViewEntity = zGETPTR( lpViewEntityCsr->hViewEntity );

	mov	eax, DWORD PTR _lpViewEntityCsr$[ebp]
	mov	ecx, DWORD PTR [eax+14]
	push	ecx
	call	DWORD PTR _g_pfnGetPtr
	mov	DWORD PTR _lpViewEntity$[ebp], eax

; 9031 : 
; 9032 :    // Get Entity Instance pointer.
; 9033 :    lpEntityInstance = zGETPTR( lpViewEntityCsr->hEntityInstance );

	mov	edx, DWORD PTR _lpViewEntityCsr$[ebp]
	mov	eax, DWORD PTR [edx+26]
	push	eax
	call	DWORD PTR _g_pfnGetPtr
	mov	DWORD PTR _lpEntityInstance$[ebp], eax

; 9034 : 
; 9035 :    // If return variable is a string, init to null.
; 9036 :    if ( cVariableType == zTYPE_STRING || cVariableType == zTYPE_PIC )

	movsx	ecx, BYTE PTR _cVariableType$[ebp]
	cmp	ecx, 83					; 00000053H
	je	SHORT $LN9@fnGetVaria
	movsx	edx, BYTE PTR _cVariableType$[ebp]
	cmp	edx, 80					; 00000050H
	jne	SHORT $LN8@fnGetVaria
$LN9@fnGetVaria:

; 9037 :       *((zPCHAR) lpVariable) = 0;

	mov	eax, DWORD PTR _lpVariable$[ebp]
	mov	BYTE PTR [eax], 0
$LN8@fnGetVaria:

; 9038 : 
; 9039 :    // If there is an object operation for this attribute, invoke it now ...
; 9040 :    if ( lpViewAttrib->szDerivedOper[ 0 ] )

	mov	ecx, 1
	imul	edx, ecx, 0
	mov	eax, DWORD PTR _lpViewAttrib$[ebp]
	movsx	ecx, BYTE PTR [eax+edx+213]
	test	ecx, ecx
	je	SHORT $LN10@fnGetVaria

; 9041 :    {
; 9042 :       nRC = fnInvokeDerivedOperation( lpView, lpViewEntity, lpViewAttrib,

	push	2
	mov	edx, DWORD PTR _lpCurrentTask$[ebp]
	push	edx
	mov	eax, DWORD PTR _lpViewAttrib$[ebp]
	push	eax
	mov	ecx, DWORD PTR _lpViewEntity$[ebp]
	push	ecx
	mov	edx, DWORD PTR _lpView$[ebp]
	push	edx
	call	_fnInvokeDerivedOperation
	add	esp, 20					; 00000014H
	mov	WORD PTR _nRC$[ebp], ax

; 9043 :                                       lpCurrentTask, zDERIVED_GET );
; 9044 :       if ( nRC == zCALL_ERROR )

	movsx	eax, WORD PTR _nRC$[ebp]
	cmp	eax, -16				; fffffff0H
	jne	SHORT $LN10@fnGetVaria

; 9045 :          return( nRC );

	mov	ax, WORD PTR _nRC$[ebp]
	jmp	$LN53@fnGetVaria
$LN10@fnGetVaria:

; 9046 :    }
; 9047 : 
; 9048 :    lpDomain = zGETPTR( lpViewAttrib->hDomain );

	mov	ecx, DWORD PTR _lpViewAttrib$[ebp]
	mov	edx, DWORD PTR [ecx+198]
	push	edx
	call	DWORD PTR _g_pfnGetPtr
	mov	DWORD PTR _lpDomain$[ebp], eax

; 9049 :    cDomainType = fnDomainProcessingRequired( &lpTaskDomain, lpView,

	mov	eax, DWORD PTR _lpDomain$[ebp]
	push	eax
	mov	ecx, DWORD PTR _lpCurrentTask$[ebp]
	push	ecx
	mov	edx, DWORD PTR _lpView$[ebp]
	push	edx
	lea	eax, DWORD PTR _lpTaskDomain$[ebp]
	push	eax
	call	_fnDomainProcessingRequired
	add	esp, 16					; 00000010H
	mov	BYTE PTR _cDomainType$[ebp], al

; 9050 :                                              lpCurrentTask, lpDomain );
; 9051 : 
; 9052 :    // If cVariableType is zTYPE_STRING or if the cVariableType matches the
; 9053 :    // internal data type, and there is no Context Name specified, just
; 9054 :    // return the internal value.
; 9055 :    if ( cDomainType &&
; 9056 :         (cVariableType == zTYPE_STRING ||
; 9057 :          cVariableType == lpViewAttrib->cType) &&
; 9058 :         (cpcContextName == 0 || *cpcContextName == 0) &&

	movsx	ecx, BYTE PTR _cDomainType$[ebp]
	test	ecx, ecx
	je	SHORT $LN12@fnGetVaria
	movsx	edx, BYTE PTR _cVariableType$[ebp]
	cmp	edx, 83					; 00000053H
	je	SHORT $LN13@fnGetVaria
	movsx	eax, BYTE PTR _cVariableType$[ebp]
	mov	ecx, DWORD PTR _lpViewAttrib$[ebp]
	movsx	edx, BYTE PTR [ecx+202]
	cmp	eax, edx
	jne	SHORT $LN12@fnGetVaria
$LN13@fnGetVaria:
	cmp	DWORD PTR _cpcContextName$[ebp], 0
	je	SHORT $LN14@fnGetVaria
	mov	eax, DWORD PTR _cpcContextName$[ebp]
	movsx	ecx, BYTE PTR [eax]
	test	ecx, ecx
	jne	SHORT $LN12@fnGetVaria
$LN14@fnGetVaria:
	movsx	edx, WORD PTR _nFlag$[ebp]
	and	edx, 8
	jne	SHORT $LN12@fnGetVaria

; 9059 :         (nFlag & zUSE_DEFAULT_CONTEXT) == 0 )
; 9060 :    {
; 9061 :       cDomainType = 0;

	mov	BYTE PTR _cDomainType$[ebp], 0
$LN12@fnGetVaria:

; 9062 :    }
; 9063 : 
; 9064 :    switch ( cDomainType )

	movsx	eax, BYTE PTR _cDomainType$[ebp]
	mov	DWORD PTR tv142[ebp], eax
	mov	ecx, DWORD PTR tv142[ebp]
	sub	ecx, 65					; 00000041H
	mov	DWORD PTR tv142[ebp], ecx
	cmp	DWORD PTR tv142[ebp], 19		; 00000013H
	ja	$LN41@fnGetVaria
	mov	edx, DWORD PTR tv142[ebp]
	movzx	eax, BYTE PTR $LN58@fnGetVaria[edx]
	jmp	DWORD PTR $LN60@fnGetVaria[eax*4]
$LN15@fnGetVaria:

; 9065 :    {
; 9066 :       case zDM_TYPE_TABLE:
; 9067 :          nRC = Table_Handler( (zLONG) zDME_GET_VARIABLE,

	push	0
	mov	ecx, DWORD PTR _ulVariableLth$[ebp]
	push	ecx
	mov	edx, DWORD PTR _lpViewAttrib$[ebp]
	push	edx
	mov	eax, DWORD PTR _lpViewEntity$[ebp]
	push	eax
	mov	ecx, DWORD PTR _lpView$[ebp]
	push	ecx
	mov	edx, DWORD PTR _cpcContextName$[ebp]
	push	edx
	mov	eax, DWORD PTR _lpVariable$[ebp]
	push	eax
	movzx	ecx, BYTE PTR _cVariableType$[ebp]
	push	ecx
	push	2
	call	_Table_Handler@36
	mov	WORD PTR _nRC$[ebp], ax

; 9068 :                               cVariableType,
; 9069 :                               lpVariable,
; 9070 :                               cpcContextName,
; 9071 :                               lpView,
; 9072 :                               lpViewEntity,
; 9073 :                               lpViewAttrib,
; 9074 :                               ulVariableLth,
; 9075 :                               (zPVOID) 0 );
; 9076 :          if ( nRC == 0 && cVariableType == zTYPE_STRING && pulReturnLth )

	movsx	edx, WORD PTR _nRC$[ebp]
	test	edx, edx
	jne	SHORT $LN16@fnGetVaria
	movsx	eax, BYTE PTR _cVariableType$[ebp]
	cmp	eax, 83					; 00000053H
	jne	SHORT $LN16@fnGetVaria
	cmp	DWORD PTR _pulReturnLth$[ebp], 0
	je	SHORT $LN16@fnGetVaria

; 9077 :             *pulReturnLth = zstrlen( (zPCHAR) lpVariable );

	mov	ecx, DWORD PTR _lpVariable$[ebp]
	push	ecx
	call	_strlen
	add	esp, 4
	mov	edx, DWORD PTR _pulReturnLth$[ebp]
	mov	DWORD PTR [edx], eax
$LN16@fnGetVaria:

; 9078 : 
; 9079 :          break;

	jmp	$LN2@fnGetVaria
$LN17@fnGetVaria:

; 9080 : 
; 9081 :       case zDM_TYPE_FORMAT:
; 9082 :          if ( cVariableType == zTYPE_PIC )

	movsx	eax, BYTE PTR _cVariableType$[ebp]
	cmp	eax, 80					; 00000050H
	jne	$LN18@fnGetVaria

; 9083 :          {
; 9084 :             zLPCONTEXT lpContext = fnGetContext( lpDomain, cpcContextName );

	mov	ecx, DWORD PTR _cpcContextName$[ebp]
	push	ecx
	mov	edx, DWORD PTR _lpDomain$[ebp]
	push	edx
	call	_fnGetContext
	add	esp, 8
	mov	DWORD PTR _lpContext$12[ebp], eax

; 9085 :             if ( lpContext )

	cmp	DWORD PTR _lpContext$12[ebp], 0
	je	$LN20@fnGetVaria

; 9086 :             {
; 9087 :                if ( lpContext->hEditString )

	mov	eax, DWORD PTR _lpContext$12[ebp]
	cmp	DWORD PTR [eax+59], 0
	je	$LN22@fnGetVaria

; 9088 :                {
; 9089 :                   zUSHORT u = zstrlen( zGETPTR( lpContext->hEditString ) );

	mov	ecx, DWORD PTR _lpContext$12[ebp]
	mov	edx, DWORD PTR [ecx+59]
	push	edx
	call	DWORD PTR _g_pfnGetPtr
	push	eax
	call	_strlen
	add	esp, 4
	mov	WORD PTR _u$11[ebp], ax

; 9090 :                   if ( u > ulVariableLth )

	movzx	eax, WORD PTR _u$11[ebp]
	cmp	eax, DWORD PTR _ulVariableLth$[ebp]
	jbe	SHORT $LN24@fnGetVaria

; 9091 :                   {
; 9092 :                      LPTASK lpTask = zGETPTR( lpView->hTask );

	mov	ecx, DWORD PTR _lpView$[ebp]
	mov	edx, DWORD PTR [ecx+14]
	push	edx
	call	DWORD PTR _g_pfnGetPtr
	mov	DWORD PTR _lpTask$7[ebp], eax

; 9093 :                      // "KZOEE364 - Picture length exceeds input length "
; 9094 :                      fnIssueCoreError( lpTask, lpView, 8, 364, 0,

	push	1
	mov	eax, DWORD PTR _cpcContextName$[ebp]
	push	eax
	call	_TrueName@8
	push	eax
	mov	ecx, DWORD PTR _lpDomain$[ebp]
	add	ecx, 6
	push	ecx
	push	0
	push	364					; 0000016cH
	push	8
	mov	edx, DWORD PTR _lpView$[ebp]
	push	edx
	mov	eax, DWORD PTR _lpTask$7[ebp]
	push	eax
	call	_fnIssueCoreError
	add	esp, 28					; 0000001cH

; 9095 :                                        lpDomain->szName,
; 9096 :                                        TrueName( cpcContextName, zSHOW_ZKEY ));
; 9097 :                      nRC = zCALL_ERROR;

	mov	ecx, -16				; fffffff0H
	mov	WORD PTR _nRC$[ebp], cx

; 9098 :                   }

	jmp	SHORT $LN25@fnGetVaria
$LN24@fnGetVaria:

; 9099 :                   else
; 9100 :                   {
; 9101 :                      zstrcpy( (zPCHAR) lpVariable,

	mov	edx, DWORD PTR _lpContext$12[ebp]
	mov	eax, DWORD PTR [edx+59]
	push	eax
	call	DWORD PTR _g_pfnGetPtr
	push	eax
	mov	ecx, DWORD PTR _lpVariable$[ebp]
	push	ecx
	call	_strcpy
	add	esp, 8

; 9102 :                               zGETPTR( lpContext->hEditString ) );
; 9103 :                      nRC = 0;

	xor	edx, edx
	mov	WORD PTR _nRC$[ebp], dx

; 9104 :                      if ( pulReturnLth )

	cmp	DWORD PTR _pulReturnLth$[ebp], 0
	je	SHORT $LN25@fnGetVaria

; 9105 :                         *pulReturnLth = zstrlen( (zPCHAR) lpVariable );

	mov	eax, DWORD PTR _lpVariable$[ebp]
	push	eax
	call	_strlen
	add	esp, 4
	mov	ecx, DWORD PTR _pulReturnLth$[ebp]
	mov	DWORD PTR [ecx], eax
$LN25@fnGetVaria:

; 9106 :                   }
; 9107 :                }

	jmp	SHORT $LN23@fnGetVaria
$LN22@fnGetVaria:

; 9108 :                else
; 9109 :                {
; 9110 :                   LPTASK lpTask = zGETPTR( lpView->hTask );

	mov	edx, DWORD PTR _lpView$[ebp]
	mov	eax, DWORD PTR [edx+14]
	push	eax
	call	DWORD PTR _g_pfnGetPtr
	mov	DWORD PTR _lpTask$6[ebp], eax

; 9111 :                   // "KZOEE363 - Context Edit string is invalid "
; 9112 :                   fnIssueCoreError( lpTask, lpView, 8, 363, 0,

	push	1
	mov	ecx, DWORD PTR _cpcContextName$[ebp]
	push	ecx
	call	_TrueName@8
	push	eax
	mov	edx, DWORD PTR _lpDomain$[ebp]
	add	edx, 6
	push	edx
	push	0
	push	363					; 0000016bH
	push	8
	mov	eax, DWORD PTR _lpView$[ebp]
	push	eax
	mov	ecx, DWORD PTR _lpTask$6[ebp]
	push	ecx
	call	_fnIssueCoreError
	add	esp, 28					; 0000001cH

; 9113 :                                     lpDomain->szName,
; 9114 :                                     TrueName( cpcContextName, zSHOW_ZKEY ));
; 9115 :                   nRC = zCALL_ERROR;

	mov	edx, -16				; fffffff0H
	mov	WORD PTR _nRC$[ebp], dx
$LN23@fnGetVaria:

; 9116 :                }
; 9117 :             }

	jmp	SHORT $LN21@fnGetVaria
$LN20@fnGetVaria:

; 9118 :             else
; 9119 :             {
; 9120 :                LPTASK lpTask = zGETPTR( lpView->hTask );

	mov	eax, DWORD PTR _lpView$[ebp]
	mov	ecx, DWORD PTR [eax+14]
	push	ecx
	call	DWORD PTR _g_pfnGetPtr
	mov	DWORD PTR _lpTask$5[ebp], eax

; 9121 :                // "KZOEE350 - Context Not Valid for Domain"
; 9122 :                fnIssueCoreError( lpTask, lpView, 8, 350, 0, lpDomain->szName,

	push	1
	mov	edx, DWORD PTR _cpcContextName$[ebp]
	push	edx
	call	_TrueName@8
	push	eax
	mov	eax, DWORD PTR _lpDomain$[ebp]
	add	eax, 6
	push	eax
	push	0
	push	350					; 0000015eH
	push	8
	mov	ecx, DWORD PTR _lpView$[ebp]
	push	ecx
	mov	edx, DWORD PTR _lpTask$5[ebp]
	push	edx
	call	_fnIssueCoreError
	add	esp, 28					; 0000001cH

; 9123 :                                  TrueName( cpcContextName, zSHOW_ZKEY ));
; 9124 :                nRC = zCALL_ERROR;

	mov	eax, -16				; fffffff0H
	mov	WORD PTR _nRC$[ebp], ax
$LN21@fnGetVaria:

; 9125 :             }
; 9126 :          }

	jmp	$LN19@fnGetVaria
$LN18@fnGetVaria:

; 9127 :          else
; 9128 :          if ( cVariableType != zTYPE_STRING )

	movsx	ecx, BYTE PTR _cVariableType$[ebp]
	cmp	ecx, 83					; 00000053H
	je	$LN27@fnGetVaria

; 9129 :          {
; 9130 :             LPTASK lpTask = zGETPTR( lpView->hTask );

	mov	edx, DWORD PTR _lpView$[ebp]
	mov	eax, DWORD PTR [edx+14]
	push	eax
	call	DWORD PTR _g_pfnGetPtr
	mov	DWORD PTR _lpTask$4[ebp], eax

; 9131 :             zCHAR sz1[ 100 ];
; 9132 :             zCHAR sz2[ 100 ];
; 9133 : 
; 9134 :             zstrcpy( sz1, "Type: " );

	push	OFFSET $SG17918
	lea	ecx, DWORD PTR _sz1$15[ebp]
	push	ecx
	call	_strcpy
	add	esp, 8

; 9135 :             sz1[ 6 ] = cVariableType;

	mov	edx, 1
	imul	eax, edx, 6
	mov	cl, BYTE PTR _cVariableType$[ebp]
	mov	BYTE PTR _sz1$15[ebp+eax], cl

; 9136 :             sz1[ 7 ] = 0;

	mov	edx, 1
	imul	eax, edx, 7
	mov	DWORD PTR $T10[ebp], eax
	cmp	DWORD PTR $T10[ebp], 100		; 00000064H
	jae	SHORT $LN54@fnGetVaria
	jmp	SHORT $LN55@fnGetVaria
$LN54@fnGetVaria:
	call	___report_rangecheckfailure
$LN55@fnGetVaria:
	mov	ecx, DWORD PTR $T10[ebp]
	mov	BYTE PTR _sz1$15[ebp+ecx], 0

; 9137 :             zstrcat( sz1, ", Domain: " );

	push	OFFSET $SG17919
	lea	edx, DWORD PTR _sz1$15[ebp]
	push	edx
	call	_strcat
	add	esp, 8

; 9138 :             zstrcat( sz1, lpDomain->szName );

	mov	eax, DWORD PTR _lpDomain$[ebp]
	add	eax, 6
	push	eax
	lea	ecx, DWORD PTR _sz1$15[ebp]
	push	ecx
	call	_strcat
	add	esp, 8

; 9139 :             zstrcpy( sz2, lpViewEntity->szName );

	mov	edx, DWORD PTR _lpViewEntity$[ebp]
	add	edx, 14					; 0000000eH
	push	edx
	lea	eax, DWORD PTR _sz2$14[ebp]
	push	eax
	call	_strcpy
	add	esp, 8

; 9140 :             zstrcpy( sz2, ", " );

	push	OFFSET $SG17920
	lea	ecx, DWORD PTR _sz2$14[ebp]
	push	ecx
	call	_strcpy
	add	esp, 8

; 9141 :             zstrcpy( sz2, lpViewAttrib->szName );

	mov	edx, DWORD PTR _lpViewAttrib$[ebp]
	add	edx, 10					; 0000000aH
	push	edx
	lea	eax, DWORD PTR _sz2$14[ebp]
	push	eax
	call	_strcpy
	add	esp, 8

; 9142 :             // "KZOEE362 - Variable Type not allowed for this Domain Type "
; 9143 :             fnIssueCoreError( lpTask, lpView, 8, 362, 0, sz1, sz2 );

	lea	ecx, DWORD PTR _sz2$14[ebp]
	push	ecx
	lea	edx, DWORD PTR _sz1$15[ebp]
	push	edx
	push	0
	push	362					; 0000016aH
	push	8
	mov	eax, DWORD PTR _lpView$[ebp]
	push	eax
	mov	ecx, DWORD PTR _lpTask$4[ebp]
	push	ecx
	call	_fnIssueCoreError
	add	esp, 28					; 0000001cH

; 9144 :             nRC = zCALL_ERROR;

	mov	edx, -16				; fffffff0H
	mov	WORD PTR _nRC$[ebp], dx

; 9145 :          }

	jmp	$LN19@fnGetVaria
$LN27@fnGetVaria:

; 9146 :          else
; 9147 :          {
; 9148 :             nRC = fnGetStringFromAttribute( (zPCHAR) lpVariable,

	push	0
	mov	eax, DWORD PTR _lpViewAttrib$[ebp]
	push	eax
	mov	ecx, DWORD PTR _lpViewEntityCsr$[ebp]
	push	ecx
	mov	edx, DWORD PTR _lpView$[ebp]
	push	edx
	mov	eax, DWORD PTR _ulVariableLth$[ebp]
	push	eax
	mov	ecx, DWORD PTR _lpVariable$[ebp]
	push	ecx
	call	_fnGetStringFromAttribute
	add	esp, 24					; 00000018H
	mov	WORD PTR _nRC$[ebp], ax

; 9149 :                                             ulVariableLth,
; 9150 :                                             lpView, lpViewEntityCsr,
; 9151 :                                             lpViewAttrib, 0 );
; 9152 :             switch ( nRC )

	movsx	edx, WORD PTR _nRC$[ebp]
	mov	DWORD PTR tv266[ebp], edx
	cmp	DWORD PTR tv266[ebp], 0
	je	SHORT $LN29@fnGetVaria
	jmp	$LN4@fnGetVaria
$LN29@fnGetVaria:

; 9153 :             {
; 9154 :                case 0:
; 9155 :                {
; 9156 :                   zLPCONTEXT lpContext = fnGetContext( lpDomain, cpcContextName );

	mov	eax, DWORD PTR _cpcContextName$[ebp]
	push	eax
	mov	ecx, DWORD PTR _lpDomain$[ebp]
	push	ecx
	call	_fnGetContext
	add	esp, 8
	mov	DWORD PTR _lpContext$9[ebp], eax

; 9157 :                   if ( lpContext )

	cmp	DWORD PTR _lpContext$9[ebp], 0
	je	$LN30@fnGetVaria

; 9158 :                   {
; 9159 :                      if ( UfFormatString( (zPCHAR) lpVariable,

	mov	edx, DWORD PTR _lpContext$9[ebp]
	mov	eax, DWORD PTR [edx+59]
	push	eax
	call	DWORD PTR _g_pfnGetPtr
	push	eax
	mov	ecx, DWORD PTR _lpVariable$[ebp]
	push	ecx
	call	_UfFormatString@8
	movsx	edx, ax
	test	edx, edx
	je	$LN32@fnGetVaria

; 9160 :                                           zGETPTR( lpContext->hEditString ) ) )
; 9161 :                      {
; 9162 :                         LPTASK lpTask = zGETPTR( lpView->hTask );

	mov	eax, DWORD PTR _lpView$[ebp]
	mov	ecx, DWORD PTR [eax+14]
	push	ecx
	call	DWORD PTR _g_pfnGetPtr
	mov	DWORD PTR _lpTask$3[ebp], eax

; 9163 :                         zCHAR sz1[ 66 ];
; 9164 :                         zCHAR sz2[ 66 ];
; 9165 : 
; 9166 :                         zstrcpy( sz1, lpViewEntity->szName );

	mov	edx, DWORD PTR _lpViewEntity$[ebp]
	add	edx, 14					; 0000000eH
	push	edx
	lea	eax, DWORD PTR _sz1$16[ebp]
	push	eax
	call	_strcpy
	add	esp, 8

; 9167 :                         zstrcat( sz1, "/" );

	push	OFFSET $SG17925
	lea	ecx, DWORD PTR _sz1$16[ebp]
	push	ecx
	call	_strcat
	add	esp, 8

; 9168 :                         zstrcat( sz1, lpViewAttrib->szName );

	mov	edx, DWORD PTR _lpViewAttrib$[ebp]
	add	edx, 10					; 0000000aH
	push	edx
	lea	eax, DWORD PTR _sz1$16[ebp]
	push	eax
	call	_strcat
	add	esp, 8

; 9169 :                         zstrcpy( sz2, lpDomain->szName );

	mov	ecx, DWORD PTR _lpDomain$[ebp]
	add	ecx, 6
	push	ecx
	lea	edx, DWORD PTR _sz2$17[ebp]
	push	edx
	call	_strcpy
	add	esp, 8

; 9170 :                         zstrcat( sz2, "/" );

	push	OFFSET $SG17926
	lea	eax, DWORD PTR _sz2$17[ebp]
	push	eax
	call	_strcat
	add	esp, 8

; 9171 :                         zstrcat( sz2, TrueName( cpcContextName, 0 ) );

	push	0
	mov	ecx, DWORD PTR _cpcContextName$[ebp]
	push	ecx
	call	_TrueName@8
	push	eax
	lea	edx, DWORD PTR _sz2$17[ebp]
	push	edx
	call	_strcat
	add	esp, 8

; 9172 :                         // "KZOEE361 - Could not process variable
; 9173 :                         //  with Context Format "
; 9174 :                         fnIssueCoreError( lpTask, lpView, 8, 361, 0, sz1, sz2 );

	lea	eax, DWORD PTR _sz2$17[ebp]
	push	eax
	lea	ecx, DWORD PTR _sz1$16[ebp]
	push	ecx
	push	0
	push	361					; 00000169H
	push	8
	mov	edx, DWORD PTR _lpView$[ebp]
	push	edx
	mov	eax, DWORD PTR _lpTask$3[ebp]
	push	eax
	call	_fnIssueCoreError
	add	esp, 28					; 0000001cH

; 9175 :                         nRC = zCALL_ERROR;

	mov	ecx, -16				; fffffff0H
	mov	WORD PTR _nRC$[ebp], cx
$LN32@fnGetVaria:

; 9176 :                      }
; 9177 :                   }

	jmp	SHORT $LN4@fnGetVaria
$LN30@fnGetVaria:

; 9178 :                   else
; 9179 :                   {
; 9180 :                      LPTASK lpTask = zGETPTR( lpView->hTask );

	mov	edx, DWORD PTR _lpView$[ebp]
	mov	eax, DWORD PTR [edx+14]
	push	eax
	call	DWORD PTR _g_pfnGetPtr
	mov	DWORD PTR _lpTask$2[ebp], eax

; 9181 :                      // "KZOEE350 - Context Not Valid for Domain"
; 9182 :                      fnIssueCoreError( lpTask, lpView, 8, 350, 0, lpDomain->szName,

	push	1
	mov	ecx, DWORD PTR _cpcContextName$[ebp]
	push	ecx
	call	_TrueName@8
	push	eax
	mov	edx, DWORD PTR _lpDomain$[ebp]
	add	edx, 6
	push	edx
	push	0
	push	350					; 0000015eH
	push	8
	mov	eax, DWORD PTR _lpView$[ebp]
	push	eax
	mov	ecx, DWORD PTR _lpTask$2[ebp]
	push	ecx
	call	_fnIssueCoreError
	add	esp, 28					; 0000001cH

; 9183 :                                        TrueName( cpcContextName, zSHOW_ZKEY ));
; 9184 :                      nRC = zCALL_ERROR;

	mov	edx, -16				; fffffff0H
	mov	WORD PTR _nRC$[ebp], dx
$LN4@fnGetVaria:

; 9185 :                   }
; 9186 : 
; 9187 :                   break;
; 9188 :                }
; 9189 : 
; 9190 :                case -1:
; 9191 :                   break;
; 9192 : 
; 9193 :             } // end switch ( nRC )
; 9194 : 
; 9195 :             if ( pulReturnLth )

	cmp	DWORD PTR _pulReturnLth$[ebp], 0
	je	SHORT $LN19@fnGetVaria

; 9196 :             {
; 9197 :                if ( nRC == 0 )

	movsx	eax, WORD PTR _nRC$[ebp]
	test	eax, eax
	jne	SHORT $LN35@fnGetVaria

; 9198 :                   *pulReturnLth = zstrlen( (zPCHAR) lpVariable );

	mov	ecx, DWORD PTR _lpVariable$[ebp]
	push	ecx
	call	_strlen
	add	esp, 4
	mov	edx, DWORD PTR _pulReturnLth$[ebp]
	mov	DWORD PTR [edx], eax
	jmp	SHORT $LN19@fnGetVaria
$LN35@fnGetVaria:

; 9199 :                else
; 9200 :                   *pulReturnLth = 0;

	mov	eax, DWORD PTR _pulReturnLth$[ebp]
	mov	DWORD PTR [eax], 0
$LN19@fnGetVaria:

; 9201 :             }
; 9202 :          }
; 9203 : 
; 9204 :          break;

	jmp	$LN2@fnGetVaria
$LN37@fnGetVaria:

; 9205 : 
; 9206 :       case zDM_TYPE_EXPRESSION:
; 9207 :       case zDM_TYPE_ALGORITHM:
; 9208 :          nRC = fnCallDomainOper( lpCurrentTask, lpTaskDomain,

	mov	ecx, DWORD PTR _ulVariableLth$[ebp]
	push	ecx
	mov	edx, DWORD PTR _lpViewAttrib$[ebp]
	push	edx
	mov	eax, DWORD PTR _lpViewEntity$[ebp]
	push	eax
	mov	ecx, DWORD PTR _lpView$[ebp]
	push	ecx
	mov	edx, DWORD PTR _cpcContextName$[ebp]
	push	edx
	mov	eax, DWORD PTR _lpVariable$[ebp]
	push	eax
	movzx	ecx, BYTE PTR _cVariableType$[ebp]
	push	ecx
	push	2
	mov	edx, DWORD PTR _lpTaskDomain$[ebp]
	push	edx
	mov	eax, DWORD PTR _lpCurrentTask$[ebp]
	push	eax
	call	_fnCallDomainOper@40
	mov	WORD PTR _nRC$[ebp], ax

; 9209 :                                  zDME_GET_VARIABLE,
; 9210 :                                  cVariableType,
; 9211 :                                  lpVariable,
; 9212 :                                  cpcContextName,
; 9213 :                                  lpView,
; 9214 :                                  lpViewEntity,
; 9215 :                                  lpViewAttrib,
; 9216 :                                  ulVariableLth );
; 9217 : 
; 9218 :          if ( nRC == 0 && cVariableType == zTYPE_STRING && pulReturnLth )

	movsx	ecx, WORD PTR _nRC$[ebp]
	test	ecx, ecx
	jne	SHORT $LN38@fnGetVaria
	movsx	edx, BYTE PTR _cVariableType$[ebp]
	cmp	edx, 83					; 00000053H
	jne	SHORT $LN38@fnGetVaria
	cmp	DWORD PTR _pulReturnLth$[ebp], 0
	je	SHORT $LN38@fnGetVaria

; 9219 :             *pulReturnLth = zstrlen( (zPCHAR) lpVariable );

	mov	eax, DWORD PTR _lpVariable$[ebp]
	push	eax
	call	_strlen
	add	esp, 4
	mov	ecx, DWORD PTR _pulReturnLth$[ebp]
	mov	DWORD PTR [ecx], eax
	jmp	SHORT $LN39@fnGetVaria
$LN38@fnGetVaria:

; 9220 :          else
; 9221 :          if ( nRC == zDME_NOT_HANDLED )

	movsx	edx, WORD PTR _nRC$[ebp]
	cmp	edx, -10				; fffffff6H
	jne	SHORT $LN39@fnGetVaria

; 9222 :          {
; 9223 :             zCHAR szMsg[ 500 ];
; 9224 : 
; 9225 :             zsprintf( szMsg, "Operation '%s' does not handle an Entry "

	mov	eax, DWORD PTR _lpDomain$[ebp]
	add	eax, 6
	push	eax
	push	2
	mov	ecx, DWORD PTR _lpDomain$[ebp]
	add	ecx, 100				; 00000064H
	push	ecx
	push	OFFSET $SG17935
	lea	edx, DWORD PTR _szMsg$13[ebp]
	push	edx
	call	_sprintf
	add	esp, 20					; 00000014H

; 9226 :                       "Type of %ld for domain '%s'", lpDomain->szDomainOper,
; 9227 :                       zDME_GET_VARIABLE, lpDomain->szName );
; 9228 :             MessageSend( lpView, "TZDMD101", "System Error",

	push	0
	push	200					; 000000c8H
	lea	eax, DWORD PTR _szMsg$13[ebp]
	push	eax
	push	OFFSET $SG17936
	push	OFFSET $SG17937
	mov	ecx, DWORD PTR _lpView$[ebp]
	push	ecx
	call	_MessageSend@24

; 9229 :                          szMsg, zMSGQ_DOMAIN_ERROR, 0 );
; 9230 :             return( zCALL_ERROR );

	mov	eax, -16				; fffffff0H
	jmp	$LN53@fnGetVaria
$LN39@fnGetVaria:

; 9231 :          }
; 9232 : 
; 9233 :          break;

	jmp	$LN2@fnGetVaria
$LN41@fnGetVaria:

; 9234 : 
; 9235 :       default:
; 9236 :       {
; 9237 :          if ( cVariableType == zTYPE_STRING && lpViewAttrib->cType == zTYPE_BLOB )

	movsx	edx, BYTE PTR _cVariableType$[ebp]
	cmp	edx, 83					; 00000053H
	jne	SHORT $LN42@fnGetVaria
	mov	eax, DWORD PTR _lpViewAttrib$[ebp]
	movsx	ecx, BYTE PTR [eax+202]
	cmp	ecx, 66					; 00000042H
	jne	SHORT $LN42@fnGetVaria

; 9238 :          {
; 9239 :             cVariableType = zTYPE_BLOB;  // dks 2007.01.11  permit blob to be set from string

	mov	BYTE PTR _cVariableType$[ebp], 66	; 00000042H

; 9240 :             if ( ulVariableLth == 0 )

	cmp	DWORD PTR _ulVariableLth$[ebp], 0
	jne	SHORT $LN42@fnGetVaria

; 9241 :                ulVariableLth = zstrlen( (zPCHAR) lpVariable );

	mov	edx, DWORD PTR _lpVariable$[ebp]
	push	edx
	call	_strlen
	add	esp, 4
	mov	DWORD PTR _ulVariableLth$[ebp], eax
$LN42@fnGetVaria:

; 9242 :          }
; 9243 : 
; 9244 :          // do it without a domain...
; 9245 :          switch ( cVariableType )

	movsx	eax, BYTE PTR _cVariableType$[ebp]
	mov	DWORD PTR tv369[ebp], eax
	mov	ecx, DWORD PTR tv369[ebp]
	sub	ecx, 66					; 00000042H
	mov	DWORD PTR tv369[ebp], ecx
	cmp	DWORD PTR tv369[ebp], 17		; 00000011H
	ja	$LN52@fnGetVaria
	mov	edx, DWORD PTR tv369[ebp]
	movzx	eax, BYTE PTR $LN59@fnGetVaria[edx]
	jmp	DWORD PTR $LN61@fnGetVaria[eax*4]
$LN44@fnGetVaria:

; 9246 :          {
; 9247 :             case zTYPE_STRING:
; 9248 :                nRC = fnGetStringFromAttribute( (zPCHAR) lpVariable, ulVariableLth,

	mov	ecx, DWORD PTR _cpcContextName$[ebp]
	push	ecx
	mov	edx, DWORD PTR _lpViewAttrib$[ebp]
	push	edx
	mov	eax, DWORD PTR _lpViewEntityCsr$[ebp]
	push	eax
	mov	ecx, DWORD PTR _lpView$[ebp]
	push	ecx
	mov	edx, DWORD PTR _ulVariableLth$[ebp]
	push	edx
	mov	eax, DWORD PTR _lpVariable$[ebp]
	push	eax
	call	_fnGetStringFromAttribute
	add	esp, 24					; 00000018H
	mov	WORD PTR _nRC$[ebp], ax

; 9249 :                                                lpView, lpViewEntityCsr,
; 9250 :                                                lpViewAttrib,
; 9251 :                                                cpcContextName );
; 9252 :                if ( pulReturnLth )

	cmp	DWORD PTR _pulReturnLth$[ebp], 0
	je	SHORT $LN45@fnGetVaria

; 9253 :                {
; 9254 :                   if ( nRC == 0 )

	movsx	ecx, WORD PTR _nRC$[ebp]
	test	ecx, ecx
	jne	SHORT $LN46@fnGetVaria

; 9255 :                      *pulReturnLth = zstrlen( (zPCHAR) lpVariable );

	mov	edx, DWORD PTR _lpVariable$[ebp]
	push	edx
	call	_strlen
	add	esp, 4
	mov	ecx, DWORD PTR _pulReturnLth$[ebp]
	mov	DWORD PTR [ecx], eax
	jmp	SHORT $LN45@fnGetVaria
$LN46@fnGetVaria:

; 9256 :                   else
; 9257 :                      *pulReturnLth = 0;

	mov	edx, DWORD PTR _pulReturnLth$[ebp]
	mov	DWORD PTR [edx], 0
$LN45@fnGetVaria:

; 9258 :                }
; 9259 : 
; 9260 :                break;

	jmp	$LN2@fnGetVaria
$LN48@fnGetVaria:

; 9261 : 
; 9262 :             case zTYPE_BLOB:
; 9263 :                *pulReturnLth = ulVariableLth;   // set max size for next call below

	mov	eax, DWORD PTR _pulReturnLth$[ebp]
	mov	ecx, DWORD PTR _ulVariableLth$[ebp]
	mov	DWORD PTR [eax], ecx

; 9264 :                nRC = fnGetBlobFromAttribute( lpVariable, pulReturnLth,

	mov	edx, DWORD PTR _lpViewAttrib$[ebp]
	push	edx
	mov	eax, DWORD PTR _lpViewEntityCsr$[ebp]
	push	eax
	mov	ecx, DWORD PTR _lpView$[ebp]
	push	ecx
	mov	edx, DWORD PTR _pulReturnLth$[ebp]
	push	edx
	mov	eax, DWORD PTR _lpVariable$[ebp]
	push	eax
	call	_fnGetBlobFromAttribute
	add	esp, 20					; 00000014H
	mov	WORD PTR _nRC$[ebp], ax

; 9265 :                                              lpView, lpViewEntityCsr,
; 9266 :                                              lpViewAttrib );
; 9267 :                break;

	jmp	$LN2@fnGetVaria
$LN49@fnGetVaria:

; 9268 : 
; 9269 :             case zTYPE_INTEGER:
; 9270 :                plInteger = (zPLONG) lpVariable;

	mov	ecx, DWORD PTR _lpVariable$[ebp]
	mov	DWORD PTR _plInteger$[ebp], ecx

; 9271 :                nRC = fnGetIntegerFromAttribute( plInteger,

	mov	edx, DWORD PTR _lpViewAttrib$[ebp]
	push	edx
	mov	eax, DWORD PTR _lpViewEntityCsr$[ebp]
	push	eax
	mov	ecx, DWORD PTR _lpView$[ebp]
	push	ecx
	mov	edx, DWORD PTR _plInteger$[ebp]
	push	edx
	call	_fnGetIntegerFromAttribute
	add	esp, 16					; 00000010H
	mov	WORD PTR _nRC$[ebp], ax

; 9272 :                                                 lpView, lpViewEntityCsr,
; 9273 :                                                 lpViewAttrib );
; 9274 :                break;

	jmp	$LN2@fnGetVaria
$LN50@fnGetVaria:

; 9275 : 
; 9276 :             case zTYPE_DECIMAL:
; 9277 :                pdDecimal = (zPDECIMAL) lpVariable;

	mov	eax, DWORD PTR _lpVariable$[ebp]
	mov	DWORD PTR _pdDecimal$[ebp], eax

; 9278 :                nRC = fnGetDecimalFromAttribute( pdDecimal,

	mov	ecx, DWORD PTR _lpViewAttrib$[ebp]
	push	ecx
	mov	edx, DWORD PTR _lpViewEntityCsr$[ebp]
	push	edx
	mov	eax, DWORD PTR _lpView$[ebp]
	push	eax
	mov	ecx, DWORD PTR _pdDecimal$[ebp]
	push	ecx
	call	_fnGetDecimalFromAttribute
	add	esp, 16					; 00000010H
	mov	WORD PTR _nRC$[ebp], ax

; 9279 :                                                 lpView, lpViewEntityCsr,
; 9280 :                                                 lpViewAttrib );
; 9281 :                break;

	jmp	$LN2@fnGetVaria
$LN51@fnGetVaria:

; 9282 : 
; 9283 :             case zTYPE_PIC:
; 9284 :                nRC = fnGetAttributeLength( pulReturnLth, lpView,

	mov	edx, DWORD PTR _lpViewAttrib$[ebp]
	push	edx
	mov	eax, DWORD PTR _lpViewEntityCsr$[ebp]
	mov	ecx, DWORD PTR [eax+26]
	push	ecx
	call	DWORD PTR _g_pfnGetPtr
	push	eax
	mov	edx, DWORD PTR _lpView$[ebp]
	push	edx
	mov	eax, DWORD PTR _pulReturnLth$[ebp]
	push	eax
	call	_fnGetAttributeLength
	add	esp, 16					; 00000010H
	mov	WORD PTR _nRC$[ebp], ax

; 9285 :                                            zGETPTR( lpViewEntityCsr->hEntityInstance ),
; 9286 :                                            lpViewAttrib );
; 9287 :                break;

	jmp	SHORT $LN2@fnGetVaria
$LN52@fnGetVaria:

; 9288 : 
; 9289 :             default:
; 9290 :             {
; 9291 :                LPTASK lpTask = zGETPTR( lpView->hTask );

	mov	ecx, DWORD PTR _lpView$[ebp]
	mov	edx, DWORD PTR [ecx+14]
	push	edx
	call	DWORD PTR _g_pfnGetPtr
	mov	DWORD PTR _lpTask$1[ebp], eax

; 9292 :                szTempStr[ 0 ] = cVariableType;

	mov	eax, 1
	imul	ecx, eax, 0
	mov	dl, BYTE PTR _cVariableType$[ebp]
	mov	BYTE PTR _szTempStr$[ebp+ecx], dl

; 9293 :                szTempStr[ 1 ] = '\x00';

	mov	DWORD PTR $T8[ebp], 1
	cmp	DWORD PTR $T8[ebp], 2
	jae	SHORT $LN56@fnGetVaria
	jmp	SHORT $LN57@fnGetVaria
$LN56@fnGetVaria:
	call	___report_rangecheckfailure
$LN57@fnGetVaria:
	mov	eax, DWORD PTR $T8[ebp]
	mov	BYTE PTR _szTempStr$[ebp+eax], 0

; 9294 :                // "KZOEE241 - Invalid Variable Type"
; 9295 :                fnIssueCoreError( lpTask, lpView, 8, 241, 0, szTempStr, 0 );

	push	0
	lea	ecx, DWORD PTR _szTempStr$[ebp]
	push	ecx
	push	0
	push	241					; 000000f1H
	push	8
	mov	edx, DWORD PTR _lpView$[ebp]
	push	edx
	mov	eax, DWORD PTR _lpTask$1[ebp]
	push	eax
	call	_fnIssueCoreError
	add	esp, 28					; 0000001cH

; 9296 :                return( zCALL_ERROR );

	mov	eax, -16				; fffffff0H
	jmp	SHORT $LN53@fnGetVaria
$LN2@fnGetVaria:

; 9297 :             }
; 9298 :          }
; 9299 :       }
; 9300 :    }
; 9301 : 
; 9302 :    return( nRC );

	mov	ax, WORD PTR _nRC$[ebp]
$LN53@fnGetVaria:

; 9303 : }

	mov	ecx, DWORD PTR __$ArrayPad$[ebp]
	xor	ecx, ebp
	call	@__security_check_cookie@4
	mov	esp, ebp
	pop	ebp
	ret	0
	npad	3
$LN60@fnGetVaria:
	DD	$LN37@fnGetVaria
	DD	$LN17@fnGetVaria
	DD	$LN15@fnGetVaria
	DD	$LN41@fnGetVaria
$LN58@fnGetVaria:
	DB	0
	DB	3
	DB	3
	DB	3
	DB	0
	DB	1
	DB	3
	DB	3
	DB	3
	DB	3
	DB	3
	DB	3
	DB	3
	DB	3
	DB	3
	DB	3
	DB	3
	DB	3
	DB	3
	DB	2
$LN61@fnGetVaria:
	DD	$LN48@fnGetVaria
	DD	$LN49@fnGetVaria
	DD	$LN50@fnGetVaria
	DD	$LN51@fnGetVaria
	DD	$LN44@fnGetVaria
	DD	$LN52@fnGetVaria
$LN59@fnGetVaria:
	DB	0
	DB	5
	DB	5
	DB	5
	DB	5
	DB	5
	DB	5
	DB	5
	DB	5
	DB	5
	DB	1
	DB	2
	DB	5
	DB	5
	DB	3
	DB	5
	DB	5
	DB	4
_fnGetVariableFromAttribute ENDP
_TEXT	ENDS
; Function compile flags: /Odtp
; File c:\10c\a\oe\kzoeataa.c
_TEXT	SEGMENT
_pdDecimal$ = -1672					; size = 4
_plInteger$ = -1668					; size = 4
_lpTaskDomain$ = -1664					; size = 4
$T1 = -1660						; size = 4
tv267 = -1656						; size = 4
_ul$2 = -1652						; size = 4
$T3 = -1648						; size = 4
_hndl$4 = -1644						; size = 4
_lpContext$5 = -1640					; size = 4
tv314 = -1636						; size = 4
_lDomainEntryType$ = -1632				; size = 4
tv149 = -1628						; size = 4
_pch$6 = -1624						; size = 4
_szTempStr$ = -1620					; size = 2
_lpViewEntity$ = -1616					; size = 4
_lpDomain$ = -1612					; size = 4
_cDomainType$ = -1606					; size = 1
_bValidationOnly$ = -1605				; size = 1
_nRC$ = -1604						; size = 2
_sz$7 = -1600						; size = 256
_szMsg$8 = -1344					; size = 500
_szEntityName$9 = -844					; size = 255
_szAttribName$10 = -588					; size = 255
_sz2$11 = -332						; size = 100
_sz1$12 = -232						; size = 100
_sz1$13 = -132						; size = 128
__$ArrayPad$ = -4					; size = 4
_lpView$ = 8						; size = 4
_lpViewEntityCsr$ = 12					; size = 4
_lpViewAttrib$ = 16					; size = 4
_lpVariable$ = 20					; size = 4
_cVariableType$ = 24					; size = 1
_ulVariableLth$ = 28					; size = 4
_cpcContextName$ = 32					; size = 4
_lpCurrentTask$ = 36					; size = 4
_nFlag$ = 40						; size = 2
_fnSetAttributeFromVariable PROC

; 7509 : {

	push	ebp
	mov	ebp, esp
	sub	esp, 1672				; 00000688H
	mov	eax, DWORD PTR ___security_cookie
	xor	eax, ebp
	mov	DWORD PTR __$ArrayPad$[ebp], eax
	push	esi
	push	edi

; 7510 :    LPVIEWENTITY      lpViewEntity;
; 7511 :    LPTASKDOMAIN      lpTaskDomain;
; 7512 :    LPDOMAIN          lpDomain;
; 7513 :    zCHAR             cDomainType;
; 7514 :    zCHAR             szTempStr[ 2 ];
; 7515 :    zPLONG            plInteger;
; 7516 :    zPDOUBLE          pdDecimal;
; 7517 :    zBOOL             bValidationOnly;
; 7518 :    zLONG             lDomainEntryType;
; 7519 :    zSHORT            nRC;
; 7520 : 
; 7521 :    // Get view Entity from cursor
; 7522 :    lpViewEntity = zGETPTR( lpViewEntityCsr->hViewEntity );

	mov	eax, DWORD PTR _lpViewEntityCsr$[ebp]
	mov	ecx, DWORD PTR [eax+14]
	push	ecx
	call	DWORD PTR _g_pfnGetPtr
	mov	DWORD PTR _lpViewEntity$[ebp], eax

; 7523 : 
; 7524 :    // If the attribute is marked as required and the input variable
; 7525 :    // type is a string, we do not allow a null pointer or a pointer
; 7526 :    // to a null string as input.
; 7527 :    if ( lpViewAttrib->bRequired &&
; 7528 :         cVariableType == zTYPE_STRING &&

	mov	edx, DWORD PTR _lpViewAttrib$[ebp]
	mov	eax, DWORD PTR [edx+193]
	shr	eax, 4
	and	eax, 1
	je	$LN6@fnSetAttri
	movsx	ecx, BYTE PTR _cVariableType$[ebp]
	cmp	ecx, 83					; 00000053H
	jne	$LN6@fnSetAttri
	cmp	DWORD PTR _lpVariable$[ebp], 0
	je	SHORT $LN7@fnSetAttri
	mov	edx, DWORD PTR _lpVariable$[ebp]
	movsx	eax, BYTE PTR [edx]
	test	eax, eax
	jne	$LN6@fnSetAttri
$LN7@fnSetAttri:

; 7529 :         (lpVariable == 0 || *((zPCHAR) lpVariable) == 0) )
; 7530 :    {
; 7531 :       zCHAR  szEntityName[ 255 ];
; 7532 :       zCHAR  szAttribName[ 255 ];
; 7533 : 
; 7534 :       strcpy( szEntityName, "Entity:\t" );

	push	OFFSET $SG17250
	lea	ecx, DWORD PTR _szEntityName$9[ebp]
	push	ecx
	call	_strcpy
	add	esp, 8

; 7535 :       strcat( szEntityName, lpViewEntity->szName );

	mov	edx, DWORD PTR _lpViewEntity$[ebp]
	add	edx, 14					; 0000000eH
	push	edx
	lea	eax, DWORD PTR _szEntityName$9[ebp]
	push	eax
	call	_strcat
	add	esp, 8

; 7536 : 
; 7537 :       strcpy( szAttribName, "Attribute:\t" );

	push	OFFSET $SG17251
	lea	ecx, DWORD PTR _szAttribName$10[ebp]
	push	ecx
	call	_strcpy
	add	esp, 8

; 7538 :       strcat( szAttribName, lpViewAttrib->szName );

	mov	edx, DWORD PTR _lpViewAttrib$[ebp]
	add	edx, 10					; 0000000aH
	push	edx
	lea	eax, DWORD PTR _szAttribName$10[ebp]
	push	eax
	call	_strcat
	add	esp, 8

; 7539 : 
; 7540 :       // "KZOEE245 - Null string not allowed for a required attribute"
; 7541 :       IssueOE_Error( lpView, 8, 245,

	lea	ecx, DWORD PTR _szAttribName$10[ebp]
	push	ecx
	lea	edx, DWORD PTR _szEntityName$9[ebp]
	push	edx
	push	0
	push	400					; 00000190H
	push	245					; 000000f5H
	push	8
	mov	eax, DWORD PTR _lpView$[ebp]
	push	eax
	call	_IssueOE_Error@28

; 7542 :                      zMSGQ_REQUIRED_DATA_ITEM_ERROR,
; 7543 :                      0, szEntityName,
; 7544 :                      szAttribName );
; 7545 :       return( zCALL_ERROR );

	mov	eax, -16				; fffffff0H
	jmp	$LN46@fnSetAttri
$LN6@fnSetAttri:

; 7546 :    }
; 7547 : 
; 7548 :    // See if we are only doing validation.
; 7549 :    if ( nFlag & zVALIDATE )

	movsx	ecx, WORD PTR _nFlag$[ebp]
	and	ecx, 4
	je	SHORT $LN8@fnSetAttri

; 7550 :    {
; 7551 :       bValidationOnly = TRUE;

	mov	BYTE PTR _bValidationOnly$[ebp], 1

; 7552 :       lDomainEntryType = (zLONG) zDME_VALIDATE_LPDATA;

	mov	DWORD PTR _lDomainEntryType$[ebp], 10	; 0000000aH

; 7553 :    }

	jmp	SHORT $LN9@fnSetAttri
$LN8@fnSetAttri:

; 7554 :    else
; 7555 :    {
; 7556 :       bValidationOnly = FALSE;

	mov	BYTE PTR _bValidationOnly$[ebp], 0

; 7557 :       lDomainEntryType = (zLONG) zDME_SET_ATTRIBUTE;

	mov	DWORD PTR _lDomainEntryType$[ebp], 1
$LN9@fnSetAttri:

; 7558 :    }
; 7559 : 
; 7560 :    // If the input type is string and if the value is null, then we
; 7561 :    // want to call fnSetAttributeFromString with the null value, which
; 7562 :    // will set the attribute to null, without going through the Domain.
; 7563 :    // Note that we have already gone through the validation to check
; 7564 :    // whether or not the attribute can be set to null, so if we have
; 7565 :    // gotton this far, it is ok.
; 7566 :    // To force the call to fnSetAttributeFromString, we only need to set
; 7567 :    // the variable cDomainType to 0. This causes the CASE structure
; 7568 :    // below to drop through to the default, which will call the operation.
; 7569 : 
; 7570 :    if ( cVariableType == zTYPE_STRING &&

	movsx	edx, BYTE PTR _cVariableType$[ebp]
	cmp	edx, 83					; 00000053H
	jne	SHORT $LN10@fnSetAttri
	cmp	DWORD PTR _lpVariable$[ebp], 0
	je	SHORT $LN12@fnSetAttri
	mov	eax, DWORD PTR _lpVariable$[ebp]
	movsx	ecx, BYTE PTR [eax]
	test	ecx, ecx
	jne	SHORT $LN10@fnSetAttri
$LN12@fnSetAttri:

; 7571 :         (lpVariable == 0 || *((zPCHAR) lpVariable) == 0) )
; 7572 :    {
; 7573 :       cDomainType = 0;

	mov	BYTE PTR _cDomainType$[ebp], 0

; 7574 :    }

	jmp	SHORT $LN11@fnSetAttri
$LN10@fnSetAttri:

; 7575 :    else
; 7576 :    {
; 7577 :       lpDomain = zGETPTR( lpViewAttrib->hDomain );

	mov	edx, DWORD PTR _lpViewAttrib$[ebp]
	mov	eax, DWORD PTR [edx+198]
	push	eax
	call	DWORD PTR _g_pfnGetPtr
	mov	DWORD PTR _lpDomain$[ebp], eax

; 7578 :       cDomainType = fnDomainProcessingRequired( &lpTaskDomain, lpView,

	mov	ecx, DWORD PTR _lpDomain$[ebp]
	push	ecx
	mov	edx, DWORD PTR _lpCurrentTask$[ebp]
	push	edx
	mov	eax, DWORD PTR _lpView$[ebp]
	push	eax
	lea	ecx, DWORD PTR _lpTaskDomain$[ebp]
	push	ecx
	call	_fnDomainProcessingRequired
	add	esp, 16					; 00000010H
	mov	BYTE PTR _cDomainType$[ebp], al

; 7579 :                                                 lpCurrentTask,
; 7580 :                                                 lpDomain );
; 7581 : 
; 7582 :       if ( cDomainType && cDomainType == zDM_TYPE_FORMAT &&

	movsx	edx, BYTE PTR _cDomainType$[ebp]
	test	edx, edx
	je	SHORT $LN11@fnSetAttri
	movsx	eax, BYTE PTR _cDomainType$[ebp]
	cmp	eax, 70					; 00000046H
	jne	SHORT $LN11@fnSetAttri
	cmp	DWORD PTR _cpcContextName$[ebp], 0
	je	SHORT $LN14@fnSetAttri
	mov	ecx, DWORD PTR _cpcContextName$[ebp]
	movsx	edx, BYTE PTR [ecx]
	test	edx, edx
	jne	SHORT $LN11@fnSetAttri
$LN14@fnSetAttri:

; 7583 :            (cpcContextName == 0 || *cpcContextName == 0) )
; 7584 :       {
; 7585 :          cDomainType = 0;

	mov	BYTE PTR _cDomainType$[ebp], 0
$LN11@fnSetAttri:

; 7586 :       }
; 7587 :    }
; 7588 : 
; 7589 :    switch ( cDomainType )

	movsx	eax, BYTE PTR _cDomainType$[ebp]
	mov	DWORD PTR tv149[ebp], eax
	mov	ecx, DWORD PTR tv149[ebp]
	sub	ecx, 65					; 00000041H
	mov	DWORD PTR tv149[ebp], ecx
	cmp	DWORD PTR tv149[ebp], 19		; 00000013H
	ja	$LN30@fnSetAttri
	mov	edx, DWORD PTR tv149[ebp]
	movzx	eax, BYTE PTR $LN53@fnSetAttri[edx]
	jmp	DWORD PTR $LN55@fnSetAttri[eax*4]
$LN15@fnSetAttri:

; 7590 :    {
; 7591 :       case zDM_TYPE_TABLE:
; 7592 :          nRC = Table_Handler( lDomainEntryType,

	push	0
	mov	ecx, DWORD PTR _ulVariableLth$[ebp]
	push	ecx
	mov	edx, DWORD PTR _lpViewAttrib$[ebp]
	push	edx
	mov	eax, DWORD PTR _lpViewEntity$[ebp]
	push	eax
	mov	ecx, DWORD PTR _lpView$[ebp]
	push	ecx
	mov	edx, DWORD PTR _cpcContextName$[ebp]
	push	edx
	mov	eax, DWORD PTR _lpVariable$[ebp]
	push	eax
	movzx	ecx, BYTE PTR _cVariableType$[ebp]
	push	ecx
	mov	edx, DWORD PTR _lDomainEntryType$[ebp]
	push	edx
	call	_Table_Handler@36
	mov	WORD PTR _nRC$[ebp], ax

; 7593 :                               cVariableType,
; 7594 :                               (zPVOID) lpVariable,
; 7595 :                               cpcContextName,
; 7596 :                               lpView,
; 7597 :                               lpViewEntity,
; 7598 :                               lpViewAttrib,
; 7599 :                               ulVariableLth,
; 7600 :                               (zPVOID) 0 );
; 7601 :          break;

	jmp	$LN2@fnSetAttri
$LN16@fnSetAttri:

; 7602 : 
; 7603 :       case zDM_TYPE_FORMAT:
; 7604 :          if ( cVariableType != zTYPE_STRING )

	movsx	eax, BYTE PTR _cVariableType$[ebp]
	cmp	eax, 83					; 00000053H
	je	$LN17@fnSetAttri

; 7605 :          {
; 7606 :             zCHAR sz1[ 100 ];
; 7607 :             zCHAR sz2[ 100 ];
; 7608 : 
; 7609 :             zstrcpy( sz1, "Type: " );

	push	OFFSET $SG17263
	lea	ecx, DWORD PTR _sz1$12[ebp]
	push	ecx
	call	_strcpy
	add	esp, 8

; 7610 :             sz1[ 6 ] = cVariableType;

	mov	edx, 1
	imul	eax, edx, 6
	mov	cl, BYTE PTR _cVariableType$[ebp]
	mov	BYTE PTR _sz1$12[ebp+eax], cl

; 7611 :             sz1[ 7 ] = 0;

	mov	edx, 1
	imul	eax, edx, 7
	mov	DWORD PTR $T3[ebp], eax
	cmp	DWORD PTR $T3[ebp], 100			; 00000064H
	jae	SHORT $LN47@fnSetAttri
	jmp	SHORT $LN48@fnSetAttri
$LN47@fnSetAttri:
	call	___report_rangecheckfailure
$LN48@fnSetAttri:
	mov	ecx, DWORD PTR $T3[ebp]
	mov	BYTE PTR _sz1$12[ebp+ecx], 0

; 7612 :             zstrcat( sz1, ", Domain: " );

	push	OFFSET $SG17264
	lea	edx, DWORD PTR _sz1$12[ebp]
	push	edx
	call	_strcat
	add	esp, 8

; 7613 :             zstrcat( sz1, lpDomain->szName );

	mov	eax, DWORD PTR _lpDomain$[ebp]
	add	eax, 6
	push	eax
	lea	ecx, DWORD PTR _sz1$12[ebp]
	push	ecx
	call	_strcat
	add	esp, 8

; 7614 :             zstrcpy( sz2, lpViewEntity->szName );

	mov	edx, DWORD PTR _lpViewEntity$[ebp]
	add	edx, 14					; 0000000eH
	push	edx
	lea	eax, DWORD PTR _sz2$11[ebp]
	push	eax
	call	_strcpy
	add	esp, 8

; 7615 :             zstrcpy( sz2, ", " );

	push	OFFSET $SG17265
	lea	ecx, DWORD PTR _sz2$11[ebp]
	push	ecx
	call	_strcpy
	add	esp, 8

; 7616 :             zstrcpy( sz2, lpViewAttrib->szName );

	mov	edx, DWORD PTR _lpViewAttrib$[ebp]
	add	edx, 10					; 0000000aH
	push	edx
	lea	eax, DWORD PTR _sz2$11[ebp]
	push	eax
	call	_strcpy
	add	esp, 8

; 7617 :             // "KZOEE362 - Variable Type not allowed for this Domain Type "
; 7618 :             fnIssueCoreError( lpCurrentTask, lpView, 8, 362, 0, sz1, sz2 );

	lea	ecx, DWORD PTR _sz2$11[ebp]
	push	ecx
	lea	edx, DWORD PTR _sz1$12[ebp]
	push	edx
