; Listing generated by Microsoft (R) Optimizing Compiler Version 19.00.24213.1 

	TITLE	c:\10c\A\oe\KZOEOIAA.C
	.686P
	.XMM
	include listing.inc
	.model	flat

INCLUDELIB MSVCRTD
INCLUDELIB OLDNAMES

PUBLIC	_gszKeyDelimStr
_BSS	SEGMENT
$SG14413 DB	01H DUP (?)
	ALIGN	4

$SG15601 DB	01H DUP (?)
	ALIGN	4

$SG13572 DB	01H DUP (?)
	ALIGN	4

$SG13575 DB	01H DUP (?)
	ALIGN	4

$SG13577 DB	01H DUP (?)
	ALIGN	4

$SG16719 DB	01H DUP (?)
	ALIGN	4

$SG16791 DB	01H DUP (?)
	ALIGN	4

$SG14777 DB	01H DUP (?)
	ALIGN	4

?ZeroAttribFlags@?BO@??fnWriteOI_ToTextStream@@9@9 DD 01H DUP (?) ; `fnWriteOI_ToTextStream'::`30'::ZeroAttribFlags
$SG14876 DB	01H DUP (?)
	ALIGN	4

$SG14945 DB	01H DUP (?)
	ALIGN	4

$SG14952 DB	01H DUP (?)
	ALIGN	4

$SG14953 DB	01H DUP (?)
	ALIGN	4

$SG14954 DB	01H DUP (?)
	ALIGN	4

$SG14960 DB	01H DUP (?)
	ALIGN	4

$SG14971 DB	01H DUP (?)
	ALIGN	4

$SG14972 DB	01H DUP (?)
	ALIGN	4

$SG14978 DB	01H DUP (?)
	ALIGN	4

$SG16039 DB	01H DUP (?)
	ALIGN	4

$SG14088 DB	01H DUP (?)
	ALIGN	4

$SG14090 DB	01H DUP (?)
	ALIGN	4

$SG14092 DB	01H DUP (?)
	ALIGN	4

$SG14099 DB	01H DUP (?)
	ALIGN	4

$SG15124 DB	01H DUP (?)
	ALIGN	4

$SG18216 DB	01H DUP (?)
	ALIGN	4

$SG15150 DB	01H DUP (?)
	ALIGN	4

$SG18227 DB	01H DUP (?)
	ALIGN	4

$SG14172 DB	01H DUP (?)
	ALIGN	4

$SG17326 DB	01H DUP (?)
	ALIGN	4

$SG17382 DB	01H DUP (?)
	ALIGN	4

$SG17401 DB	01H DUP (?)
_BSS	ENDS
_DATA	SEGMENT
$SG17408 DB	'(oi) Target Entity = ', 00H
	ORG $+2
$SG17423 DB	'(oi) Entity type mismatch during cursor restoration for '
	DB	'entity ', 00H
$SG14351 DB	'More than one zLEVEL_ option requested', 00H
	ORG $+1
$SG17425 DB	'ZEND', 00H
	ORG $+3
$SG18455 DB	'KZDBHQUA', 00H
	ORG $+3
$SG18456 DB	'EntitySpec', 00H
	ORG $+1
$SG18457 DB	'*root*', 00H
	ORG $+1
$SG18458 DB	'EntityName', 00H
	ORG $+1
$SG18459 DB	'EntitySpec', 00H
	ORG $+1
$SG18460 DB	'QualAttrib', 00H
	ORG $+1
$SG18461 DB	'*root*', 00H
	ORG $+1
$SG18462 DB	'EntityName', 00H
	ORG $+1
$SG18463 DB	'QualAttrib', 00H
	ORG $+1
$SG18464 DB	'AttributeName', 00H
	ORG $+2
$SG18465 DB	'QualAttrib', 00H
	ORG $+1
$SG18466 DB	'=', 00H
	ORG $+2
$SG18467 DB	'Oper', 00H
	ORG $+3
$SG18468 DB	'QualAttrib', 00H
	ORG $+1
$SG18469 DB	'KeyList', 00H
$SG18470 DB	'IntegerValue', 00H
	ORG $+3
$SG18471 DB	'KeyList', 00H
$SG15404 DB	'ZeidonLock', 00H
	ORG $+1
$SG15407 DB	'@%s', 00H
$SG14419 DB	'Out of buffer space', 00H
$SG14420 DB	'Internal Core Error', 00H
$SG16485 DB	'- ParentEntity == ChildEntity', 00H
	ORG $+2
$SG16486 DB	'(oi) Hangin key error! ', 00H
$SG15463 DB	'ZPLOCKO', 00H
$SG17525 DB	'KZDBHQUA', 00H
	ORG $+3
$SG17547 DB	'TZCMULWO', 00H
	ORG $+3
$SG17548 DB	'TZCMULWO', 00H
	ORG $+3
$SG17549 DB	'TZCMULWO', 00H
	ORG $+3
$SG17550 DB	'(%s) = %lf seconds', 00H
	ORG $+1
$SG17551 DB	'(oi) Total time for SfActivateOI_FromStream ', 00H
	ORG $+3
$SG14484 DB	'KZ', 00H
	ORG $+1
$SG14486 DB	'DBH_MsgProc', 00H
$SG14488 DB	'_DBH_MsgProc', 00H
	ORG $+3
$SG17568 DB	'Zeidon OE', 00H
	ORG $+2
$SG17566 DB	'SfActivateSysOI_FromFile now REQUIRES a non-zero qualifi'
	DB	'cation view for Object Definition: %s', 00H
	ORG $+2
$SG17567 DB	'SfActivateSysOI_FromFile now REQUIRES a non-zero qualifi'
	DB	'cation view.  System will now crash', 00H
$SG16556 DB	'KZDBHQUA', 00H
	ORG $+3
$SG16559 DB	'EntitySpec', 00H
	ORG $+1
$SG16560 DB	'EntityName', 00H
	ORG $+1
$SG17588 DB	'SfActivateSysEmptyOI now REQUIRES a non-zero qualificati'
	DB	'on view for Object Definition: %s.', 00H
	ORG $+1
$SG17590 DB	'Zeidon OE', 00H
	ORG $+2
$SG17589 DB	'SfActivateSysEmptyOI now REQUIRES a non-zero qualificati'
	DB	'on view.  System will now crash', 00H
$SG13494 DB	'More than one zLEVEL_ option requested', 00H
	ORG $+1
$SG16569 DB	'QualAttrib', 00H
	ORG $+1
$SG16570 DB	'QualAttrib', 00H
	ORG $+1
$SG13499 DB	'with zLEVEL_SAME', 00H
	ORG $+3
$SG13500 DB	'lpAppQualView', 00H
	ORG $+2
$SG16574 DB	'EntityName', 00H
	ORG $+1
$SG16575 DB	'EntityName', 00H
	ORG $+1
$SG16576 DB	'EntityName', 00H
	ORG $+1
$SG14529 DB	'KZ', 00H
	ORG $+1
$SG14530 DB	'(oi) Attempting to load GK-handler as ', 00H
	ORG $+1
$SG14531 DB	'(oi) Attempting to load GK-handler as ', 00H
	ORG $+1
$SG16581 DB	'AttributeName', 00H
	ORG $+2
$SG14533 DB	'GKH_MsgProc', 00H
$SG16582 DB	'AttributeName', 00H
	ORG $+2
$SG16583 DB	'AttributeName', 00H
	ORG $+2
$SG14535 DB	'_GKH_MsgProc', 00H
	ORG $+3
$SG16588 DB	'Oper', 00H
	ORG $+3
$SG16589 DB	'Oper', 00H
	ORG $+3
$SG16590 DB	'Oper', 00H
	ORG $+3
$SG16594 DB	'Value', 00H
	ORG $+2
$SG16595 DB	'Value', 00H
	ORG $+2
$SG16596 DB	'Value', 00H
	ORG $+2
_gszKeyDelimStr DB '/|\', 09H, 0aH, '`~!@#$%^&*-_=+;<>?aAzZ10', 00H
	ORG $+2
$SG13543 DB	'EntitySpec', 00H
	ORG $+1
$SG13544 DB	'EntitySpec', 00H
	ORG $+1
$SG13545 DB	'EntitySpec', 00H
	ORG $+1
$SG13546 DB	'EntitySpec', 00H
	ORG $+1
$SG13547 DB	'SourceViewName', 00H
	ORG $+1
$SG13550 DB	'SourceViewID', 00H
	ORG $+3
$SG15599 DB	'Couldn''t find original OI!', 00H
	ORG $+1
$SG15600 DB	'Internal Core Error', 00H
$SG13552 DB	'SourceEntityName', 00H
	ORG $+3
$SG13553 DB	'SourceAttributeName', 00H
$SG15602 DB	'(oi) Activating Optimistic Check view', 00H
	ORG $+2
$SG13554 DB	'Oper', 00H
	ORG $+3
$SG13556 DB	'IS', 00H
	ORG $+1
$SG15605 DB	'(oi) Error loading Optimistic check view.  RC = ', 00H
	ORG $+3
$SG13557 DB	'(', 00H
	ORG $+2
$SG13558 DB	'Oper', 00H
	ORG $+3
$SG15607 DB	'(oi) Optimistic locking compare RC = ', 00H
	ORG $+2
$SG14586 DB	'View doesn''t have an OI', 00H
$SG13562 DB	'AND', 00H
$SG13563 DB	'Oper', 00H
	ORG $+3
$SG13564 DB	'EntityName', 00H
	ORG $+1
$SG13565 DB	'AttributeName', 00H
	ORG $+2
$SG13566 DB	'=', 00H
	ORG $+2
$SG13567 DB	'Oper', 00H
	ORG $+3
$SG13568 DB	'Value', 00H
	ORG $+2
$SG13569 DB	')', 00H
	ORG $+2
$SG13570 DB	'Oper', 00H
	ORG $+3
$SG13571 DB	'Value', 00H
	ORG $+2
$SG13573 DB	'SourceViewName', 00H
	ORG $+1
$SG13574 DB	'SourceViewID', 00H
	ORG $+3
$SG13576 DB	'SourceEntityName', 00H
	ORG $+3
$SG13578 DB	'SourceAttributeName', 00H
$SG16713 DB	'@%s', 00H
$SG16714 DB	'=', 00H
	ORG $+2
$SG16715 DB	'LOD_Name', 00H
	ORG $+3
$SG16716 DB	'ZeidonLock', 00H
	ORG $+1
$SG16717 DB	'ZeidonLock', 00H
	ORG $+1
$SG16718 DB	'AND', 00H
$SG13646 DB	'LOD_Name', 00H
	ORG $+3
$SG13647 DB	'LOD_Name', 00H
	ORG $+3
$SG16720 DB	'=', 00H
	ORG $+2
$SG13648 DB	'LOD_Name', 00H
	ORG $+3
$SG16721 DB	'KeyValue', 00H
	ORG $+3
$SG16722 DB	'ZeidonLock', 00H
	ORG $+1
$SG16723 DB	'Value', 00H
	ORG $+2
$SG16724 DB	'ZPLOCKO', 00H
$SG13652 DB	'KeyValue', 00H
	ORG $+3
$SG13653 DB	'KeyValue', 00H
	ORG $+3
$SG13654 DB	'KeyValue', 00H
	ORG $+3
$SG16727 DB	'AllowRead', 00H
	ORG $+2
$SG16728 DB	'ZeidonLock', 00H
	ORG $+1
$SG13658 DB	'UserName', 00H
	ORG $+3
$SG13659 DB	'UserName', 00H
	ORG $+3
$SG13660 DB	'UserName', 00H
	ORG $+3
$SG16733 DB	'LOD ''%s'' is locked', 00H
	ORG $+1
$SG16734 DB	'Entity ''%s'' is locked', 00H
	ORG $+2
$SG16735 DB	'UserName', 00H
	ORG $+3
$SG16736 DB	'ZeidonLock', 00H
	ORG $+1
$SG16737 DB	'Timestamp', 00H
	ORG $+2
$SG13665 DB	'Timestamp', 00H
	ORG $+2
$SG16738 DB	'ZeidonLock', 00H
	ORG $+1
$SG13666 DB	'Timestamp', 00H
	ORG $+2
$SG16739 DB	'YYYY-M-D HH:MI:SS', 00H
	ORG $+2
$SG13667 DB	'Timestamp', 00H
	ORG $+2
$SG16740 DB	'(oi) Object locked by ', 00H
	ORG $+1
$SG16741 DB	'(oi) Object locked on ', 00H
	ORG $+1
$SG16742 DB	'(oi) Concatenated key = ', 00H
	ORG $+3
$SG13671 DB	'AllowRead', 00H
	ORG $+2
$SG13672 DB	'AllowRead', 00H
	ORG $+2
$SG13673 DB	'AllowRead', 00H
	ORG $+2
$SG16792 DB	'==== Activate error: Infinite recursive subobject ====', 00H
	ORG $+1
$SG16793 DB	'Object Name   = ', 00H
	ORG $+3
$SG13721 DB	'ZPLOCKO', 00H
$SG16794 DB	'Parent Entity = ', 00H
	ORG $+3
$SG16795 DB	'Parent level  = ', 00H
	ORG $+3
$SG14747 DB	'Object Name = ', 00H
	ORG $+1
$SG16796 DB	'Child Entity  = ', 00H
	ORG $+3
$SG16797 DB	'Child level   = ', 00H
	ORG $+3
$SG13732 DB	'#Global Entity Lock', 00H
$SG13733 DB	'#%s', 00H
$SG13735 DB	'LOD_Name', 00H
	ORG $+3
$SG13736 DB	'ZeidonLock', 00H
	ORG $+1
$SG13737 DB	'ZeidonLock', 00H
	ORG $+1
$SG13740 DB	'N', 00H
	ORG $+2
$SG13741 DB	'Locking semaphore', 00H
	ORG $+2
$SG14766 DB	'(oi) Can''t start network = ', 00H
$SG14767 DB	'Network cannot be started.', 00H
	ORG $+1
$SG14768 DB	'KZOEOIAA', 00H
	ORG $+3
$SG14769 DB	'xx', 00H
	ORG $+1
$SG13747 DB	'Waited too long to write pessimistic lock semaphore', 00H
$SG14778 DB	'(oi) Warning ============================', 00H
	ORG $+2
$SG14779 DB	'(oi) Object definition = ', 00H
	ORG $+2
$SG14780 DB	'(oi) Entity name = ', 00H
$SG14781 DB	'(oi) EI Flags    = ', 00H
$SG14783 DB	'OE Warning', 00H
	ORG $+1
$SG14782 DB	'Return code indicates that Commit was successful but OI '
	DB	'still has instances marked as changed.', 00H
	ORG $+1
$SG14784 DB	'%s  %s   Object Definition: %s   EntityName: %s   EI Fla'
	DB	'gs 0x%08x', 00H
	ORG $+2
$SG14785 DB	'OE Warning', 00H
	ORG $+1
$SG14794 DB	'%lf seconds', 00H
$SG14795 DB	'(oi) Total time for CommitMultipleOIs = ', 00H
	ORG $+3
$SG13790 DB	'ZPLOCKO', 00H
$SG13800 DB	'#Global Entity Lock', 00H
$SG13801 DB	'#%s', 00H
$SG13802 DB	'ZeidonLock', 00H
	ORG $+1
$SG13805 DB	'Locking semaphore', 00H
	ORG $+2
$SG16927 DB	'ZPLOCKO', 00H
$SG16929 DB	'ZeidonLock', 00H
	ORG $+1
$SG16932 DB	'@%s', 00H
$SG16935 DB	'Y', 00H
	ORG $+2
$SG15911 DB	'mOITAG %lx', 00H
	ORG $+1
$SG16936 DB	'N', 00H
	ORG $+2
$SG15912 DB	'mOITAG      %lx', 00H
$SG15917 DB	'mOITAG %lx', 00H
	ORG $+1
$SG15918 DB	'mOITAG      %lx', 00H
$SG15926 DB	'mOIFLAGS %lx', 00H
	ORG $+3
$SG15927 DB	'mOIFLAGS    %lx', 00H
$SG15938 DB	'%x %x', 00H
	ORG $+2
$SG15946 DB	'mETAG %lx', 00H
	ORG $+2
$SG15947 DB	'mETAG      %lx', 00H
	ORG $+1
$SG15952 DB	'mETAG %lx', 00H
	ORG $+2
$SG15953 DB	'mETAG      %lx', 00H
	ORG $+1
$SG15958 DB	'mEKEY %lx', 00H
	ORG $+2
$SG15959 DB	'mEKEY      %lx', 00H
	ORG $+1
$SG18015 DB	'.bubblesort ', 00H
	ORG $+3
$SG14946 DB	'----------------- Warning ----------------', 00H
	ORG $+1
$SG14947 DB	'create', 00H
	ORG $+1
$SG14948 DB	'delete', 00H
	ORG $+1
$SG14949 DB	'created', 00H
$SG14950 DB	'deleted', 00H
$SG14951 DB	'Warning: Trying to commit an entity that has been %s but'
	DB	' does not have %s authority in the current cluster.  OD.Entit'
	DB	'yName = %s.%s', 00H
	ORG $+1
$SG14955 DB	'Number of views in the cluster: ', 00H
	ORG $+3
$SG14957 DB	'(null) View not flagged as changed', 00H
	ORG $+1
$SG14958 DB	'   View ID = ', 00H
	ORG $+2
$SG14959 DB	'   View ID = %lx, Object name = %s', 00H
	ORG $+1
$SG15985 DB	',%lx', 00H
	ORG $+3
$SG14961 DB	'%s.%s', 00H
	ORG $+2
$SG15988 DB	'a%lx%s ', 00H
$SG14964 DB	'OD.Entity with Create flag = ', 00H
	ORG $+2
$SG15989 DB	'%s%s', 00H
	ORG $+3
$SG14965 DB	'OD.Entity with Delete flag = ', 00H
	ORG $+2
$SG15990 DB	'a%-9s ', 00H
	ORG $+1
$SG14966 DB	'OI ID = ', 00H
	ORG $+3
$SG14968 DB	'%s.%s', 00H
	ORG $+2
$SG14969 DB	'OD.Entity with create authority = ', 00H
	ORG $+1
$SG14970 DB	'OI ID = ', 00H
	ORG $+3
$SG14973 DB	'create', 00H
	ORG $+1
$SG14974 DB	'delete', 00H
	ORG $+1
$SG14975 DB	'created', 00H
$SG14976 DB	'deleted', 00H
$SG14979 DB	'-------------------', 00H
$SG14977 DB	'Warning: Trying to commit an entity that has been %s but'
	DB	' does not have %s authority in the current cluster.  OD.Entit'
	DB	'yName = %s.%s. See trace for more information.', 00H
$SG18061 DB	'Maximum # of order attributes used', 00H
	ORG $+1
$SG18062 DB	'KZOEE013 - Internal operation call error: ', 00H
	ORG $+1
$SG18063 DB	'fnOrderOI_ByDefaultAttribs', 00H
	ORG $+1
$SG18064 DB	'Maximum # of order attributes used', 00H
	ORG $+1
$SG16034 DB	'a %x', 00H
	ORG $+3
$SG16058 DB	'i%lx %lx', 00H
	ORG $+3
$SG16053 DB	'(oi) Error (OD: %s) - Src View Entity: %s Token: %d  Vie'
	DB	'w Entity: %s Token = %d', 00H
$SG16055 DB	'Error writing OI: ER Tokens don''t match for linked enti'
	DB	'ties!', 00H
	ORG $+3
$SG14015 DB	'More than one zLEVEL_ option requested', 00H
	ORG $+1
$SG16064 DB	'c%x 0', 00H
	ORG $+2
$SG14022 DB	'with zLEVEL_SAME', 00H
	ORG $+3
$SG14023 DB	'lpAppQualView', 00H
	ORG $+2
$SG16072 DB	'c%x 0', 00H
	ORG $+2
$SG16074 DB	'c%x %lx', 00H
$SG14031 DB	'Expecting valid OI for zACTIVATE_CONTINUE', 00H
	ORG $+2
$SG14035 DB	'Root entity has no default sequencing attributes', 00H
	ORG $+3
$SG18134 DB	'Out of space for entities', 00H
	ORG $+2
$SG14038 DB	'kzdbhqua', 00H
	ORG $+3
$SG18135 DB	'KZOEE013 - Internal operation call error: ', 00H
	ORG $+1
$SG18136 DB	'fnOrderOI_ByDefaultAttribs', 00H
	ORG $+1
$SG18137 DB	'Maximum # of order entities used', 00H
	ORG $+3
$SG14041 DB	'(', 00H
	ORG $+2
$SG14042 DB	')', 00H
	ORG $+2
$SG14043 DB	'AND', 00H
$SG14044 DB	'(', 00H
	ORG $+2
$SG14045 DB	')', 00H
	ORG $+2
$SG14049 DB	'OR', 00H
	ORG $+1
$SG14050 DB	'(', 00H
	ORG $+2
$SG14053 DB	'AND', 00H
$SG14054 DB	'AttributeName', 00H
	ORG $+2
$SG14059 DB	'<', 00H
	ORG $+2
$SG14060 DB	'>', 00H
	ORG $+2
$SG14061 DB	'=', 00H
	ORG $+2
$SG14062 DB	'Value', 00H
	ORG $+2
$SG14064 DB	')', 00H
	ORG $+2
$SG14072 DB	'ZPLOCKO', 00H
$SG15097 DB	'No GenKey handler set for LOD: %s', 00H
	ORG $+2
$SG14074 DB	'KZDBHQUA', 00H
	ORG $+3
$SG15099 DB	'OIs have different GenKey handlers', 00H
	ORG $+1
$SG14080 DB	'__Load-in-progress', 00H
	ORG $+1
$SG16137 DB	'        ', 00H
	ORG $+3
$SG14089 DB	'(oi) -------------------------------', 00H
	ORG $+3
$SG14091 DB	'(oi) Database unavailable--try again', 00H
	ORG $+3
$SG18189 DB	'Sequencing error > 40', 00H
	ORG $+2
$SG14093 DB	'(oi) -------------------------------', 00H
	ORG $+3
$SG18190 DB	'KZOEE013 - Internal operation call error: ', 00H
	ORG $+1
$SG18191 DB	'fnOrderEntitiesByDefaultAttribs', 00H
$SG15119 DB	'KZGKHWOB', 00H
	ORG $+3
$SG18192 DB	'Maximum # of order attributes used', 00H
	ORG $+1
$SG15120 DB	'KZGKHWOB', 00H
	ORG $+3
$SG14096 DB	'(oi) Database Deadlock - Object=', 00H
	ORG $+3
$SG16145 DB	'mCONTROL %lx', 00H
	ORG $+3
$SG15121 DB	'_KZGKHWOB', 00H
	ORG $+2
$SG14097 DB	' Activate Retry Count=', 00H
	ORG $+1
$SG14100 DB	'(oi) Deadlock Crash - Retry Count exceeded', 00H
	ORG $+1
$SG16149 DB	'ZEND', 00H
	ORG $+3
$SG15125 DB	'EntityID', 00H
	ORG $+3
$SG15126 DB	'Genkey', 00H
	ORG $+1
$SG14103 DB	'__Load-in-progress', 00H
	ORG $+1
$SG16152 DB	'ZEND', 00H
	ORG $+3
$SG15129 DB	'EntityCount', 00H
$SG14105 DB	'(oi) Database Memory Limit Reached (Task: 0x%08x) - Obje'
	DB	'ct: %s', 00H
	ORG $+1
$SG15130 DB	'Genkey', 00H
	ORG $+1
$SG15131 DB	'Genkey', 00H
	ORG $+1
$SG16156 DB	'(%s) = %lf seconds', 00H
	ORG $+1
$SG15132 DB	'EntityID', 00H
	ORG $+3
$SG16157 DB	'(oi) Total time for SfWriteOI_ToStream ', 00H
$SG15133 DB	'Genkey', 00H
	ORG $+1
$SG15134 DB	'EntityCount', 00H
$SG15135 DB	'Genkey', 00H
	ORG $+1
$SG15136 DB	'TableName', 00H
	ORG $+2
$SG15137 DB	'Genkey', 00H
	ORG $+1
$SG14113 DB	'QualAttrib', 00H
	ORG $+1
$SG15138 DB	'EntityName', 00H
	ORG $+1
$SG14114 DB	'SubQualAttrib', 00H
	ORG $+2
$SG15139 DB	'Genkey', 00H
	ORG $+1
$SG15140 DB	'EntityCount', 00H
$SG14116 DB	'__Load-in-progress', 00H
	ORG $+1
$SG15141 DB	'Genkey', 00H
	ORG $+1
$SG14119 DB	'Network cannot be started.', 00H
	ORG $+1
$SG14120 DB	'KZOEOIAA', 00H
	ORG $+3
$SG18217 DB	'Ordering attributes -- resetting entity cursor.', 00H
$SG14121 DB	'xx', 00H
	ORG $+1
$SG18222 DB	'Unset or Null Cursor', 00H
	ORG $+3
$SG18223 DB	'KZOEE013 - Internal operation call error: ', 00H
	ORG $+1
$SG15151 DB	'EntityID', 00H
	ORG $+3
$SG18224 DB	'OrderEntities', 00H
	ORG $+2
$SG15152 DB	'Genkey', 00H
	ORG $+1
$SG15155 DB	'Infinite loop trying to set FKs?', 00H
	ORG $+3
$SG18228 DB	'Ordering attributes -- Entity cursor is null!', 00H
	ORG $+2
$SG14140 DB	'%lf seconds for object %s ', 00H
	ORG $+1
$SG14141 DB	'(oi) Total time for ActivateObjectInstance = ', 00H
	ORG $+2
$SG17241 DB	'CONTROL', 00H
$SG17242 DB	'CONTROL', 00H
$SG17243 DB	'CONTROL', 00H
$SG17247 DB	'ETAG', 00H
	ORG $+3
$SG17248 DB	'ETAG', 00H
	ORG $+3
$SG17249 DB	'ETAG', 00H
	ORG $+3
$SG17251 DB	'EKEY', 00H
	ORG $+3
$SG17252 DB	'EKEY', 00H
	ORG $+3
$SG17253 DB	'EKEY', 00H
	ORG $+3
$SG17257 DB	'OITAG', 00H
	ORG $+2
$SG17258 DB	'OITAG', 00H
	ORG $+2
$SG17259 DB	'OITAG', 00H
	ORG $+2
$SG18285 DB	'Error occurs after: ', 00H
	ORG $+3
$SG17261 DB	'OIFLAGS', 00H
$SG18286 DB	'Error parsing command.  See trace for more.', 00H
$SG17262 DB	'OIFLAGS', 00H
$SG17263 DB	'OIFLAGS', 00H
$SG14217 DB	'More than one zLEVEL_ option requested', 00H
	ORG $+1
$SG17292 DB	'(WARNING) Couldn''t find entity ', 00H
$SG17293 DB	'(WARNING) in LOD ', 00H
	ORG $+2
$SG14222 DB	'with zLEVEL_SAME', 00H
	ORG $+3
$SG14223 DB	'lpAppQualView', 00H
	ORG $+2
$SG18326 DB	'KZDBHQUA', 00H
	ORG $+3
$SG14234 DB	'TZCMULWO.POR', 00H
	ORG $+3
$SG18331 DB	'ACTIVATE ', 00H
	ORG $+2
$SG14235 DB	'(oi) opening ', 00H
	ORG $+2
$SG18334 DB	'EntitySpec', 00H
	ORG $+1
$SG18335 DB	'EntityName', 00H
	ORG $+1
$SG18336 DB	'EntitySpec', 00H
	ORG $+1
$SG18340 DB	'WHERE ', 00H
	ORG $+1
$SG17346 DB	'.', 00H
	ORG $+2
$SG17361 DB	'Error from UUDECODE_NextLineToBuffer: ', 00H
	ORG $+1
$SG17364 DB	'UUDECODE length invalid: ', 00H
	ORG $+2
$SG16368 DB	'Trying to drop original OI but it''s not there!', 00H
	ORG $+1
$SG17396 DB	'(oi) Error (OD: %s) - Tgt View Entity: %s Token: %d  Vie'
	DB	'w Entity: %s Token = %d', 00H
$SG17398 DB	'ER Tokens don''t match for linked entities!', 00H
	ORG $+1
$SG17402 DB	'(oi) Failed entity linking', 00H
	ORG $+1
$SG17403 DB	'(oi) Link Src # = ', 00H
	ORG $+1
$SG17405 DB	'(oi) Source Entity = ', 00H
	ORG $+2
$SG17406 DB	'(oi) Link Tgt # = ', 00H
_DATA	ENDS
PUBLIC	_ActivateEmptyObjectInstance@16
PUBLIC	_ActivateObjectInstance@20
PUBLIC	_ActivateOI_FromFile@20
PUBLIC	_ActivateOI_FromOI@12
PUBLIC	_ActivateOI_FromOI_ForTask@16
PUBLIC	_CommitObjectInstance@4
PUBLIC	_CommitMultipleOIs@16
PUBLIC	_CreateViewCluster@8
PUBLIC	_DropViewCluster@4
PUBLIC	_AddToViewCluster@12
PUBLIC	_AppendViewCluster@8
PUBLIC	_AddViewToViewCluster@8
PUBLIC	_CommitMultipleObjectInstances@8
PUBLIC	_CommitOI_ToFile@12
PUBLIC	_GenerateQualFromEntityList@20
PUBLIC	_DropObjectInstance@4
PUBLIC	_ObjectInstanceUpdated@4
PUBLIC	_ObjectInstanceUpdatedFromFile@4
PUBLIC	_OrderEntityForView@12
PUBLIC	_OrderEntitiesByDefaultAttribs@8
PUBLIC	_OrderOI_ByDefaultAttribs@4
PUBLIC	_SfActivateSysOI_FromFile@20
PUBLIC	_SfActivateSysEmptyOI@16
PUBLIC	_SfWriteOI_ToStream@20
PUBLIC	_SfActivateOI_FromStream@24
PUBLIC	_fnActivateEmptyObjectInstance
PUBLIC	_fnActivateObjectInstance
PUBLIC	_fnDropObjectInstance
PUBLIC	_fnDropViewOI
PUBLIC	_fnDateTimeFormat
PUBLIC	_fnGetObjCnstrntOper
PUBLIC	_fnInvokeOCEOperation
PUBLIC	_fnCleanupInstance
PUBLIC	_fnGetDBHandlerOper@12
PUBLIC	_fnGetGKHandlerOper
PUBLIC	_fnDropViewCsr
PUBLIC	_fnOrderEntitiesByDefaultAttribs
PUBLIC	_fnOrderOI_ByDefaultAttribs
PUBLIC	___local_stdio_printf_options
PUBLIC	__vsnprintf_l
PUBLIC	__vsprintf_l
PUBLIC	_sprintf
PUBLIC	_UUENCODE_NextEncodedLine@16
PUBLIC	_UUDECODE_NextLineToBuffer@16
PUBLIC	_fnCommitObjectInstance@28
PUBLIC	_fnCompareEIAttrs@36
PUBLIC	_fnCreateConcatKey@16
PUBLIC	_fnResolveQualOI
PUBLIC	_fnSetLockingAttributes@36
PUBLIC	_fnCreatePessimisticSemaphore@20
PUBLIC	_fnDeletePessimisticSemaphore@20
PUBLIC	_fnRelinkObjectInstance@4
PUBLIC	_fnReadDataFromFileStream@20
PUBLIC	_fnReadDataFromBuffer@20
PUBLIC	_fnActivateOI_FromBuffer@24
PUBLIC	_fnSetForeignKeysForInstance@4
PUBLIC	_fnCheckCreateDeleteFlags@24
PUBLIC	_fnInitializeGenKeys@28
PUBLIC	_fnMarkDuplicateRelationship@8
PUBLIC	_fnCommitPreLoops
PUBLIC	_fnDeleteLocksOnTwins@24
PUBLIC	_fnRemoveLocksOnOIs@16
PUBLIC	_fnCommitSingleOI@16
PUBLIC	_fnPutDataToFile@20
PUBLIC	_fnWriteOI_ToTextStream
PUBLIC	_fnClearLinks@4
PUBLIC	_fnAddHangingEntity@8
PUBLIC	_fnCreateQualification@36
PUBLIC	_fnFindKeyDelim@16
PUBLIC	_fnCheckLocksOnTwins@24
PUBLIC	_fnCheckForRecursiveLoop@8
PUBLIC	_fnLoadChildEntities
PUBLIC	_fnSetLocksOnTwins@24
PUBLIC	_fnActivateOI_FromTextStream
PUBLIC	_fnCmprEntities
PUBLIC	_fnSortCmpr
PUBLIC	_Heapify
PUBLIC	_BuildHeap
PUBLIC	_fnHeapSort
PUBLIC	_fnQuickSort
PUBLIC	_fnBubbleSort
PUBLIC	_fnOrderEntityForView@16
PUBLIC	_fnGetSortAttrsFromEntity@16
PUBLIC	_fnQualError@8
PUBLIC	_CreateQualFromCommand
PUBLIC	__real@408f400000000000
PUBLIC	__xmm@41f00000000000000000000000000000
EXTRN	___report_rangecheckfailure:PROC
EXTRN	_memcmp:PROC
EXTRN	_memcpy:PROC
EXTRN	_memset:PROC
EXTRN	__imp__strchr:PROC
EXTRN	__imp__strstr:PROC
EXTRN	_strcat:PROC
EXTRN	_strcmp:PROC
EXTRN	_strcpy:PROC
EXTRN	__imp___stricmp:PROC
EXTRN	_strlen:PROC
EXTRN	__imp__strncmp:PROC
EXTRN	__imp___strnicmp:PROC
EXTRN	__imp__strncpy:PROC
EXTRN	__imp__free:PROC
EXTRN	__imp__malloc:PROC
EXTRN	__imp__atol:PROC
EXTRN	__imp__strtoul:PROC
EXTRN	__imp___ltoa:PROC
EXTRN	_TraceLineI@8:PROC
EXTRN	_TraceLineX@8:PROC
EXTRN	_DisplayEntityInstance@8:PROC
EXTRN	_DisplayEntityInstancePath@8:PROC
EXTRN	_TraceLineS@8:PROC
EXTRN	_TraceLine:PROC
EXTRN	_CreateViewFromViewForTask@12:PROC
EXTRN	_GetViewByName@16:PROC
EXTRN	_SetNameForView@16:PROC
EXTRN	_DropNameForView@16:PROC
EXTRN	_DropView@4:PROC
EXTRN	_CreateEntity@12:PROC
EXTRN	_DeleteEntity@12:PROC
EXTRN	_SetCursorNextEntity@12:PROC
EXTRN	_SetCursorPrevEntity@12:PROC
EXTRN	_SetCursorFirstEntity@12:PROC
EXTRN	_SetCursorFirstEntityByString@20:PROC
EXTRN	_SetCursorFirstEntityByInteger@20:PROC
EXTRN	_MiSetOI_ReleaseForView@8:PROC
EXTRN	_MiCompareOI_ToRelease@8:PROC
EXTRN	_GetStringFromAttribute@16:PROC
EXTRN	_SetAttributeFromString@16:PROC
EXTRN	_GetIntegerFromAttribute@16:PROC
EXTRN	_SetAttributeFromInteger@16:PROC
EXTRN	_AddToAttributeFromInteger@16:PROC
EXTRN	_SetAttributeFromAttribute@24:PROC
EXTRN	_UfFormatDateTime@12:PROC
EXTRN	_MessageSend@24:PROC
EXTRN	_NetStartup@12:PROC
EXTRN	_NetActivateOI@28:PROC
EXTRN	_NetCommitOI@28:PROC
EXTRN	_NetStatus@8:PROC
EXTRN	_SysAssignDecimalFromNull@4:PROC
EXTRN	_SysCompareDecimalToDecimal@8:PROC
EXTRN	_MiGetViewEntityForView@8:PROC
EXTRN	_SysAllocMemory@20:PROC
EXTRN	_SysAppendcDirSep@4:PROC
EXTRN	_fnSysCloseFile@12:PROC
EXTRN	_SysCloseFileWithControl@16:PROC
EXTRN	_SysConvertEnvironmentString@8:PROC
EXTRN	_SysDiagnosticMessage@16:PROC
EXTRN	_SysFree@4:PROC
EXTRN	_SysFreeMemory@4:PROC
EXTRN	_SysGetDateTime@4:PROC
EXTRN	_SysGetProc@8:PROC
EXTRN	_SysGetProcessID@4:PROC
EXTRN	_SysGetTickCount@0:PROC
EXTRN	_SysGetUserID@12:PROC
EXTRN	_SysLoadLibrary@8:PROC
EXTRN	_SysMalloc@4:PROC
EXTRN	_fnSysMessageBox@16:PROC
EXTRN	_SysMessageBox@16:PROC
EXTRN	_SysOpenFile@12:PROC
EXTRN	_SysParseLine@12:PROC
EXTRN	_SysReadLine@12:PROC
EXTRN	_SysReadLineLth@16:PROC
EXTRN	_SysTranslateString@8:PROC
EXTRN	_SysWait@4:PROC
EXTRN	_SysWriteLine@12:PROC
EXTRN	_SysWriteLineLth@20:PROC
EXTRN	_GetAddrForAttribute@16:PROC
EXTRN	_StoreValueInRecord@20:PROC
EXTRN	_GetValueFromRecord@24:PROC
EXTRN	_GetStringFromRecord@20:PROC
EXTRN	_ConvertDecimalToString@52:PROC
EXTRN	_ActivateViewObject@12:PROC
EXTRN	_UfDateTimeToString@12:PROC
EXTRN	_UfStringToDateTime@8:PROC
EXTRN	_fnSysLockCoreMutex@4:PROC
EXTRN	_fnSysUnlockCoreMutex@4:PROC
EXTRN	_fnGetAttribFlagsPtr@8:PROC
EXTRN	_fnSetAttributeFromString:PROC
EXTRN	_fnSetAttributeFromInteger:PROC
EXTRN	_fnGetAttrAddrFromEntityInstance:PROC
EXTRN	_fnStoreValueInEntityInstance:PROC
EXTRN	_fnGetStringFromAttribute:PROC
EXTRN	_fnGetIntegerFromAttribute:PROC
EXTRN	_fnSetAttributeFromBlob:PROC
EXTRN	_fnGetAddrForAttribute:PROC
EXTRN	_fnGetAttributeLength:PROC
EXTRN	_fnCreateAttributeRecord:PROC
EXTRN	_fnCopyAttributeRecord:PROC
EXTRN	_fnDeleteAttributeRecord:PROC
EXTRN	_fnSetAttributeFromVariable:PROC
EXTRN	_fnGetVariableFromAttribute:PROC
EXTRN	_fnCompareDateTimeToDateTime:PROC
EXTRN	_fnAttributeValueNull:PROC
EXTRN	_fnGetAttribOper:PROC
EXTRN	_fnSetUpdateIndicator:PROC
EXTRN	_fnSetEntityCursor:PROC
EXTRN	_fnValidateCursorParameters:PROC
EXTRN	_fnResetCursorForViewChildren:PROC
EXTRN	_fnEstablishCursorForView:PROC
EXTRN	_fnAllocDataspace:PROC
EXTRN	_fnFreeDataspace:PROC
EXTRN	_fnEntityInstanceIsDead@4:PROC
EXTRN	_fnSetEntityKey@12:PROC
EXTRN	_fnCreateEntity@20:PROC
EXTRN	_fnEstablishViewForInstance:PROC
EXTRN	_fnIncludeSubobjectFromSubobject:PROC
EXTRN	_fnReclaimHiddenInstances@4:PROC
EXTRN	_fnInstanceLinkedToInstance:PROC
EXTRN	_fnInstanceKeysMatch:PROC
EXTRN	_fnRelinkInstanceToInstance:PROC
EXTRN	_fnIssueCoreError:PROC
EXTRN	_fnGetApplicationForSubtask@8:PROC
EXTRN	_fnDisplayEntityInstance:PROC
EXTRN	_fnCompareOI_ToOI:PROC
EXTRN	_fnOperationCall:PROC
EXTRN	_fnOperationReturn:PROC
EXTRN	_fnValidView:PROC
EXTRN	_fnValidViewObject:PROC
EXTRN	_fnValidViewCsr:PROC
EXTRN	_fnValidViewEntity@16:PROC
EXTRN	_fnValidViewAttrib:PROC
EXTRN	_fnAddEntityToDebugChange@4:PROC
EXTRN	_fnRemoveEntityFromDebugChange@4:PROC
EXTRN	_fnDeclareView@20:PROC
EXTRN	_fnSetViewFromView:PROC
EXTRN	_fnDropView@4:PROC
EXTRN	_fnSetViewToSubobject:PROC
EXTRN	_fnResetView:PROC
EXTRN	_fnResetViewFromSubobject:PROC
EXTRN	__imp____stdio_common_vsprintf:PROC
EXTRN	__imp__isspace:PROC
EXTRN	__imp__toupper:PROC
EXTRN	_fnCreateEntityCsrHandle@12:PROC
EXTRN	_fnFindLastEntityUnderParent@8:PROC
EXTRN	@__security_check_cookie@4:PROC
EXTRN	__chkstk:PROC
EXTRN	_memset:PROC
EXTRN	_g_pfnGetPtr:DWORD
EXTRN	_g_pfnGetHndl:DWORD
EXTRN	_AnchorBlock:DWORD
EXTRN	_szlReleaseCompatible:DWORD
EXTRN	_szlReleaseCurrent:DWORD
EXTRN	_cDirSep:BYTE
EXTRN	_lNullInteger:DWORD
EXTRN	_stNullDateTime:FWORD
EXTRN	_szlNewPortableHeader:DWORD
EXTRN	_szlmZeidon:DWORD
EXTRN	_szlEntityName:DWORD
EXTRN	_szlEntitySpec:DWORD
EXTRN	_szlOper:DWORD
EXTRN	_szlQualAttrib:DWORD
EXTRN	_szlOE_SystemError:DWORD
EXTRN	___security_cookie:DWORD
EXTRN	__fltused:DWORD
_DATA	SEGMENT
COMM	?_OptionsStorage@?1??__local_stdio_printf_options@@9@9:QWORD							; `__local_stdio_printf_options'::`2'::_OptionsStorage
_DATA	ENDS
;	COMDAT __xmm@41f00000000000000000000000000000
CONST	SEGMENT
__xmm@41f00000000000000000000000000000 DB 00H, 00H, 00H, 00H, 00H, 00H, 00H
	DB	00H, 00H, 00H, 00H, 00H, 00H, 00H, 0f0H, 'A'
CONST	ENDS
;	COMDAT __real@408f400000000000
CONST	SEGMENT
__real@408f400000000000 DQ 0408f400000000000r	; 1000
CONST	ENDS
; Function compile flags: /Odtp
; File c:\10c\a\oe\kzoeoiaa.c
_TEXT	SEGMENT
_vaList$ = -76						; size = 4
_lpViewEntity$1 = -72					; size = 4
_lpViewOD$ = -68					; size = 4
tv87 = -64						; size = 4
_vQual$ = -60						; size = 4
_nRC$ = -56						; size = 2
_nExpecting$ = -52					; size = 2
_k$2 = -48						; size = 2
_pch$ = -44						; size = 4
_szActivateView$ = -40					; size = 33
__$ArrayPad$ = -4					; size = 4
_pvReturnView$ = 8					; size = 4
_pchOD_Name$ = 12					; size = 4
_vSubtask$ = 16						; size = 4
_pchCommand$ = 20					; size = 4
_lControl$ = 24						; size = 4
_CreateQualFromCommand PROC

; 14106: {

	push	ebp
	mov	ebp, esp
	sub	esp, 76					; 0000004cH
	mov	eax, DWORD PTR ___security_cookie
	xor	eax, ebp
	mov	DWORD PTR __$ArrayPad$[ebp], eax

; 14107:    va_list     vaList;
; 14108:    LPVIEWOD    lpViewOD;
; 14109:    zVIEW       vQual = 0;

	mov	DWORD PTR _vQual$[ebp], 0

; 14110:    zPCHAR      pch;
; 14111:    zCHAR       szActivateView[ zZEIDON_NAME_LTH + 1 ];
; 14112:    zSHORT      nExpecting = ACTIVATE;

	mov	eax, 1
	mov	WORD PTR _nExpecting$[ebp], ax

; 14113:    zSHORT      nRC = zCALL_ERROR;  // We'll assume an error.

	mov	ecx, -16				; fffffff0H
	mov	WORD PTR _nRC$[ebp], cx

; 14114: 
; 14115:    va_start( vaList, lControl );

	lea	edx, DWORD PTR _lControl$[ebp+4]
	mov	DWORD PTR _vaList$[ebp], edx

; 14116: 
; 14117:    lpViewOD = ActivateViewObject( vSubtask, pchOD_Name, FALSE );

	push	0
	mov	eax, DWORD PTR _pchOD_Name$[ebp]
	push	eax
	mov	ecx, DWORD PTR _vSubtask$[ebp]
	push	ecx
	call	_ActivateViewObject@12
	mov	DWORD PTR _lpViewOD$[ebp], eax

; 14118:    if ( lpViewOD == 0 )

	cmp	DWORD PTR _lpViewOD$[ebp], 0
	jne	SHORT $LN9@CreateQual

; 14119:       goto EndOfFunction;

	jmp	$EndOfFunction$25
$LN9@CreateQual:

; 14120: 
; 14121:    // Create an empty qualification.
; 14122:    if ( SfActivateSysEmptyOI( &vQual, "KZDBHQUA", vSubtask, zMULTIPLE ) != 0 )

	push	256					; 00000100H
	mov	edx, DWORD PTR _vSubtask$[ebp]
	push	edx
	push	OFFSET $SG18326
	lea	eax, DWORD PTR _vQual$[ebp]
	push	eax
	call	_SfActivateSysEmptyOI@16
	movsx	ecx, ax
	test	ecx, ecx
	je	SHORT $LN10@CreateQual

; 14123:       goto EndOfFunction;

	jmp	$EndOfFunction$25
$LN10@CreateQual:

; 14124: 
; 14125:    pch = pchCommand;

	mov	edx, DWORD PTR _pchCommand$[ebp]
	mov	DWORD PTR _pch$[ebp], edx
$LN2@CreateQual:

; 14126:    while ( *pch )

	mov	eax, DWORD PTR _pch$[ebp]
	movsx	ecx, BYTE PTR [eax]
	test	ecx, ecx
	je	$LN3@CreateQual

; 14127:    {
; 14128:       // skip blanks.
; 14129:       if ( zisspace( *pch ) )

	mov	edx, DWORD PTR _pch$[ebp]
	movsx	eax, BYTE PTR [edx]
	push	eax
	call	DWORD PTR __imp__isspace
	add	esp, 4
	test	eax, eax
	je	SHORT $LN11@CreateQual

; 14130:       {
; 14131:          pch++;

	mov	ecx, DWORD PTR _pch$[ebp]
	add	ecx, 1
	mov	DWORD PTR _pch$[ebp], ecx

; 14132:          continue;

	jmp	SHORT $LN2@CreateQual
$LN11@CreateQual:

; 14133:       }
; 14134: 
; 14135:       switch ( ztoupper( *pch ) )

	mov	edx, DWORD PTR _pch$[ebp]
	movsx	eax, BYTE PTR [edx]
	push	eax
	call	DWORD PTR __imp__toupper
	add	esp, 4
	mov	DWORD PTR tv87[ebp], eax
	cmp	DWORD PTR tv87[ebp], 65			; 00000041H
	je	SHORT $LN12@CreateQual
	cmp	DWORD PTR tv87[ebp], 87			; 00000057H
	je	$LN17@CreateQual
	jmp	$LN4@CreateQual
$LN12@CreateQual:

; 14136:       {
; 14137:          case 'A':
; 14138:             if ( zstrncmpi( pch, "ACTIVATE ", 9 ) == 0 )

	push	9
	push	OFFSET $SG18331
	mov	ecx, DWORD PTR _pch$[ebp]
	push	ecx
	call	DWORD PTR __imp___strnicmp
	add	esp, 12					; 0000000cH
	test	eax, eax
	jne	$LN13@CreateQual

; 14139:             {
; 14140:                zSHORT       k;
; 14141:                LPVIEWENTITY lpViewEntity;
; 14142: 
; 14143:                if ( nExpecting != ACTIVATE )

	movsx	edx, WORD PTR _nExpecting$[ebp]
	cmp	edx, 1
	je	SHORT $LN15@CreateQual

; 14144:                {
; 14145:                   fnQualError( pch, 0 );

	push	0
	mov	eax, DWORD PTR _pch$[ebp]
	push	eax
	call	_fnQualError@8

; 14146:                   goto EndOfFunction;

	jmp	$EndOfFunction$25
$LN15@CreateQual:

; 14147:                }
; 14148: 
; 14149:                // Skip over activate text.
; 14150:                pch += 9;

	mov	ecx, DWORD PTR _pch$[ebp]
	add	ecx, 9
	mov	DWORD PTR _pch$[ebp], ecx

; 14151: 
; 14152:                // Get activate view name.
; 14153:                for ( k = 0; !zisspace( *pch ) && *pch != 0 ; pch++, k++ )

	xor	edx, edx
	mov	WORD PTR _k$2[ebp], dx
	jmp	SHORT $LN8@CreateQual
$LN6@CreateQual:
	mov	eax, DWORD PTR _pch$[ebp]
	add	eax, 1
	mov	DWORD PTR _pch$[ebp], eax
	mov	cx, WORD PTR _k$2[ebp]
	add	cx, 1
	mov	WORD PTR _k$2[ebp], cx
$LN8@CreateQual:
	mov	edx, DWORD PTR _pch$[ebp]
	movsx	eax, BYTE PTR [edx]
	push	eax
	call	DWORD PTR __imp__isspace
	add	esp, 4
	test	eax, eax
	jne	SHORT $LN7@CreateQual
	mov	ecx, DWORD PTR _pch$[ebp]
	movsx	edx, BYTE PTR [ecx]
	test	edx, edx
	je	SHORT $LN7@CreateQual

; 14154:                {
; 14155:                   if ( k > zZEIDON_NAME_LTH )

	movsx	eax, WORD PTR _k$2[ebp]
	cmp	eax, 32					; 00000020H
	jle	SHORT $LN16@CreateQual

; 14156:                   {
; 14157:                      fnQualError( pch, 0 );

	push	0
	mov	ecx, DWORD PTR _pch$[ebp]
	push	ecx
	call	_fnQualError@8

; 14158:                      goto EndOfFunction;

	jmp	$EndOfFunction$25
$LN16@CreateQual:

; 14159:                   }
; 14160: 
; 14161:                   szActivateView[ k ] = *pch;

	movsx	edx, WORD PTR _k$2[ebp]
	mov	eax, DWORD PTR _pch$[ebp]
	mov	cl, BYTE PTR [eax]
	mov	BYTE PTR _szActivateView$[ebp+edx], cl

; 14162:                }

	jmp	SHORT $LN6@CreateQual
$LN7@CreateQual:

; 14163: 
; 14164:                lpViewEntity = zGETPTR( lpViewOD->hFirstOD_Entity );

	mov	edx, DWORD PTR _lpViewOD$[ebp]
	mov	eax, DWORD PTR [edx+224]
	push	eax
	call	DWORD PTR _g_pfnGetPtr
	mov	DWORD PTR _lpViewEntity$1[ebp], eax

; 14165:                CreateEntity( vQual, "EntitySpec", zPOS_NEXT );

	push	3
	push	OFFSET $SG18334
	mov	ecx, DWORD PTR _vQual$[ebp]
	push	ecx
	call	_CreateEntity@12

; 14166:                SetAttributeFromString( vQual, "EntitySpec", "EntityName",

	mov	edx, DWORD PTR _lpViewEntity$1[ebp]
	add	edx, 14					; 0000000eH
	push	edx
	push	OFFSET $SG18335
	push	OFFSET $SG18336
	mov	eax, DWORD PTR _vQual$[ebp]
	push	eax
	call	_SetAttributeFromString@16

; 14167:                                        lpViewEntity->szName );
; 14168: 
; 14169:                nExpecting = WHERE;

	mov	ecx, 2
	mov	WORD PTR _nExpecting$[ebp], cx

; 14170:             }

	jmp	SHORT $LN14@CreateQual
$LN13@CreateQual:

; 14171:             else
; 14172:             {
; 14173:                fnQualError( pch, 0 );

	push	0
	mov	edx, DWORD PTR _pch$[ebp]
	push	edx
	call	_fnQualError@8

; 14174:                goto EndOfFunction;

	jmp	SHORT $EndOfFunction$25
$LN14@CreateQual:

; 14175:             }
; 14176: 
; 14177:             break;

	jmp	SHORT $LN4@CreateQual
$LN17@CreateQual:

; 14178: 
; 14179:          case 'W':
; 14180:             if ( zstrncmpi( pch, "WHERE ", 6 ) == 0 )

	push	6
	push	OFFSET $SG18340
	mov	eax, DWORD PTR _pch$[ebp]
	push	eax
	call	DWORD PTR __imp___strnicmp
	add	esp, 12					; 0000000cH
	test	eax, eax
	jne	SHORT $LN18@CreateQual

; 14181:             {
; 14182:                if ( nExpecting != WHERE )

	movsx	ecx, WORD PTR _nExpecting$[ebp]
	cmp	ecx, 2
	je	SHORT $LN20@CreateQual

; 14183:                {
; 14184:                   fnQualError( pch, 0 );

	push	0
	mov	edx, DWORD PTR _pch$[ebp]
	push	edx
	call	_fnQualError@8

; 14185:                   goto EndOfFunction;

	jmp	SHORT $EndOfFunction$25
$LN20@CreateQual:

; 14186:                }
; 14187: 
; 14188:                // Skip over where text.
; 14189:                pch += 6;

	mov	eax, DWORD PTR _pch$[ebp]
	add	eax, 6
	mov	DWORD PTR _pch$[ebp], eax

; 14190: 
; 14191:                nExpecting = QUAL;

	mov	ecx, 3
	mov	WORD PTR _nExpecting$[ebp], cx

; 14192:             }

	jmp	SHORT $LN4@CreateQual
$LN18@CreateQual:

; 14193:             else
; 14194:             {
; 14195:                fnQualError( pch, 0 );

	push	0
	mov	edx, DWORD PTR _pch$[ebp]
	push	edx
	call	_fnQualError@8

; 14196:                goto EndOfFunction;

	jmp	SHORT $EndOfFunction$25
$LN4@CreateQual:

; 14197:             }
; 14198: 
; 14199:             break;
; 14200: 
; 14201:       } // switch ( ztoupper( *pch ) )...
; 14202: 
; 14203:    } // while ( *pch )...

	jmp	$LN2@CreateQual
$LN3@CreateQual:

; 14204: 
; 14205:    // If we get here then everything's good.
; 14206:    nRC = 0;

	xor	eax, eax
	mov	WORD PTR _nRC$[ebp], ax
$EndOfFunction$25:

; 14207: 
; 14208: EndOfFunction:
; 14209:    va_end( vaList );

	mov	DWORD PTR _vaList$[ebp], 0

; 14210: 
; 14211:    // We need to clean up a little more if we have an error.
; 14212:    if ( nRC == zCALL_ERROR )

	movsx	ecx, WORD PTR _nRC$[ebp]
	cmp	ecx, -16				; fffffff0H
	jne	SHORT $LN21@CreateQual

; 14213:    {
; 14214:       if ( vQual )

	cmp	DWORD PTR _vQual$[ebp], 0
	je	SHORT $LN21@CreateQual

; 14215:          DropObjectInstance( vQual );

	mov	edx, DWORD PTR _vQual$[ebp]
	push	edx
	call	_DropObjectInstance@4
$LN21@CreateQual:

; 14216:    }
; 14217: 
; 14218:    return( nRC );

	mov	ax, WORD PTR _nRC$[ebp]

; 14219: }

	mov	ecx, DWORD PTR __$ArrayPad$[ebp]
	xor	ecx, ebp
	call	@__security_check_cookie@4
	mov	esp, ebp
	pop	ebp
	ret	0
_CreateQualFromCommand ENDP
_TEXT	ENDS
; Function compile flags: /Odtp
; File c:\10c\a\oe\kzoeoiaa.c
_TEXT	SEGMENT
_pchCommand$ = 8					; size = 4
_nErrorNbr$ = 12					; size = 2
_fnQualError@8 PROC

; 14075: {

	push	ebp
	mov	ebp, esp

; 14076:    TraceLineS( "Error occurs after: ", pchCommand );

	mov	eax, DWORD PTR _pchCommand$[ebp]
	push	eax
	push	OFFSET $SG18285
	call	_TraceLineS@8

; 14077:    SysMessageBox( 0, szlOE_SystemError,

	push	1
	push	OFFSET $SG18286
	mov	ecx, DWORD PTR _szlOE_SystemError
	push	ecx
	push	0
	call	_SysMessageBox@16

; 14078:                   "Error parsing command.  See trace for more.", 1 );
; 14079: }

	pop	ebp
	ret	8
_fnQualError@8 ENDP
_TEXT	ENDS
; Function compile flags: /Odtp
; File c:\10c\a\oe\kzoeoiaa.c
_TEXT	SEGMENT
_lpTask$1 = -12						; size = 4
_lpViewAttrib$ = -8					; size = 4
_nSeq$2 = -4						; size = 2
_lpView$ = 8						; size = 4
_plAttribCnt$ = 12					; size = 4
_lpAttribList$ = 16					; size = 4
_lpViewEntity$ = 20					; size = 4
_fnGetSortAttrsFromEntity@16 PROC

; 13476: {

	push	ebp
	mov	ebp, esp
	sub	esp, 12					; 0000000cH

; 13477:    LPVIEWATTRIB lpViewAttrib;
; 13478: 
; 13479:    // Loop through all the view attribs looking for default sorting attribs.
; 13480:    // When one is found, add it to the attrib list.
; 13481:    for ( lpViewAttrib = zGETPTR( lpViewEntity->hFirstOD_Attrib );

	mov	eax, DWORD PTR _lpViewEntity$[ebp]
	mov	ecx, DWORD PTR [eax+179]
	push	ecx
	call	DWORD PTR _g_pfnGetPtr
	mov	DWORD PTR _lpViewAttrib$[ebp], eax
	jmp	SHORT $LN4@fnGetSortA
$LN2@fnGetSortA:

; 13483:          lpViewAttrib = zGETPTR( lpViewAttrib->hNextOD_Attrib ) )

	mov	edx, DWORD PTR _lpViewAttrib$[ebp]
	mov	eax, DWORD PTR [edx+2]
	push	eax
	call	DWORD PTR _g_pfnGetPtr
	mov	DWORD PTR _lpViewAttrib$[ebp], eax
$LN4@fnGetSortA:

; 13482:          lpViewAttrib;

	cmp	DWORD PTR _lpViewAttrib$[ebp], 0
	je	$LN3@fnGetSortA

; 13484:    {
; 13485:       if ( lpViewAttrib->bAutoSeq )

	mov	ecx, DWORD PTR _lpViewAttrib$[ebp]
	mov	edx, DWORD PTR [ecx+193]
	shr	edx, 10					; 0000000aH
	and	edx, 1
	je	SHORT $LN5@fnGetSortA

; 13486:       {
; 13487:          *plAttribCnt = 1;

	mov	eax, DWORD PTR _plAttribCnt$[ebp]
	mov	DWORD PTR [eax], 1

; 13488:          lpAttribList[ 0 ].lpViewAttrib = lpViewAttrib;

	mov	ecx, 13					; 0000000dH
	imul	edx, ecx, 0
	mov	eax, DWORD PTR _lpAttribList$[ebp]
	mov	ecx, DWORD PTR _lpViewAttrib$[ebp]
	mov	DWORD PTR [eax+edx], ecx

; 13489:          lpAttribList[ 0 ].bOrder = FALSE;

	mov	edx, 13					; 0000000dH
	imul	eax, edx, 0
	mov	ecx, DWORD PTR _lpAttribList$[ebp]
	mov	BYTE PTR [ecx+eax+8], 0

; 13490: 
; 13491:          // Make sure next attrib is 0.
; 13492:          lpAttribList[ 1 ].lpViewAttrib = 0;

	mov	edx, 13					; 0000000dH
	shl	edx, 0
	mov	eax, DWORD PTR _lpAttribList$[ebp]
	mov	DWORD PTR [eax+edx], 0

; 13493: 
; 13494:          return( 1 ); // There is only 1 autoseq attr per entity, so return.

	mov	eax, 1
	jmp	$LN1@fnGetSortA

; 13495:       }

	jmp	$LN6@fnGetSortA
$LN5@fnGetSortA:

; 13496:       else
; 13497:       if ( lpViewAttrib->cSequencing > 0 )

	mov	ecx, DWORD PTR _lpViewAttrib$[ebp]
	movzx	edx, BYTE PTR [ecx+197]
	test	edx, edx
	jle	$LN6@fnGetSortA

; 13498:       {
; 13499:          zSHORT nSeq;
; 13500: 
; 13501:          nSeq = lpViewAttrib->cSequencing;

	mov	eax, DWORD PTR _lpViewAttrib$[ebp]
	movzx	cx, BYTE PTR [eax+197]
	mov	WORD PTR _nSeq$2[ebp], cx

; 13502:          if ( nSeq >= MAX_SEQ_ATTS )

	movsx	edx, WORD PTR _nSeq$2[ebp]
	cmp	edx, 20					; 00000014H
	jl	SHORT $LN8@fnGetSortA

; 13503:          {
; 13504:             LPTASK lpTask = zGETPTR( lpView->hTask );

	mov	eax, DWORD PTR _lpView$[ebp]
	mov	ecx, DWORD PTR [eax+14]
	push	ecx
	call	DWORD PTR _g_pfnGetPtr
	mov	DWORD PTR _lpTask$1[ebp], eax

; 13505:             // "KZOEE013 - Internal operation call error"
; 13506:             TraceLineS( "KZOEE013 - Internal operation call error: ",

	push	OFFSET $SG18061
	push	OFFSET $SG18062
	call	_TraceLineS@8

; 13507:                         "Maximum # of order attributes used" );
; 13508:             fnIssueCoreError( lpTask, lpView, 16, 13, 0,

	push	OFFSET $SG18063
	push	OFFSET $SG18064
	push	0
	push	13					; 0000000dH
	push	16					; 00000010H
	mov	edx, DWORD PTR _lpView$[ebp]
	push	edx
	mov	eax, DWORD PTR _lpTask$1[ebp]
	push	eax
	call	_fnIssueCoreError
	add	esp, 28					; 0000001cH

; 13509:                               "Maximum # of order attributes used",
; 13510:                               "fnOrderOI_ByDefaultAttribs" );
; 13511:             return( zCALL_ERROR );

	mov	eax, -16				; fffffff0H
	jmp	SHORT $LN1@fnGetSortA
$LN8@fnGetSortA:

; 13512:          }
; 13513: 
; 13514:          if ( *plAttribCnt < nSeq )

	movsx	ecx, WORD PTR _nSeq$2[ebp]
	mov	edx, DWORD PTR _plAttribCnt$[ebp]
	cmp	DWORD PTR [edx], ecx
	jge	SHORT $LN9@fnGetSortA

; 13515:             *plAttribCnt = nSeq;

	movsx	eax, WORD PTR _nSeq$2[ebp]
	mov	ecx, DWORD PTR _plAttribCnt$[ebp]
	mov	DWORD PTR [ecx], eax
$LN9@fnGetSortA:

; 13516: 
; 13517:          lpAttribList[ nSeq - 1 ].lpViewAttrib = lpViewAttrib;

	movsx	edx, WORD PTR _nSeq$2[ebp]
	sub	edx, 1
	imul	eax, edx, 13
	mov	ecx, DWORD PTR _lpAttribList$[ebp]
	mov	edx, DWORD PTR _lpViewAttrib$[ebp]
	mov	DWORD PTR [ecx+eax], edx

; 13518:          if ( lpViewAttrib->bSequencingD )

	mov	eax, DWORD PTR _lpViewAttrib$[ebp]
	mov	ecx, DWORD PTR [eax+193]
	shr	ecx, 11					; 0000000bH
	and	ecx, 1
	je	SHORT $LN6@fnGetSortA

; 13519:             lpAttribList[ nSeq - 1 ].bOrder = TRUE;

	movsx	edx, WORD PTR _nSeq$2[ebp]
	sub	edx, 1
	imul	eax, edx, 13
	mov	ecx, DWORD PTR _lpAttribList$[ebp]
	mov	BYTE PTR [ecx+eax+8], 1
$LN6@fnGetSortA:

; 13520:       }
; 13521:    } // for ( lpViewAttrib )...

	jmp	$LN2@fnGetSortA
$LN3@fnGetSortA:

; 13522: 
; 13523:    return( 0 );

	xor	eax, eax
$LN1@fnGetSortA:

; 13524: }

	mov	esp, ebp
	pop	ebp
	ret	16					; 00000010H
_fnGetSortAttrsFromEntity@16 ENDP
_TEXT	ENDS
; Function compile flags: /Odtp
; File c:\10c\a\oe\kzoeoiaa.c
_TEXT	SEGMENT
_SortData$ = -116					; size = 16
_lpViewEntityCsr$1 = -100				; size = 4
_lpNextHier$2 = -96					; size = 4
_lpPrevHier$3 = -92					; size = 4
_lpViewOI$4 = -88					; size = 4
_lpViewCsr$5 = -84					; size = 4
_lpViewEntity$6 = -80					; size = 4
_lpViewAttrib$7 = -76					; size = 4
_lpLastOldChild$ = -72					; size = 4
_lpCurrentTask$ = -68					; size = 4
_hViewEntity$8 = -64					; size = 4
_ulBack$ = -60						; size = 4
_hEIBuffer$ = -56					; size = 4
_lpLastEntityInstance$ = -52				; size = 4
_lpLastChild$ = -48					; size = 4
_ulFront$ = -44						; size = 4
_lpView$9 = -40						; size = 4
_lpSearch$10 = -36					; size = 4
_lpFirstEntityInstance$ = -32				; size = 4
_ulEntityCnt$ = -28					; size = 4
_lpViewAttrListPtr$ = -24				; size = 4
_k$ = -20						; size = 4
_lpEI1$ = -16						; size = 4
_lpEIBuffer$ = -12					; size = 4
_nRC$ = -8						; size = 2
_bDerivedAttribPresent$ = -1				; size = 1
_zView$ = 8						; size = 4
_lpEntityInstance$ = 12					; size = 4
_lpViewAttrList$ = 16					; size = 4
_bUseBubbleSort$ = 20					; size = 1
_fnOrderEntityForView@16 PROC

; 12931: {

	push	ebp
	mov	ebp, esp
	sub	esp, 116				; 00000074H

; 12932:    SortDataRecord    SortData;
; 12933:    LPVIEWATTRLIST    lpViewAttrListPtr;
; 12934:    LPENTITYINSTANCE  lpEI1;
; 12935:    LPENTITYINSTANCE  lpLastChild;
; 12936:    LPENTITYINSTANCE  lpLastOldChild;
; 12937:    LPENTITYINSTANCE  *lpEIBuffer;
; 12938:    LPENTITYINSTANCE  lpFirstEntityInstance;
; 12939:    LPENTITYINSTANCE  lpLastEntityInstance;
; 12940:    zULONG            ulEntityCnt;
; 12941:    zULONG            ulFront, ulBack, k;
; 12942:    zLONG             hEIBuffer;
; 12943:    zBOOL             bDerivedAttribPresent = FALSE;

	mov	BYTE PTR _bDerivedAttribPresent$[ebp], 0

; 12944:    zSHORT            nRC;
; 12945: 
; 12946:    // Only used with derived attributes ...
; 12947:    LPTASK            lpCurrentTask;
; 12948: 
; 12949:    // If instance is null, there is nothing to sort ...
; 12950:    if ( lpEntityInstance == 0 )

	cmp	DWORD PTR _lpEntityInstance$[ebp], 0
	jne	SHORT $LN26@fnOrderEnt

; 12951:       return( 0 );

	xor	eax, eax
	jmp	$LN1@fnOrderEnt
$LN26@fnOrderEnt:

; 12952: 
; 12953:    // Error if trying to sort "unset".
; 12954:    if ( lpEntityInstance == UNSET_CSR )

	cmp	DWORD PTR _lpEntityInstance$[ebp], 1
	jne	SHORT $LN27@fnOrderEnt

; 12955:       return( zCALL_ERROR );

	mov	eax, -16				; fffffff0H
	jmp	$LN1@fnOrderEnt
$LN27@fnOrderEnt:

; 12956: 
; 12957:    lpCurrentTask = zGETPTR( zView->hTask );

	mov	eax, DWORD PTR _zView$[ebp]
	mov	ecx, DWORD PTR [eax+14]
	push	ecx
	call	DWORD PTR _g_pfnGetPtr
	mov	DWORD PTR _lpCurrentTask$[ebp], eax

; 12958: // lpCurrentTask = fnFindTask( 0 );  // dks 2006.04.05  back to 10b
; 12959: 
; 12960:    // Scan through the view attributes for any derived attributes.
; 12961:    for ( lpViewAttrListPtr = lpViewAttrList;

	mov	edx, DWORD PTR _lpViewAttrList$[ebp]
	mov	DWORD PTR _lpViewAttrListPtr$[ebp], edx
	jmp	SHORT $LN4@fnOrderEnt
$LN2@fnOrderEnt:

; 12963:          lpViewAttrListPtr++ )

	mov	eax, DWORD PTR _lpViewAttrListPtr$[ebp]
	add	eax, 13					; 0000000dH
	mov	DWORD PTR _lpViewAttrListPtr$[ebp], eax
$LN4@fnOrderEnt:

; 12962:          lpViewAttrListPtr->lpViewAttrib;

	mov	ecx, DWORD PTR _lpViewAttrListPtr$[ebp]
	cmp	DWORD PTR [ecx], 0
	je	SHORT $LN3@fnOrderEnt

; 12964:    {
; 12965:       LPVIEWATTRIB lpViewAttrib = lpViewAttrListPtr->lpViewAttrib;

	mov	edx, DWORD PTR _lpViewAttrListPtr$[ebp]
	mov	eax, DWORD PTR [edx]
	mov	DWORD PTR _lpViewAttrib$7[ebp], eax

; 12966: 
; 12967:       if ( lpViewAttrib->szDerivedOper[ 0 ] )

	mov	ecx, 1
	imul	edx, ecx, 0
	mov	eax, DWORD PTR _lpViewAttrib$7[ebp]
	movsx	ecx, BYTE PTR [eax+edx+213]
	test	ecx, ecx
	je	SHORT $LN28@fnOrderEnt

; 12968:       {
; 12969:          bDerivedAttribPresent = TRUE;

	mov	BYTE PTR _bDerivedAttribPresent$[ebp], 1

; 12970:          lpViewAttrListPtr->pfObjectOper =

	mov	edx, DWORD PTR _lpCurrentTask$[ebp]
	push	edx
	mov	eax, DWORD PTR _lpViewAttrib$7[ebp]
	push	eax
	mov	ecx, DWORD PTR _zView$[ebp]
	push	ecx
	call	_fnGetAttribOper
	add	esp, 12					; 0000000cH
	mov	edx, DWORD PTR _lpViewAttrListPtr$[ebp]
	mov	DWORD PTR [edx+4], eax
$LN28@fnOrderEnt:

; 12971:                        fnGetAttribOper( zView, lpViewAttrib, lpCurrentTask );
; 12972:       }
; 12973:    }

	jmp	SHORT $LN2@fnOrderEnt
$LN3@fnOrderEnt:

; 12974: 
; 12975:    // Count the number of entities after lpEntityInstance.
; 12976:    ulEntityCnt = 1; // account for the current lpEntityInstance

	mov	DWORD PTR _ulEntityCnt$[ebp], 1

; 12977:    for ( lpLastEntityInstance = lpEntityInstance;

	mov	eax, DWORD PTR _lpEntityInstance$[ebp]
	mov	DWORD PTR _lpLastEntityInstance$[ebp], eax
	jmp	SHORT $LN7@fnOrderEnt
$LN5@fnOrderEnt:

; 12979:          lpLastEntityInstance = zGETPTR( lpLastEntityInstance->hNextTwin ) )

	mov	ecx, DWORD PTR _lpLastEntityInstance$[ebp]
	mov	edx, DWORD PTR [ecx+22]
	push	edx
	call	DWORD PTR _g_pfnGetPtr
	mov	DWORD PTR _lpLastEntityInstance$[ebp], eax
$LN7@fnOrderEnt:

; 12978:          lpLastEntityInstance->hNextTwin;

	mov	eax, DWORD PTR _lpLastEntityInstance$[ebp]
	cmp	DWORD PTR [eax+22], 0
	je	SHORT $LN6@fnOrderEnt

; 12980:    {
; 12981:       ulEntityCnt++;

	mov	ecx, DWORD PTR _ulEntityCnt$[ebp]
	add	ecx, 1
	mov	DWORD PTR _ulEntityCnt$[ebp], ecx

; 12982:    }

	jmp	SHORT $LN5@fnOrderEnt
$LN6@fnOrderEnt:

; 12983: 
; 12984:    // Add the number of entities prior to lpEntityInstance.
; 12985:    for ( lpFirstEntityInstance = lpEntityInstance;

	mov	edx, DWORD PTR _lpEntityInstance$[ebp]
	mov	DWORD PTR _lpFirstEntityInstance$[ebp], edx
	jmp	SHORT $LN10@fnOrderEnt
$LN8@fnOrderEnt:

; 12987:          lpFirstEntityInstance = zGETPTR( lpFirstEntityInstance->hPrevTwin ) )

	mov	eax, DWORD PTR _lpFirstEntityInstance$[ebp]
	mov	ecx, DWORD PTR [eax+26]
	push	ecx
	call	DWORD PTR _g_pfnGetPtr
	mov	DWORD PTR _lpFirstEntityInstance$[ebp], eax
$LN10@fnOrderEnt:

; 12986:          lpFirstEntityInstance->hPrevTwin;

	mov	edx, DWORD PTR _lpFirstEntityInstance$[ebp]
	cmp	DWORD PTR [edx+26], 0
	je	SHORT $LN9@fnOrderEnt

; 12988:    {
; 12989:       ulEntityCnt++;

	mov	eax, DWORD PTR _ulEntityCnt$[ebp]
	add	eax, 1
	mov	DWORD PTR _ulEntityCnt$[ebp], eax

; 12990:    }

	jmp	SHORT $LN8@fnOrderEnt
$LN9@fnOrderEnt:

; 12991: 
; 12992:    // If we only have 1 entity then there's nothing to sort.
; 12993:    if ( ulEntityCnt == 1 )

	cmp	DWORD PTR _ulEntityCnt$[ebp], 1
	jne	SHORT $LN29@fnOrderEnt

; 12994:       return( 0 );

	xor	eax, eax
	jmp	$LN1@fnOrderEnt
$LN29@fnOrderEnt:

; 12995: 
; 12996:    // Now allocate space to hold all the entity instances.
; 12997:    hEIBuffer = SysAllocMemory( (zCOREMEM) &lpEIBuffer,

	push	0
	push	32768					; 00008000H
	push	0
	mov	ecx, DWORD PTR _ulEntityCnt$[ebp]
	shl	ecx, 2
	push	ecx
	lea	edx, DWORD PTR _lpEIBuffer$[ebp]
	push	edx
	call	_SysAllocMemory@20
	mov	DWORD PTR _hEIBuffer$[ebp], eax

; 12998:                                sizeof( LPENTITYINSTANCE ) * ulEntityCnt,
; 12999:                                0, zCOREMEM_ALLOC, 0 );
; 13000: 
; 13001:    // Copy the list of entity pointers into the buffer.  We'll put all the
; 13002:    // hidden instances at the end because we don't need/want to sort them.
; 13003:    ulFront = 0;

	mov	DWORD PTR _ulFront$[ebp], 0

; 13004:    ulBack  = ulEntityCnt - 1;

	mov	eax, DWORD PTR _ulEntityCnt$[ebp]
	sub	eax, 1
	mov	DWORD PTR _ulBack$[ebp], eax

; 13005:    for ( lpEI1 = lpFirstEntityInstance;

	mov	ecx, DWORD PTR _lpFirstEntityInstance$[ebp]
	mov	DWORD PTR _lpEI1$[ebp], ecx
	jmp	SHORT $LN13@fnOrderEnt
$LN11@fnOrderEnt:

; 13007:          lpEI1 = zGETPTR( lpEI1->hNextTwin ) )

	mov	edx, DWORD PTR _lpEI1$[ebp]
	mov	eax, DWORD PTR [edx+22]
	push	eax
	call	DWORD PTR _g_pfnGetPtr
	mov	DWORD PTR _lpEI1$[ebp], eax
$LN13@fnOrderEnt:

; 13006:          lpEI1;

	cmp	DWORD PTR _lpEI1$[ebp], 0
	je	SHORT $LN12@fnOrderEnt

; 13008:    {
; 13009:       if ( lpEI1->u.nInd.bHidden )

	mov	ecx, DWORD PTR _lpEI1$[ebp]
	mov	edx, DWORD PTR [ecx+6]
	shr	edx, 10					; 0000000aH
	and	edx, 1
	je	SHORT $LN30@fnOrderEnt

; 13010:          lpEIBuffer[ ulBack-- ] = lpEI1;  // put hidden EI at the end

	mov	eax, DWORD PTR _ulBack$[ebp]
	mov	ecx, DWORD PTR _lpEIBuffer$[ebp]
	mov	edx, DWORD PTR _lpEI1$[ebp]
	mov	DWORD PTR [ecx+eax*4], edx
	mov	eax, DWORD PTR _ulBack$[ebp]
	sub	eax, 1
	mov	DWORD PTR _ulBack$[ebp], eax
	jmp	SHORT $LN31@fnOrderEnt
$LN30@fnOrderEnt:

; 13011:       else
; 13012:          lpEIBuffer[ ulFront++ ] = lpEI1;

	mov	ecx, DWORD PTR _ulFront$[ebp]
	mov	edx, DWORD PTR _lpEIBuffer$[ebp]
	mov	eax, DWORD PTR _lpEI1$[ebp]
	mov	DWORD PTR [edx+ecx*4], eax
	mov	ecx, DWORD PTR _ulFront$[ebp]
	add	ecx, 1
	mov	DWORD PTR _ulFront$[ebp], ecx
$LN31@fnOrderEnt:

; 13013:    }

	jmp	SHORT $LN11@fnOrderEnt
$LN12@fnOrderEnt:

; 13014: 
; 13015:    // ulFront is a count of all the non-hidden EIs.  If there's only one EI
; 13016:    // then don't bother sorting.
; 13017:    if ( ulFront <= 1 )

	cmp	DWORD PTR _ulFront$[ebp], 1
	ja	SHORT $LN32@fnOrderEnt

; 13018:    {
; 13019:       SysFreeMemory( hEIBuffer );

	mov	edx, DWORD PTR _hEIBuffer$[ebp]
	push	edx
	call	_SysFreeMemory@4

; 13020:       return( 0 );

	xor	eax, eax
	jmp	$LN1@fnOrderEnt
$LN32@fnOrderEnt:

; 13021:    }
; 13022: 
; 13023:    // If any derived attributes in the order keys, go set them for all of
; 13024:    // the entities now.
; 13025:    if ( bDerivedAttribPresent )

	movzx	eax, BYTE PTR _bDerivedAttribPresent$[ebp]
	test	eax, eax
	je	$LN33@fnOrderEnt

; 13026:    {
; 13027:       zVIEW lpView;
; 13028: 
; 13029:       if ( (nRC = fnDeclareView( &lpView, lpCurrentTask, zView, 0, 0 )) != 0 )

	push	0
	push	0
	mov	ecx, DWORD PTR _zView$[ebp]
	push	ecx
	mov	edx, DWORD PTR _lpCurrentTask$[ebp]
	push	edx
	lea	eax, DWORD PTR _lpView$9[ebp]
	push	eax
	call	_fnDeclareView@20
	mov	WORD PTR _nRC$[ebp], ax
	movsx	ecx, WORD PTR _nRC$[ebp]
	test	ecx, ecx
	je	SHORT $LN34@fnOrderEnt

; 13030:       {
; 13031:          SysFreeMemory( hEIBuffer );

	mov	edx, DWORD PTR _hEIBuffer$[ebp]
	push	edx
	call	_SysFreeMemory@4

; 13032:          return( nRC );

	mov	ax, WORD PTR _nRC$[ebp]
	jmp	$LN1@fnOrderEnt
$LN34@fnOrderEnt:

; 13033:       }
; 13034: 
; 13035:       fnSetViewFromView( lpView, zView );

	mov	eax, DWORD PTR _zView$[ebp]
	push	eax
	mov	ecx, DWORD PTR _lpView$9[ebp]
	push	ecx
	call	_fnSetViewFromView
	add	esp, 8

; 13036:       for ( lpEI1 = lpFirstEntityInstance;

	mov	edx, DWORD PTR _lpFirstEntityInstance$[ebp]
	mov	DWORD PTR _lpEI1$[ebp], edx
	jmp	SHORT $LN16@fnOrderEnt
$LN14@fnOrderEnt:

; 13038:             lpEI1 = zGETPTR( lpEI1->hNextTwin ) )

	mov	eax, DWORD PTR _lpEI1$[ebp]
	mov	ecx, DWORD PTR [eax+22]
	push	ecx
	call	DWORD PTR _g_pfnGetPtr
	mov	DWORD PTR _lpEI1$[ebp], eax
$LN16@fnOrderEnt:

; 13037:             lpEI1;

	cmp	DWORD PTR _lpEI1$[ebp], 0
	je	$LN15@fnOrderEnt

; 13039:       {
; 13040:          LPVIEWENTITYCSR   lpViewEntityCsr;
; 13041: 
; 13042:          if ( lpEI1->u.nInd.bHidden )

	mov	edx, DWORD PTR _lpEI1$[ebp]
	mov	eax, DWORD PTR [edx+6]
	shr	eax, 10					; 0000000aH
	and	eax, 1
	je	SHORT $LN35@fnOrderEnt

; 13043:             continue;

	jmp	SHORT $LN14@fnOrderEnt
$LN35@fnOrderEnt:

; 13044: 
; 13045:          lpViewEntityCsr = fnEstablishViewForInstance( lpView, 0, lpEI1 );

	mov	ecx, DWORD PTR _lpEI1$[ebp]
	push	ecx
	push	0
	mov	edx, DWORD PTR _lpView$9[ebp]
	push	edx
	call	_fnEstablishViewForInstance
	add	esp, 12					; 0000000cH
	mov	DWORD PTR _lpViewEntityCsr$1[ebp], eax

; 13046: 
; 13047:          // Set all of the derived attributes (that are used as sort keys)
; 13048:          // for the entity instance.
; 13049:          for ( lpViewAttrListPtr = lpViewAttrList;

	mov	eax, DWORD PTR _lpViewAttrList$[ebp]
	mov	DWORD PTR _lpViewAttrListPtr$[ebp], eax
	jmp	SHORT $LN19@fnOrderEnt
$LN17@fnOrderEnt:

; 13051:                lpViewAttrListPtr++ )

	mov	ecx, DWORD PTR _lpViewAttrListPtr$[ebp]
	add	ecx, 13					; 0000000dH
	mov	DWORD PTR _lpViewAttrListPtr$[ebp], ecx
$LN19@fnOrderEnt:

; 13050:                lpViewAttrListPtr->lpViewAttrib;

	mov	edx, DWORD PTR _lpViewAttrListPtr$[ebp]
	cmp	DWORD PTR [edx], 0
	je	$LN18@fnOrderEnt

; 13052:          {
; 13053:             LPVIEWENTITY hViewEntity;
; 13054:             LPVIEWENTITY lpViewEntity;
; 13055: 
; 13056:             if ( lpViewAttrListPtr->pfObjectOper == 0 )

	mov	eax, DWORD PTR _lpViewAttrListPtr$[ebp]
	cmp	DWORD PTR [eax+4], 0
	jne	SHORT $LN36@fnOrderEnt

; 13057:                continue;

	jmp	SHORT $LN17@fnOrderEnt
$LN36@fnOrderEnt:

; 13058: 
; 13059:             // If the view entity for the sorting attribute is different
; 13060:             // from the view entity for the EI we're sorting then the attr
; 13061:             // must be from a child entity.  Make sure a child EI exists
; 13062:             // before we call the derived operation.
; 13063:             hViewEntity = lpViewAttrListPtr->lpViewAttrib->hViewEntity;

	mov	ecx, DWORD PTR _lpViewAttrListPtr$[ebp]
	mov	edx, DWORD PTR [ecx]
	mov	eax, DWORD PTR [edx+6]
	mov	DWORD PTR _hViewEntity$8[ebp], eax

; 13064:             if ( hViewEntity != lpEI1->hViewEntity )

	mov	ecx, DWORD PTR _lpEI1$[ebp]
	mov	edx, DWORD PTR _hViewEntity$8[ebp]
	cmp	edx, DWORD PTR [ecx+2]
	je	SHORT $LN37@fnOrderEnt

; 13065:             {
; 13066:                LPENTITYINSTANCE lpSearch;
; 13067: 
; 13068:                for ( lpSearch = zGETPTR( lpEI1->hNextHier );

	mov	eax, DWORD PTR _lpEI1$[ebp]
	mov	ecx, DWORD PTR [eax+14]
	push	ecx
	call	DWORD PTR _g_pfnGetPtr
	mov	DWORD PTR _lpSearch$10[ebp], eax
	jmp	SHORT $LN22@fnOrderEnt
$LN20@fnOrderEnt:

; 13070:                      lpSearch = zGETPTR( lpSearch->hNextHier ) )

	mov	edx, DWORD PTR _lpSearch$10[ebp]
	mov	eax, DWORD PTR [edx+14]
	push	eax
	call	DWORD PTR _g_pfnGetPtr
	mov	DWORD PTR _lpSearch$10[ebp], eax
$LN22@fnOrderEnt:

; 13069:                      lpSearch;

	cmp	DWORD PTR _lpSearch$10[ebp], 0
	je	SHORT $LN21@fnOrderEnt

; 13071:                {
; 13072:                   if ( lpSearch->nLevel <= lpEI1->nLevel )

	mov	ecx, DWORD PTR _lpSearch$10[ebp]
	movsx	edx, WORD PTR [ecx+58]
	mov	eax, DWORD PTR _lpEI1$[ebp]
	movsx	ecx, WORD PTR [eax+58]
	cmp	edx, ecx
	jg	SHORT $LN38@fnOrderEnt

; 13073:                   {
; 13074:                      lpSearch = 0;

	mov	DWORD PTR _lpSearch$10[ebp], 0

; 13075:                      break;

	jmp	SHORT $LN21@fnOrderEnt
$LN38@fnOrderEnt:

; 13076:                   }
; 13077: 
; 13078:                   if ( lpSearch->hViewEntity == hViewEntity )

	mov	edx, DWORD PTR _lpSearch$10[ebp]
	mov	eax, DWORD PTR [edx+2]
	cmp	eax, DWORD PTR _hViewEntity$8[ebp]
	jne	SHORT $LN39@fnOrderEnt

; 13079:                      break;

	jmp	SHORT $LN21@fnOrderEnt
$LN39@fnOrderEnt:

; 13080:                }

	jmp	SHORT $LN20@fnOrderEnt
$LN21@fnOrderEnt:

; 13081: 
; 13082:                // If lpSearch is 0 then we didn't find a child EI matching
; 13083:                // hViewEntity so don't call the derived operation.
; 13084:                if ( lpSearch == 0 )

	cmp	DWORD PTR _lpSearch$10[ebp], 0
	jne	SHORT $LN40@fnOrderEnt

; 13085:                   continue;

	jmp	$LN17@fnOrderEnt
	jmp	SHORT $LN37@fnOrderEnt
$LN40@fnOrderEnt:

; 13086:                else
; 13087:                {
; 13088:                   // Establish cursor position for the child entity. (dks and DonC 2009.12.23)
; 13089:                   fnEstablishViewForInstance( lpView, 0, lpSearch );

	mov	ecx, DWORD PTR _lpSearch$10[ebp]
	push	ecx
	push	0
	mov	edx, DWORD PTR _lpView$9[ebp]
	push	edx
	call	_fnEstablishViewForInstance
	add	esp, 12					; 0000000cH
$LN37@fnOrderEnt:

; 13090:                }
; 13091:             }
; 13092: 
; 13093:             lpViewEntity = zGETPTR( hViewEntity );

	mov	eax, DWORD PTR _hViewEntity$8[ebp]
	push	eax
	call	DWORD PTR _g_pfnGetPtr
	mov	DWORD PTR _lpViewEntity$6[ebp], eax

; 13094: 
; 13095:             nRC = (*lpViewAttrListPtr->pfObjectOper)( lpView, lpViewEntity,

	push	2
	mov	ecx, DWORD PTR _lpViewAttrListPtr$[ebp]
	mov	edx, DWORD PTR [ecx]
	push	edx
	mov	eax, DWORD PTR _lpViewEntity$6[ebp]
	push	eax
	mov	ecx, DWORD PTR _lpView$9[ebp]
	push	ecx
	mov	edx, DWORD PTR _lpViewAttrListPtr$[ebp]
	mov	eax, DWORD PTR [edx+4]
	call	eax
	mov	WORD PTR _nRC$[ebp], ax

; 13096:                                                       lpViewAttrListPtr->lpViewAttrib,
; 13097:                                                       zDERIVED_GET );
; 13098:             if ( nRC )

	movsx	ecx, WORD PTR _nRC$[ebp]
	test	ecx, ecx
	je	SHORT $LN42@fnOrderEnt

; 13099:             {
; 13100:                SysFreeMemory( hEIBuffer );

	mov	edx, DWORD PTR _hEIBuffer$[ebp]
	push	edx
	call	_SysFreeMemory@4

; 13101:                fnDropView( lpView );

	mov	eax, DWORD PTR _lpView$9[ebp]
	push	eax
	call	_fnDropView@4

; 13102:                return( nRC );

	mov	ax, WORD PTR _nRC$[ebp]
	jmp	$LN1@fnOrderEnt
$LN42@fnOrderEnt:

; 13103:             }
; 13104:          }

	jmp	$LN17@fnOrderEnt
$LN18@fnOrderEnt:

; 13105: 
; 13106:       } // for each lpEI1...

	jmp	$LN14@fnOrderEnt
$LN15@fnOrderEnt:

; 13107: 
; 13108:       fnDropView( lpView );

	mov	ecx, DWORD PTR _lpView$9[ebp]
	push	ecx
	call	_fnDropView@4
$LN33@fnOrderEnt:

; 13109: 
; 13110:    } // if ( bDerivedAttribPresent )...
; 13111: 
; 13112:    // Set up information for sorting.
; 13113:    SortData.lpViewAttrList = lpViewAttrList;

	mov	edx, DWORD PTR _lpViewAttrList$[ebp]
	mov	DWORD PTR _SortData$[ebp+4], edx

; 13114:    SortData.lpCurrentTask  = lpCurrentTask;

	mov	eax, DWORD PTR _lpCurrentTask$[ebp]
	mov	DWORD PTR _SortData$[ebp], eax

; 13115:    CreateViewFromViewForTask( &SortData.lpView1, zView, zView );

	mov	ecx, DWORD PTR _zView$[ebp]
	push	ecx
	mov	edx, DWORD PTR _zView$[ebp]
	push	edx
	lea	eax, DWORD PTR _SortData$[ebp+8]
	push	eax
	call	_CreateViewFromViewForTask@12

; 13116:    CreateViewFromViewForTask( &SortData.lpView2, zView, zView );

	mov	ecx, DWORD PTR _zView$[ebp]
	push	ecx
	mov	edx, DWORD PTR _zView$[ebp]
	push	edx
	lea	eax, DWORD PTR _SortData$[ebp+12]
	push	eax
	call	_CreateViewFromViewForTask@12

; 13117: 
; 13118:    // Call operation to sort the entity list.  We use ulFront instead of
; 13119:    // ulEntityCnt because we only want to sort the non-hidden EIs.
; 13120:    if ( bUseBubbleSort )

	movzx	ecx, BYTE PTR _bUseBubbleSort$[ebp]
	test	ecx, ecx
	je	SHORT $LN43@fnOrderEnt

; 13121:       fnBubbleSort( &SortData, lpEIBuffer, ulFront );

	mov	edx, DWORD PTR _ulFront$[ebp]
	push	edx
	mov	eax, DWORD PTR _lpEIBuffer$[ebp]
	push	eax
	lea	ecx, DWORD PTR _SortData$[ebp]
	push	ecx
	call	_fnBubbleSort
	add	esp, 12					; 0000000cH
	jmp	SHORT $LN44@fnOrderEnt
$LN43@fnOrderEnt:

; 13122:    else
; 13123:       fnQuickSort( &SortData, lpEIBuffer, ulFront );

	mov	edx, DWORD PTR _ulFront$[ebp]
	push	edx
	mov	eax, DWORD PTR _lpEIBuffer$[ebp]
	push	eax
	lea	ecx, DWORD PTR _SortData$[ebp]
	push	ecx
	call	_fnQuickSort
	add	esp, 12					; 0000000cH
$LN44@fnOrderEnt:

; 13124:    // fnHeapSort( &SortData, lpEIBuffer, ulFront );  // does not work (yet)!
; 13125: 
; 13126:    fnDropView( SortData.lpView1 );

	mov	edx, DWORD PTR _SortData$[ebp+8]
	push	edx
	call	_fnDropView@4

; 13127:    fnDropView( SortData.lpView2 );

	mov	eax, DWORD PTR _SortData$[ebp+12]
	push	eax
	call	_fnDropView@4

; 13128: 
; 13129:    // Subtract 1 from ulEntityCnt so it points to the last EI.  This will
; 13130:    // save us a little time later on.
; 13131:    ulEntityCnt--;

	mov	ecx, DWORD PTR _ulEntityCnt$[ebp]
	sub	ecx, 1
	mov	DWORD PTR _ulEntityCnt$[ebp], ecx

; 13132: 
; 13133:    //---------------------------------------------------------------------
; 13134:    // Re-arrange the EI pointers.
; 13135:    //---------------------------------------------------------------------
; 13136: 
; 13137:    // If we sorted the root instances then set the root entity instance.
; 13138:    if ( lpFirstEntityInstance->nLevel == 1 )

	mov	edx, DWORD PTR _lpFirstEntityInstance$[ebp]
	movsx	eax, WORD PTR [edx+58]
	cmp	eax, 1
	jne	SHORT $LN45@fnOrderEnt

; 13139:    {
; 13140:       LPVIEWCSR lpViewCsr = zGETPTR( zView->hViewCsr );

	mov	ecx, DWORD PTR _zView$[ebp]
	mov	edx, DWORD PTR [ecx+10]
	push	edx
	call	DWORD PTR _g_pfnGetPtr
	mov	DWORD PTR _lpViewCsr$5[ebp], eax

; 13141:       LPVIEWOI  lpViewOI  = zGETPTR( lpViewCsr->hViewOI );

	mov	eax, DWORD PTR _lpViewCsr$5[ebp]
	mov	ecx, DWORD PTR [eax+10]
	push	ecx
	call	DWORD PTR _g_pfnGetPtr
	mov	DWORD PTR _lpViewOI$4[ebp], eax

; 13142: 
; 13143:       lpViewOI->hRootEntityInstance = zGETHNDL( lpEIBuffer[ 0 ] );

	mov	edx, 4
	imul	eax, edx, 0
	mov	ecx, DWORD PTR _lpEIBuffer$[ebp]
	mov	edx, DWORD PTR [ecx+eax]
	push	edx
	call	DWORD PTR _g_pfnGetHndl
	mov	ecx, DWORD PTR _lpViewOI$4[ebp]
	mov	DWORD PTR [ecx+26], eax
$LN45@fnOrderEnt:

; 13144:    }
; 13145: 
; 13146:    // Reset the EI pointer for the entity before the "old" first entity.
; 13147:    if ( lpFirstEntityInstance->hPrevHier )

	mov	edx, DWORD PTR _lpFirstEntityInstance$[ebp]
	cmp	DWORD PTR [edx+18], 0
	je	SHORT $LN46@fnOrderEnt

; 13148:    {
; 13149:       LPENTITYINSTANCE lpPrevHier = zGETPTR( lpFirstEntityInstance->hPrevHier );

	mov	eax, DWORD PTR _lpFirstEntityInstance$[ebp]
	mov	ecx, DWORD PTR [eax+18]
	push	ecx
	call	DWORD PTR _g_pfnGetPtr
	mov	DWORD PTR _lpPrevHier$3[ebp], eax

; 13150: 
; 13151:       // Change lpPrevHier to point to the "new" first entity.
; 13152:       lpPrevHier->hNextHier = zGETHNDL( lpEIBuffer[ 0 ] );

	mov	edx, 4
	imul	eax, edx, 0
	mov	ecx, DWORD PTR _lpEIBuffer$[ebp]
	mov	edx, DWORD PTR [ecx+eax]
	push	edx
	call	DWORD PTR _g_pfnGetHndl
	mov	ecx, DWORD PTR _lpPrevHier$3[ebp]
	mov	DWORD PTR [ecx+14], eax

; 13153: 
; 13154:       lpEIBuffer[ 0 ]->hPrevHier = lpFirstEntityInstance->hPrevHier;

	mov	edx, 4
	imul	eax, edx, 0
	mov	ecx, DWORD PTR _lpEIBuffer$[ebp]
	mov	edx, DWORD PTR [ecx+eax]
	mov	eax, DWORD PTR _lpFirstEntityInstance$[ebp]
	mov	ecx, DWORD PTR [eax+18]
	mov	DWORD PTR [edx+18], ecx

; 13155:    }

	jmp	SHORT $LN47@fnOrderEnt
$LN46@fnOrderEnt:

; 13156:    else
; 13157:       lpEIBuffer[ 0 ]->hPrevHier = 0;

	mov	edx, 4
	imul	eax, edx, 0
	mov	ecx, DWORD PTR _lpEIBuffer$[ebp]
	mov	edx, DWORD PTR [ecx+eax]
	mov	DWORD PTR [edx+18], 0
$LN47@fnOrderEnt:

; 13158: 
; 13159:    // Get the last child of the last old or "unsorted" entity.
; 13160:    lpLastOldChild = fnFindLastEntityUnderParent( lpLastEntityInstance, FALSE );

	push	0
	mov	eax, DWORD PTR _lpLastEntityInstance$[ebp]
	push	eax
	call	_fnFindLastEntityUnderParent@8
	mov	DWORD PTR _lpLastOldChild$[ebp], eax

; 13161: 
; 13162:    // Get the last child for the last "sorted" entity.
; 13163:    lpLastChild = fnFindLastEntityUnderParent( lpEIBuffer[ ulEntityCnt ], FALSE );

	push	0
	mov	ecx, DWORD PTR _ulEntityCnt$[ebp]
	mov	edx, DWORD PTR _lpEIBuffer$[ebp]
	mov	eax, DWORD PTR [edx+ecx*4]
	push	eax
	call	_fnFindLastEntityUnderParent@8
	mov	DWORD PTR _lpLastChild$[ebp], eax

; 13164: 
; 13165:    // Reset the EI pointer for the entity after the "old" last entity.
; 13166:    if ( lpLastOldChild->hNextHier )

	mov	ecx, DWORD PTR _lpLastOldChild$[ebp]
	cmp	DWORD PTR [ecx+14], 0
	je	SHORT $LN48@fnOrderEnt

; 13167:    {
; 13168:       LPENTITYINSTANCE lpNextHier = zGETPTR( lpLastOldChild->hNextHier );

	mov	edx, DWORD PTR _lpLastOldChild$[ebp]
	mov	eax, DWORD PTR [edx+14]
	push	eax
	call	DWORD PTR _g_pfnGetPtr
	mov	DWORD PTR _lpNextHier$2[ebp], eax

; 13169: 
; 13170:       lpLastChild->hNextHier = lpLastOldChild->hNextHier;

	mov	ecx, DWORD PTR _lpLastChild$[ebp]
	mov	edx, DWORD PTR _lpLastOldChild$[ebp]
	mov	eax, DWORD PTR [edx+14]
	mov	DWORD PTR [ecx+14], eax

; 13171:       lpNextHier->hPrevHier = zGETHNDL( lpLastChild );

	mov	ecx, DWORD PTR _lpLastChild$[ebp]
	push	ecx
	call	DWORD PTR _g_pfnGetHndl
	mov	edx, DWORD PTR _lpNextHier$2[ebp]
	mov	DWORD PTR [edx+18], eax

; 13172: 
; 13173:    }

	jmp	SHORT $LN49@fnOrderEnt
$LN48@fnOrderEnt:

; 13174:    else
; 13175:       lpLastChild->hNextHier = 0;

	mov	eax, DWORD PTR _lpLastChild$[ebp]
	mov	DWORD PTR [eax+14], 0
$LN49@fnOrderEnt:

; 13176: 
; 13177:    // Now we'll loop through ALL the EIs and set the
; 13178:    // PrevHier/NextHier/PrevTwin/NextTwin pointers.
; 13179:    for ( k = 0; k <= ulEntityCnt; k++ )

	mov	DWORD PTR _k$[ebp], 0
	jmp	SHORT $LN25@fnOrderEnt
$LN23@fnOrderEnt:
	mov	ecx, DWORD PTR _k$[ebp]
	add	ecx, 1
	mov	DWORD PTR _k$[ebp], ecx
$LN25@fnOrderEnt:
	mov	edx, DWORD PTR _k$[ebp]
	cmp	edx, DWORD PTR _ulEntityCnt$[ebp]
	ja	$LN24@fnOrderEnt

; 13180:    {
; 13181:       // If 'k' is > 0 then we need to set up Prev pointers.
; 13182:       if ( k > 0 )

	cmp	DWORD PTR _k$[ebp], 0
	jbe	SHORT $LN50@fnOrderEnt

; 13183:       {
; 13184:          lpEIBuffer[ k ]->hPrevHier = zGETHNDL( lpLastChild );

	mov	eax, DWORD PTR _lpLastChild$[ebp]
	push	eax
	call	DWORD PTR _g_pfnGetHndl
	mov	ecx, DWORD PTR _k$[ebp]
	mov	edx, DWORD PTR _lpEIBuffer$[ebp]
	mov	ecx, DWORD PTR [edx+ecx*4]
	mov	DWORD PTR [ecx+18], eax

; 13185:          lpEIBuffer[ k ]->hPrevTwin = zGETHNDL( lpEIBuffer[ k - 1 ] );

	mov	edx, DWORD PTR _k$[ebp]
	mov	eax, DWORD PTR _lpEIBuffer$[ebp]
	mov	ecx, DWORD PTR [eax+edx*4-4]
	push	ecx
	call	DWORD PTR _g_pfnGetHndl
	mov	edx, DWORD PTR _k$[ebp]
	mov	ecx, DWORD PTR _lpEIBuffer$[ebp]
	mov	edx, DWORD PTR [ecx+edx*4]
	mov	DWORD PTR [edx+26], eax

; 13186:       }

	jmp	SHORT $LN51@fnOrderEnt
$LN50@fnOrderEnt:

; 13187:       else
; 13188:          lpEIBuffer[ k ]->hPrevTwin = 0;

	mov	eax, DWORD PTR _k$[ebp]
	mov	ecx, DWORD PTR _lpEIBuffer$[ebp]
	mov	edx, DWORD PTR [ecx+eax*4]
	mov	DWORD PTR [edx+26], 0
$LN51@fnOrderEnt:

; 13189: 
; 13190:       // Find the last child (hierarchically) under the current EI.
; 13191:       lpLastChild = fnFindLastEntityUnderParent( lpEIBuffer[ k ], FALSE );

	push	0
	mov	eax, DWORD PTR _k$[ebp]
	mov	ecx, DWORD PTR _lpEIBuffer$[ebp]
	mov	edx, DWORD PTR [ecx+eax*4]
	push	edx
	call	_fnFindLastEntityUnderParent@8
	mov	DWORD PTR _lpLastChild$[ebp], eax

; 13192: 
; 13193:       // If 'k' is < ulEntityCnt then we need to set up Next pointers.
; 13194:       if ( k < ulEntityCnt )

	mov	eax, DWORD PTR _k$[ebp]
	cmp	eax, DWORD PTR _ulEntityCnt$[ebp]
	jae	SHORT $LN52@fnOrderEnt

; 13195:       {
; 13196:          lpEIBuffer[ k ]->hNextTwin = zGETHNDL( lpEIBuffer[ k + 1 ] );

	mov	ecx, DWORD PTR _k$[ebp]
	mov	edx, DWORD PTR _lpEIBuffer$[ebp]
	mov	eax, DWORD PTR [edx+ecx*4+4]
	push	eax
	call	DWORD PTR _g_pfnGetHndl
	mov	ecx, DWORD PTR _k$[ebp]
	mov	edx, DWORD PTR _lpEIBuffer$[ebp]
	mov	ecx, DWORD PTR [edx+ecx*4]
	mov	DWORD PTR [ecx+22], eax

; 13197:          lpLastChild->hNextHier     = zGETHNDL( lpEIBuffer[ k + 1 ] );

	mov	edx, DWORD PTR _k$[ebp]
	mov	eax, DWORD PTR _lpEIBuffer$[ebp]
	mov	ecx, DWORD PTR [eax+edx*4+4]
	push	ecx
	call	DWORD PTR _g_pfnGetHndl
	mov	edx, DWORD PTR _lpLastChild$[ebp]
	mov	DWORD PTR [edx+14], eax

; 13198:       }

	jmp	SHORT $LN53@fnOrderEnt
$LN52@fnOrderEnt:

; 13199:       else
; 13200:          lpEIBuffer[ k ]->hNextTwin = 0;

	mov	eax, DWORD PTR _k$[ebp]
	mov	ecx, DWORD PTR _lpEIBuffer$[ebp]
	mov	edx, DWORD PTR [ecx+eax*4]
	mov	DWORD PTR [edx+22], 0
$LN53@fnOrderEnt:

; 13201:    }

	jmp	$LN23@fnOrderEnt
$LN24@fnOrderEnt:

; 13202: 
; 13203:    SysFreeMemory( hEIBuffer );

	mov	eax, DWORD PTR _hEIBuffer$[ebp]
	push	eax
	call	_SysFreeMemory@4

; 13204: 
; 13205:    return( 0 );

	xor	eax, eax
$LN1@fnOrderEnt:

; 13206: }

	mov	esp, ebp
	pop	ebp
	ret	16					; 00000010H
_fnOrderEntityForView@16 ENDP
_TEXT	ENDS
; Function compile flags: /Odtp
; File c:\10c\a\oe\kzoeoiaa.c
_TEXT	SEGMENT
_t$1 = -16						; size = 4
_k$ = -12						; size = 4
_j$ = -8						; size = 4
_bSwaps$ = -1						; size = 1
_lpSortData$ = 8					; size = 4
_lpEI$ = 12						; size = 4
_ulRecordCnt$ = 16					; size = 4
_fnBubbleSort PROC

; 12889: {

	push	ebp
	mov	ebp, esp
	sub	esp, 16					; 00000010H
	push	esi

; 12890:    zULONG k, j;
; 12891:    zBOOL  bSwaps;
; 12892: 
; 12893:    for ( k = ulRecordCnt - 1; k > 0; k-- )

	mov	eax, DWORD PTR _ulRecordCnt$[ebp]
	sub	eax, 1
	mov	DWORD PTR _k$[ebp], eax
	jmp	SHORT $LN4@fnBubbleSo
$LN2@fnBubbleSo:
	mov	ecx, DWORD PTR _k$[ebp]
	sub	ecx, 1
	mov	DWORD PTR _k$[ebp], ecx
$LN4@fnBubbleSo:
	cmp	DWORD PTR _k$[ebp], 0
	jbe	$LN1@fnBubbleSo

; 12894:    {
; 12895:       bSwaps = FALSE;

	mov	BYTE PTR _bSwaps$[ebp], 0

; 12896: 
; 12897:       for ( j = 0; j < k; j++ )

	mov	DWORD PTR _j$[ebp], 0
	jmp	SHORT $LN7@fnBubbleSo
$LN5@fnBubbleSo:
	mov	edx, DWORD PTR _j$[ebp]
	add	edx, 1
	mov	DWORD PTR _j$[ebp], edx
$LN7@fnBubbleSo:
	mov	eax, DWORD PTR _j$[ebp]
	cmp	eax, DWORD PTR _k$[ebp]
	jae	SHORT $LN6@fnBubbleSo

; 12898:       {
; 12899:          // If EI[ j ] is > EI[ j + 1 ] then swap them.
; 12900:          if ( fnSortCmpr( lpSortData, lpEI[ j ], lpEI[ j + 1 ] ) )

	mov	ecx, DWORD PTR _j$[ebp]
	mov	edx, DWORD PTR _lpEI$[ebp]
	mov	eax, DWORD PTR [edx+ecx*4+4]
	push	eax
	mov	ecx, DWORD PTR _j$[ebp]
	mov	edx, DWORD PTR _lpEI$[ebp]
	mov	eax, DWORD PTR [edx+ecx*4]
	push	eax
	mov	ecx, DWORD PTR _lpSortData$[ebp]
	push	ecx
	call	_fnSortCmpr
	add	esp, 12					; 0000000cH
	movsx	edx, ax
	test	edx, edx
	je	SHORT $LN8@fnBubbleSo

; 12901:          {
; 12902:             bSwaps = TRUE;

	mov	BYTE PTR _bSwaps$[ebp], 1

; 12903:             SWAP_EI( lpEI[ j ], lpEI[ j + 1 ] );

	mov	eax, DWORD PTR _j$[ebp]
	mov	ecx, DWORD PTR _lpEI$[ebp]
	mov	edx, DWORD PTR [ecx+eax*4+4]
	mov	DWORD PTR _t$1[ebp], edx
	mov	eax, DWORD PTR _j$[ebp]
	mov	ecx, DWORD PTR _lpEI$[ebp]
	mov	edx, DWORD PTR _j$[ebp]
	mov	esi, DWORD PTR _lpEI$[ebp]
	mov	edx, DWORD PTR [esi+edx*4]
	mov	DWORD PTR [ecx+eax*4+4], edx
	mov	eax, DWORD PTR _j$[ebp]
	mov	ecx, DWORD PTR _lpEI$[ebp]
	mov	edx, DWORD PTR _t$1[ebp]
	mov	DWORD PTR [ecx+eax*4], edx
$LN8@fnBubbleSo:

; 12904:          }
; 12905:       }

	jmp	SHORT $LN5@fnBubbleSo
$LN6@fnBubbleSo:

; 12906: 
; 12907:       // If there were no swaps then everything's in order so get out.
; 12908:       if ( bSwaps == FALSE )

	movzx	eax, BYTE PTR _bSwaps$[ebp]
	test	eax, eax
	jne	SHORT $LN9@fnBubbleSo

; 12909:          break;

	jmp	SHORT $LN1@fnBubbleSo
$LN9@fnBubbleSo:

; 12910:    }

	jmp	$LN2@fnBubbleSo
$LN1@fnBubbleSo:

; 12911: 
; 12912: } // fnBubbleSort

	pop	esi
	mov	esp, ebp
	pop	ebp
	ret	0
_fnBubbleSort ENDP
_TEXT	ENDS
; Function compile flags: /Odtp
; File c:\10c\a\oe\kzoeoiaa.c
_TEXT	SEGMENT
_t$1 = -28						; size = 4
_t$2 = -24						; size = 4
_t$3 = -20						; size = 4
_ulLeft$ = -16						; size = 4
_ulRight$ = -12						; size = 4
_k$ = -8						; size = 4
_j$ = -4						; size = 4
_lpSortData$ = 8					; size = 4
_lpEI$ = 12						; size = 4
_ulRecordCnt$ = 16					; size = 4
_fnQuickSort PROC

; 12839: {

	push	ebp
	mov	ebp, esp
	sub	esp, 28					; 0000001cH
	push	esi
$LN2@fnQuickSor:

; 12840:    zULONG k, j, ulLeft, ulRight;
; 12841: 
; 12842:    while ( ulRecordCnt > 1 )

	cmp	DWORD PTR _ulRecordCnt$[ebp], 1
	jbe	$LN1@fnQuickSor

; 12843:    {
; 12844:       SWAP_EI( lpEI[ 0 ], lpEI[ ulRecordCnt / 2 ] );

	mov	eax, DWORD PTR _ulRecordCnt$[ebp]
	shr	eax, 1
	mov	ecx, DWORD PTR _lpEI$[ebp]
	mov	edx, DWORD PTR [ecx+eax*4]
	mov	DWORD PTR _t$3[ebp], edx
	mov	eax, 4
	imul	ecx, eax, 0
	mov	edx, DWORD PTR _ulRecordCnt$[ebp]
	shr	edx, 1
	mov	eax, DWORD PTR _lpEI$[ebp]
	mov	esi, DWORD PTR _lpEI$[ebp]
	mov	ecx, DWORD PTR [esi+ecx]
	mov	DWORD PTR [eax+edx*4], ecx
	mov	edx, 4
	imul	eax, edx, 0
	mov	ecx, DWORD PTR _lpEI$[ebp]
	mov	edx, DWORD PTR _t$3[ebp]
	mov	DWORD PTR [ecx+eax], edx

; 12845: 
; 12846:       for ( k = 0, j = ulRecordCnt; ; )

	mov	DWORD PTR _k$[ebp], 0
	mov	eax, DWORD PTR _ulRecordCnt$[ebp]
	mov	DWORD PTR _j$[ebp], eax
$LN9@fnQuickSor:

; 12847:       {
; 12848:          // Search for an EI that is "less than" lpEI[ 0 ].
; 12849:          do
; 12850:             j--;

	mov	ecx, DWORD PTR _j$[ebp]
	sub	ecx, 1
	mov	DWORD PTR _j$[ebp], ecx

; 12851:          while ( j > 0 && fnSortCmpr( lpSortData, lpEI[ j ], lpEI[ 0 ] ) );

	je	SHORT $LN12@fnQuickSor
	mov	edx, 4
	imul	eax, edx, 0
	mov	ecx, DWORD PTR _lpEI$[ebp]
	mov	edx, DWORD PTR [ecx+eax]
	push	edx
	mov	eax, DWORD PTR _j$[ebp]
	mov	ecx, DWORD PTR _lpEI$[ebp]
	mov	edx, DWORD PTR [ecx+eax*4]
	push	edx
	mov	eax, DWORD PTR _lpSortData$[ebp]
	push	eax
	call	_fnSortCmpr
	add	esp, 12					; 0000000cH
	movsx	ecx, ax
	test	ecx, ecx
	jne	SHORT $LN9@fnQuickSor
$LN12@fnQuickSor:

; 12852: 
; 12853:          // Search for an EI that is "less than" lpEI[ 0 ].
; 12854:          do
; 12855:             k++;

	mov	edx, DWORD PTR _k$[ebp]
	add	edx, 1
	mov	DWORD PTR _k$[ebp], edx

; 12856:          while ( k < j && !fnSortCmpr( lpSortData, lpEI[ k ], lpEI[ 0 ] ) );

	mov	eax, DWORD PTR _k$[ebp]
	cmp	eax, DWORD PTR _j$[ebp]
	jae	SHORT $LN11@fnQuickSor
	mov	ecx, 4
	imul	edx, ecx, 0
	mov	eax, DWORD PTR _lpEI$[ebp]
	mov	ecx, DWORD PTR [eax+edx]
	push	ecx
	mov	edx, DWORD PTR _k$[ebp]
	mov	eax, DWORD PTR _lpEI$[ebp]
	mov	ecx, DWORD PTR [eax+edx*4]
	push	ecx
	mov	edx, DWORD PTR _lpSortData$[ebp]
	push	edx
	call	_fnSortCmpr
	add	esp, 12					; 0000000cH
	cwde
	test	eax, eax
	je	SHORT $LN12@fnQuickSor
$LN11@fnQuickSor:

; 12857: 
; 12858:          if ( k >= j )

	mov	ecx, DWORD PTR _k$[ebp]
	cmp	ecx, DWORD PTR _j$[ebp]
	jb	SHORT $LN15@fnQuickSor

; 12859:             break;

	jmp	SHORT $LN5@fnQuickSor
$LN15@fnQuickSor:

; 12860: 
; 12861:          SWAP_EI( lpEI[ k ], lpEI[ j ] );

	mov	edx, DWORD PTR _j$[ebp]
	mov	eax, DWORD PTR _lpEI$[ebp]
	mov	ecx, DWORD PTR [eax+edx*4]
	mov	DWORD PTR _t$2[ebp], ecx
	mov	edx, DWORD PTR _j$[ebp]
	mov	eax, DWORD PTR _lpEI$[ebp]
	mov	ecx, DWORD PTR _k$[ebp]
	mov	esi, DWORD PTR _lpEI$[ebp]
	mov	ecx, DWORD PTR [esi+ecx*4]
	mov	DWORD PTR [eax+edx*4], ecx
	mov	edx, DWORD PTR _k$[ebp]
	mov	eax, DWORD PTR _lpEI$[ebp]
	mov	ecx, DWORD PTR _t$2[ebp]
	mov	DWORD PTR [eax+edx*4], ecx

; 12862:       }

	jmp	$LN9@fnQuickSor
$LN5@fnQuickSor:

; 12863: 
; 12864:       SWAP_EI( lpEI[ j ], lpEI[ 0 ] );

	mov	edx, 4
	imul	eax, edx, 0
	mov	ecx, DWORD PTR _lpEI$[ebp]
	mov	edx, DWORD PTR [ecx+eax]
	mov	DWORD PTR _t$1[ebp], edx
	mov	eax, 4
	imul	ecx, eax, 0
	mov	edx, DWORD PTR _lpEI$[ebp]
	mov	eax, DWORD PTR _j$[ebp]
	mov	esi, DWORD PTR _lpEI$[ebp]
	mov	eax, DWORD PTR [esi+eax*4]
	mov	DWORD PTR [edx+ecx], eax
	mov	ecx, DWORD PTR _j$[ebp]
	mov	edx, DWORD PTR _lpEI$[ebp]
	mov	eax, DWORD PTR _t$1[ebp]
	mov	DWORD PTR [edx+ecx*4], eax

; 12865: 
; 12866:       ulLeft = j;

	mov	ecx, DWORD PTR _j$[ebp]
	mov	DWORD PTR _ulLeft$[ebp], ecx

; 12867:       ulRight = ulRecordCnt - ++j;

	mov	edx, DWORD PTR _j$[ebp]
	add	edx, 1
	mov	DWORD PTR _j$[ebp], edx
	mov	eax, DWORD PTR _ulRecordCnt$[ebp]
	sub	eax, DWORD PTR _j$[ebp]
	mov	DWORD PTR _ulRight$[ebp], eax

; 12868:       if ( ulLeft < ulRight )

	mov	ecx, DWORD PTR _ulLeft$[ebp]
	cmp	ecx, DWORD PTR _ulRight$[ebp]
	jae	SHORT $LN16@fnQuickSor

; 12869:       {
; 12870:          fnQuickSort( lpSortData, lpEI, ulLeft );

	mov	edx, DWORD PTR _ulLeft$[ebp]
	push	edx
	mov	eax, DWORD PTR _lpEI$[ebp]
	push	eax
	mov	ecx, DWORD PTR _lpSortData$[ebp]
	push	ecx
	call	_fnQuickSort
	add	esp, 12					; 0000000cH

; 12871: 
; 12872:          lpEI += j;

	mov	edx, DWORD PTR _j$[ebp]
	mov	eax, DWORD PTR _lpEI$[ebp]
	lea	ecx, DWORD PTR [eax+edx*4]
	mov	DWORD PTR _lpEI$[ebp], ecx

; 12873:          ulRecordCnt = ulRight;

	mov	edx, DWORD PTR _ulRight$[ebp]
	mov	DWORD PTR _ulRecordCnt$[ebp], edx

; 12874:       }

	jmp	SHORT $LN17@fnQuickSor
$LN16@fnQuickSor:

; 12875:       else
; 12876:       {
; 12877:          fnQuickSort( lpSortData, lpEI + j, ulRight );

	mov	eax, DWORD PTR _ulRight$[ebp]
	push	eax
	mov	ecx, DWORD PTR _j$[ebp]
	mov	edx, DWORD PTR _lpEI$[ebp]
	lea	eax, DWORD PTR [edx+ecx*4]
	push	eax
	mov	ecx, DWORD PTR _lpSortData$[ebp]
	push	ecx
	call	_fnQuickSort
	add	esp, 12					; 0000000cH

; 12878:          ulRecordCnt = ulLeft;

	mov	edx, DWORD PTR _ulLeft$[ebp]
	mov	DWORD PTR _ulRecordCnt$[ebp], edx
$LN17@fnQuickSor:

; 12879:       }
; 12880: 
; 12881:    } // while ( ulRecordCnt > 1 )...

	jmp	$LN2@fnQuickSor
$LN1@fnQuickSor:

; 12882: 
; 12883: } // fnQuickSort

	pop	esi
	mov	esp, ebp
	pop	ebp
	ret	0
_fnQuickSort ENDP
_TEXT	ENDS
; Function compile flags: /Odtp
; File c:\10c\a\oe\kzoeoiaa.c
_TEXT	SEGMENT
_ul$ = -4						; size = 4
_lpSortData$ = 8					; size = 4
_lpEI$ = 12						; size = 4
_ulRecordCnt$ = 16					; size = 4
_fnHeapSort PROC

; 12801: {

	push	ebp
	mov	ebp, esp
	push	ecx

; 12802: // zULONG ulHoldCnt = ulRecordCnt;
; 12803: // zULONG ulHoldMax = ulMaxRecords;
; 12804: // zULONG *p1;
; 12805:    zULONG ul;
; 12806: 
; 12807:    BuildHeap( lpSortData, lpEI, ulRecordCnt );

	mov	eax, DWORD PTR _ulRecordCnt$[ebp]
	push	eax
	mov	ecx, DWORD PTR _lpEI$[ebp]
	push	ecx
	mov	edx, DWORD PTR _lpSortData$[ebp]
	push	edx
	call	_BuildHeap
	add	esp, 12					; 0000000cH
$LN2@fnHeapSort:

; 12808: 
; 12809:    while ( ulRecordCnt > 1 )

	cmp	DWORD PTR _ulRecordCnt$[ebp], 1
	jbe	SHORT $LN1@fnHeapSort

; 12810:    {
; 12811:       ulRecordCnt--;

	mov	eax, DWORD PTR _ulRecordCnt$[ebp]
	sub	eax, 1
	mov	DWORD PTR _ulRecordCnt$[ebp], eax

; 12812:    // ulMaxRecords--;
; 12813:    //
; 12814:    // p1 = CSIMP_GETSORTIDX_PTR( ulRecordCnt + 1, m_pUseIdx->m_pxIdx );
; 12815:    // ul = *p1;
; 12816:    // *p1 = *(m_pUseIdx->m_pxIdx);
; 12817:    // *(m_pUseIdx->m_pxIdx) = ul;
; 12818: 
; 12819:    // ul = Heapify( 1 );
; 12820:       ul = Heapify( lpSortData, lpEI, ulRecordCnt, 1 );

	push	1
	mov	ecx, DWORD PTR _ulRecordCnt$[ebp]
	push	ecx
	mov	edx, DWORD PTR _lpEI$[ebp]
	push	edx
	mov	eax, DWORD PTR _lpSortData$[ebp]
	push	eax
	call	_Heapify
	add	esp, 16					; 00000010H
	mov	DWORD PTR _ul$[ebp], eax
$LN4@fnHeapSort:

; 12821:       while ( ul )

	cmp	DWORD PTR _ul$[ebp], 0
	je	SHORT $LN5@fnHeapSort

; 12822:       {
; 12823:       // ul = Heapify( ul );
; 12824:          ul = Heapify( lpSortData, lpEI, ulRecordCnt, ul );

	mov	ecx, DWORD PTR _ul$[ebp]
	push	ecx
	mov	edx, DWORD PTR _ulRecordCnt$[ebp]
	push	edx
	mov	eax, DWORD PTR _lpEI$[ebp]
	push	eax
	mov	ecx, DWORD PTR _lpSortData$[ebp]
	push	ecx
	call	_Heapify
	add	esp, 16					; 00000010H
	mov	DWORD PTR _ul$[ebp], eax

; 12825:       }

	jmp	SHORT $LN4@fnHeapSort
$LN5@fnHeapSort:

; 12826:    }

	jmp	SHORT $LN2@fnHeapSort
$LN1@fnHeapSort:

; 12827: 
; 12828: // ulRecordCnt = ulHoldCnt;
; 12829: // ulMaxRecords = ulHoldMax;
; 12830: }

	mov	esp, ebp
	pop	ebp
	ret	0
_fnHeapSort ENDP
_TEXT	ENDS
; Function compile flags: /Odtp
; File c:\10c\a\oe\kzoeoiaa.c
_TEXT	SEGMENT
tv68 = -12						; size = 4
_ul$ = -8						; size = 4
_k$ = -4						; size = 4
_lpSortData$ = 8					; size = 4
_lpEI$ = 12						; size = 4
_ulRecordCnt$ = 16					; size = 4
_BuildHeap PROC

; 12774: {

	push	ebp
	mov	ebp, esp
	sub	esp, 12					; 0000000cH

; 12775:    zULONG k;
; 12776:    zULONG ul;
; 12777: 
; 12778: #ifdef DEBUG_ALL
; 12779:    OutputDebugString( "\nShowing heap prior to build heap ...\n" );
; 12780:    ShowHeap( this, m_pUseIdx->m_pxIdx );
; 12781: #endif
; 12782: 
; 12783:    k = ulRecordCnt / 2;

	mov	eax, DWORD PTR _ulRecordCnt$[ebp]
	shr	eax, 1
	mov	DWORD PTR _k$[ebp], eax
$LN2@BuildHeap:

; 12784:    while ( k > 0 )

	cmp	DWORD PTR _k$[ebp], 0
	jbe	SHORT $LN1@BuildHeap

; 12785:    {
; 12786:       ul = Heapify( lpSortData, lpEI, ulRecordCnt, k-- );

	mov	ecx, DWORD PTR _k$[ebp]
	mov	DWORD PTR tv68[ebp], ecx
	mov	edx, DWORD PTR tv68[ebp]
	push	edx
	mov	eax, DWORD PTR _ulRecordCnt$[ebp]
	push	eax
	mov	ecx, DWORD PTR _lpEI$[ebp]
	push	ecx
	mov	edx, DWORD PTR _lpSortData$[ebp]
	push	edx
	call	_Heapify
	add	esp, 16					; 00000010H
	mov	DWORD PTR _ul$[ebp], eax
	mov	eax, DWORD PTR _k$[ebp]
	sub	eax, 1
	mov	DWORD PTR _k$[ebp], eax
$LN4@BuildHeap:

; 12787:       while ( ul )

	cmp	DWORD PTR _ul$[ebp], 0
	je	SHORT $LN5@BuildHeap

; 12788:       {
; 12789:          ul = Heapify( lpSortData, lpEI, ulRecordCnt, ul );

	mov	ecx, DWORD PTR _ul$[ebp]
	push	ecx
	mov	edx, DWORD PTR _ulRecordCnt$[ebp]
	push	edx
	mov	eax, DWORD PTR _lpEI$[ebp]
	push	eax
	mov	ecx, DWORD PTR _lpSortData$[ebp]
	push	ecx
	call	_Heapify
	add	esp, 16					; 00000010H
	mov	DWORD PTR _ul$[ebp], eax

; 12790:       }

	jmp	SHORT $LN4@BuildHeap
$LN5@BuildHeap:

; 12791:    }

	jmp	SHORT $LN2@BuildHeap
$LN1@BuildHeap:

; 12792: }  // end of:  BuildHeap

	mov	esp, ebp
	pop	ebp
	ret	0
_BuildHeap ENDP
_TEXT	ENDS
; Function compile flags: /Odtp
; File c:\10c\a\oe\kzoeoiaa.c
_TEXT	SEGMENT
_t$1 = -12						; size = 4
_ulLargest$ = -8					; size = 4
_ulLeft$ = -4						; size = 4
_lpSortData$ = 8					; size = 4
_lpEI$ = 12						; size = 4
_ulRecordCnt$ = 16					; size = 4
_k$ = 20						; size = 4
_Heapify PROC

; 12722: {

	push	ebp
	mov	ebp, esp
	sub	esp, 12					; 0000000cH
	push	esi

; 12723: // ASSERT_TRACE( "Heapify error", 0, k <= ulRecordCnt );
; 12724:    zULONG ulLeft = k << 1;

	mov	eax, DWORD PTR _k$[ebp]
	shl	eax, 1
	mov	DWORD PTR _ulLeft$[ebp], eax

; 12725:    zULONG ulLargest;
; 12726: 
; 12727:    if ( ulLeft > ulRecordCnt )

	mov	ecx, DWORD PTR _ulLeft$[ebp]
	cmp	ecx, DWORD PTR _ulRecordCnt$[ebp]
	jbe	SHORT $LN2@Heapify

; 12728:    {
; 12729:       return( 0 );

	xor	eax, eax
	jmp	$LN1@Heapify
$LN2@Heapify:

; 12730:    }
; 12731: 
; 12732:    ulLargest = k;

	mov	edx, DWORD PTR _k$[ebp]
	mov	DWORD PTR _ulLargest$[ebp], edx

; 12733: // if ( CompareRecords( ulLeft, ulLargest ) > 0 )
; 12734:    if ( fnSortCmpr( lpSortData, lpEI[ ulLeft - 1 ], lpEI[ ulLargest - 1 ] ) )

	mov	eax, DWORD PTR _ulLargest$[ebp]
	mov	ecx, DWORD PTR _lpEI$[ebp]
	mov	edx, DWORD PTR [ecx+eax*4-4]
	push	edx
	mov	eax, DWORD PTR _ulLeft$[ebp]
	mov	ecx, DWORD PTR _lpEI$[ebp]
	mov	edx, DWORD PTR [ecx+eax*4-4]
	push	edx
	mov	eax, DWORD PTR _lpSortData$[ebp]
	push	eax
	call	_fnSortCmpr
	add	esp, 12					; 0000000cH
	movsx	ecx, ax
	test	ecx, ecx
	je	SHORT $LN3@Heapify

; 12735:    {
; 12736:       ulLargest = ulLeft;

	mov	edx, DWORD PTR _ulLeft$[ebp]
	mov	DWORD PTR _ulLargest$[ebp], edx
$LN3@Heapify:

; 12737:    }
; 12738: 
; 12739:    ulLeft++;   // ulRight (use ulLeft to conserve stack space)

	mov	eax, DWORD PTR _ulLeft$[ebp]
	add	eax, 1
	mov	DWORD PTR _ulLeft$[ebp], eax

; 12740:    if ( ulLeft <= ulRecordCnt )

	mov	ecx, DWORD PTR _ulLeft$[ebp]
	cmp	ecx, DWORD PTR _ulRecordCnt$[ebp]
	ja	SHORT $LN4@Heapify

; 12741:    {
; 12742:    // if ( CompareRecords( ulLeft, ulLargest ) > 0 )
; 12743:       if ( fnSortCmpr( lpSortData, lpEI[ ulLeft - 1 ], lpEI[ ulLargest - 1 ] ) )

	mov	edx, DWORD PTR _ulLargest$[ebp]
	mov	eax, DWORD PTR _lpEI$[ebp]
	mov	ecx, DWORD PTR [eax+edx*4-4]
	push	ecx
	mov	edx, DWORD PTR _ulLeft$[ebp]
	mov	eax, DWORD PTR _lpEI$[ebp]
	mov	ecx, DWORD PTR [eax+edx*4-4]
	push	ecx
	mov	edx, DWORD PTR _lpSortData$[ebp]
	push	edx
	call	_fnSortCmpr
	add	esp, 12					; 0000000cH
	cwde
	test	eax, eax
	je	SHORT $LN4@Heapify

; 12744:       {
; 12745:          ulLargest = ulLeft;

	mov	ecx, DWORD PTR _ulLeft$[ebp]
	mov	DWORD PTR _ulLargest$[ebp], ecx
$LN4@Heapify:

; 12746:       }
; 12747:    }
; 12748: 
; 12749:    if ( k != ulLargest )

	mov	edx, DWORD PTR _k$[ebp]
	cmp	edx, DWORD PTR _ulLargest$[ebp]
	je	SHORT $LN6@Heapify

; 12750:    {
; 12751:       SWAP_EI( lpEI[ k - 1 ], lpEI[ ulLargest - 1 ] );

	mov	eax, DWORD PTR _ulLargest$[ebp]
	mov	ecx, DWORD PTR _lpEI$[ebp]
	mov	edx, DWORD PTR [ecx+eax*4-4]
	mov	DWORD PTR _t$1[ebp], edx
	mov	eax, DWORD PTR _ulLargest$[ebp]
	mov	ecx, DWORD PTR _lpEI$[ebp]
	mov	edx, DWORD PTR _k$[ebp]
	mov	esi, DWORD PTR _lpEI$[ebp]
	mov	edx, DWORD PTR [esi+edx*4-4]
	mov	DWORD PTR [ecx+eax*4-4], edx
	mov	eax, DWORD PTR _k$[ebp]
	mov	ecx, DWORD PTR _lpEI$[ebp]
	mov	edx, DWORD PTR _t$1[ebp]
	mov	DWORD PTR [ecx+eax*4-4], edx

; 12752:    // zULONG *p1;
; 12753:    // zULONG *p2;
; 12754: 
; 12755:    // // Use uLeft to conserve stack.
; 12756:    // p1 = CSIMP_GETSORTIDX_PTR( k, m_pUseIdx->m_pxIdx );
; 12757:    // p2 = CSIMP_GETSORTIDX_PTR( ulLargest, m_pUseIdx->m_pxIdx );
; 12758:    // ulLeft = *p1;
; 12759:    // *p1 = *p2;
; 12760:    // *p2 = ulLeft;
; 12761:       return( ulLargest );

	mov	eax, DWORD PTR _ulLargest$[ebp]
	jmp	SHORT $LN1@Heapify
$LN6@Heapify:

; 12762:    }
; 12763: 
; 12764:    return( 0 );

	xor	eax, eax
$LN1@Heapify:

; 12765: }  // end of:  Heapify

	pop	esi
	mov	esp, ebp
	pop	ebp
	ret	0
_Heapify ENDP
_TEXT	ENDS
; Function compile flags: /Odtp
; File c:\10c\a\oe\kzoeoiaa.c
_TEXT	SEGMENT
_lpCompareEI2$ = -16					; size = 4
_lpCompareEI1$ = -12					; size = 4
_lpAttrListPtr$ = -8					; size = 4
_nComp$ = -4						; size = 2
_lpSortData$ = 8					; size = 4
_lpEI1$ = 12						; size = 4
_lpEI2$ = 16						; size = 4
_fnSortCmpr PROC

; 12577: {

	push	ebp
	mov	ebp, esp
	sub	esp, 16					; 00000010H

; 12578:    LPVIEWATTRLIST   lpAttrListPtr;
; 12579:    LPENTITYINSTANCE lpCompareEI1;
; 12580:    LPENTITYINSTANCE lpCompareEI2;
; 12581:    zSHORT           nComp;
; 12582: 
; 12583:    // Compare sort keys from major to minor.  When an inequality is
; 12584:    // found, see if an entity swap is needed.
; 12585:    for ( lpAttrListPtr = lpSortData->lpViewAttrList;

	mov	eax, DWORD PTR _lpSortData$[ebp]
	mov	ecx, DWORD PTR [eax+4]
	mov	DWORD PTR _lpAttrListPtr$[ebp], ecx
	jmp	SHORT $LN4@fnSortCmpr
$LN2@fnSortCmpr:

; 12587:          lpAttrListPtr++ )

	mov	edx, DWORD PTR _lpAttrListPtr$[ebp]
	add	edx, 13					; 0000000dH
	mov	DWORD PTR _lpAttrListPtr$[ebp], edx
$LN4@fnSortCmpr:

; 12586:          lpAttrListPtr->lpViewAttrib;

	mov	eax, DWORD PTR _lpAttrListPtr$[ebp]
	cmp	DWORD PTR [eax], 0
	je	$LN3@fnSortCmpr

; 12588:    {
; 12589:       // Check to see if the sort key belongs to the same entity that we are
; 12590:       // sorting.  If not we need to retrieve the EI for the sort key.
; 12591:       if ( lpAttrListPtr->lpViewAttrib->hViewEntity != lpEI1->hViewEntity &&

	mov	ecx, DWORD PTR _lpAttrListPtr$[ebp]
	mov	edx, DWORD PTR [ecx]
	mov	eax, DWORD PTR _lpEI1$[ebp]
	mov	ecx, DWORD PTR [edx+6]
	cmp	ecx, DWORD PTR [eax+2]
	je	$LN9@fnSortCmpr
	mov	edx, DWORD PTR _lpEI1$[ebp]
	mov	eax, DWORD PTR [edx+2]
	push	eax
	mov	ecx, DWORD PTR _lpAttrListPtr$[ebp]
	mov	edx, DWORD PTR [ecx]
	mov	eax, DWORD PTR [edx+6]
	push	eax
	call	_fnCmprEntities
	add	esp, 8
	movsx	ecx, ax
	test	ecx, ecx
	je	$LN9@fnSortCmpr

; 12592:            fnCmprEntities( lpAttrListPtr->lpViewAttrib->hViewEntity,
; 12593:                            lpEI1->hViewEntity ) != 0 )
; 12594:       {
; 12595:          // Sort key is from a different entity than the swap entity.  This
; 12596:          // could happen if the user is sorting entities using the value of a
; 12597:          // child entity.  We need to retrieve the EI for the child entity.
; 12598:          // Since cursor positions are undefined at this point we will assume
; 12599:          // the first child entity.
; 12600:          lpCompareEI1 = zGETPTR( lpEI1->hNextHier );

	mov	edx, DWORD PTR _lpEI1$[ebp]
	mov	eax, DWORD PTR [edx+14]
	push	eax
	call	DWORD PTR _g_pfnGetPtr
	mov	DWORD PTR _lpCompareEI1$[ebp], eax
$LN5@fnSortCmpr:

; 12601:          while ( lpCompareEI1 )

	cmp	DWORD PTR _lpCompareEI1$[ebp], 0
	je	SHORT $LN6@fnSortCmpr

; 12602:          {
; 12603:             // Check to see if this is the EI we are looking for.
; 12604:             if ( lpCompareEI1->hViewEntity ==

	mov	ecx, DWORD PTR _lpAttrListPtr$[ebp]
	mov	edx, DWORD PTR [ecx]
	mov	eax, DWORD PTR _lpCompareEI1$[ebp]
	mov	ecx, DWORD PTR [eax+2]
	cmp	ecx, DWORD PTR [edx+6]
	jne	SHORT $LN11@fnSortCmpr

; 12605:                                   lpAttrListPtr->lpViewAttrib->hViewEntity )
; 12606:             {
; 12607:                break;  // it is the EI we are looking for

	jmp	SHORT $LN6@fnSortCmpr
$LN11@fnSortCmpr:

; 12608:             }
; 12609: 
; 12610:             // Check the next EI.
; 12611:             lpCompareEI1 = zGETPTR( lpCompareEI1->hNextHier );

	mov	edx, DWORD PTR _lpCompareEI1$[ebp]
	mov	eax, DWORD PTR [edx+14]
	push	eax
	call	DWORD PTR _g_pfnGetPtr
	mov	DWORD PTR _lpCompareEI1$[ebp], eax

; 12612: 
; 12613:             if ( lpCompareEI1 == 0 )

	cmp	DWORD PTR _lpCompareEI1$[ebp], 0
	jne	SHORT $LN12@fnSortCmpr

; 12614:                break;

	jmp	SHORT $LN6@fnSortCmpr
$LN12@fnSortCmpr:

; 12615: 
; 12616:             // If the level of the current EI is <= the level of the parent
; 12617:             // EI then we never found a matching child entity ... so break.
; 12618:             if ( lpCompareEI1->nLevel <= lpEI1->nLevel )

	mov	ecx, DWORD PTR _lpCompareEI1$[ebp]
	movsx	edx, WORD PTR [ecx+58]
	mov	eax, DWORD PTR _lpEI1$[ebp]
	movsx	ecx, WORD PTR [eax+58]
	cmp	edx, ecx
	jg	SHORT $LN13@fnSortCmpr

; 12619:             {
; 12620:                lpCompareEI1 = 0;

	mov	DWORD PTR _lpCompareEI1$[ebp], 0

; 12621:                break;

	jmp	SHORT $LN6@fnSortCmpr
$LN13@fnSortCmpr:

; 12622:             }
; 12623:          }

	jmp	SHORT $LN5@fnSortCmpr
$LN6@fnSortCmpr:

; 12624: 
; 12625:          // Do the same thing for the second EI.
; 12626:          lpCompareEI2 = zGETPTR( lpEI2->hNextHier );

	mov	edx, DWORD PTR _lpEI2$[ebp]
	mov	eax, DWORD PTR [edx+14]
	push	eax
	call	DWORD PTR _g_pfnGetPtr
	mov	DWORD PTR _lpCompareEI2$[ebp], eax
$LN7@fnSortCmpr:

; 12627:          while ( lpCompareEI2 )

	cmp	DWORD PTR _lpCompareEI2$[ebp], 0
	je	SHORT $LN8@fnSortCmpr

; 12628:          {
; 12629:             // Check to see if this is the EI we are looking for.
; 12630:             if ( lpCompareEI2->hViewEntity ==

	mov	ecx, DWORD PTR _lpAttrListPtr$[ebp]
	mov	edx, DWORD PTR [ecx]
	mov	eax, DWORD PTR _lpCompareEI2$[ebp]
	mov	ecx, DWORD PTR [eax+2]
	cmp	ecx, DWORD PTR [edx+6]
	jne	SHORT $LN14@fnSortCmpr

; 12631:                                   lpAttrListPtr->lpViewAttrib->hViewEntity )
; 12632:             {
; 12633:                break;  // it is the EI we are looking for

	jmp	SHORT $LN8@fnSortCmpr
$LN14@fnSortCmpr:

; 12634:             }
; 12635: 
; 12636:             // Check the next EI.
; 12637:             lpCompareEI2 = zGETPTR( lpCompareEI2->hNextHier );

	mov	edx, DWORD PTR _lpCompareEI2$[ebp]
	mov	eax, DWORD PTR [edx+14]
	push	eax
	call	DWORD PTR _g_pfnGetPtr
	mov	DWORD PTR _lpCompareEI2$[ebp], eax

; 12638: 
; 12639:             if ( lpCompareEI2 == 0 )

	cmp	DWORD PTR _lpCompareEI2$[ebp], 0
	jne	SHORT $LN15@fnSortCmpr

; 12640:                break;

	jmp	SHORT $LN8@fnSortCmpr
$LN15@fnSortCmpr:

; 12641: 
; 12642:             // If the level of the current EI is <= the level of the parent
; 12643:             // EI then we never found a matching child entity ... so break.
; 12644:             if ( lpCompareEI2->nLevel <= lpEI2->nLevel )

	mov	ecx, DWORD PTR _lpCompareEI2$[ebp]
	movsx	edx, WORD PTR [ecx+58]
	mov	eax, DWORD PTR _lpEI2$[ebp]
	movsx	ecx, WORD PTR [eax+58]
	cmp	edx, ecx
	jg	SHORT $LN16@fnSortCmpr

; 12645:             {
; 12646:                lpCompareEI2 = 0;

	mov	DWORD PTR _lpCompareEI2$[ebp], 0

; 12647:                break;

	jmp	SHORT $LN8@fnSortCmpr
$LN16@fnSortCmpr:

; 12648:             }
; 12649:          }

	jmp	SHORT $LN7@fnSortCmpr
$LN8@fnSortCmpr:

; 12650: 
; 12651:          // If either of the compare entities are 0 then they don't
; 12652:          // exist so set nComp and break.
; 12653:          if ( lpCompareEI1 == 0 || lpCompareEI2 == 0 )

	cmp	DWORD PTR _lpCompareEI1$[ebp], 0
	je	SHORT $LN18@fnSortCmpr
	cmp	DWORD PTR _lpCompareEI2$[ebp], 0
	jne	SHORT $LN17@fnSortCmpr
$LN18@fnSortCmpr:

; 12654:          {
; 12655:             // If they are the same then they are both 0 and we'll assume
; 12656:             // that they compare equal.
; 12657:             if ( lpCompareEI1 == lpCompareEI2 )

	mov	edx, DWORD PTR _lpCompareEI1$[ebp]
	cmp	edx, DWORD PTR _lpCompareEI2$[ebp]
	jne	SHORT $LN19@fnSortCmpr

; 12658:                nComp = 0;

	xor	eax, eax
	mov	WORD PTR _nComp$[ebp], ax
	jmp	SHORT $LN20@fnSortCmpr
$LN19@fnSortCmpr:

; 12659:             else
; 12660:             if ( lpCompareEI1 ) // EI1 is valid but EI2 is not so we'll assume EI1 > EI2.

	cmp	DWORD PTR _lpCompareEI1$[ebp], 0
	je	SHORT $LN21@fnSortCmpr

; 12661:                nComp = 1;

	mov	ecx, 1
	mov	WORD PTR _nComp$[ebp], cx
	jmp	SHORT $LN20@fnSortCmpr
$LN21@fnSortCmpr:

; 12662:             else
; 12663:                nComp = -1;

	or	edx, -1
	mov	WORD PTR _nComp$[ebp], dx
$LN20@fnSortCmpr:

; 12664: 
; 12665:             break;

	jmp	SHORT $LN3@fnSortCmpr
$LN17@fnSortCmpr:

; 12666:          }
; 12667:       }

	jmp	SHORT $LN10@fnSortCmpr
$LN9@fnSortCmpr:

; 12668:       else
; 12669:       {
; 12670:          // We are comparing the same entity we are swapping.
; 12671:          lpCompareEI1 = lpEI1;

	mov	eax, DWORD PTR _lpEI1$[ebp]
	mov	DWORD PTR _lpCompareEI1$[ebp], eax

; 12672:          lpCompareEI2 = lpEI2;

	mov	ecx, DWORD PTR _lpEI2$[ebp]
	mov	DWORD PTR _lpCompareEI2$[ebp], ecx
$LN10@fnSortCmpr:

; 12673:       }
; 12674: 
; 12675:       // Now actually perform the compare.
; 12676:       nComp = fnCompareEIAttrs( lpSortData->lpCurrentTask,

	mov	edx, DWORD PTR _lpAttrListPtr$[ebp]
	mov	eax, DWORD PTR [edx+9]
	push	eax
	mov	ecx, DWORD PTR _lpAttrListPtr$[ebp]
	mov	edx, DWORD PTR [ecx]
	push	edx
	mov	eax, DWORD PTR _lpCompareEI2$[ebp]
	push	eax
	mov	ecx, DWORD PTR _lpSortData$[ebp]
	mov	edx, DWORD PTR [ecx+12]
	push	edx
	mov	eax, DWORD PTR _lpAttrListPtr$[ebp]
	mov	ecx, DWORD PTR [eax+9]
	push	ecx
	mov	edx, DWORD PTR _lpAttrListPtr$[ebp]
	mov	eax, DWORD PTR [edx]
	push	eax
	mov	ecx, DWORD PTR _lpCompareEI1$[ebp]
	push	ecx
	mov	edx, DWORD PTR _lpSortData$[ebp]
	mov	eax, DWORD PTR [edx+8]
	push	eax
	mov	ecx, DWORD PTR _lpSortData$[ebp]
	mov	edx, DWORD PTR [ecx]
	push	edx
	call	_fnCompareEIAttrs@36
	mov	WORD PTR _nComp$[ebp], ax

; 12677:                                 lpSortData->lpView1, lpCompareEI1,
; 12678:                                 lpAttrListPtr->lpViewAttrib,
; 12679:                                 lpAttrListPtr->pszContextName,
; 12680:                                 lpSortData->lpView2, lpCompareEI2,
; 12681:                                 lpAttrListPtr->lpViewAttrib,
; 12682:                                 lpAttrListPtr->pszContextName );
; 12683: 
; 12684:       // If the compare wasn't equal then we don't need to compare any more
; 12685:       // because we know the EIs are different.
; 12686:       if ( nComp )

	movsx	eax, WORD PTR _nComp$[ebp]
	test	eax, eax
	je	SHORT $LN23@fnSortCmpr

; 12687:          break;

	jmp	SHORT $LN3@fnSortCmpr
$LN23@fnSortCmpr:

; 12688: 
; 12689:    } // for...

	jmp	$LN2@fnSortCmpr
$LN3@fnSortCmpr:

; 12690: 
; 12691:    // If the EIs are different then find out if they need to be swapped.
; 12692:    if ( nComp )

	movsx	ecx, WORD PTR _nComp$[ebp]
	test	ecx, ecx
	je	SHORT $LN24@fnSortCmpr

; 12693:    {
; 12694:       if ( nComp < 0 && lpAttrListPtr->bOrder )

	movsx	edx, WORD PTR _nComp$[ebp]
	test	edx, edx
	jge	SHORT $LN25@fnSortCmpr
	mov	eax, DWORD PTR _lpAttrListPtr$[ebp]
	movzx	ecx, BYTE PTR [eax+8]
	test	ecx, ecx
	je	SHORT $LN25@fnSortCmpr

; 12695:          return( 1 );

	mov	eax, 1
	jmp	SHORT $LN1@fnSortCmpr
$LN25@fnSortCmpr:

; 12696: 
; 12697:       if ( nComp > 0 && lpAttrListPtr->bOrder == FALSE )

	movsx	edx, WORD PTR _nComp$[ebp]
	test	edx, edx
	jle	SHORT $LN24@fnSortCmpr
	mov	eax, DWORD PTR _lpAttrListPtr$[ebp]
	movzx	ecx, BYTE PTR [eax+8]
	test	ecx, ecx
	jne	SHORT $LN24@fnSortCmpr

; 12698:          return( 1 );

	mov	eax, 1
	jmp	SHORT $LN1@fnSortCmpr
$LN24@fnSortCmpr:

; 12699:    }
; 12700: 
; 12701:    // If we get here then the EIs are in correct order.
; 12702:    return( 0 );

	xor	eax, eax
$LN1@fnSortCmpr:

; 12703: }

	mov	esp, ebp
	pop	ebp
	ret	0
_fnSortCmpr ENDP
_TEXT	ENDS
; Function compile flags: /Odtp
; File c:\10c\a\oe\kzoeoiaa.c
_TEXT	SEGMENT
_lpViewEntity2$ = -8					; size = 4
_lpViewEntity1$ = -4					; size = 4
_hViewEntity1$ = 8					; size = 4
_hViewEntity2$ = 12					; size = 4
_fnCmprEntities PROC

; 12545: {

	push	ebp
	mov	ebp, esp
	sub	esp, 8

; 12546:    LPVIEWENTITY lpViewEntity1 = zGETPTR( hViewEntity1 );

	mov	eax, DWORD PTR _hViewEntity1$[ebp]
	push	eax
	call	DWORD PTR _g_pfnGetPtr
	mov	DWORD PTR _lpViewEntity1$[ebp], eax

; 12547:    LPVIEWENTITY lpViewEntity2 = zGETPTR( hViewEntity2 );

	mov	ecx, DWORD PTR _hViewEntity2$[ebp]
	push	ecx
	call	DWORD PTR _g_pfnGetPtr
	mov	DWORD PTR _lpViewEntity2$[ebp], eax

; 12548: 
; 12549: #if 0
; 12550:    TraceLine( "fnSortCmpr Checking Entities: %s : 0x%08x, %s : 0x%08x",
; 12551:               lpViewEntity1->szName, lpViewEntity1->lEREntTok,
; 12552:               lpViewEntity2->szName, lpViewEntity2->lEREntTok );
; 12553: #endif
; 12554: 
; 12555:    // It appears that it is "good enough" for the entity tokens to
; 12556:    // match when doing the compare.  In such a case, for example,
; 12557:    // CtrlCtrl matches Control in TZWDLGSO.   dks 2005.12.26
; 12558:    if ( lpViewEntity1 && lpViewEntity2 &&

	cmp	DWORD PTR _lpViewEntity1$[ebp], 0
	je	SHORT $LN2@fnCmprEnti
	cmp	DWORD PTR _lpViewEntity2$[ebp], 0
	je	SHORT $LN2@fnCmprEnti
	mov	edx, DWORD PTR _lpViewEntity1$[ebp]
	mov	eax, DWORD PTR _lpViewEntity2$[ebp]
	mov	ecx, DWORD PTR [edx+195]
	cmp	ecx, DWORD PTR [eax+195]
	jne	SHORT $LN2@fnCmprEnti

; 12559:         lpViewEntity1->lEREntTok == lpViewEntity2->lEREntTok )
; 12560:    {
; 12561:       return( 0 );

	xor	eax, eax
	jmp	SHORT $LN1@fnCmprEnti
$LN2@fnCmprEnti:

; 12562:    }
; 12563: 
; 12564:    return( 1 );

	mov	eax, 1
$LN1@fnCmprEnti:

; 12565: }

	mov	esp, ebp
	pop	ebp
	ret	0
_fnCmprEntities ENDP
_TEXT	ENDS
; Function compile flags: /Odtp
; File c:\10c\a\oe\kzoeoiaa.c
_TEXT	SEGMENT
_pchStart$1 = -992					; size = 4
_l$2 = -988						; size = 4
_lpWk$3 = -984						; size = 4
_pchAttr$ = -980					; size = 4
_uPos$ = -976						; size = 4
_lXVATok$4 = -972					; size = 4
_lPrevIndicators$ = -968				; size = 4
_lpTask$ = -964						; size = 4
tv243 = -960						; size = 4
_pRelinkBufferEnd$ = -956				; size = 4
tv73 = -952						; size = 4
_lpWkViewEntity$5 = -948				; size = 4
_l$6 = -944						; size = 4
_lpFirstViewCsr$7 = -940				; size = 4
_l$8 = -936						; size = 4
$T9 = -932						; size = 4
$T10 = -928						; size = 4
tv505 = -924						; size = 4
tv69 = -920						; size = 4
tv417 = -916						; size = 4
tv416 = -912						; size = 4
_uFlags$11 = -908					; size = 4
tv316 = -904						; size = 4
tv315 = -900						; size = 4
tv298 = -896						; size = 4
tv297 = -892						; size = 4
tv280 = -888						; size = 4
tv279 = -884						; size = 4
tv262 = -880						; size = 4
tv261 = -876						; size = 4
tv244 = -872						; size = 4
_lpSearchViewEntityCsr$12 = -868			; size = 4
tv232 = -864						; size = 4
_nHierNbr$13 = -860					; size = 2
_nHierNbr$14 = -856					; size = 2
_lpViewOD$ = -852					; size = 4
_lpTgtViewEntity$15 = -848				; size = 4
_lLinkTgt$16 = -844					; size = 4
_lpCursorEI$ = -840					; size = 4
_lLinkSrc$17 = -836					; size = 4
_lLineCount$ = -832					; size = 4
_lIndicators$ = -828					; size = 4
_lInstanceCount$ = -824					; size = 4
_AttribFlags$18 = -820					; size = 4
_lpAttribFlags$19 = -816				; size = 4
_ulLthDecoded$ = -812					; size = 4
_nErrorAttribCnt$ = -808				; size = 2
_nErrorEntityCnt$ = -804				; size = 2
_lpViewCsr$ = -800					; size = 4
_bIgnoreAttribErrors$ = -794				; size = 1
_bEntityIsCompressed$ = -793				; size = 1
_lpTgtInstance$ = -792					; size = 4
_lpSrcInstance$ = -788					; size = 4
_j$20 = -784						; size = 2
_bMsgBox$ = -778					; size = 1
_bIgnoreEntityErrors$ = -777				; size = 1
_lpViewOI$ = -776					; size = 4
_lEntityCnt$ = -772					; size = 4
_pRelinkBufferPtr$ = -768				; size = 4
_nErrorEntityLvl$ = -764				; size = 2
_ulLth$ = -760						; size = 4
_bOI_IsUpdated$ = -753					; size = 1
_nEOF$ = -752						; size = 2
_lpViewEntity$ = -748					; size = 4
_nLevel$ = -744						; size = 2
_k$ = -740						; size = 4
_bSkipAttributes$ = -733				; size = 1
_lpViewAttrib$ = -732					; size = 4
_lpViewEntityCsr$ = -728				; size = 4
_lpEntityInstance$ = -724				; size = 4
_nRC$ = -720						; size = 2
_pchLine$ = -716					; size = 4
_pRelinkBufferTable$ = -712				; size = 40
_sz$21 = -672						; size = 400
_szWorkString$ = -272					; size = 256
_szAttribFlags$22 = -16					; size = 12
__$ArrayPad$ = -4					; size = 4
_lpView$ = 8						; size = 4
_lpfnStreamFunc$ = 12					; size = 4
_lpvData$ = 16						; size = 4
_plControl$ = 20					; size = 4
_fnActivateOI_FromTextStream PROC

; 10621: {

	push	ebp
	mov	ebp, esp
	sub	esp, 992				; 000003e0H
	mov	eax, DWORD PTR ___security_cookie
	xor	eax, ebp
	mov	DWORD PTR __$ArrayPad$[ebp], eax

; 10622:    LPVIEWOD          lpViewOD;
; 10623:    LPVIEWOI          lpViewOI;
; 10624:    LPVIEWENTITY      lpViewEntity;
; 10625:    LPVIEWATTRIB      lpViewAttrib;
; 10626:    LPVIEWCSR         lpViewCsr;
; 10627:    LPVIEWENTITYCSR   lpViewEntityCsr;
; 10628:    LPENTITYINSTANCE  lpEntityInstance;
; 10629:    LPENTITYINSTANCE  lpSrcInstance;
; 10630:    LPENTITYINSTANCE  lpTgtInstance;
; 10631:    LPENTITYINSTANCE  lpCursorEI;    // Used to set cursors.
; 10632:    LPTASK            lpTask;
; 10633:    zPCHAR            pchAttr;
; 10634:    zPCHAR            pchLine;
; 10635:    zPLONG            pRelinkBufferTable[ 10 ] = { 0 };

	mov	DWORD PTR _pRelinkBufferTable$[ebp], 0
	xor	eax, eax
	mov	DWORD PTR _pRelinkBufferTable$[ebp+4], eax
	mov	DWORD PTR _pRelinkBufferTable$[ebp+8], eax
	mov	DWORD PTR _pRelinkBufferTable$[ebp+12], eax
	mov	DWORD PTR _pRelinkBufferTable$[ebp+16], eax
	mov	DWORD PTR _pRelinkBufferTable$[ebp+20], eax
	mov	DWORD PTR _pRelinkBufferTable$[ebp+24], eax
	mov	DWORD PTR _pRelinkBufferTable$[ebp+28], eax
	mov	DWORD PTR _pRelinkBufferTable$[ebp+32], eax
	mov	DWORD PTR _pRelinkBufferTable$[ebp+36], eax

; 10636:    zPLONG            pRelinkBufferPtr;
; 10637:    zPLONG            pRelinkBufferEnd;
; 10638:    zULONG            ulLth;
; 10639:    zULONG            ulLthDecoded;
; 10640:    zULONG            uPos;
; 10641:    zBOOL             bIgnoreEntityErrors;
; 10642:    zBOOL             bIgnoreAttribErrors;
; 10643:    zBOOL             bEntityIsCompressed;
; 10644:    zBOOL             bOI_IsUpdated = FALSE;

	mov	BYTE PTR _bOI_IsUpdated$[ebp], 0

; 10645:    zBOOL             bSkipAttributes = FALSE;

	mov	BYTE PTR _bSkipAttributes$[ebp], 0

; 10646:    zBOOL             bMsgBox = TRUE;

	mov	BYTE PTR _bMsgBox$[ebp], 1

; 10647:    zCHAR             szWorkString[ 256 ];
; 10648:    zLONG             lIndicators = 0, lPrevIndicators;

	mov	DWORD PTR _lIndicators$[ebp], 0

; 10649:    zLONG             lEntityCnt = 0;

	mov	DWORD PTR _lEntityCnt$[ebp], 0

; 10650:    zLONG             lLineCount = 0;

	mov	DWORD PTR _lLineCount$[ebp], 0

; 10651:    zLONG             k;
; 10652:    zSHORT            nErrorEntityLvl;
; 10653:    zSHORT            nErrorEntityCnt;
; 10654:    zSHORT            nErrorAttribCnt;
; 10655:    zSHORT            nEOF;
; 10656:    zSHORT            nLevel;
; 10657:    zSHORT            nRC = 0;

	xor	ecx, ecx
	mov	WORD PTR _nRC$[ebp], cx

; 10658: 
; 10659:    // The following should only be used for cursor processing.
; 10660:    zLONG             lInstanceCount = 0;

	mov	DWORD PTR _lInstanceCount$[ebp], 0

; 10661: 
; 10662:    bIgnoreEntityErrors = (*plControl & zIGNORE_ENTITY_ERRORS) ? 1 : 0;

	mov	edx, DWORD PTR _plControl$[ebp]
	mov	eax, DWORD PTR [edx]
	and	eax, 4096				; 00001000H
	je	SHORT $LN219@fnActivate
	mov	DWORD PTR tv69[ebp], 1
	jmp	SHORT $LN220@fnActivate
$LN219@fnActivate:
	mov	DWORD PTR tv69[ebp], 0
$LN220@fnActivate:
	mov	cl, BYTE PTR tv69[ebp]
	mov	BYTE PTR _bIgnoreEntityErrors$[ebp], cl

; 10663:    bIgnoreAttribErrors = (*plControl & zIGNORE_ATTRIB_ERRORS) ? 1 : 0;

	mov	edx, DWORD PTR _plControl$[ebp]
	mov	eax, DWORD PTR [edx]
	and	eax, 8192				; 00002000H
	je	SHORT $LN221@fnActivate
	mov	DWORD PTR tv73[ebp], 1
	jmp	SHORT $LN222@fnActivate
$LN221@fnActivate:
	mov	DWORD PTR tv73[ebp], 0
$LN222@fnActivate:
	mov	cl, BYTE PTR tv73[ebp]
	mov	BYTE PTR _bIgnoreAttribErrors$[ebp], cl

; 10664: 
; 10665:    nErrorEntityLvl = 0;

	xor	edx, edx
	mov	WORD PTR _nErrorEntityLvl$[ebp], dx

; 10666:    nErrorEntityCnt = 0;

	xor	eax, eax
	mov	WORD PTR _nErrorEntityCnt$[ebp], ax

; 10667:    nErrorAttribCnt = 0;

	xor	ecx, ecx
	mov	WORD PTR _nErrorAttribCnt$[ebp], cx

; 10668: 
; 10669:    lpViewCsr = zGETPTR( lpView->hViewCsr );

	mov	edx, DWORD PTR _lpView$[ebp]
	mov	eax, DWORD PTR [edx+10]
	push	eax
	call	DWORD PTR _g_pfnGetPtr
	mov	DWORD PTR _lpViewCsr$[ebp], eax

; 10670:    lpViewOI  = zGETPTR( lpViewCsr->hViewOI );

	mov	ecx, DWORD PTR _lpViewCsr$[ebp]
	mov	edx, DWORD PTR [ecx+10]
	push	edx
	call	DWORD PTR _g_pfnGetPtr
	mov	DWORD PTR _lpViewOI$[ebp], eax

; 10671:    lpViewOD  = zGETPTR( lpViewOI->hViewOD );

	mov	eax, DWORD PTR _lpViewOI$[ebp]
	mov	ecx, DWORD PTR [eax+6]
	push	ecx
	call	DWORD PTR _g_pfnGetPtr
	mov	DWORD PTR _lpViewOD$[ebp], eax

; 10672:    lpTask    = zGETPTR( lpView->hTask );

	mov	edx, DWORD PTR _lpView$[ebp]
	mov	eax, DWORD PTR [edx+14]
	push	eax
	call	DWORD PTR _g_pfnGetPtr
	mov	DWORD PTR _lpTask$[ebp], eax

; 10673: 
; 10674:    // Initialize buffer pointers to indicate it hasn't been allocated yet.
; 10675:    pRelinkBufferEnd = pRelinkBufferPtr = 0;

	mov	DWORD PTR _pRelinkBufferPtr$[ebp], 0
	mov	ecx, DWORD PTR _pRelinkBufferPtr$[ebp]
	mov	DWORD PTR _pRelinkBufferEnd$[ebp], ecx

; 10676: 
; 10677:    // Process the stream
; 10678:    lpViewEntityCsr = 0;

	mov	DWORD PTR _lpViewEntityCsr$[ebp], 0

; 10679:    lpEntityInstance = 0;

	mov	DWORD PTR _lpEntityInstance$[ebp], 0
$LN2@fnActivate:

; 10680:    while ( (nEOF = (*lpfnStreamFunc)( lpView, lpvData,
; 10681:                                       &pchLine, 0, 0 )) == 1 )

	push	0
	push	0
	lea	edx, DWORD PTR _pchLine$[ebp]
	push	edx
	mov	eax, DWORD PTR _lpvData$[ebp]
	push	eax
	mov	ecx, DWORD PTR _lpView$[ebp]
	push	ecx
	call	DWORD PTR _lpfnStreamFunc$[ebp]
	mov	WORD PTR _nEOF$[ebp], ax
	movsx	edx, WORD PTR _nEOF$[ebp]
	cmp	edx, 1
	jne	$LN3@fnActivate

; 10682:    {
; 10683:       lLineCount++;

	mov	eax, DWORD PTR _lLineCount$[ebp]
	add	eax, 1
	mov	DWORD PTR _lLineCount$[ebp], eax

; 10684:       if ( pRelinkBufferPtr == pRelinkBufferEnd )

	mov	ecx, DWORD PTR _pRelinkBufferPtr$[ebp]
	cmp	ecx, DWORD PTR _pRelinkBufferEnd$[ebp]
	jne	$LN45@fnActivate

; 10685:       {
; 10686:          k = lEntityCnt / 160000;  // moved up from 16000 dks/don 2007.01.04

	mov	eax, DWORD PTR _lEntityCnt$[ebp]
	cdq
	mov	ecx, 160000				; 00027100H
	idiv	ecx
	mov	DWORD PTR _k$[ebp], eax

; 10687: 
; 10688:          // If we've loaded 160000 * 10 entities then bomb.
; 10689:          if ( k > 10 )

	cmp	DWORD PTR _k$[ebp], 10			; 0000000aH
	jle	SHORT $LN46@fnActivate

; 10690:          {
; 10691:             // if the relink entity pointer is at the end of the
; 10692:             // space allocated, issue an error
; 10693:             //  "KZOEE090 - Maximum number of entities in portable file exceeded "
; 10694:             (*lpfnStreamFunc)( lpView, lpvData, 0, 0, 90 );

	push	90					; 0000005aH
	push	0
	push	0
	mov	edx, DWORD PTR _lpvData$[ebp]
	push	edx
	mov	eax, DWORD PTR _lpView$[ebp]
	push	eax
	call	DWORD PTR _lpfnStreamFunc$[ebp]

; 10695:             nRC = zCALL_ERROR;

	mov	ecx, -16				; fffffff0H
	mov	WORD PTR _nRC$[ebp], cx

; 10696:             break;

	jmp	$LN3@fnActivate
$LN46@fnActivate:

; 10697:          }
; 10698: 
; 10699:          pRelinkBufferTable[ k ] =

	push	10107					; 0000277bH
	push	0
	push	1
	push	640000					; 0009c400H
	mov	edx, DWORD PTR _lpTask$[ebp]
	mov	eax, DWORD PTR [edx+94]
	push	eax
	call	_fnAllocDataspace
	add	esp, 20					; 00000014H
	mov	ecx, DWORD PTR _k$[ebp]
	mov	DWORD PTR _pRelinkBufferTable$[ebp+ecx*4], eax

; 10700:             (zPLONG) fnAllocDataspace( lpTask->hFirstDataHeader,
; 10701:                                        640000L, TRUE, 0, iRelinkBuffer );  // moved up from 64000 dks/don 2007.01.04
; 10702: 
; 10703:          pRelinkBufferTable[ k ] = zGETPTR( pRelinkBufferTable[ k ] );

	mov	edx, DWORD PTR _k$[ebp]
	mov	eax, DWORD PTR _pRelinkBufferTable$[ebp+edx*4]
	push	eax
	call	DWORD PTR _g_pfnGetPtr
	mov	ecx, DWORD PTR _k$[ebp]
	mov	DWORD PTR _pRelinkBufferTable$[ebp+ecx*4], eax

; 10704: 
; 10705:          pRelinkBufferEnd = pRelinkBufferTable[ k ] + 640000 / 4;  // Space for 160000 entities ... moved up from 16000 dks/don 2007.01.04

	mov	edx, DWORD PTR _k$[ebp]
	mov	eax, DWORD PTR _pRelinkBufferTable$[ebp+edx*4]
	add	eax, 640000				; 0009c400H
	mov	DWORD PTR _pRelinkBufferEnd$[ebp], eax

; 10706:          pRelinkBufferPtr = pRelinkBufferTable[ k ];

	mov	ecx, DWORD PTR _k$[ebp]
	mov	edx, DWORD PTR _pRelinkBufferTable$[ebp+ecx*4]
	mov	DWORD PTR _pRelinkBufferPtr$[ebp], edx
$LN45@fnActivate:

; 10707: 
; 10708:       }
; 10709: 
; 10710:       if ( nErrorEntityLvl )

	movsx	eax, WORD PTR _nErrorEntityLvl$[ebp]
	test	eax, eax
	je	$LN47@fnActivate

; 10711:       {
; 10712:          if ( pchLine[ 0 ] == 'e' )

	mov	ecx, 1
	imul	edx, ecx, 0
	mov	eax, DWORD PTR _pchLine$[ebp]
	movsx	ecx, BYTE PTR [eax+edx]
	cmp	ecx, 101				; 00000065H
	jne	$LN48@fnActivate

; 10713:          {
; 10714:             SysParseLine( szWorkString, &pchLine, pchLine + 1 );

	mov	edx, DWORD PTR _pchLine$[ebp]
	add	edx, 1
	push	edx
	lea	eax, DWORD PTR _pchLine$[ebp]
	push	eax
	lea	ecx, DWORD PTR _szWorkString$[ebp]
	push	ecx
	call	_SysParseLine@12

; 10715:             if ( *plControl & zCOMPRESSED )

	mov	edx, DWORD PTR _plControl$[ebp]
	mov	eax, DWORD PTR [edx]
	and	eax, 131072				; 00020000H
	je	SHORT $LN50@fnActivate

; 10716:                nLevel = (zSHORT) zxtol( pchLine );

	push	16					; 00000010H
	push	0
	mov	ecx, DWORD PTR _pchLine$[ebp]
	push	ecx
	call	DWORD PTR __imp__strtoul
	add	esp, 12					; 0000000cH
	mov	WORD PTR _nLevel$[ebp], ax
	jmp	SHORT $LN51@fnActivate
$LN50@fnActivate:

; 10717:             else
; 10718:                nLevel = (zSHORT) zatol( pchLine );

	mov	edx, DWORD PTR _pchLine$[ebp]
	push	edx
	call	DWORD PTR __imp__atol
	add	esp, 4
	mov	WORD PTR _nLevel$[ebp], ax
$LN51@fnActivate:

; 10719: 
; 10720:             if ( nLevel > nErrorEntityLvl )

	movsx	eax, WORD PTR _nLevel$[ebp]
	movsx	ecx, WORD PTR _nErrorEntityLvl$[ebp]
	cmp	eax, ecx
	jle	SHORT $LN52@fnActivate

; 10721:                pchLine[ 0 ] = ' ';

	mov	edx, 1
	imul	eax, edx, 0
	mov	ecx, DWORD PTR _pchLine$[ebp]
	mov	BYTE PTR [ecx+eax], 32			; 00000020H
$LN52@fnActivate:

; 10722: 
; 10723:             *pRelinkBufferPtr = 0;

	mov	edx, DWORD PTR _pRelinkBufferPtr$[ebp]
	mov	DWORD PTR [edx], 0

; 10724:             pRelinkBufferPtr++;

	mov	eax, DWORD PTR _pRelinkBufferPtr$[ebp]
	add	eax, 4
	mov	DWORD PTR _pRelinkBufferPtr$[ebp], eax

; 10725:             lEntityCnt++;

	mov	ecx, DWORD PTR _lEntityCnt$[ebp]
	add	ecx, 1
	mov	DWORD PTR _lEntityCnt$[ebp], ecx

; 10726:          }

	jmp	SHORT $LN47@fnActivate
$LN48@fnActivate:

; 10727:          else
; 10728:          if ( pchLine[ 0 ] == 'a' )

	mov	edx, 1
	imul	eax, edx, 0
	mov	ecx, DWORD PTR _pchLine$[ebp]
	movsx	edx, BYTE PTR [ecx+eax]
	cmp	edx, 97					; 00000061H
	jne	SHORT $LN47@fnActivate

; 10729:             pchLine[ 0 ] = ' ';

	mov	eax, 1
	imul	ecx, eax, 0
	mov	edx, DWORD PTR _pchLine$[ebp]
	mov	BYTE PTR [edx+ecx], 32			; 00000020H
$LN47@fnActivate:

; 10730:       }
; 10731: 
; 10732:       if ( pchLine[ 0 ] == 'm' )  // Meta information

	mov	eax, 1
	imul	ecx, eax, 0
	mov	edx, DWORD PTR _pchLine$[ebp]
	movsx	eax, BYTE PTR [edx+ecx]
	cmp	eax, 109				; 0000006dH
	jne	$LN54@fnActivate

; 10733:       {
; 10734:          // Meta information is information about the OI (as opposed to the
; 10735:          // info *in* the OI).
; 10736:          SysParseLine( szWorkString, &pchLine, pchLine + 1 );

	mov	ecx, DWORD PTR _pchLine$[ebp]
	add	ecx, 1
	push	ecx
	lea	edx, DWORD PTR _pchLine$[ebp]
	push	edx
	lea	eax, DWORD PTR _szWorkString$[ebp]
	push	eax
	call	_SysParseLine@12

; 10737:          switch ( szWorkString[ 0 ] )

	mov	ecx, 1
	imul	edx, ecx, 0
	mov	al, BYTE PTR _szWorkString$[ebp+edx]
	mov	BYTE PTR tv232[ebp], al
	cmp	BYTE PTR tv232[ebp], 67			; 00000043H
	je	SHORT $LN56@fnActivate
	cmp	BYTE PTR tv232[ebp], 69			; 00000045H
	je	$LN58@fnActivate
	cmp	BYTE PTR tv232[ebp], 79			; 0000004fH
	je	$LN62@fnActivate
	jmp	$LN4@fnActivate
$LN56@fnActivate:

; 10738:          {
; 10739:             case 'C':
; 10740:                if ( zstrcmp( szWorkString, "CONTROL" ) == 0 )

	movsx	ecx, BYTE PTR _szWorkString$[ebp]
	movsx	edx, BYTE PTR $SG17241
	cmp	ecx, edx
	jne	SHORT $LN225@fnActivate
	push	OFFSET $SG17242
	lea	eax, DWORD PTR _szWorkString$[ebp]
	push	eax
	call	_strcmp
	add	esp, 8
	mov	DWORD PTR tv244[ebp], eax
	jmp	SHORT $LN226@fnActivate
$LN225@fnActivate:
	movsx	ecx, BYTE PTR _szWorkString$[ebp]
	movsx	edx, BYTE PTR $SG17243
	sub	ecx, edx
	test	ecx, ecx
	jle	SHORT $LN223@fnActivate
	mov	DWORD PTR tv243[ebp], 1
	jmp	SHORT $LN224@fnActivate
$LN223@fnActivate:
	mov	DWORD PTR tv243[ebp], -1
$LN224@fnActivate:
	mov	eax, DWORD PTR tv243[ebp]
	mov	DWORD PTR tv244[ebp], eax
$LN226@fnActivate:
	cmp	DWORD PTR tv244[ebp], 0
	jne	SHORT $LN57@fnActivate

; 10741:                   lpViewOI->lActivateControl = zxtol( pchLine );

	push	16					; 00000010H
	push	0
	mov	ecx, DWORD PTR _pchLine$[ebp]
	push	ecx
	call	DWORD PTR __imp__strtoul
	add	esp, 12					; 0000000cH
	mov	edx, DWORD PTR _lpViewOI$[ebp]
	mov	DWORD PTR [edx+48], eax
$LN57@fnActivate:

; 10742: 
; 10743:                break;

	jmp	$LN4@fnActivate
$LN58@fnActivate:

; 10744: 
; 10745:             case 'E':
; 10746:                if ( zstrcmp( szWorkString, "ETAG" ) == 0 )

	movsx	eax, BYTE PTR _szWorkString$[ebp]
	movsx	ecx, BYTE PTR $SG17247
	cmp	eax, ecx
	jne	SHORT $LN229@fnActivate
	push	OFFSET $SG17248
	lea	edx, DWORD PTR _szWorkString$[ebp]
	push	edx
	call	_strcmp
	add	esp, 8
	mov	DWORD PTR tv262[ebp], eax
	jmp	SHORT $LN230@fnActivate
$LN229@fnActivate:
	movsx	eax, BYTE PTR _szWorkString$[ebp]
	movsx	ecx, BYTE PTR $SG17249
	sub	eax, ecx
	test	eax, eax
	jle	SHORT $LN227@fnActivate
	mov	DWORD PTR tv261[ebp], 1
	jmp	SHORT $LN228@fnActivate
$LN227@fnActivate:
	mov	DWORD PTR tv261[ebp], -1
$LN228@fnActivate:
	mov	edx, DWORD PTR tv261[ebp]
	mov	DWORD PTR tv262[ebp], edx
$LN230@fnActivate:
	cmp	DWORD PTR tv262[ebp], 0
	jne	SHORT $LN59@fnActivate

; 10747:                   lpEntityInstance->lTag = zxtol( pchLine );

	push	16					; 00000010H
	push	0
	mov	eax, DWORD PTR _pchLine$[ebp]
	push	eax
	call	DWORD PTR __imp__strtoul
	add	esp, 12					; 0000000cH
	mov	ecx, DWORD PTR _lpEntityInstance$[ebp]
	mov	DWORD PTR [ecx+46], eax
	jmp	$LN60@fnActivate
$LN59@fnActivate:

; 10748:                else
; 10749:                if ( zstrcmp( szWorkString, "EKEY" ) == 0 )

	movsx	edx, BYTE PTR _szWorkString$[ebp]
	movsx	eax, BYTE PTR $SG17251
	cmp	edx, eax
	jne	SHORT $LN233@fnActivate
	push	OFFSET $SG17252
	lea	ecx, DWORD PTR _szWorkString$[ebp]
	push	ecx
	call	_strcmp
	add	esp, 8
	mov	DWORD PTR tv280[ebp], eax
	jmp	SHORT $LN234@fnActivate
$LN233@fnActivate:
	movsx	edx, BYTE PTR _szWorkString$[ebp]
	movsx	eax, BYTE PTR $SG17253
	sub	edx, eax
	test	edx, edx
	jle	SHORT $LN231@fnActivate
	mov	DWORD PTR tv279[ebp], 1
	jmp	SHORT $LN232@fnActivate
$LN231@fnActivate:
	mov	DWORD PTR tv279[ebp], -1
$LN232@fnActivate:
	mov	ecx, DWORD PTR tv279[ebp]
	mov	DWORD PTR tv280[ebp], ecx
$LN234@fnActivate:
	cmp	DWORD PTR tv280[ebp], 0
	jne	SHORT $LN60@fnActivate

; 10750:                   lpEntityInstance->ulKey = (zULONG) zxtol( pchLine );

	push	16					; 00000010H
	push	0
	mov	edx, DWORD PTR _pchLine$[ebp]
	push	edx
	call	DWORD PTR __imp__strtoul
	add	esp, 12					; 0000000cH
	mov	ecx, DWORD PTR _lpEntityInstance$[ebp]
	mov	DWORD PTR [ecx+50], eax
$LN60@fnActivate:

; 10751: 
; 10752:                break;

	jmp	$LN4@fnActivate
$LN62@fnActivate:

; 10753: 
; 10754:             case 'O':
; 10755:                if ( zstrcmp( szWorkString, "OITAG" ) == 0 )

	movsx	edx, BYTE PTR _szWorkString$[ebp]
	movsx	eax, BYTE PTR $SG17257
	cmp	edx, eax
	jne	SHORT $LN237@fnActivate
	push	OFFSET $SG17258
	lea	ecx, DWORD PTR _szWorkString$[ebp]
	push	ecx
	call	_strcmp
	add	esp, 8
	mov	DWORD PTR tv298[ebp], eax
	jmp	SHORT $LN238@fnActivate
$LN237@fnActivate:
	movsx	edx, BYTE PTR _szWorkString$[ebp]
	movsx	eax, BYTE PTR $SG17259
	sub	edx, eax
	test	edx, edx
	jle	SHORT $LN235@fnActivate
	mov	DWORD PTR tv297[ebp], 1
	jmp	SHORT $LN236@fnActivate
$LN235@fnActivate:
	mov	DWORD PTR tv297[ebp], -1
$LN236@fnActivate:
	mov	ecx, DWORD PTR tv297[ebp]
	mov	DWORD PTR tv298[ebp], ecx
$LN238@fnActivate:
	cmp	DWORD PTR tv298[ebp], 0
	jne	SHORT $LN63@fnActivate

; 10756:                   lpViewOI->lTag = zxtol( pchLine );

	push	16					; 00000010H
	push	0
	mov	edx, DWORD PTR _pchLine$[ebp]
	push	edx
	call	DWORD PTR __imp__strtoul
	add	esp, 12					; 0000000cH
	mov	ecx, DWORD PTR _lpViewOI$[ebp]
	mov	DWORD PTR [ecx+52], eax
	jmp	$LN4@fnActivate
$LN63@fnActivate:

; 10757:                else
; 10758:                if ( zstrcmp( szWorkString, "OIFLAGS" ) == 0 )

	movsx	edx, BYTE PTR _szWorkString$[ebp]
	movsx	eax, BYTE PTR $SG17261
	cmp	edx, eax
	jne	SHORT $LN241@fnActivate
	push	OFFSET $SG17262
	lea	ecx, DWORD PTR _szWorkString$[ebp]
	push	ecx
	call	_strcmp
	add	esp, 8
	mov	DWORD PTR tv316[ebp], eax
	jmp	SHORT $LN242@fnActivate
$LN241@fnActivate:
	movsx	edx, BYTE PTR _szWorkString$[ebp]
	movsx	eax, BYTE PTR $SG17263
	sub	edx, eax
	test	edx, edx
	jle	SHORT $LN239@fnActivate
	mov	DWORD PTR tv315[ebp], 1
	jmp	SHORT $LN240@fnActivate
$LN239@fnActivate:
	mov	DWORD PTR tv315[ebp], -1
$LN240@fnActivate:
	mov	ecx, DWORD PTR tv315[ebp]
	mov	DWORD PTR tv316[ebp], ecx
$LN242@fnActivate:
	cmp	DWORD PTR tv316[ebp], 0
	jne	SHORT $LN4@fnActivate

; 10759:                {
; 10760:                   zULONG uFlags = zxtol( pchLine );

	push	16					; 00000010H
	push	0
	mov	edx, DWORD PTR _pchLine$[ebp]
	push	edx
	call	DWORD PTR __imp__strtoul
	add	esp, 12					; 0000000cH
	mov	DWORD PTR _uFlags$11[ebp], eax

; 10761: 
; 10762:                   // If zOI_ISLOCKED flag is set then the OI has pessimistic
; 10763:                   // locks set.
; 10764:                   if ( uFlags & zOI_ISLOCKED )

	mov	eax, DWORD PTR _uFlags$11[ebp]
	and	eax, 1
	je	SHORT $LN66@fnActivate

; 10765:                      lpViewOI->bIsLocked = TRUE;

	mov	ecx, DWORD PTR _lpViewOI$[ebp]
	mov	edx, DWORD PTR [ecx+36]
	or	edx, 128				; 00000080H
	mov	eax, DWORD PTR _lpViewOI$[ebp]
	mov	DWORD PTR [eax+36], edx
$LN66@fnActivate:

; 10766: 
; 10767:                   if ( uFlags & zOI_READONLY )

	mov	ecx, DWORD PTR _uFlags$11[ebp]
	and	ecx, 2
	je	SHORT $LN4@fnActivate

; 10768:                      lpView->bReadOnly = TRUE;

	mov	edx, DWORD PTR _lpView$[ebp]
	mov	eax, DWORD PTR [edx+30]
	or	eax, 64					; 00000040H
	mov	ecx, DWORD PTR _lpView$[ebp]
	mov	DWORD PTR [ecx+30], eax
$LN4@fnActivate:

; 10769:                }
; 10770: 
; 10771:                break;
; 10772:          }
; 10773:       }

	jmp	$LN55@fnActivate
$LN54@fnActivate:

; 10774:       else
; 10775:       if ( pchLine[ 0 ] == 'e' )  // Entity type

	mov	edx, 1
	imul	eax, edx, 0
	mov	ecx, DWORD PTR _pchLine$[ebp]
	movsx	edx, BYTE PTR [ecx+eax]
	cmp	edx, 101				; 00000065H
	jne	$LN68@fnActivate

; 10776:       {
; 10777:          SysParseLine( szWorkString, &pchLine, pchLine + 1 );

	mov	eax, DWORD PTR _pchLine$[ebp]
	add	eax, 1
	push	eax
	lea	ecx, DWORD PTR _pchLine$[ebp]
	push	ecx
	lea	edx, DWORD PTR _szWorkString$[ebp]
	push	edx
	call	_SysParseLine@12

; 10778:          if ( *plControl & zCOMPRESSED )

	mov	eax, DWORD PTR _plControl$[ebp]
	mov	ecx, DWORD PTR [eax]
	and	ecx, 131072				; 00020000H
	je	SHORT $LN70@fnActivate

; 10779:             nLevel = (zSHORT) zxtol( pchLine );

	push	16					; 00000010H
	push	0
	mov	edx, DWORD PTR _pchLine$[ebp]
	push	edx
	call	DWORD PTR __imp__strtoul
	add	esp, 12					; 0000000cH
	mov	WORD PTR _nLevel$[ebp], ax
	jmp	SHORT $LN71@fnActivate
$LN70@fnActivate:

; 10780:          else
; 10781:             nLevel = (zSHORT) zatol( pchLine );

	mov	eax, DWORD PTR _pchLine$[ebp]
	push	eax
	call	DWORD PTR __imp__atol
	add	esp, 4
	mov	WORD PTR _nLevel$[ebp], ax
$LN71@fnActivate:

; 10782: 
; 10783:          if ( *plControl & zINCREMENTAL )

	mov	ecx, DWORD PTR _plControl$[ebp]
	mov	edx, DWORD PTR [ecx]
	and	edx, 65536				; 00010000H
	je	$LN10@fnActivate
$LN6@fnActivate:

; 10784:          {
; 10785:             while ( pchLine[ 0 ] != ',' )

	mov	eax, 1
	imul	ecx, eax, 0
	mov	edx, DWORD PTR _pchLine$[ebp]
	movsx	eax, BYTE PTR [edx+ecx]
	cmp	eax, 44					; 0000002cH
	je	SHORT $LN7@fnActivate

; 10786:                pchLine++;

	mov	ecx, DWORD PTR _pchLine$[ebp]
	add	ecx, 1
	mov	DWORD PTR _pchLine$[ebp], ecx
	jmp	SHORT $LN6@fnActivate
$LN7@fnActivate:

; 10787: 
; 10788:             pchLine++;

	mov	edx, DWORD PTR _pchLine$[ebp]
	add	edx, 1
	mov	DWORD PTR _pchLine$[ebp], edx

; 10789:             lPrevIndicators = lIndicators;

	mov	eax, DWORD PTR _lIndicators$[ebp]
	mov	DWORD PTR _lPrevIndicators$[ebp], eax

; 10790: 
; 10791:             if ( *plControl & zCOMPRESSED )

	mov	ecx, DWORD PTR _plControl$[ebp]
	mov	edx, DWORD PTR [ecx]
	and	edx, 131072				; 00020000H
	je	SHORT $LN73@fnActivate

; 10792:                lIndicators = (zLONG) zxtob( pchLine );

	push	16					; 00000010H
	push	0
	mov	eax, DWORD PTR _pchLine$[ebp]
	push	eax
	call	DWORD PTR __imp__strtoul
	add	esp, 12					; 0000000cH
	mov	DWORD PTR _lIndicators$[ebp], eax
	jmp	SHORT $LN10@fnActivate
$LN73@fnActivate:

; 10793:             else
; 10794:                lIndicators = (zLONG) zatob( pchLine ); /* HH, 14.10.96 */

	mov	ecx, DWORD PTR _pchLine$[ebp]
	push	ecx
	call	DWORD PTR __imp__atol
	add	esp, 4
	mov	DWORD PTR _lIndicators$[ebp], eax
$LN10@fnActivate:

; 10795:          }
; 10796: 
; 10797:          for ( ; ; )  // Validate view entity received
; 10798:          {
; 10799:             zSHORT nHierNbr;
; 10800: 
; 10801:             lpViewEntity    = zGETPTR( lpViewOD->hFirstOD_Entity );

	mov	edx, DWORD PTR _lpViewOD$[ebp]
	mov	eax, DWORD PTR [edx+224]
	push	eax
	call	DWORD PTR _g_pfnGetPtr
	mov	DWORD PTR _lpViewEntity$[ebp], eax

; 10802:             lpViewEntityCsr = zGETPTR( lpViewCsr->hRootViewEntityCsr );

	mov	ecx, DWORD PTR _lpViewCsr$[ebp]
	mov	edx, DWORD PTR [ecx+18]
	push	edx
	call	DWORD PTR _g_pfnGetPtr
	mov	DWORD PTR _lpViewEntityCsr$[ebp], eax

; 10803: 
; 10804:             // If the root cursor is not the first cursor, skip ViewEntities
; 10805:             // until we get to the entity matching the root cursor
; 10806:             if ( lpViewEntityCsr != zGETPTR( lpViewCsr->hFirstOD_EntityCsr ) )

	mov	eax, DWORD PTR _lpViewCsr$[ebp]
	mov	ecx, DWORD PTR [eax+14]
	push	ecx
	call	DWORD PTR _g_pfnGetPtr
	cmp	DWORD PTR _lpViewEntityCsr$[ebp], eax
	je	SHORT $LN75@fnActivate

; 10807:             {
; 10808:                LPVIEWENTITYCSR lpSearchViewEntityCsr;
; 10809: 
; 10810:                lpSearchViewEntityCsr =

	mov	edx, DWORD PTR _lpViewCsr$[ebp]
	mov	eax, DWORD PTR [edx+14]
	push	eax
	call	DWORD PTR _g_pfnGetPtr
	mov	DWORD PTR _lpSearchViewEntityCsr$12[ebp], eax
$LN11@fnActivate:

; 10811:                                     zGETPTR( lpViewCsr->hFirstOD_EntityCsr );
; 10812: 
; 10813:                while ( lpSearchViewEntityCsr != lpViewEntityCsr )

	mov	ecx, DWORD PTR _lpSearchViewEntityCsr$12[ebp]
	cmp	ecx, DWORD PTR _lpViewEntityCsr$[ebp]
	je	SHORT $LN75@fnActivate

; 10814:                {
; 10815:                   lpViewEntity = zGETPTR( lpViewEntity->hNextHier );

	mov	edx, DWORD PTR _lpViewEntity$[ebp]
	mov	eax, DWORD PTR [edx+2]
	push	eax
	call	DWORD PTR _g_pfnGetPtr
	mov	DWORD PTR _lpViewEntity$[ebp], eax

; 10816:                   lpSearchViewEntityCsr++;

	mov	ecx, DWORD PTR _lpSearchViewEntityCsr$12[ebp]
	add	ecx, 30					; 0000001eH
	mov	DWORD PTR _lpSearchViewEntityCsr$12[ebp], ecx

; 10817:                }

	jmp	SHORT $LN11@fnActivate
$LN75@fnActivate:

; 10818:             }
; 10819: 
; 10820:             if ( *plControl & zCOMPRESSED )

	mov	edx, DWORD PTR _plControl$[ebp]
	mov	eax, DWORD PTR [edx]
	and	eax, 131072				; 00020000H
	je	SHORT $LN13@fnActivate

; 10821:                nHierNbr = (zSHORT) zxtol( szWorkString );

	push	16					; 00000010H
	push	0
	lea	ecx, DWORD PTR _szWorkString$[ebp]
	push	ecx
	call	DWORD PTR __imp__strtoul
	add	esp, 12					; 0000000cH
	mov	WORD PTR _nHierNbr$14[ebp], ax
$LN13@fnActivate:

; 10822: 
; 10823:             while ( lpViewEntityCsr )

	cmp	DWORD PTR _lpViewEntityCsr$[ebp], 0
	je	$LN14@fnActivate

; 10824:             {
; 10825:                if ( *plControl & zCOMPRESSED )

	mov	edx, DWORD PTR _plControl$[ebp]
	mov	eax, DWORD PTR [edx]
	and	eax, 131072				; 00020000H
	je	SHORT $LN77@fnActivate

; 10826:                {
; 10827:                   if ( lpViewEntity->nHierNbr == nHierNbr )

	mov	ecx, DWORD PTR _lpViewEntity$[ebp]
	movsx	edx, WORD PTR [ecx+217]
	movsx	eax, WORD PTR _nHierNbr$14[ebp]
	cmp	edx, eax
	jne	SHORT $LN79@fnActivate

; 10828:                      break;

	jmp	$LN14@fnActivate
$LN79@fnActivate:

; 10829:                }

	jmp	SHORT $LN78@fnActivate
$LN77@fnActivate:

; 10830:                else
; 10831:                if ( zstrcmp( lpViewEntity->szName, szWorkString ) == 0 )

	mov	ecx, DWORD PTR _lpViewEntity$[ebp]
	movsx	edx, BYTE PTR [ecx+14]
	movsx	eax, BYTE PTR _szWorkString$[ebp]
	cmp	edx, eax
	jne	SHORT $LN245@fnActivate
	lea	ecx, DWORD PTR _szWorkString$[ebp]
	push	ecx
	mov	edx, DWORD PTR _lpViewEntity$[ebp]
	add	edx, 14					; 0000000eH
	push	edx
	call	_strcmp
	add	esp, 8
	mov	DWORD PTR tv417[ebp], eax
	jmp	SHORT $LN246@fnActivate
$LN245@fnActivate:
	mov	eax, DWORD PTR _lpViewEntity$[ebp]
	movsx	ecx, BYTE PTR [eax+14]
	movsx	edx, BYTE PTR _szWorkString$[ebp]
	sub	ecx, edx
	test	ecx, ecx
	jle	SHORT $LN243@fnActivate
	mov	DWORD PTR tv416[ebp], 1
	jmp	SHORT $LN244@fnActivate
$LN243@fnActivate:
	mov	DWORD PTR tv416[ebp], -1
$LN244@fnActivate:
	mov	eax, DWORD PTR tv416[ebp]
	mov	DWORD PTR tv417[ebp], eax
$LN246@fnActivate:
	cmp	DWORD PTR tv417[ebp], 0
	jne	SHORT $LN78@fnActivate

; 10832:                   break;

	jmp	SHORT $LN14@fnActivate
$LN78@fnActivate:

; 10833: 
; 10834:                lpViewEntity    = zGETPTR( lpViewEntity->hNextHier );

	mov	ecx, DWORD PTR _lpViewEntity$[ebp]
	mov	edx, DWORD PTR [ecx+2]
	push	edx
	call	DWORD PTR _g_pfnGetPtr
	mov	DWORD PTR _lpViewEntity$[ebp], eax

; 10835:                lpViewEntityCsr = zGETPTR( lpViewEntityCsr->hNextHier );

	mov	eax, DWORD PTR _lpViewEntityCsr$[ebp]
	mov	ecx, DWORD PTR [eax+2]
	push	ecx
	call	DWORD PTR _g_pfnGetPtr
	mov	DWORD PTR _lpViewEntityCsr$[ebp], eax

; 10836:             }

	jmp	$LN13@fnActivate
$LN14@fnActivate:

; 10837: 
; 10838:             if ( lpViewEntityCsr == 0 )

	cmp	DWORD PTR _lpViewEntityCsr$[ebp], 0
	jne	SHORT $LN81@fnActivate

; 10839:             {
; 10840:                // OK, No cursor was found in the current view, if there are
; 10841:                // outstanding subobjects, do a reset and try again to find
; 10842:                // the entity
; 10843:                if ( lpViewCsr->hFirstViewSubobject )

	mov	edx, DWORD PTR _lpViewCsr$[ebp]
	cmp	DWORD PTR [edx+30], 0
	je	SHORT $LN83@fnActivate

; 10844:                   fnResetViewFromSubobject( lpView );

	mov	eax, DWORD PTR _lpView$[ebp]
	push	eax
	call	_fnResetViewFromSubobject
	add	esp, 4
	jmp	SHORT $LN84@fnActivate
$LN83@fnActivate:

; 10845:                else
; 10846:                {
; 10847:                   lpViewEntity = 0;

	mov	DWORD PTR _lpViewEntity$[ebp], 0

; 10848:                   break;  // Ouch, Entity does not exist, give up

	jmp	$LN9@fnActivate
$LN84@fnActivate:

; 10849:                }
; 10850:             }

	jmp	$LN82@fnActivate
$LN81@fnActivate:

; 10851:             else
; 10852:             {
; 10853:                // We've found a cursor which matches the entity type
; 10854:                // now check to see if a SetViewToSubobject or a reset is
; 10855:                // needed to create the entity at the appropriate level
; 10856:                if ( lpViewEntityCsr->nLevel == nLevel )

	mov	ecx, DWORD PTR _lpViewEntityCsr$[ebp]
	movsx	edx, WORD PTR [ecx+22]
	movsx	eax, WORD PTR _nLevel$[ebp]
	cmp	edx, eax
	jne	SHORT $LN85@fnActivate

; 10857:                {
; 10858:                   break;

	jmp	$LN9@fnActivate

; 10859:                }

	jmp	$LN82@fnActivate
$LN85@fnActivate:

; 10860:                else
; 10861:                if ( lpViewEntityCsr->nLevel > nLevel )

	mov	ecx, DWORD PTR _lpViewEntityCsr$[ebp]
	movsx	edx, WORD PTR [ecx+22]
	movsx	eax, WORD PTR _nLevel$[ebp]
	cmp	edx, eax
	jle	SHORT $LN87@fnActivate

; 10862:                {
; 10863:                   if ( lpViewCsr->hFirstViewSubobject == 0 )

	mov	ecx, DWORD PTR _lpViewCsr$[ebp]
	cmp	DWORD PTR [ecx+30], 0
	jne	SHORT $LN15@fnActivate

; 10864:                      break;

	jmp	$LN9@fnActivate
$LN15@fnActivate:

; 10865: 
; 10866:                   while ( lpViewEntityCsr->nLevel > nLevel &&

	mov	edx, DWORD PTR _lpViewEntityCsr$[ebp]
	movsx	eax, WORD PTR [edx+22]
	movsx	ecx, WORD PTR _nLevel$[ebp]
	cmp	eax, ecx
	jle	SHORT $LN16@fnActivate
	mov	edx, DWORD PTR _lpViewCsr$[ebp]
	cmp	DWORD PTR [edx+30], 0
	je	SHORT $LN16@fnActivate

; 10867:                           lpViewCsr->hFirstViewSubobject )
; 10868:                   {
; 10869:                      fnResetViewFromSubobject( lpView );

	mov	eax, DWORD PTR _lpView$[ebp]
	push	eax
	call	_fnResetViewFromSubobject
	add	esp, 4

; 10870:                   }

	jmp	SHORT $LN15@fnActivate
$LN16@fnActivate:

; 10871:                }

	jmp	SHORT $LN82@fnActivate
$LN87@fnActivate:

; 10872:                else
; 10873:                {
; 10874:                   // The view entity csr level is < the entity level.
; 10875:                   // In this case, the current (last) instance must be the
; 10876:                   // parent of the instance we are about to create and
; 10877:                   // it must have recursive behaviour. Otherwise we will
; 10878:                   // drop out and issue a level error
; 10879:                   if ( lpEntityInstance )

	cmp	DWORD PTR _lpEntityInstance$[ebp], 0
	je	SHORT $LN90@fnActivate

; 10880:                   {
; 10881:                      LPVIEWENTITY lpWkViewEntity =

	mov	ecx, DWORD PTR _lpEntityInstance$[ebp]
	mov	edx, DWORD PTR [ecx+2]
	push	edx
	call	DWORD PTR _g_pfnGetPtr
	mov	DWORD PTR _lpWkViewEntity$5[ebp], eax

; 10882:                                  zGETPTR( lpEntityInstance->hViewEntity );
; 10883: 
; 10884:                      if ( lpWkViewEntity->bRecursive )

	mov	eax, DWORD PTR _lpWkViewEntity$5[ebp]
	mov	ecx, DWORD PTR [eax+235]
	shr	ecx, 11					; 0000000bH
	and	ecx, 1
	je	SHORT $LN90@fnActivate

; 10885:                         fnSetViewToSubobject( lpView, lpWkViewEntity, 0 );

	push	0
	mov	edx, DWORD PTR _lpWkViewEntity$5[ebp]
	push	edx
	mov	eax, DWORD PTR _lpView$[ebp]
	push	eax
	call	_fnSetViewToSubobject
	add	esp, 12					; 0000000cH
$LN90@fnActivate:

; 10886:                   }
; 10887: 
; 10888:                   break;

	jmp	SHORT $LN9@fnActivate
$LN82@fnActivate:

; 10889:                }
; 10890:             }  // if ( lpViewEntityCsr == 0 )...else...
; 10891:          }  // for ( ; ; )...

	jmp	$LN10@fnActivate
$LN9@fnActivate:

; 10892: 
; 10893:          bSkipAttributes = FALSE;

	mov	BYTE PTR _bSkipAttributes$[ebp], 0

; 10894: 
; 10895:          if ( lpViewEntity == 0 )

	cmp	DWORD PTR _lpViewEntity$[ebp], 0
	jne	$LN92@fnActivate

; 10896:          {
; 10897:             // Let's at least trace it out.
; 10898:             TraceLineS( "(WARNING) Couldn't find entity ", szWorkString );

	lea	ecx, DWORD PTR _szWorkString$[ebp]
	push	ecx
	push	OFFSET $SG17292
	call	_TraceLineS@8

; 10899:             TraceLineS( "(WARNING) in LOD ", lpViewOD->szName );

	mov	edx, DWORD PTR _lpViewOD$[ebp]
	add	edx, 10					; 0000000aH
	push	edx
	push	OFFSET $SG17293
	call	_TraceLineS@8

; 10900: 
; 10901:             if ( bIgnoreEntityErrors == FALSE || nLevel == 1 )

	movzx	eax, BYTE PTR _bIgnoreEntityErrors$[ebp]
	test	eax, eax
	je	SHORT $LN95@fnActivate
	movsx	ecx, WORD PTR _nLevel$[ebp]
	cmp	ecx, 1
	jne	SHORT $LN94@fnActivate
$LN95@fnActivate:

; 10902:             {
; 10903:                //  "KZOEE074 - Invalid Entity name on line "
; 10904:                (*lpfnStreamFunc)( lpView, lpvData, (zPPCHAR) szWorkString, 0, 74 );

	push	74					; 0000004aH
	push	0
	lea	edx, DWORD PTR _szWorkString$[ebp]
	push	edx
	mov	eax, DWORD PTR _lpvData$[ebp]
	push	eax
	mov	ecx, DWORD PTR _lpView$[ebp]
	push	ecx
	call	DWORD PTR _lpfnStreamFunc$[ebp]

; 10905:                nRC = zCALL_ERROR;

	mov	edx, -16				; fffffff0H
	mov	WORD PTR _nRC$[ebp], dx

; 10906:                break;

	jmp	$LN3@fnActivate
$LN94@fnActivate:

; 10907:             }
; 10908: 
; 10909:             nErrorEntityLvl = nLevel;

	mov	ax, WORD PTR _nLevel$[ebp]
	mov	WORD PTR _nErrorEntityLvl$[ebp], ax

; 10910:             nErrorEntityCnt++;

	mov	cx, WORD PTR _nErrorEntityCnt$[ebp]
	add	cx, 1
	mov	WORD PTR _nErrorEntityCnt$[ebp], cx

; 10911:          }

	jmp	$LN93@fnActivate
$LN92@fnActivate:

; 10912:          else
; 10913:          if ( *plControl & zACTIVATE_ROOTONLY && nLevel > 1 )

	mov	edx, DWORD PTR _plControl$[ebp]
	mov	eax, DWORD PTR [edx]
	and	eax, 268435456				; 10000000H
	je	SHORT $LN96@fnActivate
	movsx	ecx, WORD PTR _nLevel$[ebp]
	cmp	ecx, 1
	jle	SHORT $LN96@fnActivate

; 10914:          {
; 10915:             // Current entity is not a root and user indicated that she only
; 10916:             // wants roots.  Set flag to indicate we want to skip setting
; 10917:             // attribute values.
; 10918:             bSkipAttributes = TRUE;

	mov	BYTE PTR _bSkipAttributes$[ebp], 1

; 10919:             continue;

	jmp	$LN2@fnActivate

; 10920:          }

	jmp	$LN93@fnActivate
$LN96@fnActivate:

; 10921:          else
; 10922:          if ( lpViewEntityCsr->nLevel != nLevel )

	mov	edx, DWORD PTR _lpViewEntityCsr$[ebp]
	movsx	eax, WORD PTR [edx+22]
	movsx	ecx, WORD PTR _nLevel$[ebp]
	cmp	eax, ecx
	je	SHORT $LN98@fnActivate

; 10923:          {
; 10924:             // if the view cursor level does not equal the entity
; 10925:             // level coming in, issue an error
; 10926:             //  "KZOEE075 - Invalid Entity level on line "
; 10927:             (*lpfnStreamFunc)( lpView, lpvData, (zPPCHAR) szWorkString, 0, 75 );

	push	75					; 0000004bH
	push	0
	lea	edx, DWORD PTR _szWorkString$[ebp]
	push	edx
	mov	eax, DWORD PTR _lpvData$[ebp]
	push	eax
	mov	ecx, DWORD PTR _lpView$[ebp]
	push	ecx
	call	DWORD PTR _lpfnStreamFunc$[ebp]

; 10928:             nRC = zCALL_ERROR;

	mov	edx, -16				; fffffff0H
	mov	WORD PTR _nRC$[ebp], dx

; 10929:             break;

	jmp	$LN3@fnActivate

; 10930:          }

	jmp	SHORT $LN93@fnActivate
$LN98@fnActivate:

; 10931:          else
; 10932:          {
; 10933:             if ( nLevel == 1 && lpViewEntityCsr->hEntityInstance &&

	movsx	eax, WORD PTR _nLevel$[ebp]
	cmp	eax, 1
	jne	SHORT $LN100@fnActivate
	mov	ecx, DWORD PTR _lpViewEntityCsr$[ebp]
	cmp	DWORD PTR [ecx+26], 0
	je	SHORT $LN100@fnActivate
	mov	edx, DWORD PTR _lpViewOI$[ebp]
	mov	eax, DWORD PTR [edx+36]
	and	eax, 1
	jne	SHORT $LN100@fnActivate

; 10934:                  lpViewOI->bMultipleRootLevels == FALSE )
; 10935:             {
; 10936:                // Doing this stuff means that there are multiple level 1
; 10937:                // roots in the the file, but that the user has requested
; 10938:                // activation of the the instance with zSINGLE rather than
; 10939:                // zMULTIPLE.  We will act like the EOF condition has
; 10940:                // occurred and set return code to indicate that we found
; 10941:                // multiple roots.
; 10942:                nRC = 1;

	mov	ecx, 1
	mov	WORD PTR _nRC$[ebp], cx

; 10943:                bSkipAttributes = TRUE;

	mov	BYTE PTR _bSkipAttributes$[ebp], 1

; 10944:                continue;

	jmp	$LN2@fnActivate

; 10945:             }

	jmp	SHORT $LN93@fnActivate
$LN100@fnActivate:

; 10946:             else
; 10947:             {
; 10948:                nRC = fnCreateEntity( lpView, lpViewEntity,

	push	0
	push	3
	mov	edx, DWORD PTR _lpViewEntityCsr$[ebp]
	push	edx
	mov	eax, DWORD PTR _lpViewEntity$[ebp]
	push	eax
	mov	ecx, DWORD PTR _lpView$[ebp]
	push	ecx
	call	_fnCreateEntity@20
	mov	WORD PTR _nRC$[ebp], ax

; 10949:                                      lpViewEntityCsr, zPOS_AFTER, 0 );
; 10950:                if ( nRC )

	movsx	edx, WORD PTR _nRC$[ebp]
	test	edx, edx
	je	SHORT $LN102@fnActivate

; 10951:                   break;

	jmp	$LN3@fnActivate
$LN102@fnActivate:

; 10952: 
; 10953:                nErrorEntityLvl = 0;

	xor	eax, eax
	mov	WORD PTR _nErrorEntityLvl$[ebp], ax
$LN93@fnActivate:

; 10954:             }
; 10955:          }
; 10956: 
; 10957:          // The current entity is compressed if:
; 10958:          // o  The portable file is stored in compressed format.
; 10959:          // o  The max size of all the attributes for the entity is smaller
; 10960:          //    then the buffer we set up to hold all the attribute values.
; 10961:          bEntityIsCompressed = (*plControl & zCOMPRESSED) &&

	mov	ecx, DWORD PTR _plControl$[ebp]
	mov	edx, DWORD PTR [ecx]
	and	edx, 131072				; 00020000H
	je	SHORT $LN247@fnActivate
	mov	eax, DWORD PTR _lpViewEntity$[ebp]
	cmp	DWORD PTR [eax+203], 10000		; 00002710H
	jae	SHORT $LN247@fnActivate
	mov	DWORD PTR tv505[ebp], 1
	jmp	SHORT $LN248@fnActivate
$LN247@fnActivate:
	mov	DWORD PTR tv505[ebp], 0
$LN248@fnActivate:
	mov	cl, BYTE PTR tv505[ebp]
	mov	BYTE PTR _bEntityIsCompressed$[ebp], cl

; 10962:                                (lpViewEntity->ulMaxLth < zENTITY_BUFFER_SIZE);
; 10963: 
; 10964:          if ( nErrorEntityLvl == 0 )

	movsx	edx, WORD PTR _nErrorEntityLvl$[ebp]
	test	edx, edx
	jne	$LN103@fnActivate

; 10965:          {
; 10966:             // if this is not the first instance, set the indicators on
; 10967:             // the previous instance. NOTE this is done after all updates
; 10968:             // so the update flag can be reset!
; 10969:             if ( lpEntityInstance )

	cmp	DWORD PTR _lpEntityInstance$[ebp], 0
	je	$LN105@fnActivate

; 10970:             {
; 10971:                if ( *plControl & zINCREMENTAL )

	mov	eax, DWORD PTR _plControl$[ebp]
	mov	ecx, DWORD PTR [eax]
	and	ecx, 65536				; 00010000H
	je	$LN106@fnActivate

; 10972:                {
; 10973:                   lpEntityInstance->u.nIndicators = lPrevIndicators;

	mov	edx, DWORD PTR _lpEntityInstance$[ebp]
	mov	eax, DWORD PTR _lPrevIndicators$[ebp]
	mov	DWORD PTR [edx+6], eax

; 10974:                   lpEntityInstance->u.nInd.bPrevVersion = FALSE;

	mov	ecx, DWORD PTR _lpEntityInstance$[ebp]
	mov	edx, DWORD PTR [ecx+6]
	and	edx, -257				; fffffeffH
	mov	eax, DWORD PTR _lpEntityInstance$[ebp]
	mov	DWORD PTR [eax+6], edx

; 10975: 
; 10976:                   // A hack to make sure that a delete/excluded entity is
; 10977:                   // flagged as hidden.  This tries to fix a bug.
; 10978:                   if ( lpEntityInstance->u.nInd.bDeleted  ||

	mov	ecx, DWORD PTR _lpEntityInstance$[ebp]
	mov	edx, DWORD PTR [ecx+6]
	shr	edx, 3
	and	edx, 1
	jne	SHORT $LN109@fnActivate
	mov	eax, DWORD PTR _lpEntityInstance$[ebp]
	mov	ecx, DWORD PTR [eax+6]
	shr	ecx, 4
	and	ecx, 1
	je	SHORT $LN108@fnActivate
$LN109@fnActivate:

; 10979:                        lpEntityInstance->u.nInd.bExcluded )
; 10980:                   {
; 10981:                      lpEntityInstance->u.nInd.bHidden = TRUE;

	mov	edx, DWORD PTR _lpEntityInstance$[ebp]
	mov	eax, DWORD PTR [edx+6]
	or	eax, 1024				; 00000400H
	mov	ecx, DWORD PTR _lpEntityInstance$[ebp]
	mov	DWORD PTR [ecx+6], eax
$LN108@fnActivate:

; 10982:                   }
; 10983: 
; 10984:                   if ( lpEntityInstance->u.nInd.bCreated  ||
; 10985:                        lpEntityInstance->u.nInd.bDeleted  ||
; 10986:                        lpEntityInstance->u.nInd.bIncluded ||
; 10987:                        lpEntityInstance->u.nInd.bExcluded ||

	mov	edx, DWORD PTR _lpEntityInstance$[ebp]
	mov	eax, DWORD PTR [edx+6]
	shr	eax, 1
	and	eax, 1
	jne	SHORT $LN111@fnActivate
	mov	ecx, DWORD PTR _lpEntityInstance$[ebp]
	mov	edx, DWORD PTR [ecx+6]
	shr	edx, 3
	and	edx, 1
	jne	SHORT $LN111@fnActivate
	mov	eax, DWORD PTR _lpEntityInstance$[ebp]
	mov	ecx, DWORD PTR [eax+6]
	shr	ecx, 5
	and	ecx, 1
	jne	SHORT $LN111@fnActivate
	mov	edx, DWORD PTR _lpEntityInstance$[ebp]
	mov	eax, DWORD PTR [edx+6]
	shr	eax, 4
	and	eax, 1
	jne	SHORT $LN111@fnActivate
	mov	ecx, DWORD PTR _lpEntityInstance$[ebp]
	mov	edx, DWORD PTR [ecx+6]
	shr	edx, 2
	and	edx, 1
	je	SHORT $LN110@fnActivate
$LN111@fnActivate:

; 10988:                        lpEntityInstance->u.nInd.bUpdated )
; 10989:                   {
; 10990:                      bOI_IsUpdated = TRUE;

	mov	BYTE PTR _bOI_IsUpdated$[ebp], 1
$LN110@fnActivate:

; 10991:                   }
; 10992:                }

	jmp	SHORT $LN105@fnActivate
$LN106@fnActivate:

; 10993:                else
; 10994:                   lpEntityInstance->u.nInd.bUpdated = FALSE;

	mov	eax, DWORD PTR _lpEntityInstance$[ebp]
	mov	ecx, DWORD PTR [eax+6]
	and	ecx, -5					; fffffffbH
	mov	edx, DWORD PTR _lpEntityInstance$[ebp]
	mov	DWORD PTR [edx+6], ecx
$LN105@fnActivate:

; 10995:             }
; 10996: 
; 10997:             // Set lpEntityInstance to instance just created.
; 10998:             lpEntityInstance = zGETPTR( lpViewEntityCsr->hEntityInstance );

	mov	eax, DWORD PTR _lpViewEntityCsr$[ebp]
	mov	ecx, DWORD PTR [eax+26]
	push	ecx
	call	DWORD PTR _g_pfnGetPtr
	mov	DWORD PTR _lpEntityInstance$[ebp], eax

; 10999:             *pRelinkBufferPtr = (zLONG) lpEntityInstance;

	mov	edx, DWORD PTR _pRelinkBufferPtr$[ebp]
	mov	eax, DWORD PTR _lpEntityInstance$[ebp]
	mov	DWORD PTR [edx], eax

; 11000:             pRelinkBufferPtr++;

	mov	ecx, DWORD PTR _pRelinkBufferPtr$[ebp]
	add	ecx, 4
	mov	DWORD PTR _pRelinkBufferPtr$[ebp], ecx

; 11001:             lEntityCnt++;

	mov	edx, DWORD PTR _lEntityCnt$[ebp]
	add	edx, 1
	mov	DWORD PTR _lEntityCnt$[ebp], edx

; 11002:             lpEntityInstance->u.nInd.bCreated = TRUE;

	mov	eax, DWORD PTR _lpEntityInstance$[ebp]
	mov	ecx, DWORD PTR [eax+6]
	or	ecx, 2
	mov	edx, DWORD PTR _lpEntityInstance$[ebp]
	mov	DWORD PTR [edx+6], ecx

; 11003:             lpEntityInstance->u.nInd.bPrevVersion = FALSE;

	mov	eax, DWORD PTR _lpEntityInstance$[ebp]
	mov	ecx, DWORD PTR [eax+6]
	and	ecx, -257				; fffffeffH
	mov	edx, DWORD PTR _lpEntityInstance$[ebp]
	mov	DWORD PTR [edx+6], ecx

; 11004:          }

	jmp	SHORT $LN104@fnActivate
$LN103@fnActivate:

; 11005:          else
; 11006:          {
; 11007:             *pRelinkBufferPtr = 0;

	mov	eax, DWORD PTR _pRelinkBufferPtr$[ebp]
	mov	DWORD PTR [eax], 0

; 11008:             pRelinkBufferPtr++;

	mov	ecx, DWORD PTR _pRelinkBufferPtr$[ebp]
	add	ecx, 4
	mov	DWORD PTR _pRelinkBufferPtr$[ebp], ecx

; 11009:             lEntityCnt++;

	mov	edx, DWORD PTR _lEntityCnt$[ebp]
	add	edx, 1
	mov	DWORD PTR _lEntityCnt$[ebp], edx

; 11010: 
; 11011:             // If we're ignoring errors then set the error code back to 0
; 11012:             // so that we can keep processing entities.
; 11013:             if ( bIgnoreEntityErrors )

	movzx	eax, BYTE PTR _bIgnoreEntityErrors$[ebp]
	test	eax, eax
	je	SHORT $LN104@fnActivate

; 11014:                nErrorEntityLvl = 0;

	xor	ecx, ecx
	mov	WORD PTR _nErrorEntityLvl$[ebp], cx
$LN104@fnActivate:

; 11015:          }
; 11016:       }  // if ( pchLine[ 0 ] == 'e' )...

	jmp	$LN55@fnActivate
$LN68@fnActivate:

; 11017:       else
; 11018:       if ( pchLine[ 0 ] == 'a' && lpViewEntity )  // Attrib and entity exists

	mov	edx, 1
	imul	eax, edx, 0
	mov	ecx, DWORD PTR _pchLine$[ebp]
	movsx	edx, BYTE PTR [ecx+eax]
	cmp	edx, 97					; 00000061H
	jne	$LN113@fnActivate
	cmp	DWORD PTR _lpViewEntity$[ebp], 0
	je	$LN113@fnActivate

; 11019:       {
; 11020:          LPATTRIBFLAGS     lpAttribFlags;
; 11021:          AttribFlagsRecord AttribFlags;
; 11022: 
; 11023:          if ( bEntityIsCompressed && pchLine[ 1 ] == ' ' )

	movzx	eax, BYTE PTR _bEntityIsCompressed$[ebp]
	test	eax, eax
	je	$LN115@fnActivate
	mov	ecx, 1
	shl	ecx, 0
	mov	edx, DWORD PTR _pchLine$[ebp]
	movsx	eax, BYTE PTR [edx+ecx]
	cmp	eax, 32					; 00000020H
	jne	$LN115@fnActivate

; 11024:          {
; 11025:             zPCHAR pchStart;
; 11026: 
; 11027:             // The entity is stored in a compressed format.  The line we just
; 11028:             // read contains an 'a' followed by the length of all the attribute
; 11029:             // data in hex.
; 11030:             ulLth = zxtol( pchLine + 2 );

	push	16					; 00000010H
	push	0
	mov	ecx, DWORD PTR _pchLine$[ebp]
	add	ecx, 2
	push	ecx
	call	DWORD PTR __imp__strtoul
	add	esp, 12					; 0000000cH
	mov	DWORD PTR _ulLth$[ebp], eax

; 11031:             nEOF = (*lpfnStreamFunc)( lpView, lpvData, &pchLine, ulLth, 0 );

	push	0
	mov	edx, DWORD PTR _ulLth$[ebp]
	push	edx
	lea	eax, DWORD PTR _pchLine$[ebp]
	push	eax
	mov	ecx, DWORD PTR _lpvData$[ebp]
	push	ecx
	mov	edx, DWORD PTR _lpView$[ebp]
	push	edx
	call	DWORD PTR _lpfnStreamFunc$[ebp]
	mov	WORD PTR _nEOF$[ebp], ax

; 11032:             if ( nEOF != 1 )

	movsx	eax, WORD PTR _nEOF$[ebp]
	cmp	eax, 1
	je	SHORT $LN116@fnActivate

; 11033:             {
; 11034:                nRC = zCALL_ERROR;

	mov	ecx, -16				; fffffff0H
	mov	WORD PTR _nRC$[ebp], cx

; 11035:                break;

	jmp	$LN3@fnActivate
$LN116@fnActivate:

; 11036:             }
; 11037: 
; 11038:             pchStart = pchLine;

	mov	edx, DWORD PTR _pchLine$[ebp]
	mov	DWORD PTR _pchStart$1[ebp], edx

; 11039: 
; 11040:             // If bSkipAttributes is TRUE, then we need to skip over these attributes.
; 11041:             if ( bSkipAttributes )

	movzx	eax, BYTE PTR _bSkipAttributes$[ebp]
	test	eax, eax
	je	SHORT $LN117@fnActivate

; 11042:                continue;

	jmp	$LN2@fnActivate
$LN117@fnActivate:

; 11043: 
; 11044:             // pchLine should now point to a buffer containing all the
; 11045:             // attribute values.  Copy each value to the entity.
; 11046:             for ( lpViewAttrib = zGETPTR( lpViewEntity->hFirstOD_Attrib );

	mov	ecx, DWORD PTR _lpViewEntity$[ebp]
	mov	edx, DWORD PTR [ecx+179]
	push	edx
	call	DWORD PTR _g_pfnGetPtr
	mov	DWORD PTR _lpViewAttrib$[ebp], eax
	jmp	SHORT $LN19@fnActivate
$LN17@fnActivate:

; 11048:                   lpViewAttrib = zGETPTR( lpViewAttrib->hNextOD_Attrib ) )

	mov	eax, DWORD PTR _lpViewAttrib$[ebp]
	mov	ecx, DWORD PTR [eax+2]
	push	ecx
	call	DWORD PTR _g_pfnGetPtr
	mov	DWORD PTR _lpViewAttrib$[ebp], eax
$LN19@fnActivate:

; 11047:                   lpViewAttrib;

	cmp	DWORD PTR _lpViewAttrib$[ebp], 0
	je	$LN18@fnActivate

; 11049:             {
; 11050:                if ( lpViewAttrib->szDerivedOper[ 0 ] &&

	mov	edx, 1
	imul	eax, edx, 0
	mov	ecx, DWORD PTR _lpViewAttrib$[ebp]
	movsx	edx, BYTE PTR [ecx+eax+213]
	test	edx, edx
	je	SHORT $LN118@fnActivate
	mov	eax, DWORD PTR _lpViewAttrib$[ebp]
	mov	ecx, DWORD PTR [eax+193]
	and	ecx, 1
	jne	SHORT $LN118@fnActivate

; 11051:                     lpViewAttrib->bPersist == FALSE )
; 11052:                {
; 11053:                   continue;

	jmp	SHORT $LN17@fnActivate
$LN118@fnActivate:

; 11054:                }
; 11055: 
; 11056:                if ( lpViewAttrib->cType == zTYPE_BLOB )

	mov	edx, DWORD PTR _lpViewAttrib$[ebp]
	movsx	eax, BYTE PTR [edx+202]
	cmp	eax, 66					; 00000042H
	jne	SHORT $LN119@fnActivate

; 11057:                   continue;

	jmp	SHORT $LN17@fnActivate
$LN119@fnActivate:

; 11058: 
; 11059:                if ( *pchLine == 0 )

	mov	ecx, DWORD PTR _pchLine$[ebp]
	movsx	edx, BYTE PTR [ecx]
	test	edx, edx
	jne	$LN120@fnActivate

; 11060:                {
; 11061:                   // Attribute value is null.  Skip over 0.
; 11062:                   pchLine++;

	mov	eax, DWORD PTR _pchLine$[ebp]
	add	eax, 1
	mov	DWORD PTR _pchLine$[ebp], eax

; 11063: 
; 11064:                   // Make sure that a record (data stick exists).
; 11065:                   if ( (lpViewAttrib->bPersist &&
; 11066:                         lpEntityInstance->hPersistRecord == 0) ||

	mov	ecx, DWORD PTR _lpViewAttrib$[ebp]
	mov	edx, DWORD PTR [ecx+193]
	and	edx, 1
	je	SHORT $LN124@fnActivate
	mov	eax, DWORD PTR _lpEntityInstance$[ebp]
	cmp	DWORD PTR [eax+60], 0
	je	SHORT $LN123@fnActivate
$LN124@fnActivate:
	mov	ecx, DWORD PTR _lpViewAttrib$[ebp]
	mov	edx, DWORD PTR [ecx+193]
	and	edx, 1
	jne	SHORT $LN122@fnActivate
	mov	eax, DWORD PTR _lpEntityInstance$[ebp]
	cmp	DWORD PTR [eax+64], 0
	jne	SHORT $LN122@fnActivate
$LN123@fnActivate:

; 11067:                        (lpViewAttrib->bPersist == FALSE &&
; 11068:                         lpEntityInstance->hNonPersistRecord == 0) )
; 11069:                   {
; 11070:                      // Set a null value so that the record gets created.
; 11071:                      if ( fnSetAttributeFromString( lpView, lpViewEntityCsr,
; 11072:                                                     lpViewAttrib,
; 11073:                                                     "", 0 ) != 0 )

	push	0
	push	OFFSET $SG17326
	mov	ecx, DWORD PTR _lpViewAttrib$[ebp]
	push	ecx
	mov	edx, DWORD PTR _lpViewEntityCsr$[ebp]
	push	edx
	mov	eax, DWORD PTR _lpView$[ebp]
	push	eax
	call	_fnSetAttributeFromString
	add	esp, 20					; 00000014H
	movsx	ecx, ax
	test	ecx, ecx
	je	SHORT $LN122@fnActivate

; 11074:                      {
; 11075:                         nRC = zCALL_ERROR;

	mov	edx, -16				; fffffff0H
	mov	WORD PTR _nRC$[ebp], dx

; 11076:                         break;

	jmp	$LN18@fnActivate
$LN122@fnActivate:

; 11077:                      }
; 11078:                   }
; 11079:                }

	jmp	$LN121@fnActivate
$LN120@fnActivate:

; 11080:                else
; 11081:                {
; 11082:                   if ( lpViewAttrib->cType == zTYPE_INTEGER )

	mov	eax, DWORD PTR _lpViewAttrib$[ebp]
	movsx	ecx, BYTE PTR [eax+202]
	cmp	ecx, 76					; 0000004cH
	jne	SHORT $LN126@fnActivate

; 11083:                   {
; 11084:                      zLONG l;
; 11085: 
; 11086:                      l = zxtol( pchLine );

	push	16					; 00000010H
	push	0
	mov	edx, DWORD PTR _pchLine$[ebp]
	push	edx
	call	DWORD PTR __imp__strtoul
	add	esp, 12					; 0000000cH
	mov	DWORD PTR _l$2[ebp], eax

; 11087:                      if ( fnSetAttributeFromInteger( lpView, lpViewEntityCsr,
; 11088:                                                      lpViewAttrib, l ) != 0 )

	mov	eax, DWORD PTR _l$2[ebp]
	push	eax
	mov	ecx, DWORD PTR _lpViewAttrib$[ebp]
	push	ecx
	mov	edx, DWORD PTR _lpViewEntityCsr$[ebp]
	push	edx
	mov	eax, DWORD PTR _lpView$[ebp]
	push	eax
	call	_fnSetAttributeFromInteger
	add	esp, 16					; 00000010H
	movsx	ecx, ax
	test	ecx, ecx
	je	SHORT $LN128@fnActivate

; 11089:                      {
; 11090:                         nRC = zCALL_ERROR;

	mov	edx, -16				; fffffff0H
	mov	WORD PTR _nRC$[ebp], dx

; 11091:                         break;

	jmp	$LN18@fnActivate
$LN128@fnActivate:

; 11092:                      }
; 11093:                   }

	jmp	SHORT $LN127@fnActivate
$LN126@fnActivate:

; 11094:                   else
; 11095:                   {
; 11096:                      if ( fnSetAttributeFromString( lpView, lpViewEntityCsr,
; 11097:                                                     lpViewAttrib,
; 11098:                                                     pchLine, 0 ) != 0 )

	push	0
	mov	eax, DWORD PTR _pchLine$[ebp]
	push	eax
	mov	ecx, DWORD PTR _lpViewAttrib$[ebp]
	push	ecx
	mov	edx, DWORD PTR _lpViewEntityCsr$[ebp]
	push	edx
	mov	eax, DWORD PTR _lpView$[ebp]
	push	eax
	call	_fnSetAttributeFromString
	add	esp, 20					; 00000014H
	movsx	ecx, ax
	test	ecx, ecx
	je	SHORT $LN127@fnActivate

; 11099:                      {
; 11100:                         nRC = zCALL_ERROR;

	mov	edx, -16				; fffffff0H
	mov	WORD PTR _nRC$[ebp], dx

; 11101:                         break;

	jmp	$LN18@fnActivate
$LN127@fnActivate:

; 11102:                      }
; 11103:                   }
; 11104: 
; 11105:                   pchLine += zstrlen( pchLine ) + 1;

	mov	eax, DWORD PTR _pchLine$[ebp]
	push	eax
	call	_strlen
	add	esp, 4
	mov	ecx, DWORD PTR _pchLine$[ebp]
	lea	edx, DWORD PTR [ecx+eax+1]
	mov	DWORD PTR _pchLine$[ebp], edx
$LN121@fnActivate:

; 11106:                }
; 11107: 
; 11108:                // Now set the attribute flags.
; 11109:                if ( (*plControl & zINCREMENTAL) &&

	mov	eax, DWORD PTR _plControl$[ebp]
	mov	ecx, DWORD PTR [eax]
	and	ecx, 65536				; 00010000H
	je	SHORT $LN130@fnActivate
	mov	edx, DWORD PTR _plControl$[ebp]
	mov	eax, DWORD PTR [edx]
	and	eax, 33554432				; 02000000H
	je	SHORT $LN130@fnActivate

; 11110:                     (*plControl & zATTRIBFLAGS) )
; 11111:                {
; 11112:                   lpAttribFlags = fnGetAttribFlagsPtr( lpEntityInstance,

	mov	ecx, DWORD PTR _lpViewAttrib$[ebp]
	push	ecx
	mov	edx, DWORD PTR _lpEntityInstance$[ebp]
	push	edx
	call	_fnGetAttribFlagsPtr@8
	mov	DWORD PTR _lpAttribFlags$19[ebp], eax

; 11113:                                                        lpViewAttrib );
; 11114:                   lpAttribFlags->u.uFlags = zxtob( pchLine );

	push	16					; 00000010H
	push	0
	mov	eax, DWORD PTR _pchLine$[ebp]
	push	eax
	call	DWORD PTR __imp__strtoul
	add	esp, 12					; 0000000cH
	mov	ecx, DWORD PTR _lpAttribFlags$19[ebp]
	mov	DWORD PTR [ecx], eax

; 11115: 
; 11116:                   pchLine += zstrlen( pchLine ) + 1;

	mov	edx, DWORD PTR _pchLine$[ebp]
	push	edx
	call	_strlen
	add	esp, 4
	mov	ecx, DWORD PTR _pchLine$[ebp]
	lea	edx, DWORD PTR [ecx+eax+1]
	mov	DWORD PTR _pchLine$[ebp], edx
$LN130@fnActivate:

; 11117:                }
; 11118:             }

	jmp	$LN17@fnActivate
$LN18@fnActivate:

; 11119: 
; 11120:             if ( nRC == zCALL_ERROR )

	movsx	eax, WORD PTR _nRC$[ebp]
	cmp	eax, -16				; fffffff0H
	jne	SHORT $LN131@fnActivate

; 11121:                break;

	jmp	$LN3@fnActivate
$LN131@fnActivate:

; 11122: 
; 11123:             // Continue with the next line in the file.
; 11124:             continue;

	jmp	$LN2@fnActivate
$LN115@fnActivate:

; 11125: 
; 11126:          } // if ( bEntityIsCompressed )...
; 11127: 
; 11128:          // If we get here, then bEntityIsCompressed is FALSE.  But it's still
; 11129:          // possible that the OI is stored in a compressed format--it's just
; 11130:          // that the attributes couldn't be squeezed into one line.  If the OI
; 11131:          // is compressed, then the attribute names are stored as the XVA
; 11132:          // tokens instead of the names.
; 11133: 
; 11134:          // First get the attribute name/number into szWorkString.  The end of
; 11135:          // the name/number is indicated when we find a space or comma.
; 11136:          for ( k = 0, pchLine++;

	mov	DWORD PTR _k$[ebp], 0
	mov	ecx, DWORD PTR _pchLine$[ebp]
	add	ecx, 1
	mov	DWORD PTR _pchLine$[ebp], ecx
	jmp	SHORT $LN22@fnActivate
$LN20@fnActivate:

; 11138:                k++ )

	mov	edx, DWORD PTR _k$[ebp]
	add	edx, 1
	mov	DWORD PTR _k$[ebp], edx
$LN22@fnActivate:

; 11137:                pchLine[ k ] && pchLine[ k ] != ' ' && pchLine[ k ] != ',';

	mov	eax, DWORD PTR _pchLine$[ebp]
	add	eax, DWORD PTR _k$[ebp]
	movsx	ecx, BYTE PTR [eax]
	test	ecx, ecx
	je	SHORT $LN21@fnActivate
	mov	edx, DWORD PTR _pchLine$[ebp]
	add	edx, DWORD PTR _k$[ebp]
	movsx	eax, BYTE PTR [edx]
	cmp	eax, 32					; 00000020H
	je	SHORT $LN21@fnActivate
	mov	ecx, DWORD PTR _pchLine$[ebp]
	add	ecx, DWORD PTR _k$[ebp]
	movsx	edx, BYTE PTR [ecx]
	cmp	edx, 44					; 0000002cH
	je	SHORT $LN21@fnActivate

; 11139:          {
; 11140:             szWorkString[ k ] = pchLine[ k ];

	mov	eax, DWORD PTR _pchLine$[ebp]
	add	eax, DWORD PTR _k$[ebp]
	mov	ecx, DWORD PTR _k$[ebp]
	mov	dl, BYTE PTR [eax]
	mov	BYTE PTR _szWorkString$[ebp+ecx], dl

; 11141:          }

	jmp	SHORT $LN20@fnActivate
$LN21@fnActivate:

; 11142: 
; 11143:          // Terminate szWorkString.
; 11144:          szWorkString[ k ] = 0;

	mov	eax, DWORD PTR _k$[ebp]
	mov	DWORD PTR $T10[ebp], eax
	cmp	DWORD PTR $T10[ebp], 256		; 00000100H
	jae	SHORT $LN249@fnActivate
	jmp	SHORT $LN250@fnActivate
$LN249@fnActivate:
	call	___report_rangecheckfailure
$LN250@fnActivate:
	mov	ecx, DWORD PTR $T10[ebp]
	mov	BYTE PTR _szWorkString$[ebp+ecx], 0

; 11145: 
; 11146:          // If the next char in the line is a comma then we also need to
; 11147:          // retrieve the attribute flags.
; 11148:          if ( pchLine[ k ] == ',' )

	mov	edx, DWORD PTR _pchLine$[ebp]
	add	edx, DWORD PTR _k$[ebp]
	movsx	eax, BYTE PTR [edx]
	cmp	eax, 44					; 0000002cH
	jne	$LN132@fnActivate

; 11149:          {
; 11150:             zCHAR  szAttribFlags[ 12 ];
; 11151:             zSHORT j;
; 11152: 
; 11153:             k++;  // Skip over the ','.

	mov	ecx, DWORD PTR _k$[ebp]
	add	ecx, 1
	mov	DWORD PTR _k$[ebp], ecx

; 11154:             j = 0;

	xor	edx, edx
	mov	WORD PTR _j$20[ebp], dx
$LN23@fnActivate:

; 11155:             while ( pchLine[ k ] && pchLine[ k ] != ' ' )

	mov	eax, DWORD PTR _pchLine$[ebp]
	add	eax, DWORD PTR _k$[ebp]
	movsx	ecx, BYTE PTR [eax]
	test	ecx, ecx
	je	SHORT $LN24@fnActivate
	mov	edx, DWORD PTR _pchLine$[ebp]
	add	edx, DWORD PTR _k$[ebp]
	movsx	eax, BYTE PTR [edx]
	cmp	eax, 32					; 00000020H
	je	SHORT $LN24@fnActivate

; 11156:                szAttribFlags[ j++ ] = pchLine[ k++ ];

	movsx	ecx, WORD PTR _j$20[ebp]
	mov	edx, DWORD PTR _pchLine$[ebp]
	add	edx, DWORD PTR _k$[ebp]
	mov	al, BYTE PTR [edx]
	mov	BYTE PTR _szAttribFlags$22[ebp+ecx], al
	mov	cx, WORD PTR _j$20[ebp]
	add	cx, 1
	mov	WORD PTR _j$20[ebp], cx
	mov	edx, DWORD PTR _k$[ebp]
	add	edx, 1
	mov	DWORD PTR _k$[ebp], edx
	jmp	SHORT $LN23@fnActivate
$LN24@fnActivate:

; 11157: 
; 11158:             szAttribFlags[ j ] = 0;

	movsx	eax, WORD PTR _j$20[ebp]
	mov	DWORD PTR $T9[ebp], eax
	cmp	DWORD PTR $T9[ebp], 12			; 0000000cH
	jae	SHORT $LN251@fnActivate
	jmp	SHORT $LN252@fnActivate
$LN251@fnActivate:
	call	___report_rangecheckfailure
$LN252@fnActivate:
	mov	ecx, DWORD PTR $T9[ebp]
	mov	BYTE PTR _szAttribFlags$22[ebp+ecx], 0

; 11159: 
; 11160:             AttribFlags.u.uFlags = zxtob( szAttribFlags );

	push	16					; 00000010H
	push	0
	lea	edx, DWORD PTR _szAttribFlags$22[ebp]
	push	edx
	call	DWORD PTR __imp__strtoul
	add	esp, 12					; 0000000cH
	mov	DWORD PTR _AttribFlags$18[ebp], eax

; 11161:          }

	jmp	SHORT $LN133@fnActivate
$LN132@fnActivate:

; 11162:          else
; 11163:          {
; 11164:             // If flags aren't specified then they are assumed 0 *unless* this
; 11165:             // OI wasn't stored with attrib flags (this means it was stored
; 11166:             // with a pre-10a version).  In this case we have to assume that
; 11167:             // every attribute has been changed.
; 11168:             AttribFlags.u.uFlags = 0; // Turn off all flags.

	mov	DWORD PTR _AttribFlags$18[ebp], 0

; 11169:             if ( (*plControl & zATTRIBFLAGS ) == 0 )

	mov	eax, DWORD PTR _plControl$[ebp]
	mov	ecx, DWORD PTR [eax]
	and	ecx, 33554432				; 02000000H
	jne	SHORT $LN133@fnActivate

; 11170:             {
; 11171:                // No attrib flags--turn on 'changed' bit.
; 11172:                AttribFlags.u.bFlags.bUpdated = TRUE;

	mov	edx, DWORD PTR _AttribFlags$18[ebp]
	or	edx, 2
	mov	DWORD PTR _AttribFlags$18[ebp], edx
$LN133@fnActivate:

; 11173:             }
; 11174:          }
; 11175: 
; 11176:          if ( *plControl & zCOMPRESSED )

	mov	eax, DWORD PTR _plControl$[ebp]
	mov	ecx, DWORD PTR [eax]
	and	ecx, 131072				; 00020000H
	je	$LN135@fnActivate

; 11177:          {
; 11178:             zLONG lXVATok;
; 11179: 
; 11180:             // Point pchLine to first char of attribute value if there is
; 11181:             // more info after the attribute name.
; 11182:             if ( pchLine[ k ] )

	mov	edx, DWORD PTR _pchLine$[ebp]
	add	edx, DWORD PTR _k$[ebp]
	movsx	eax, BYTE PTR [edx]
	test	eax, eax
	je	SHORT $LN137@fnActivate

; 11183:                pchLine += k + 1;

	mov	ecx, DWORD PTR _k$[ebp]
	mov	edx, DWORD PTR _pchLine$[ebp]
	lea	eax, DWORD PTR [edx+ecx+1]
	mov	DWORD PTR _pchLine$[ebp], eax
$LN137@fnActivate:

; 11184: 
; 11185:             lXVATok = zxtol( szWorkString );

	push	16					; 00000010H
	push	0
	lea	ecx, DWORD PTR _szWorkString$[ebp]
	push	ecx
	call	DWORD PTR __imp__strtoul
	add	esp, 12					; 0000000cH
	mov	DWORD PTR _lXVATok$4[ebp], eax

; 11186: 
; 11187:             // Look for the attribute that matches the XVA token.
; 11188:             for ( lpViewAttrib = zGETPTR( lpViewEntity->hFirstOD_Attrib );

	mov	edx, DWORD PTR _lpViewEntity$[ebp]
	mov	eax, DWORD PTR [edx+179]
	push	eax
	call	DWORD PTR _g_pfnGetPtr
	mov	DWORD PTR _lpViewAttrib$[ebp], eax
	jmp	SHORT $LN27@fnActivate
$LN25@fnActivate:

; 11190:                   lpViewAttrib = zGETPTR( lpViewAttrib->hNextOD_Attrib ) )

	mov	ecx, DWORD PTR _lpViewAttrib$[ebp]
	mov	edx, DWORD PTR [ecx+2]
	push	edx
	call	DWORD PTR _g_pfnGetPtr
	mov	DWORD PTR _lpViewAttrib$[ebp], eax
$LN27@fnActivate:

; 11189:                   lpViewAttrib && lpViewAttrib->lXVAAttTok != lXVATok;

	cmp	DWORD PTR _lpViewAttrib$[ebp], 0
	je	SHORT $LN26@fnActivate
	mov	eax, DWORD PTR _lpViewAttrib$[ebp]
	mov	ecx, DWORD PTR [eax+181]
	cmp	ecx, DWORD PTR _lXVATok$4[ebp]
	je	SHORT $LN26@fnActivate

; 11191:             {
; 11192:                // nothing needs to be done here
; 11193:             }

	jmp	SHORT $LN25@fnActivate
$LN26@fnActivate:

; 11194:          }

	jmp	$LN136@fnActivate
$LN135@fnActivate:

; 11195:          else
; 11196:          {
; 11197:             // Point pchLine to first char of attribute value if there is
; 11198:             // more info after the attribute name.
; 11199: 
; 11200:             // Skip over any blanks that filled out the name.
; 11201:             if ( pchLine[ k ] )

	mov	edx, DWORD PTR _pchLine$[ebp]
	add	edx, DWORD PTR _k$[ebp]
	movsx	eax, BYTE PTR [edx]
	test	eax, eax
	je	SHORT $LN138@fnActivate

; 11202:             {
; 11203:                if ( k < 9 )

	cmp	DWORD PTR _k$[ebp], 9
	jge	SHORT $LN139@fnActivate

; 11204:                   pchLine += 10;

	mov	ecx, DWORD PTR _pchLine$[ebp]
	add	ecx, 10					; 0000000aH
	mov	DWORD PTR _pchLine$[ebp], ecx
	jmp	SHORT $LN138@fnActivate
$LN139@fnActivate:

; 11205:                else
; 11206:                   pchLine += k + 1;

	mov	edx, DWORD PTR _k$[ebp]
	mov	eax, DWORD PTR _pchLine$[ebp]
	lea	ecx, DWORD PTR [eax+edx+1]
	mov	DWORD PTR _pchLine$[ebp], ecx
$LN138@fnActivate:

; 11207:             }
; 11208: 
; 11209:             // Look for the attribute that matches the attribute name.
; 11210:             for ( lpViewAttrib = zGETPTR( lpViewEntity->hFirstOD_Attrib );

	mov	edx, DWORD PTR _lpViewEntity$[ebp]
	mov	eax, DWORD PTR [edx+179]
	push	eax
	call	DWORD PTR _g_pfnGetPtr
	mov	DWORD PTR _lpViewAttrib$[ebp], eax
	jmp	SHORT $LN30@fnActivate
$LN28@fnActivate:

; 11212:                   lpViewAttrib = zGETPTR( lpViewAttrib->hNextOD_Attrib ) )

	mov	ecx, DWORD PTR _lpViewAttrib$[ebp]
	mov	edx, DWORD PTR [ecx+2]
	push	edx
	call	DWORD PTR _g_pfnGetPtr
	mov	DWORD PTR _lpViewAttrib$[ebp], eax
$LN30@fnActivate:

; 11211:                   lpViewAttrib;

	cmp	DWORD PTR _lpViewAttrib$[ebp], 0
	je	SHORT $LN136@fnActivate

; 11213:             {
; 11214:                if ( zstrcmpi( lpViewAttrib->szName, szWorkString ) == 0 )

	lea	eax, DWORD PTR _szWorkString$[ebp]
	push	eax
	mov	ecx, DWORD PTR _lpViewAttrib$[ebp]
	add	ecx, 10					; 0000000aH
	push	ecx
	call	DWORD PTR __imp___stricmp
	add	esp, 8
	test	eax, eax
	jne	SHORT $LN141@fnActivate

; 11215:                   break;

	jmp	SHORT $LN136@fnActivate
$LN141@fnActivate:

; 11216:             }

	jmp	SHORT $LN28@fnActivate
$LN136@fnActivate:

; 11217:          }
; 11218: 
; 11219:          // If entity not found return error.
; 11220:          if ( lpViewAttrib == 0 )

	cmp	DWORD PTR _lpViewAttrib$[ebp], 0
	jne	SHORT $LN142@fnActivate

; 11221:          {
; 11222:             if ( bIgnoreAttribErrors == FALSE )

	movzx	edx, BYTE PTR _bIgnoreAttribErrors$[ebp]
	test	edx, edx
	jne	SHORT $LN144@fnActivate

; 11223:             {
; 11224:                zCHAR sz[ 400 ];
; 11225: 
; 11226:                zstrcpy( sz, lpViewEntity->szName );

	mov	eax, DWORD PTR _lpViewEntity$[ebp]
	add	eax, 14					; 0000000eH
	push	eax
	lea	ecx, DWORD PTR _sz$21[ebp]
	push	ecx
	call	_strcpy
	add	esp, 8

; 11227:                zstrcat( sz, "." );

	push	OFFSET $SG17346
	lea	edx, DWORD PTR _sz$21[ebp]
	push	edx
	call	_strcat
	add	esp, 8

; 11228:                zstrcat( sz, szWorkString );

	lea	eax, DWORD PTR _szWorkString$[ebp]
	push	eax
	lea	ecx, DWORD PTR _sz$21[ebp]
	push	ecx
	call	_strcat
	add	esp, 8

; 11229: 
; 11230:                //  "KZOEE104 - Invalid Attribute name for Entity"
; 11231:                (*lpfnStreamFunc)( lpView, lpvData, (zPPCHAR) sz, 0, 104 );

	push	104					; 00000068H
	push	0
	lea	edx, DWORD PTR _sz$21[ebp]
	push	edx
	mov	eax, DWORD PTR _lpvData$[ebp]
	push	eax
	mov	ecx, DWORD PTR _lpView$[ebp]
	push	ecx
	call	DWORD PTR _lpfnStreamFunc$[ebp]
$LN144@fnActivate:

; 11232: 
; 11233:                // DGC 10-4-95
; 11234:                // We no longer consider this an error worth bombing out.
; 11235:                // nRC = zCALL_ERROR;
; 11236:                // break;
; 11237:             }
; 11238: 
; 11239:             nErrorAttribCnt++;

	mov	dx, WORD PTR _nErrorAttribCnt$[ebp]
	add	dx, 1
	mov	WORD PTR _nErrorAttribCnt$[ebp], dx

; 11240:          }

	jmp	$LN143@fnActivate
$LN142@fnActivate:

; 11241:          else
; 11242:          if ( lpViewAttrib->cType == zTYPE_BLOB ||

	mov	eax, DWORD PTR _lpViewAttrib$[ebp]
	movsx	ecx, BYTE PTR [eax+202]
	cmp	ecx, 66					; 00000042H
	je	SHORT $LN147@fnActivate
	mov	edx, DWORD PTR _lpViewAttrib$[ebp]
	movsx	eax, BYTE PTR [edx+202]
	cmp	eax, 83					; 00000053H
	jne	$LN145@fnActivate
	mov	ecx, DWORD PTR _pchLine$[ebp]
	movsx	edx, BYTE PTR [ecx]
	cmp	edx, 31					; 0000001fH
	jne	$LN145@fnActivate
$LN147@fnActivate:

; 11243:               (lpViewAttrib->cType == zTYPE_STRING &&
; 11244:                *pchLine == zSTRING_STORED_AS_BLOB) )
; 11245:          {
; 11246:             // If a string is stored with special characters (e.g. '\n') then
; 11247:             // is is stored as a blob.  This is indicated if the first char
; 11248:             // in pchLine is zSTRING_STORED_AS_BLOB.
; 11249:             if ( lpViewAttrib->cType == zTYPE_STRING &&

	mov	eax, DWORD PTR _lpViewAttrib$[ebp]
	movsx	ecx, BYTE PTR [eax+202]
	cmp	ecx, 83					; 00000053H
	jne	SHORT $LN148@fnActivate
	mov	edx, DWORD PTR _pchLine$[ebp]
	movsx	eax, BYTE PTR [edx]
	cmp	eax, 31					; 0000001fH
	jne	SHORT $LN148@fnActivate

; 11250:                  *pchLine == zSTRING_STORED_AS_BLOB )
; 11251:             {
; 11252:                pchLine++;  // Point pchLine past zSTRING_STORED_AS_BLOB.

	mov	ecx, DWORD PTR _pchLine$[ebp]
	add	ecx, 1
	mov	DWORD PTR _pchLine$[ebp], ecx

; 11253:                ulLth = zatol( pchLine );

	mov	edx, DWORD PTR _pchLine$[ebp]
	push	edx
	call	DWORD PTR __imp__atol
	add	esp, 4
	mov	DWORD PTR _ulLth$[ebp], eax

; 11254:                if ( ulLth )

	cmp	DWORD PTR _ulLth$[ebp], 0
	je	SHORT $LN150@fnActivate

; 11255:                   nEOF = (*lpfnStreamFunc)( lpView, lpvData, &pchLine, ulLth, 0 );

	push	0
	mov	eax, DWORD PTR _ulLth$[ebp]
	push	eax
	lea	ecx, DWORD PTR _pchLine$[ebp]
	push	ecx
	mov	edx, DWORD PTR _lpvData$[ebp]
	push	edx
	mov	eax, DWORD PTR _lpView$[ebp]
	push	eax
	call	DWORD PTR _lpfnStreamFunc$[ebp]
	mov	WORD PTR _nEOF$[ebp], ax
$LN150@fnActivate:

; 11256:             }

	jmp	$LN149@fnActivate
$LN148@fnActivate:

; 11257:             else // must be blob, so need to check for encoding
; 11258:             {
; 11259:                ulLthDecoded = 0;

	mov	DWORD PTR _ulLthDecoded$[ebp], 0

; 11260:                if ( *pchLine == zBLOB_STORED_ENCODED )

	mov	ecx, DWORD PTR _pchLine$[ebp]
	movsx	edx, BYTE PTR [ecx]
	cmp	edx, 85					; 00000055H
	jne	$LN151@fnActivate

; 11261:                {
; 11262:                   pchLine++;  // point pchLine past zBLOB_STORED_ENCODED

	mov	eax, DWORD PTR _pchLine$[ebp]
	add	eax, 1
	mov	DWORD PTR _pchLine$[ebp], eax

; 11263:                   ulLth = zatol( pchLine );

	mov	ecx, DWORD PTR _pchLine$[ebp]
	push	ecx
	call	DWORD PTR __imp__atol
	add	esp, 4
	mov	DWORD PTR _ulLth$[ebp], eax

; 11264:                   if ( ulLth )

	cmp	DWORD PTR _ulLth$[ebp], 0
	je	$LN153@fnActivate

; 11265:                   {
; 11266:                      // If are ignoring attributes, just skip the encoded lines.
; 11267:                      if ( bSkipAttributes )

	movzx	edx, BYTE PTR _bSkipAttributes$[ebp]
	test	edx, edx
	je	SHORT $LN154@fnActivate

; 11268:                      {
; 11269:                         nEOF = (*lpfnStreamFunc)( lpView, lpvData, &pchLine, 0, 0 );

	push	0
	push	0
	lea	eax, DWORD PTR _pchLine$[ebp]
	push	eax
	mov	ecx, DWORD PTR _lpvData$[ebp]
	push	ecx
	mov	edx, DWORD PTR _lpView$[ebp]
	push	edx
	call	DWORD PTR _lpfnStreamFunc$[ebp]
	mov	WORD PTR _nEOF$[ebp], ax
$LN31@fnActivate:

; 11270:                         while ( TRUE )

	mov	eax, 1
	test	eax, eax
	je	SHORT $LN32@fnActivate

; 11271:                         {
; 11272:                            if ( *pchLine == 0x60 )  // terminating "`" line

	mov	ecx, DWORD PTR _pchLine$[ebp]
	movsx	edx, BYTE PTR [ecx]
	cmp	edx, 96					; 00000060H
	jne	SHORT $LN156@fnActivate

; 11273:                               break;

	jmp	SHORT $LN32@fnActivate
$LN156@fnActivate:

; 11274: 
; 11275:                            nEOF = (*lpfnStreamFunc)( lpView, lpvData, &pchLine, 0, 0 );

	push	0
	push	0
	lea	eax, DWORD PTR _pchLine$[ebp]
	push	eax
	mov	ecx, DWORD PTR _lpvData$[ebp]
	push	ecx
	mov	edx, DWORD PTR _lpView$[ebp]
	push	edx
	call	DWORD PTR _lpfnStreamFunc$[ebp]
	mov	WORD PTR _nEOF$[ebp], ax

; 11276:                         }

	jmp	SHORT $LN31@fnActivate
$LN32@fnActivate:

; 11277:                      }

	jmp	$LN153@fnActivate
$LN154@fnActivate:

; 11278:                      else
; 11279:                      {
; 11280:                         // Init the blob attribute to have a buffer for decoding.
; 11281:                         if ( fnSetAttributeFromBlob( lpView, lpViewEntityCsr,
; 11282:                                                      lpViewAttrib,
; 11283:                                                      0, ulLth ) != 0 )

	mov	eax, DWORD PTR _ulLth$[ebp]
	push	eax
	push	0
	mov	ecx, DWORD PTR _lpViewAttrib$[ebp]
	push	ecx
	mov	edx, DWORD PTR _lpViewEntityCsr$[ebp]
	push	edx
	mov	eax, DWORD PTR _lpView$[ebp]
	push	eax
	call	_fnSetAttributeFromBlob
	add	esp, 20					; 00000014H
	movsx	ecx, ax
	test	ecx, ecx
	je	SHORT $LN157@fnActivate

; 11284:                         {
; 11285:                            nRC = zCALL_ERROR;

	mov	edx, -16				; fffffff0H
	mov	WORD PTR _nRC$[ebp], dx

; 11286:                            break;

	jmp	$LN3@fnActivate
$LN157@fnActivate:

; 11287:                         }
; 11288: 
; 11289:                         fnGetAddrForAttribute( &pchAttr, lpView, lpViewEntityCsr, 0,

	mov	eax, DWORD PTR _lpViewAttrib$[ebp]
	push	eax
	push	0
	mov	ecx, DWORD PTR _lpViewEntityCsr$[ebp]
	push	ecx
	mov	edx, DWORD PTR _lpView$[ebp]
	push	edx
	lea	eax, DWORD PTR _pchAttr$[ebp]
	push	eax
	call	_fnGetAddrForAttribute
	add	esp, 20					; 00000014H

; 11290:                                                lpViewAttrib );
; 11291: 
; 11292:                         // Now decode the blob lines until the 'zero length' line is found.
; 11293:                         uPos = 0;

	mov	DWORD PTR _uPos$[ebp], 0

; 11294:                         nEOF = (*lpfnStreamFunc)( lpView, lpvData, &pchLine, 0, 0 );

	push	0
	push	0
	lea	ecx, DWORD PTR _pchLine$[ebp]
	push	ecx
	mov	edx, DWORD PTR _lpvData$[ebp]
	push	edx
	mov	eax, DWORD PTR _lpView$[ebp]
	push	eax
	call	DWORD PTR _lpfnStreamFunc$[ebp]
	mov	WORD PTR _nEOF$[ebp], ax
$LN33@fnActivate:

; 11295:                         while ( TRUE )

	mov	ecx, 1
	test	ecx, ecx
	je	$LN34@fnActivate

; 11296:                         {
; 11297:                            nRC = UUDECODE_NextLineToBuffer( pchLine, pchAttr, ulLth, &uPos );

	lea	edx, DWORD PTR _uPos$[ebp]
	push	edx
	mov	eax, DWORD PTR _ulLth$[ebp]
	push	eax
	mov	ecx, DWORD PTR _pchAttr$[ebp]
	push	ecx
	mov	edx, DWORD PTR _pchLine$[ebp]
	push	edx
	call	_UUDECODE_NextLineToBuffer@16
	mov	WORD PTR _nRC$[ebp], ax

; 11298:                            //TraceLineS( "Decoded Line: ", pchLine);
; 11299:                            if ( nRC < 0 )

	movsx	eax, WORD PTR _nRC$[ebp]
	test	eax, eax
	jge	SHORT $LN158@fnActivate

; 11300:                            {
; 11301:                               TraceLineI( "Error from UUDECODE_NextLineToBuffer: ", nRC );

	movsx	ecx, WORD PTR _nRC$[ebp]
	push	ecx
	push	OFFSET $SG17361
	call	_TraceLineI@8

; 11302:                               nRC = zCALL_ERROR;

	mov	edx, -16				; fffffff0H
	mov	WORD PTR _nRC$[ebp], dx

; 11303:                               break;

	jmp	SHORT $LN34@fnActivate
$LN158@fnActivate:

; 11304:                            }
; 11305: 
; 11306:                            if ( nRC == 0 )

	movsx	eax, WORD PTR _nRC$[ebp]
	test	eax, eax
	jne	SHORT $LN159@fnActivate

; 11307:                               break;

	jmp	SHORT $LN34@fnActivate
$LN159@fnActivate:

; 11308: 
; 11309:                            ulLthDecoded = ulLthDecoded + nRC;

	movsx	ecx, WORD PTR _nRC$[ebp]
	add	ecx, DWORD PTR _ulLthDecoded$[ebp]
	mov	DWORD PTR _ulLthDecoded$[ebp], ecx

; 11310:                            nEOF = (*lpfnStreamFunc)( lpView, lpvData, &pchLine, 0, 0 );

	push	0
	push	0
	lea	edx, DWORD PTR _pchLine$[ebp]
	push	edx
	mov	eax, DWORD PTR _lpvData$[ebp]
	push	eax
	mov	ecx, DWORD PTR _lpView$[ebp]
	push	ecx
	call	DWORD PTR _lpfnStreamFunc$[ebp]
	mov	WORD PTR _nEOF$[ebp], ax

; 11311:                         }

	jmp	$LN33@fnActivate
$LN34@fnActivate:

; 11312: 
; 11313:                         if ( ulLthDecoded != ulLth )

	mov	edx, DWORD PTR _ulLthDecoded$[ebp]
	cmp	edx, DWORD PTR _ulLth$[ebp]
	je	SHORT $LN153@fnActivate

; 11314:                         {
; 11315:                            TraceLineI( "UUDECODE length invalid: ", ulLthDecoded );

	mov	eax, DWORD PTR _ulLthDecoded$[ebp]
	push	eax
	push	OFFSET $SG17364
	call	_TraceLineI@8

; 11316:                            nRC = zCALL_ERROR;

	mov	ecx, -16				; fffffff0H
	mov	WORD PTR _nRC$[ebp], cx

; 11317:                            break;

	jmp	$LN3@fnActivate
$LN153@fnActivate:

; 11318:                         }
; 11319:                      }
; 11320:                   }
; 11321:                }

	jmp	SHORT $LN149@fnActivate
$LN151@fnActivate:

; 11322:                else
; 11323:                {
; 11324:                   ulLth = zatol( pchLine );

	mov	edx, DWORD PTR _pchLine$[ebp]
	push	edx
	call	DWORD PTR __imp__atol
	add	esp, 4
	mov	DWORD PTR _ulLth$[ebp], eax

; 11325:                   if ( ulLth )

	cmp	DWORD PTR _ulLth$[ebp], 0
	je	SHORT $LN149@fnActivate

; 11326:                      nEOF = (*lpfnStreamFunc)( lpView, lpvData, &pchLine, ulLth, 0 );

	push	0
	mov	eax, DWORD PTR _ulLth$[ebp]
	push	eax
	lea	ecx, DWORD PTR _pchLine$[ebp]
	push	ecx
	mov	edx, DWORD PTR _lpvData$[ebp]
	push	edx
	mov	eax, DWORD PTR _lpView$[ebp]
	push	eax
	call	DWORD PTR _lpfnStreamFunc$[ebp]
	mov	WORD PTR _nEOF$[ebp], ax
$LN149@fnActivate:

; 11327:                }
; 11328:             }
; 11329: 
; 11330:          // ulLth = zatol( pchLine );
; 11331:             if ( ulLth )

	cmp	DWORD PTR _ulLth$[ebp], 0
	je	$LN162@fnActivate

; 11332:             {
; 11333:             // nEOF = (*lpfnStreamFunc)( lpView, lpvData, &pchLine, ulLth, 0 );
; 11334:                if ( nEOF != 1 )

	movsx	ecx, WORD PTR _nEOF$[ebp]
	cmp	ecx, 1
	je	SHORT $LN164@fnActivate

; 11335:                {
; 11336:                   nRC = zCALL_ERROR;

	mov	edx, -16				; fffffff0H
	mov	WORD PTR _nRC$[ebp], dx

; 11337:                   break;

	jmp	$LN3@fnActivate
$LN164@fnActivate:

; 11338:                }
; 11339: 
; 11340:                lLineCount++;

	mov	eax, DWORD PTR _lLineCount$[ebp]
	add	eax, 1
	mov	DWORD PTR _lLineCount$[ebp], eax

; 11341: 
; 11342:                // If bSkipAttributes is TRUE, then we need to skip over these attributes.
; 11343:                if ( bSkipAttributes )

	movzx	ecx, BYTE PTR _bSkipAttributes$[ebp]
	test	ecx, ecx
	je	SHORT $LN165@fnActivate

; 11344:                   continue;

	jmp	$LN2@fnActivate
$LN165@fnActivate:

; 11345: 
; 11346:                if ( lpViewAttrib->cType == zTYPE_BLOB )

	mov	edx, DWORD PTR _lpViewAttrib$[ebp]
	movsx	eax, BYTE PTR [edx+202]
	cmp	eax, 66					; 00000042H
	jne	SHORT $LN166@fnActivate

; 11347:                {
; 11348:                   if ( ulLthDecoded > 0 )

	cmp	DWORD PTR _ulLthDecoded$[ebp], 0
	jbe	SHORT $LN168@fnActivate

; 11349:                   {
; 11350:                      // Do nothing since it has been stored during decode
; 11351:                   }

	jmp	SHORT $LN169@fnActivate
$LN168@fnActivate:

; 11352:                   else
; 11353:                   {
; 11354:                      if ( fnSetAttributeFromBlob( lpView, lpViewEntityCsr,
; 11355:                                                   lpViewAttrib,
; 11356:                                                   pchLine, ulLth ) != 0 )

	mov	ecx, DWORD PTR _ulLth$[ebp]
	push	ecx
	mov	edx, DWORD PTR _pchLine$[ebp]
	push	edx
	mov	eax, DWORD PTR _lpViewAttrib$[ebp]
	push	eax
	mov	ecx, DWORD PTR _lpViewEntityCsr$[ebp]
	push	ecx
	mov	edx, DWORD PTR _lpView$[ebp]
	push	edx
	call	_fnSetAttributeFromBlob
	add	esp, 20					; 00000014H
	cwde
	test	eax, eax
	je	SHORT $LN169@fnActivate

; 11357:                      {
; 11358:                         nRC = zCALL_ERROR;

	mov	ecx, -16				; fffffff0H
	mov	WORD PTR _nRC$[ebp], cx

; 11359:                         break;

	jmp	$LN3@fnActivate
$LN169@fnActivate:

; 11360:                      }
; 11361:                   }
; 11362:                }

	jmp	SHORT $LN167@fnActivate
$LN166@fnActivate:

; 11363:                else
; 11364:                {
; 11365:                   // PAS 03-09-2001 - x00 is no longer put at the end of
; 11366:                   //                  a string that was stored as a BLOB
; 11367:                   //                  (with length), so always terminate
; 11368:                   pchLine[ ulLth - 1 ] = 0;

	mov	edx, DWORD PTR _pchLine$[ebp]
	add	edx, DWORD PTR _ulLth$[ebp]
	mov	BYTE PTR [edx-1], 0

; 11369:                   if ( fnSetAttributeFromString( lpView, lpViewEntityCsr,
; 11370:                                                  lpViewAttrib,
; 11371:                                                  pchLine, 0 ) != 0 )

	push	0
	mov	eax, DWORD PTR _pchLine$[ebp]
	push	eax
	mov	ecx, DWORD PTR _lpViewAttrib$[ebp]
	push	ecx
	mov	edx, DWORD PTR _lpViewEntityCsr$[ebp]
	push	edx
	mov	eax, DWORD PTR _lpView$[ebp]
	push	eax
	call	_fnSetAttributeFromString
	add	esp, 20					; 00000014H
	movsx	ecx, ax
	test	ecx, ecx
	je	SHORT $LN167@fnActivate

; 11372:                   {
; 11373:                      nRC = zCALL_ERROR;

	mov	edx, -16				; fffffff0H
	mov	WORD PTR _nRC$[ebp], dx

; 11374:                      break;

	jmp	$LN3@fnActivate
$LN167@fnActivate:

; 11375:                   }
; 11376:                }
; 11377:             }

	jmp	SHORT $LN163@fnActivate
$LN162@fnActivate:

; 11378:             else
; 11379:                // If bSkipAttributes is TRUE, then we need to skip over these attributes.
; 11380:                if ( bSkipAttributes )

	movzx	eax, BYTE PTR _bSkipAttributes$[ebp]
	test	eax, eax
	je	SHORT $LN163@fnActivate

; 11381:                   continue;

	jmp	$LN2@fnActivate
$LN163@fnActivate:

; 11382: 
; 11383:             // Now set the attribute flags.
; 11384:             lpAttribFlags = fnGetAttribFlagsPtr( zGETPTR( lpViewEntityCsr->hEntityInstance ),

	mov	ecx, DWORD PTR _lpViewAttrib$[ebp]
	push	ecx
	mov	edx, DWORD PTR _lpViewEntityCsr$[ebp]
	mov	eax, DWORD PTR [edx+26]
	push	eax
	call	DWORD PTR _g_pfnGetPtr
	push	eax
	call	_fnGetAttribFlagsPtr@8
	mov	DWORD PTR _lpAttribFlags$19[ebp], eax

; 11385:                                                  lpViewAttrib );
; 11386:             lpAttribFlags->u.uFlags = AttribFlags.u.uFlags;

	mov	ecx, DWORD PTR _lpAttribFlags$19[ebp]
	mov	edx, DWORD PTR _AttribFlags$18[ebp]
	mov	DWORD PTR [ecx], edx

; 11387:          }

	jmp	$LN143@fnActivate
$LN145@fnActivate:

; 11388:          else
; 11389:          {
; 11390:             // If bSkipAttributes is TRUE, then we need to skip over these attributes.
; 11391:             if ( bSkipAttributes )

	movzx	eax, BYTE PTR _bSkipAttributes$[ebp]
	test	eax, eax
	je	SHORT $LN173@fnActivate

; 11392:                continue;

	jmp	$LN2@fnActivate
$LN173@fnActivate:

; 11393: 
; 11394:             if ( *plControl & zCOMPRESSED &&

	mov	ecx, DWORD PTR _plControl$[ebp]
	mov	edx, DWORD PTR [ecx]
	and	edx, 131072				; 00020000H
	je	$LN174@fnActivate
	mov	eax, DWORD PTR _lpViewAttrib$[ebp]
	movsx	ecx, BYTE PTR [eax+202]
	cmp	ecx, 76					; 0000004cH
	jne	$LN174@fnActivate

; 11395:                  lpViewAttrib->cType == zTYPE_INTEGER )
; 11396:             {
; 11397:                zLONG  l;
; 11398: 
; 11399:                if ( *pchLine == '*' )

	mov	edx, DWORD PTR _pchLine$[ebp]
	movsx	eax, BYTE PTR [edx]
	cmp	eax, 42					; 0000002aH
	jne	SHORT $LN176@fnActivate

; 11400:                {
; 11401:                   // Integer attribute is NULL.
; 11402:                   fnSetAttributeFromString( lpView, lpViewEntityCsr,

	push	0
	push	OFFSET $SG17382
	mov	ecx, DWORD PTR _lpViewAttrib$[ebp]
	push	ecx
	mov	edx, DWORD PTR _lpViewEntityCsr$[ebp]
	push	edx
	mov	eax, DWORD PTR _lpView$[ebp]
	push	eax
	call	_fnSetAttributeFromString
	add	esp, 20					; 00000014H

; 11403:                                             lpViewAttrib, "", 0 );
; 11404:                }

	jmp	$LN177@fnActivate
$LN176@fnActivate:

; 11405:                else
; 11406:                {
; 11407:                   if ( *pchLine == '-' )

	mov	ecx, DWORD PTR _pchLine$[ebp]
	movsx	edx, BYTE PTR [ecx]
	cmp	edx, 45					; 0000002dH
	jne	SHORT $LN178@fnActivate

; 11408:                      l = zxtol( pchLine + 1 ) * -1;

	push	16					; 00000010H
	push	0
	mov	eax, DWORD PTR _pchLine$[ebp]
	add	eax, 1
	push	eax
	call	DWORD PTR __imp__strtoul
	add	esp, 12					; 0000000cH
	imul	ecx, eax, -1
	mov	DWORD PTR _l$8[ebp], ecx
	jmp	SHORT $LN179@fnActivate
$LN178@fnActivate:

; 11409:                   else
; 11410:                      l = zxtol( pchLine );

	push	16					; 00000010H
	push	0
	mov	edx, DWORD PTR _pchLine$[ebp]
	push	edx
	call	DWORD PTR __imp__strtoul
	add	esp, 12					; 0000000cH
	mov	DWORD PTR _l$8[ebp], eax
$LN179@fnActivate:

; 11411: 
; 11412:                   if ( fnSetAttributeFromInteger( lpView, lpViewEntityCsr,
; 11413:                                                   lpViewAttrib, l ) != 0 )

	mov	eax, DWORD PTR _l$8[ebp]
	push	eax
	mov	ecx, DWORD PTR _lpViewAttrib$[ebp]
	push	ecx
	mov	edx, DWORD PTR _lpViewEntityCsr$[ebp]
	push	edx
	mov	eax, DWORD PTR _lpView$[ebp]
	push	eax
	call	_fnSetAttributeFromInteger
	add	esp, 16					; 00000010H
	movsx	ecx, ax
	test	ecx, ecx
	je	SHORT $LN177@fnActivate

; 11414:                   {
; 11415:                      nRC = zCALL_ERROR;

	mov	edx, -16				; fffffff0H
	mov	WORD PTR _nRC$[ebp], dx

; 11416:                      break;

	jmp	$LN3@fnActivate
$LN177@fnActivate:

; 11417:                   }
; 11418:                }
; 11419:             }

	jmp	SHORT $LN175@fnActivate
$LN174@fnActivate:

; 11420:             else
; 11421:             {
; 11422:                if ( fnSetAttributeFromString( lpView, lpViewEntityCsr,
; 11423:                                               lpViewAttrib, pchLine, 0 ) != 0 )

	push	0
	mov	eax, DWORD PTR _pchLine$[ebp]
	push	eax
	mov	ecx, DWORD PTR _lpViewAttrib$[ebp]
	push	ecx
	mov	edx, DWORD PTR _lpViewEntityCsr$[ebp]
	push	edx
	mov	eax, DWORD PTR _lpView$[ebp]
	push	eax
	call	_fnSetAttributeFromString
	add	esp, 20					; 00000014H
	movsx	ecx, ax
	test	ecx, ecx
	je	SHORT $LN175@fnActivate

; 11424:                {
; 11425:                   nRC = zCALL_ERROR;

	mov	edx, -16				; fffffff0H
	mov	WORD PTR _nRC$[ebp], dx

; 11426:                   break;

	jmp	$LN3@fnActivate
$LN175@fnActivate:

; 11427:                }
; 11428:             }
; 11429: 
; 11430:             // Now set the attribute flags.
; 11431:             lpAttribFlags = fnGetAttribFlagsPtr( zGETPTR( lpViewEntityCsr->hEntityInstance ),

	mov	eax, DWORD PTR _lpViewAttrib$[ebp]
	push	eax
	mov	ecx, DWORD PTR _lpViewEntityCsr$[ebp]
	mov	edx, DWORD PTR [ecx+26]
	push	edx
	call	DWORD PTR _g_pfnGetPtr
	push	eax
	call	_fnGetAttribFlagsPtr@8
	mov	DWORD PTR _lpAttribFlags$19[ebp], eax

; 11432:                                                  lpViewAttrib );
; 11433:             lpAttribFlags->u.uFlags = AttribFlags.u.uFlags;

	mov	eax, DWORD PTR _lpAttribFlags$19[ebp]
	mov	ecx, DWORD PTR _AttribFlags$18[ebp]
	mov	DWORD PTR [eax], ecx
$LN143@fnActivate:

; 11434:          }
; 11435: 
; 11436:          nRC = 0;  // Everything OK so far...

	xor	edx, edx
	mov	WORD PTR _nRC$[ebp], dx

; 11437: 
; 11438:       }  // ...else...if ( pchLine[ 0 ] == 'a' && lpViewEntity )...

	jmp	$LN55@fnActivate
$LN113@fnActivate:

; 11439:       else
; 11440:       if ( pchLine[ 0 ] == 'i' )

	mov	eax, 1
	imul	ecx, eax, 0
	mov	edx, DWORD PTR _pchLine$[ebp]
	movsx	eax, BYTE PTR [edx+ecx]
	cmp	eax, 105				; 00000069H
	jne	$LN182@fnActivate

; 11441:       {
; 11442:          zLONG  lLinkTgt;
; 11443:          zLONG  lLinkSrc;
; 11444: 
; 11445:          // If we are reading root only then don't bother with the link cards.
; 11446:          if ( *plControl & zACTIVATE_ROOTONLY )

	mov	ecx, DWORD PTR _plControl$[ebp]
	mov	edx, DWORD PTR [ecx]
	and	edx, 268435456				; 10000000H
	je	SHORT $LN184@fnActivate

; 11447:             continue;

	jmp	$LN2@fnActivate
$LN184@fnActivate:

; 11448: 
; 11449:          SysParseLine( szWorkString, &pchLine, pchLine + 1 );

	mov	eax, DWORD PTR _pchLine$[ebp]
	add	eax, 1
	push	eax
	lea	ecx, DWORD PTR _pchLine$[ebp]
	push	ecx
	lea	edx, DWORD PTR _szWorkString$[ebp]
	push	edx
	call	_SysParseLine@12

; 11450:          if ( *plControl & zCOMPRESSED )

	mov	eax, DWORD PTR _plControl$[ebp]
	mov	ecx, DWORD PTR [eax]
	and	ecx, 131072				; 00020000H
	je	SHORT $LN185@fnActivate

; 11451:          {
; 11452:             lLinkTgt = zxtol( szWorkString );

	push	16					; 00000010H
	push	0
	lea	edx, DWORD PTR _szWorkString$[ebp]
	push	edx
	call	DWORD PTR __imp__strtoul
	add	esp, 12					; 0000000cH
	mov	DWORD PTR _lLinkTgt$16[ebp], eax

; 11453:             lLinkSrc = zxtol( pchLine );

	push	16					; 00000010H
	push	0
	mov	eax, DWORD PTR _pchLine$[ebp]
	push	eax
	call	DWORD PTR __imp__strtoul
	add	esp, 12					; 0000000cH
	mov	DWORD PTR _lLinkSrc$17[ebp], eax

; 11454:          }

	jmp	SHORT $LN186@fnActivate
$LN185@fnActivate:

; 11455:          else
; 11456:          {
; 11457:             lLinkTgt = zatol( szWorkString );

	lea	ecx, DWORD PTR _szWorkString$[ebp]
	push	ecx
	call	DWORD PTR __imp__atol
	add	esp, 4
	mov	DWORD PTR _lLinkTgt$16[ebp], eax

; 11458:             lLinkSrc = zatol( pchLine );

	mov	edx, DWORD PTR _pchLine$[ebp]
	push	edx
	call	DWORD PTR __imp__atol
	add	esp, 4
	mov	DWORD PTR _lLinkSrc$17[ebp], eax
$LN186@fnActivate:

; 11459:          }
; 11460: 
; 11461:          k = lLinkSrc / 160000;  // moved up from 16000 dks/don 2007.01.04

	mov	eax, DWORD PTR _lLinkSrc$17[ebp]
	cdq
	mov	ecx, 160000				; 00027100H
	idiv	ecx
	mov	DWORD PTR _k$[ebp], eax

; 11462:          lpSrcInstance = (LPENTITYINSTANCE) *(pRelinkBufferTable[ k ] +

	mov	eax, DWORD PTR _lLinkSrc$17[ebp]
	cdq
	mov	ecx, 160000				; 00027100H
	idiv	ecx
	mov	eax, DWORD PTR _k$[ebp]
	mov	ecx, DWORD PTR _pRelinkBufferTable$[ebp+eax*4]
	mov	edx, DWORD PTR [ecx+edx*4]
	mov	DWORD PTR _lpSrcInstance$[ebp], edx

; 11463:                                                      lLinkSrc % 160000);  // moved up from 16000 dks/don 2007.01.04
; 11464:          k = lLinkTgt / 160000;  // moved up from 16000 dks/don 2007.01.04

	mov	eax, DWORD PTR _lLinkTgt$16[ebp]
	cdq
	mov	ecx, 160000				; 00027100H
	idiv	ecx
	mov	DWORD PTR _k$[ebp], eax

; 11465:          lpTgtInstance = (LPENTITYINSTANCE) *(pRelinkBufferTable[ k ] +

	mov	eax, DWORD PTR _lLinkTgt$16[ebp]
	cdq
	mov	ecx, 160000				; 00027100H
	idiv	ecx
	mov	eax, DWORD PTR _k$[ebp]
	mov	ecx, DWORD PTR _pRelinkBufferTable$[ebp+eax*4]
	mov	edx, DWORD PTR [ecx+edx*4]
	mov	DWORD PTR _lpTgtInstance$[ebp], edx

; 11466:                                                      lLinkTgt % 160000);  // moved up from 16000 dks/don 2007.01.04
; 11467: 
; 11468:          if ( lpTgtInstance && lpSrcInstance )

	cmp	DWORD PTR _lpTgtInstance$[ebp], 0
	je	$LN187@fnActivate
	cmp	DWORD PTR _lpSrcInstance$[ebp], 0
	je	$LN187@fnActivate

; 11469:          {
; 11470:             LPVIEWENTITY lpTgtViewEntity;
; 11471: 
; 11472:             lpViewEntity    = zGETPTR( lpSrcInstance->hViewEntity );

	mov	eax, DWORD PTR _lpSrcInstance$[ebp]
	mov	ecx, DWORD PTR [eax+2]
	push	ecx
	call	DWORD PTR _g_pfnGetPtr
	mov	DWORD PTR _lpViewEntity$[ebp], eax

; 11473:             lpTgtViewEntity = zGETPTR( lpTgtInstance->hViewEntity );

	mov	edx, DWORD PTR _lpTgtInstance$[ebp]
	mov	eax, DWORD PTR [edx+2]
	push	eax
	call	DWORD PTR _g_pfnGetPtr
	mov	DWORD PTR _lpTgtViewEntity$15[ebp], eax

; 11474: 
; 11475:             if ( lpTgtViewEntity->lEREntTok != lpViewEntity->lEREntTok )

	mov	ecx, DWORD PTR _lpTgtViewEntity$15[ebp]
	mov	edx, DWORD PTR _lpViewEntity$[ebp]
	mov	eax, DWORD PTR [ecx+195]
	cmp	eax, DWORD PTR [edx+195]
	je	SHORT $LN189@fnActivate

; 11476:             {
; 11477:                TraceLine( "(oi) Error (OD: %s) - Tgt View Entity: %s Token: %d  View Entity: %s Token = %d",

	mov	ecx, DWORD PTR _lpViewEntity$[ebp]
	mov	edx, DWORD PTR [ecx+195]
	push	edx
	mov	eax, DWORD PTR _lpViewEntity$[ebp]
	add	eax, 14					; 0000000eH
	push	eax
	mov	ecx, DWORD PTR _lpTgtViewEntity$15[ebp]
	mov	edx, DWORD PTR [ecx+195]
	push	edx
	mov	eax, DWORD PTR _lpTgtViewEntity$15[ebp]
	add	eax, 14					; 0000000eH
	push	eax
	mov	ecx, DWORD PTR _lpViewOD$[ebp]
	add	ecx, 10					; 0000000aH
	push	ecx
	push	OFFSET $SG17396
	call	_TraceLine
	add	esp, 24					; 00000018H

; 11478:                           lpViewOD->szName, lpTgtViewEntity->szName, lpTgtViewEntity->lEREntTok,
; 11479:                           lpViewEntity->szName, lpViewEntity->lEREntTok );
; 11480:                if ( bMsgBox )

	movzx	edx, BYTE PTR _bMsgBox$[ebp]
	test	edx, edx
	je	SHORT $LN191@fnActivate

; 11481:                {
; 11482:                   bMsgBox = FALSE;

	mov	BYTE PTR _bMsgBox$[ebp], 0

; 11483:                   SysMessageBox( lpView, szlOE_SystemError,

	push	1
	push	OFFSET $SG17398
	mov	eax, DWORD PTR _szlOE_SystemError
	push	eax
	mov	ecx, DWORD PTR _lpView$[ebp]
	push	ecx
	call	_SysMessageBox@16
$LN191@fnActivate:

; 11484:                                  "ER Tokens don't match for linked entities!", 1 );
; 11485:                }
; 11486:             }

	jmp	SHORT $LN190@fnActivate
$LN189@fnActivate:

; 11487:             else
; 11488:             {
; 11489:                lpTgtInstance->hPersistRecord = lpSrcInstance->hPersistRecord;

	mov	edx, DWORD PTR _lpTgtInstance$[ebp]
	mov	eax, DWORD PTR _lpSrcInstance$[ebp]
	mov	ecx, DWORD PTR [eax+60]
	mov	DWORD PTR [edx+60], ecx

; 11490:                if ( lpSrcInstance->hNextLinked )

	mov	edx, DWORD PTR _lpSrcInstance$[ebp]
	cmp	DWORD PTR [edx+42], 0
	je	SHORT $LN192@fnActivate

; 11491:                   lpTgtInstance->hNextLinked = lpSrcInstance->hNextLinked;

	mov	eax, DWORD PTR _lpTgtInstance$[ebp]
	mov	ecx, DWORD PTR _lpSrcInstance$[ebp]
	mov	edx, DWORD PTR [ecx+42]
	mov	DWORD PTR [eax+42], edx
	jmp	SHORT $LN193@fnActivate
$LN192@fnActivate:

; 11492:                else
; 11493:                   lpTgtInstance->hNextLinked = zGETHNDL( lpSrcInstance );

	mov	eax, DWORD PTR _lpSrcInstance$[ebp]
	push	eax
	call	DWORD PTR _g_pfnGetHndl
	mov	ecx, DWORD PTR _lpTgtInstance$[ebp]
	mov	DWORD PTR [ecx+42], eax
$LN193@fnActivate:

; 11494: 
; 11495:                lpSrcInstance->hNextLinked = zGETHNDL( lpTgtInstance );

	mov	edx, DWORD PTR _lpTgtInstance$[ebp]
	push	edx
	call	DWORD PTR _g_pfnGetHndl
	mov	ecx, DWORD PTR _lpSrcInstance$[ebp]
	mov	DWORD PTR [ecx+42], eax
$LN190@fnActivate:

; 11496:             }
; 11497:          }

	jmp	$LN188@fnActivate
$LN187@fnActivate:

; 11498:          else
; 11499:          {
; 11500:             TraceLineS( "(oi) Failed entity linking", "" );

	push	OFFSET $SG17401
	push	OFFSET $SG17402
	call	_TraceLineS@8

; 11501: 
; 11502:             TraceLineI( "(oi) Link Src # = ", lLinkSrc );

	mov	edx, DWORD PTR _lLinkSrc$17[ebp]
	push	edx
	push	OFFSET $SG17403
	call	_TraceLineI@8

; 11503:             if ( lpSrcInstance )

	cmp	DWORD PTR _lpSrcInstance$[ebp], 0
	je	SHORT $LN194@fnActivate

; 11504:             {
; 11505:                lpViewEntity = zGETPTR( lpSrcInstance->hViewEntity );

	mov	eax, DWORD PTR _lpSrcInstance$[ebp]
	mov	ecx, DWORD PTR [eax+2]
	push	ecx
	call	DWORD PTR _g_pfnGetPtr
	mov	DWORD PTR _lpViewEntity$[ebp], eax

; 11506:                TraceLineS( "(oi) Source Entity = ", lpViewEntity->szName );

	mov	edx, DWORD PTR _lpViewEntity$[ebp]
	add	edx, 14					; 0000000eH
	push	edx
	push	OFFSET $SG17405
	call	_TraceLineS@8
$LN194@fnActivate:

; 11507:             }
; 11508: 
; 11509:             TraceLineI( "(oi) Link Tgt # = ", lLinkTgt );

	mov	eax, DWORD PTR _lLinkTgt$16[ebp]
	push	eax
	push	OFFSET $SG17406
	call	_TraceLineI@8

; 11510:             if ( lpTgtInstance )

	cmp	DWORD PTR _lpTgtInstance$[ebp], 0
	je	SHORT $LN188@fnActivate

; 11511:             {
; 11512:                lpViewEntity = zGETPTR( lpTgtInstance->hViewEntity );

	mov	ecx, DWORD PTR _lpTgtInstance$[ebp]
	mov	edx, DWORD PTR [ecx+2]
	push	edx
	call	DWORD PTR _g_pfnGetPtr
	mov	DWORD PTR _lpViewEntity$[ebp], eax

; 11513:                TraceLineS( "(oi) Target Entity = ", lpViewEntity->szName );

	mov	eax, DWORD PTR _lpViewEntity$[ebp]
	add	eax, 14					; 0000000eH
	push	eax
	push	OFFSET $SG17408
	call	_TraceLineS@8
$LN188@fnActivate:

; 11514:             }
; 11515:          }
; 11516: 
; 11517:       }  // ...else...if ( pchLine[ 0 ] == 'i' )

	jmp	$LN55@fnActivate
$LN182@fnActivate:

; 11518:       else
; 11519:       if ( pchLine[ 0 ] == 'c' )

	mov	ecx, 1
	imul	edx, ecx, 0
	mov	eax, DWORD PTR _pchLine$[ebp]
	movsx	ecx, BYTE PTR [eax+edx]
	cmp	ecx, 99					; 00000063H
	jne	$LN196@fnActivate

; 11520:       {
; 11521:          zSHORT nHierNbr;
; 11522:          zLONG  l;
; 11523: 
; 11524:          // First make sure that the last created entity instance has it's
; 11525:          // indicators set.
; 11526:          if ( lpEntityInstance )

	cmp	DWORD PTR _lpEntityInstance$[ebp], 0
	je	$LN198@fnActivate

; 11527:          {
; 11528:             if ( *plControl & zINCREMENTAL )

	mov	edx, DWORD PTR _plControl$[ebp]
	mov	eax, DWORD PTR [edx]
	and	eax, 65536				; 00010000H
	je	$LN199@fnActivate

; 11529:             {
; 11530:                lpEntityInstance->u.nIndicators = lIndicators;

	mov	ecx, DWORD PTR _lpEntityInstance$[ebp]
	mov	edx, DWORD PTR _lIndicators$[ebp]
	mov	DWORD PTR [ecx+6], edx

; 11531:                lpEntityInstance->u.nInd.bPrevVersion = FALSE;

	mov	eax, DWORD PTR _lpEntityInstance$[ebp]
	mov	ecx, DWORD PTR [eax+6]
	and	ecx, -257				; fffffeffH
	mov	edx, DWORD PTR _lpEntityInstance$[ebp]
	mov	DWORD PTR [edx+6], ecx

; 11532: 
; 11533:                // A hack to make sure that a delete/excluded entity is
; 11534:                // flagged as hidden.  This tries to fix a bug.
; 11535:                if ( lpEntityInstance->u.nInd.bDeleted  ||

	mov	eax, DWORD PTR _lpEntityInstance$[ebp]
	mov	ecx, DWORD PTR [eax+6]
	shr	ecx, 3
	and	ecx, 1
	jne	SHORT $LN202@fnActivate
	mov	edx, DWORD PTR _lpEntityInstance$[ebp]
	mov	eax, DWORD PTR [edx+6]
	shr	eax, 4
	and	eax, 1
	je	SHORT $LN201@fnActivate
$LN202@fnActivate:

; 11536:                     lpEntityInstance->u.nInd.bExcluded )
; 11537:                {
; 11538:                   lpEntityInstance->u.nInd.bHidden = TRUE;

	mov	ecx, DWORD PTR _lpEntityInstance$[ebp]
	mov	edx, DWORD PTR [ecx+6]
	or	edx, 1024				; 00000400H
	mov	eax, DWORD PTR _lpEntityInstance$[ebp]
	mov	DWORD PTR [eax+6], edx
$LN201@fnActivate:

; 11539:                }
; 11540: 
; 11541:                if ( lpEntityInstance->u.nInd.bCreated  ||
; 11542:                     lpEntityInstance->u.nInd.bDeleted  ||
; 11543:                     lpEntityInstance->u.nInd.bIncluded ||
; 11544:                     lpEntityInstance->u.nInd.bExcluded ||

	mov	ecx, DWORD PTR _lpEntityInstance$[ebp]
	mov	edx, DWORD PTR [ecx+6]
	shr	edx, 1
	and	edx, 1
	jne	SHORT $LN204@fnActivate
	mov	eax, DWORD PTR _lpEntityInstance$[ebp]
	mov	ecx, DWORD PTR [eax+6]
	shr	ecx, 3
	and	ecx, 1
	jne	SHORT $LN204@fnActivate
	mov	edx, DWORD PTR _lpEntityInstance$[ebp]
	mov	eax, DWORD PTR [edx+6]
	shr	eax, 5
	and	eax, 1
	jne	SHORT $LN204@fnActivate
	mov	ecx, DWORD PTR _lpEntityInstance$[ebp]
	mov	edx, DWORD PTR [ecx+6]
	shr	edx, 4
	and	edx, 1
	jne	SHORT $LN204@fnActivate
	mov	eax, DWORD PTR _lpEntityInstance$[ebp]
	mov	ecx, DWORD PTR [eax+6]
	shr	ecx, 2
	and	ecx, 1
	je	SHORT $LN203@fnActivate
$LN204@fnActivate:

; 11545:                     lpEntityInstance->u.nInd.bUpdated )
; 11546:                {
; 11547:                   bOI_IsUpdated = TRUE;

	mov	BYTE PTR _bOI_IsUpdated$[ebp], 1
$LN203@fnActivate:

; 11548:                }
; 11549:             }

	jmp	SHORT $LN200@fnActivate
$LN199@fnActivate:

; 11550:             else
; 11551:                lpEntityInstance->u.nInd.bUpdated = FALSE;

	mov	edx, DWORD PTR _lpEntityInstance$[ebp]
	mov	eax, DWORD PTR [edx+6]
	and	eax, -5					; fffffffbH
	mov	ecx, DWORD PTR _lpEntityInstance$[ebp]
	mov	DWORD PTR [ecx+6], eax
$LN200@fnActivate:

; 11552: 
; 11553:             // Set lpEntityInstance to 0 to indicate that the indicators for
; 11554:             // the last entity instance has been set.
; 11555:             lpEntityInstance = 0;

	mov	DWORD PTR _lpEntityInstance$[ebp], 0
$LN198@fnActivate:

; 11556:          }
; 11557: 
; 11558:          // Cursor positions are saved in cursor records.  A cursor record
; 11559:          // looks like:
; 11560:          //    cEnt-hier-nbr, absolute-instance-count
; 11561:          // For example, the cursor record for the root might look like:
; 11562:          //    c1, 1
; 11563:          // Numbers are stored in hex format.
; 11564: 
; 11565:          // If lInstanceCount is 0, then we need to set up some stuff.
; 11566:          if ( lInstanceCount == 0 )

	cmp	DWORD PTR _lInstanceCount$[ebp], 0
	jne	$LN205@fnActivate

; 11567:          {
; 11568:             LPVIEWCSR lpFirstViewCsr = zGETPTR( lpViewOI->hFirstViewCsr );

	mov	edx, DWORD PTR _lpViewOI$[ebp]
	mov	eax, DWORD PTR [edx+10]
	push	eax
	call	DWORD PTR _g_pfnGetPtr
	mov	DWORD PTR _lpFirstViewCsr$7[ebp], eax

; 11569: 
; 11570:             // Indicate that cursor positions have been loaded.
; 11571:             *plControl = *plControl | zSAVE_CURSORS;

	mov	ecx, DWORD PTR _plControl$[ebp]
	mov	edx, DWORD PTR [ecx]
	or	edx, 262144				; 00040000H
	mov	eax, DWORD PTR _plControl$[ebp]
	mov	DWORD PTR [eax], edx

; 11572: 
; 11573:             // Initialize all entity cursors to be NULL.
; 11574:             for ( lpViewEntityCsr = zGETPTR( lpFirstViewCsr->hFirstOD_EntityCsr );

	mov	ecx, DWORD PTR _lpFirstViewCsr$7[ebp]
	mov	edx, DWORD PTR [ecx+14]
	push	edx
	call	DWORD PTR _g_pfnGetPtr
	mov	DWORD PTR _lpViewEntityCsr$[ebp], eax
	jmp	SHORT $LN37@fnActivate
$LN35@fnActivate:

; 11576:                   lpViewEntityCsr = zGETPTR( lpViewEntityCsr->hNextHier ) )

	mov	eax, DWORD PTR _lpViewEntityCsr$[ebp]
	mov	ecx, DWORD PTR [eax+2]
	push	ecx
	call	DWORD PTR _g_pfnGetPtr
	mov	DWORD PTR _lpViewEntityCsr$[ebp], eax
$LN37@fnActivate:

; 11575:                   lpViewEntityCsr;

	cmp	DWORD PTR _lpViewEntityCsr$[ebp], 0
	je	SHORT $LN36@fnActivate

; 11577:             {
; 11578:                lpViewEntityCsr->hEntityInstance = 0;

	mov	edx, DWORD PTR _lpViewEntityCsr$[ebp]
	mov	DWORD PTR [edx+26], 0

; 11579:             }

	jmp	SHORT $LN35@fnActivate
$LN36@fnActivate:

; 11580: 
; 11581:             lpViewEntityCsr = zGETPTR( lpFirstViewCsr->hFirstOD_EntityCsr );

	mov	eax, DWORD PTR _lpFirstViewCsr$7[ebp]
	mov	ecx, DWORD PTR [eax+14]
	push	ecx
	call	DWORD PTR _g_pfnGetPtr
	mov	DWORD PTR _lpViewEntityCsr$[ebp], eax

; 11582:             lpCursorEI      = zGETPTR( lpViewOI->hRootEntityInstance );

	mov	edx, DWORD PTR _lpViewOI$[ebp]
	mov	eax, DWORD PTR [edx+26]
	push	eax
	call	DWORD PTR _g_pfnGetPtr
	mov	DWORD PTR _lpCursorEI$[ebp], eax

; 11583:             lInstanceCount  = 1;

	mov	DWORD PTR _lInstanceCount$[ebp], 1
$LN205@fnActivate:

; 11584:          }
; 11585: 
; 11586:          // Get entity hier number and absolute instance position from record.
; 11587:          SysParseLine( szWorkString, &pchLine, pchLine + 1 );

	mov	ecx, DWORD PTR _pchLine$[ebp]
	add	ecx, 1
	push	ecx
	lea	edx, DWORD PTR _pchLine$[ebp]
	push	edx
	lea	eax, DWORD PTR _szWorkString$[ebp]
	push	eax
	call	_SysParseLine@12

; 11588:          nHierNbr = (zSHORT) zxtol( szWorkString );

	push	16					; 00000010H
	push	0
	lea	ecx, DWORD PTR _szWorkString$[ebp]
	push	ecx
	call	DWORD PTR __imp__strtoul
	add	esp, 12					; 0000000cH
	mov	WORD PTR _nHierNbr$13[ebp], ax

; 11589:          l = zxtol( pchLine );

	push	16					; 00000010H
	push	0
	mov	edx, DWORD PTR _pchLine$[ebp]
	push	edx
	call	DWORD PTR __imp__strtoul
	add	esp, 12					; 0000000cH
	mov	DWORD PTR _l$6[ebp], eax
$LN38@fnActivate:

; 11590: 
; 11591:          // Entity cursors that are NULL do not have a cursor record.  If the
; 11592:          // hier nbr read from the record is greater than the "current"
; 11593:          // entity cursor, then at least one cursor is NULL.
; 11594:          while ( lpViewEntityCsr->nHierNbr < nHierNbr )

	mov	eax, DWORD PTR _lpViewEntityCsr$[ebp]
	movsx	ecx, WORD PTR [eax+24]
	movsx	edx, WORD PTR _nHierNbr$13[ebp]
	cmp	ecx, edx
	jge	SHORT $LN39@fnActivate

; 11595:             lpViewEntityCsr = zGETPTR( lpViewEntityCsr->hNextHier );

	mov	eax, DWORD PTR _lpViewEntityCsr$[ebp]
	mov	ecx, DWORD PTR [eax+2]
	push	ecx
	call	DWORD PTR _g_pfnGetPtr
	mov	DWORD PTR _lpViewEntityCsr$[ebp], eax
	jmp	SHORT $LN38@fnActivate
$LN39@fnActivate:

; 11596: 
; 11597:          if ( l == 0 )

	cmp	DWORD PTR _l$6[ebp], 0
	jne	SHORT $LN40@fnActivate

; 11598:          {
; 11599:             lpViewEntityCsr->hEntityInstance = UNSET_CSR;

	mov	edx, DWORD PTR _lpViewEntityCsr$[ebp]
	mov	DWORD PTR [edx+26], 1

; 11600:          // if ( lpViewEntityCsr->hEntityInstance == UNSET_CSR )
; 11601:          //    SysMessageBox( 0, "fnActivateOI_FromStream", "UNSET_CSR", -1 );
; 11602:          }

	jmp	$LN207@fnActivate
$LN40@fnActivate:

; 11603:          else
; 11604:          {
; 11605:             // Look for the entity instance that has the absolute position l.
; 11606:             while ( lInstanceCount < l )

	mov	eax, DWORD PTR _lInstanceCount$[ebp]
	cmp	eax, DWORD PTR _l$6[ebp]
	jge	SHORT $LN41@fnActivate

; 11607:             {
; 11608:                lpCursorEI = zGETPTR( lpCursorEI->hNextHier );

	mov	ecx, DWORD PTR _lpCursorEI$[ebp]
	mov	edx, DWORD PTR [ecx+14]
	push	edx
	call	DWORD PTR _g_pfnGetPtr
	mov	DWORD PTR _lpCursorEI$[ebp], eax

; 11609:                lInstanceCount++;

	mov	eax, DWORD PTR _lInstanceCount$[ebp]
	add	eax, 1
	mov	DWORD PTR _lInstanceCount$[ebp], eax

; 11610:             }

	jmp	SHORT $LN40@fnActivate
$LN41@fnActivate:

; 11611: 
; 11612:             if ( lpViewEntityCsr->hViewEntity == lpCursorEI->hViewEntity )

	mov	ecx, DWORD PTR _lpViewEntityCsr$[ebp]
	mov	edx, DWORD PTR _lpCursorEI$[ebp]
	mov	eax, DWORD PTR [ecx+14]
	cmp	eax, DWORD PTR [edx+2]
	jne	SHORT $LN208@fnActivate

; 11613:             {
; 11614:                lpViewEntityCsr->hEntityInstance = zGETHNDL( lpCursorEI );

	mov	ecx, DWORD PTR _lpCursorEI$[ebp]
	push	ecx
	call	DWORD PTR _g_pfnGetHndl
	mov	edx, DWORD PTR _lpViewEntityCsr$[ebp]
	mov	DWORD PTR [edx+26], eax

; 11615:             // if ( lpViewEntityCsr->hEntityInstance == UNSET_CSR )
; 11616:             //    SysMessageBox( 0, "fnActivateOI_FromStream2", "UNSET_CSR", -1 );
; 11617:             }

	jmp	SHORT $LN207@fnActivate
$LN208@fnActivate:

; 11618:             else
; 11619:             {
; 11620:                LPVIEWENTITY lpWk = zGETPTR( lpViewEntityCsr->hViewEntity );

	mov	eax, DWORD PTR _lpViewEntityCsr$[ebp]
	mov	ecx, DWORD PTR [eax+14]
	push	ecx
	call	DWORD PTR _g_pfnGetPtr
	mov	DWORD PTR _lpWk$3[ebp], eax

; 11621: 
; 11622:                TraceLineS( "(oi) Entity type mismatch during cursor restoration"

	mov	edx, DWORD PTR _lpWk$3[ebp]
	add	edx, 14					; 0000000eH
	push	edx
	push	OFFSET $SG17423
	call	_TraceLineS@8
$LN207@fnActivate:

; 11623:                            " for entity ", lpWk->szName );
; 11624:             }
; 11625:          }
; 11626: 
; 11627:          lpViewEntityCsr = zGETPTR( lpViewEntityCsr->hNextHier );

	mov	eax, DWORD PTR _lpViewEntityCsr$[ebp]
	mov	ecx, DWORD PTR [eax+2]
	push	ecx
	call	DWORD PTR _g_pfnGetPtr
	mov	DWORD PTR _lpViewEntityCsr$[ebp], eax

; 11628: 
; 11629:       }  // ...else...if ( pchLine[ 0 ] == 'c' )

	jmp	SHORT $LN55@fnActivate
$LN196@fnActivate:

; 11630:       else
; 11631:       if ( zstrncmp( pchLine, "ZEND", 4 ) == 0 )

	push	4
	push	OFFSET $SG17425
	mov	edx, DWORD PTR _pchLine$[ebp]
	push	edx
	call	DWORD PTR __imp__strncmp
	add	esp, 12					; 0000000cH
	test	eax, eax
	jne	SHORT $LN55@fnActivate

; 11632:       {
; 11633:          // "ZEND" means we got to the end of the current OI so break out
; 11634:          // of loop.
; 11635:          nRC = 0;

	xor	eax, eax
	mov	WORD PTR _nRC$[ebp], ax

; 11636:          break;

	jmp	SHORT $LN3@fnActivate
$LN55@fnActivate:

; 11637:       }
; 11638: 
; 11639:    } // while ( (nEOF = (*lpfnStreamFunc)( ... )) == 1 )

	jmp	$LN2@fnActivate
$LN3@fnActivate:

; 11640: 
; 11641:    for ( lEntityCnt = 0; pRelinkBufferTable[ lEntityCnt ]; lEntityCnt++ )

	mov	DWORD PTR _lEntityCnt$[ebp], 0
	jmp	SHORT $LN44@fnActivate
$LN42@fnActivate:
	mov	ecx, DWORD PTR _lEntityCnt$[ebp]
	add	ecx, 1
	mov	DWORD PTR _lEntityCnt$[ebp], ecx
$LN44@fnActivate:
	mov	edx, DWORD PTR _lEntityCnt$[ebp]
	cmp	DWORD PTR _pRelinkBufferTable$[ebp+edx*4], 0
	je	SHORT $LN43@fnActivate

; 11642:       fnFreeDataspace( pRelinkBufferTable[ lEntityCnt ] );

	mov	eax, DWORD PTR _lEntityCnt$[ebp]
	mov	ecx, DWORD PTR _pRelinkBufferTable$[ebp+eax*4]
	push	ecx
	call	_fnFreeDataspace
	add	esp, 4
	jmp	SHORT $LN42@fnActivate
$LN43@fnActivate:

; 11643: 
; 11644:    if ( nEOF == zCALL_ERROR )

	movsx	edx, WORD PTR _nEOF$[ebp]
	cmp	edx, -16				; fffffff0H
	jne	SHORT $LN211@fnActivate

; 11645:       nRC = zCALL_ERROR;

	mov	eax, -16				; fffffff0H
	mov	WORD PTR _nRC$[ebp], ax
$LN211@fnActivate:

; 11646: 
; 11647:    // Mark the final instance indicators after updating all of the attributes.
; 11648:    if ( nRC >= 0 )

	movsx	ecx, WORD PTR _nRC$[ebp]
	test	ecx, ecx
	jl	$LN212@fnActivate

; 11649:    {
; 11650:       if ( lpEntityInstance )

	cmp	DWORD PTR _lpEntityInstance$[ebp], 0
	je	$LN213@fnActivate

; 11651:       {
; 11652:          if ( *plControl & zINCREMENTAL )

	mov	edx, DWORD PTR _plControl$[ebp]
	mov	eax, DWORD PTR [edx]
	and	eax, 65536				; 00010000H
	je	$LN214@fnActivate

; 11653:          {
; 11654:             lpEntityInstance->u.nIndicators = lIndicators;

	mov	ecx, DWORD PTR _lpEntityInstance$[ebp]
	mov	edx, DWORD PTR _lIndicators$[ebp]
	mov	DWORD PTR [ecx+6], edx

; 11655:             lpEntityInstance->u.nInd.bPrevVersion = FALSE;

	mov	eax, DWORD PTR _lpEntityInstance$[ebp]
	mov	ecx, DWORD PTR [eax+6]
	and	ecx, -257				; fffffeffH
	mov	edx, DWORD PTR _lpEntityInstance$[ebp]
	mov	DWORD PTR [edx+6], ecx

; 11656: 
; 11657:             if ( lpEntityInstance->u.nInd.bCreated  ||
; 11658:                  lpEntityInstance->u.nInd.bDeleted  ||
; 11659:                  lpEntityInstance->u.nInd.bIncluded ||
; 11660:                  lpEntityInstance->u.nInd.bExcluded ||

	mov	eax, DWORD PTR _lpEntityInstance$[ebp]
	mov	ecx, DWORD PTR [eax+6]
	shr	ecx, 1
	and	ecx, 1
	jne	SHORT $LN217@fnActivate
	mov	edx, DWORD PTR _lpEntityInstance$[ebp]
	mov	eax, DWORD PTR [edx+6]
	shr	eax, 3
	and	eax, 1
	jne	SHORT $LN217@fnActivate
	mov	ecx, DWORD PTR _lpEntityInstance$[ebp]
	mov	edx, DWORD PTR [ecx+6]
	shr	edx, 5
	and	edx, 1
	jne	SHORT $LN217@fnActivate
	mov	eax, DWORD PTR _lpEntityInstance$[ebp]
	mov	ecx, DWORD PTR [eax+6]
	shr	ecx, 4
	and	ecx, 1
	jne	SHORT $LN217@fnActivate
	mov	edx, DWORD PTR _lpEntityInstance$[ebp]
	mov	eax, DWORD PTR [edx+6]
	shr	eax, 2
	and	eax, 1
	je	SHORT $LN216@fnActivate
$LN217@fnActivate:

; 11661:                  lpEntityInstance->u.nInd.bUpdated )
; 11662:             {
; 11663:                bOI_IsUpdated = TRUE;

	mov	BYTE PTR _bOI_IsUpdated$[ebp], 1
$LN216@fnActivate:

; 11664:             }
; 11665:          }

	jmp	SHORT $LN213@fnActivate
$LN214@fnActivate:

; 11666:          else
; 11667:             lpEntityInstance->u.nInd.bUpdated = FALSE;

	mov	ecx, DWORD PTR _lpEntityInstance$[ebp]
	mov	edx, DWORD PTR [ecx+6]
	and	edx, -5					; fffffffbH
	mov	eax, DWORD PTR _lpEntityInstance$[ebp]
	mov	DWORD PTR [eax+6], edx
$LN213@fnActivate:

; 11668:       }
; 11669: 
; 11670:       // Check if OI is updated.
; 11671:       lpViewOI->bUpdated     = bOI_IsUpdated;

	movzx	ecx, BYTE PTR _bOI_IsUpdated$[ebp]
	and	ecx, 1
	shl	ecx, 4
	mov	edx, DWORD PTR _lpViewOI$[ebp]
	mov	eax, DWORD PTR [edx+36]
	and	eax, -17				; ffffffefH
	or	eax, ecx
	mov	ecx, DWORD PTR _lpViewOI$[ebp]
	mov	DWORD PTR [ecx+36], eax

; 11672:       lpViewOI->bUpdatedFile = FALSE;

	mov	edx, DWORD PTR _lpViewOI$[ebp]
	mov	eax, DWORD PTR [edx+36]
	and	eax, -33				; ffffffdfH
	mov	ecx, DWORD PTR _lpViewOI$[ebp]
	mov	DWORD PTR [ecx+36], eax
$LN212@fnActivate:

; 11673:    }
; 11674: 
; 11675:    return( nRC );

	mov	ax, WORD PTR _nRC$[ebp]
$LN218@fnActivate:

; 11676: 
; 11677: } // fnActivateOI_FromTextStream

	mov	ecx, DWORD PTR __$ArrayPad$[ebp]
	xor	ecx, ebp
	call	@__security_check_cookie@4
	mov	esp, ebp
	pop	ebp
	ret	0
_fnActivateOI_FromTextStream ENDP
_TEXT	ENDS
; Function compile flags: /Odtp
; File c:\10c\a\oe\kzoeoiaa.c
_TEXT	SEGMENT
_tViewArrayBlock$ = -512				; size = 64
_lpViewOD$ = -448					; size = 4
tv176 = -444						; size = 4
_lpLockInstance$1 = -440				; size = 4
_lpViewEntityCsr$ = -436				; size = 4
_lpEntityInstance$ = -432				; size = 4
_vLock$ = -428						; size = 8
_lpViewAttrib$ = -420					; size = 4
_nRC$ = -416						; size = 2
_lpViewEntity$ = -412					; size = 4
_nKeyCnt$ = -408					; size = 2
_lpKeyViewAttrib$ = -404				; size = 160
_szKeyString$ = -244					; size = 201
_szLockName$ = -40					; size = 35
__$ArrayPad$ = -4					; size = 4
_lpCurrentTask$ = 8					; size = 4
_bLOD_Lock$ = 12					; size = 1
_lpView$ = 16						; size = 4
_lpFirstEntityInstance$ = 20				; size = 4
_lpViewOI$ = 24						; size = 4
_bAllowRead$ = 28					; size = 1
_fnSetLocksOnTwins@24 PROC

; 10235: {

	push	ebp
	mov	ebp, esp
	sub	esp, 512				; 00000200H
	mov	eax, DWORD PTR ___security_cookie
	xor	eax, ebp
	mov	DWORD PTR __$ArrayPad$[ebp], eax

; 10236:    ViewClusterRecord vLock;
; 10237:    LPVIEWENTITY      lpViewEntity;
; 10238:    LPVIEWATTRIB      lpViewAttrib;
; 10239:    LPVIEWATTRIB      lpKeyViewAttrib[ zMAX_KEYS_FOR_LOCK ];
; 10240:    LPENTITYINSTANCE  lpEntityInstance;
; 10241:    LPVIEWENTITYCSR   lpViewEntityCsr;
; 10242:    LPVIEWOD          lpViewOD = zGETPTR( lpView->hViewOD );

	mov	eax, DWORD PTR _lpView$[ebp]
	mov	ecx, DWORD PTR [eax+6]
	push	ecx
	call	DWORD PTR _g_pfnGetPtr
	mov	DWORD PTR _lpViewOD$[ebp], eax

; 10243:    VIEWARRAYBLOCK    tViewArrayBlock = { 0 };

	mov	DWORD PTR _tViewArrayBlock$[ebp], 0
	push	60					; 0000003cH
	push	0
	lea	edx, DWORD PTR _tViewArrayBlock$[ebp+4]
	push	edx
	call	_memset
	add	esp, 12					; 0000000cH

; 10244:    zCHAR             szKeyString[ zMAX_KEYLTH_FOR_LOCK + 1 ];
; 10245:    zCHAR             szLockName[ 35 ];
; 10246:    zSHORT            nKeyCnt;
; 10247:    zSHORT            nRC = zCALL_ERROR;       // Assume everything error.

	mov	eax, -16				; fffffff0H
	mov	WORD PTR _nRC$[ebp], ax

; 10248: 
; 10249:    vLock.vOI = 0;

	mov	DWORD PTR _vLock$[ebp], 0

; 10250:    vLock.lControl = 0;

	mov	DWORD PTR _vLock$[ebp+4], 0

; 10251: 
; 10252:    lpViewEntity = zGETPTR( lpFirstEntityInstance->hViewEntity );

	mov	ecx, DWORD PTR _lpFirstEntityInstance$[ebp]
	mov	edx, DWORD PTR [ecx+2]
	push	edx
	call	DWORD PTR _g_pfnGetPtr
	mov	DWORD PTR _lpViewEntity$[ebp], eax

; 10253: 
; 10254:    // To save time later find all the keys in the LOD and store them in a table.
; 10255:    nKeyCnt = 0;

	xor	eax, eax
	mov	WORD PTR _nKeyCnt$[ebp], ax

; 10256:    for ( lpViewAttrib = zGETPTR( lpViewEntity->hFirstOD_Attrib );

	mov	ecx, DWORD PTR _lpViewEntity$[ebp]
	mov	edx, DWORD PTR [ecx+179]
	push	edx
	call	DWORD PTR _g_pfnGetPtr
	mov	DWORD PTR _lpViewAttrib$[ebp], eax
	jmp	SHORT $LN4@fnSetLocks
$LN2@fnSetLocks:

; 10258:          lpViewAttrib = zGETPTR( lpViewAttrib->hNextOD_Attrib ) )

	mov	eax, DWORD PTR _lpViewAttrib$[ebp]
	mov	ecx, DWORD PTR [eax+2]
	push	ecx
	call	DWORD PTR _g_pfnGetPtr
	mov	DWORD PTR _lpViewAttrib$[ebp], eax
$LN4@fnSetLocks:

; 10257:          lpViewAttrib;

	cmp	DWORD PTR _lpViewAttrib$[ebp], 0
	je	SHORT $LN3@fnSetLocks

; 10259:    {
; 10260:       if ( lpViewAttrib->bKey )

	mov	edx, DWORD PTR _lpViewAttrib$[ebp]
	mov	eax, DWORD PTR [edx+193]
	shr	eax, 1
	and	eax, 1
	je	SHORT $LN8@fnSetLocks

; 10261:          lpKeyViewAttrib[ nKeyCnt++ ] = lpViewAttrib;

	movsx	ecx, WORD PTR _nKeyCnt$[ebp]
	mov	edx, DWORD PTR _lpViewAttrib$[ebp]
	mov	DWORD PTR _lpKeyViewAttrib$[ebp+ecx*4], edx
	mov	ax, WORD PTR _nKeyCnt$[ebp]
	add	ax, 1
	mov	WORD PTR _nKeyCnt$[ebp], ax
$LN8@fnSetLocks:

; 10262:    }

	jmp	SHORT $LN2@fnSetLocks
$LN3@fnSetLocks:

; 10263: 
; 10264:    // Create an empty lock OI.
; 10265:    if ( fnDeclareView( &vLock.vOI, lpCurrentTask, lpView, "ZPLOCKO", FALSE ) != 0 )

	push	0
	push	OFFSET $SG16927
	mov	ecx, DWORD PTR _lpView$[ebp]
	push	ecx
	mov	edx, DWORD PTR _lpCurrentTask$[ebp]
	push	edx
	lea	eax, DWORD PTR _vLock$[ebp]
	push	eax
	call	_fnDeclareView@20
	movsx	ecx, ax
	test	ecx, ecx
	je	SHORT $LN9@fnSetLocks

; 10266:       return( zCALL_ERROR );

	mov	eax, -16				; fffffff0H
	jmp	$LN1@fnSetLocks
$LN9@fnSetLocks:

; 10267: 
; 10268:    if ( fnActivateEmptyObjectInstance( lpCurrentTask, vLock.vOI, zMULTIPLE ) != 0 )

	push	256					; 00000100H
	mov	edx, DWORD PTR _vLock$[ebp]
	push	edx
	mov	eax, DWORD PTR _lpCurrentTask$[ebp]
	push	eax
	call	_fnActivateEmptyObjectInstance
	add	esp, 12					; 0000000cH
	movsx	ecx, ax
	test	ecx, ecx
	je	SHORT $LN10@fnSetLocks

; 10269:       return( zCALL_ERROR );

	mov	eax, -16				; fffffff0H
	jmp	$LN1@fnSetLocks
$LN10@fnSetLocks:

; 10270: 
; 10271:    // Get the lpViewEntity and lpViewEntityCsr for the lock OI.
; 10272:    lpViewEntity = fnValidViewEntity( &lpViewEntityCsr, vLock.vOI, "ZeidonLock", 0 );

	push	0
	push	OFFSET $SG16929
	mov	edx, DWORD PTR _vLock$[ebp]
	push	edx
	lea	eax, DWORD PTR _lpViewEntityCsr$[ebp]
	push	eax
	call	_fnValidViewEntity@16
	mov	DWORD PTR _lpViewEntity$[ebp], eax

; 10273: 
; 10274:    if ( bLOD_Lock )

	movzx	ecx, BYTE PTR _bLOD_Lock$[ebp]
	test	ecx, ecx
	je	SHORT $LN11@fnSetLocks

; 10275:    {
; 10276:       // We are setting a LOD level lock so we set LockName to the name of
; 10277:       // the LOD.
; 10278:       zstrcpy( szLockName, lpViewOD->szName );

	mov	edx, DWORD PTR _lpViewOD$[ebp]
	add	edx, 10					; 0000000aH
	push	edx
	lea	eax, DWORD PTR _szLockName$[ebp]
	push	eax
	call	_strcpy
	add	esp, 8

; 10279:    }

	jmp	SHORT $LN12@fnSetLocks
$LN11@fnSetLocks:

; 10280:    else
; 10281:    {
; 10282:       // We are setting a lock at the entity level so use the name of the
; 10283:       // entity for the LockName.  In addition, to handle the rare case where
; 10284:       // a LOD and entity name are the same we prefix all entity names with
; 10285:       // a '@' because it's an invalid character for entity names.  This
; 10286:       // insures that the LockName for the entity does not match a LOD name.
; 10287:       lpViewEntity = zGETPTR( lpFirstEntityInstance->hViewEntity );

	mov	ecx, DWORD PTR _lpFirstEntityInstance$[ebp]
	mov	edx, DWORD PTR [ecx+2]
	push	edx
	call	DWORD PTR _g_pfnGetPtr
	mov	DWORD PTR _lpViewEntity$[ebp], eax

; 10288:       zsprintf( szLockName, "@%s", lpViewEntity->szName );

	mov	eax, DWORD PTR _lpViewEntity$[ebp]
	add	eax, 14					; 0000000eH
	push	eax
	push	OFFSET $SG16932
	lea	ecx, DWORD PTR _szLockName$[ebp]
	push	ecx
	call	_sprintf
	add	esp, 12					; 0000000cH
$LN12@fnSetLocks:

; 10289:    }
; 10290: 
; 10291:    // Loop through each of the root entities and create a locking record.
; 10292:    for ( lpEntityInstance = lpFirstEntityInstance;

	mov	edx, DWORD PTR _lpFirstEntityInstance$[ebp]
	mov	DWORD PTR _lpEntityInstance$[ebp], edx
	jmp	SHORT $LN7@fnSetLocks
$LN5@fnSetLocks:

; 10294:          lpEntityInstance = zGETPTR( lpEntityInstance->hNextTwin ) )

	mov	eax, DWORD PTR _lpEntityInstance$[ebp]
	mov	ecx, DWORD PTR [eax+22]
	push	ecx
	call	DWORD PTR _g_pfnGetPtr
	mov	DWORD PTR _lpEntityInstance$[ebp], eax
$LN7@fnSetLocks:

; 10293:          lpEntityInstance;

	cmp	DWORD PTR _lpEntityInstance$[ebp], 0
	je	$LN6@fnSetLocks

; 10295:    {
; 10296:       LPENTITYINSTANCE lpLockInstance;
; 10297: 
; 10298:       // Create the concat key string.
; 10299:       fnCreateConcatKey( szKeyString, lpEntityInstance,

	movzx	edx, WORD PTR _nKeyCnt$[ebp]
	push	edx
	lea	eax, DWORD PTR _lpKeyViewAttrib$[ebp]
	push	eax
	mov	ecx, DWORD PTR _lpEntityInstance$[ebp]
	push	ecx
	lea	edx, DWORD PTR _szKeyString$[ebp]
	push	edx
	call	_fnCreateConcatKey@16

; 10300:                          lpKeyViewAttrib, nKeyCnt );
; 10301: 
; 10302:       if ( fnCreateEntity( vLock.vOI, lpViewEntity, lpViewEntityCsr,
; 10303:                            zPOS_LAST, FALSE ) != 0 )

	push	0
	push	2
	mov	eax, DWORD PTR _lpViewEntityCsr$[ebp]
	push	eax
	mov	ecx, DWORD PTR _lpViewEntity$[ebp]
	push	ecx
	mov	edx, DWORD PTR _vLock$[ebp]
	push	edx
	call	_fnCreateEntity@20
	cwde
	test	eax, eax
	je	SHORT $LN13@fnSetLocks

; 10304:       {
; 10305:          goto EndOfFunction;

	jmp	$EndOfFunction$21
$LN13@fnSetLocks:

; 10306:       }
; 10307: 
; 10308:       // fnCreateEntity DOES NOT set the bCreated flag so set it.
; 10309:       lpLockInstance = zGETPTR( lpViewEntityCsr->hEntityInstance );

	mov	ecx, DWORD PTR _lpViewEntityCsr$[ebp]
	mov	edx, DWORD PTR [ecx+26]
	push	edx
	call	DWORD PTR _g_pfnGetPtr
	mov	DWORD PTR _lpLockInstance$1[ebp], eax

; 10310:       lpLockInstance->u.nInd.bCreated = TRUE;

	mov	eax, DWORD PTR _lpLockInstance$1[ebp]
	mov	ecx, DWORD PTR [eax+6]
	or	ecx, 2
	mov	edx, DWORD PTR _lpLockInstance$1[ebp]
	mov	DWORD PTR [edx+6], ecx

; 10311: 
; 10312:       if ( fnSetLockingAttributes( lpCurrentTask,
; 10313:                                    vLock.vOI, lpViewEntity, lpViewEntityCsr,
; 10314:                                    szLockName, szKeyString,
; 10315:                                    TRUE, TRUE, bAllowRead ? "Y" : "N" ) != 0 )

	movzx	eax, BYTE PTR _bAllowRead$[ebp]
	test	eax, eax
	je	SHORT $LN19@fnSetLocks
	mov	DWORD PTR tv176[ebp], OFFSET $SG16935
	jmp	SHORT $LN20@fnSetLocks
$LN19@fnSetLocks:
	mov	DWORD PTR tv176[ebp], OFFSET $SG16936
$LN20@fnSetLocks:
	mov	ecx, DWORD PTR tv176[ebp]
	push	ecx
	push	1
	push	1
	lea	edx, DWORD PTR _szKeyString$[ebp]
	push	edx
	lea	eax, DWORD PTR _szLockName$[ebp]
	push	eax
	mov	ecx, DWORD PTR _lpViewEntityCsr$[ebp]
	push	ecx
	mov	edx, DWORD PTR _lpViewEntity$[ebp]
	push	edx
	mov	eax, DWORD PTR _vLock$[ebp]
	push	eax
	mov	ecx, DWORD PTR _lpCurrentTask$[ebp]
	push	ecx
	call	_fnSetLockingAttributes@36
	movsx	edx, ax
	test	edx, edx
	je	SHORT $LN14@fnSetLocks

; 10316:       {
; 10317:          goto EndOfFunction;

	jmp	SHORT $EndOfFunction$21
$LN14@fnSetLocks:

; 10318:       }
; 10319:    } // for ( lpEntityInstance...)

	jmp	$LN5@fnSetLocks
$LN6@fnSetLocks:

; 10320: 
; 10321:    // Now commit the lock OI.
; 10322:    if ( fnInitViewArrayBlock( &tViewArrayBlock, 1 ) != 0 )

	push	1
	lea	eax, DWORD PTR _tViewArrayBlock$[ebp]
	push	eax
	call	_fnInitViewArrayBlock
	add	esp, 8
	movsx	ecx, ax
	test	ecx, ecx
	je	SHORT $LN15@fnSetLocks

; 10323:       goto EndOfFunction;

	jmp	SHORT $EndOfFunction$21
$LN15@fnSetLocks:

; 10324: 
; 10325:    if ( fnCommitObjectInstance( &vLock, &vLock.vOI, 1, 0, lpCurrentTask,
; 10326:                                 0, &tViewArrayBlock ) != 0 )

	lea	edx, DWORD PTR _tViewArrayBlock$[ebp]
	push	edx
	push	0
	mov	eax, DWORD PTR _lpCurrentTask$[ebp]
	push	eax
	push	0
	push	1
	lea	ecx, DWORD PTR _vLock$[ebp]
	push	ecx
	lea	edx, DWORD PTR _vLock$[ebp]
	push	edx
	call	_fnCommitObjectInstance@28
	cwde
	test	eax, eax
	je	SHORT $LN16@fnSetLocks

; 10327:    {
; 10328:       goto EndOfFunction;

	jmp	SHORT $EndOfFunction$21
$LN16@fnSetLocks:

; 10329:    }
; 10330: 
; 10331:    lpViewOI->bIsLocked = TRUE;

	mov	ecx, DWORD PTR _lpViewOI$[ebp]
	mov	edx, DWORD PTR [ecx+36]
	or	edx, 128				; 00000080H
	mov	eax, DWORD PTR _lpViewOI$[ebp]
	mov	DWORD PTR [eax+36], edx

; 10332: 
; 10333:    // If we get here then everything is OK.
; 10334:    nRC = 0;

	xor	ecx, ecx
	mov	WORD PTR _nRC$[ebp], cx
$EndOfFunction$21:

; 10335: 
; 10336: EndOfFunction:
; 10337:    if ( vLock.vOI )

	cmp	DWORD PTR _vLock$[ebp], 0
	je	SHORT $LN17@fnSetLocks

; 10338:       fnDropView( vLock.vOI );

	mov	edx, DWORD PTR _vLock$[ebp]
	push	edx
	call	_fnDropView@4
$LN17@fnSetLocks:

; 10339: 
; 10340:    fnFreeViewArrayBlock( &tViewArrayBlock );

	lea	eax, DWORD PTR _tViewArrayBlock$[ebp]
	push	eax
	call	_fnFreeViewArrayBlock
	add	esp, 4

; 10341: 
; 10342:    return( nRC );

	mov	ax, WORD PTR _nRC$[ebp]
$LN1@fnSetLocks:

; 10343: 
; 10344: } // fnSetLocksOnTwins

	mov	ecx, DWORD PTR __$ArrayPad$[ebp]
	xor	ecx, ebp
	call	@__security_check_cookie@4
	mov	esp, ebp
	pop	ebp
	ret	24					; 00000018H
_fnSetLocksOnTwins@24 ENDP
_TEXT	ENDS
; Function compile flags: /Odtp
; File c:\10c\a\oe\kzoeoiaa.c
_TEXT	SEGMENT
_hViewEntity$ = -44					; size = 4
_lpViewEntityCsr$ = -40					; size = 4
_lpViewOD$ = -36					; size = 4
_lCurrentEREntTok$1 = -32				; size = 4
_hChildViewEntity$ = -28				; size = 4
_lpViewEntity$ = -24					; size = 4
_lpChildViewEntity$ = -20				; size = 4
_lpChildEntityInstance$ = -16				; size = 4
_nReturnCode$ = -12					; size = 2
_nEntityInstanceLevel$ = -8				; size = 2
_nRC$ = -4						; size = 2
_lpCurrentTask$ = 8					; size = 4
_lpView$ = 12						; size = 4
_lpEntityInstance$ = 16					; size = 4
_lpQualView$ = 20					; size = 4
_pOper$ = 24						; size = 4
_lpPtr$ = 28						; size = 4
_fnLoadChildEntities PROC

; 9998 : {

	push	ebp
	mov	ebp, esp
	sub	esp, 44					; 0000002cH

; 9999 :    LPVIEWOD         lpViewOD = zGETPTR( lpView->hViewOD );

	mov	eax, DWORD PTR _lpView$[ebp]
	mov	ecx, DWORD PTR [eax+6]
	push	ecx
	call	DWORD PTR _g_pfnGetPtr
	mov	DWORD PTR _lpViewOD$[ebp], eax

; 10000:    LPVIEWENTITY     hViewEntity;
; 10001:    LPVIEWENTITY     lpViewEntity;
; 10002:    LPVIEWENTITY     lpChildViewEntity;
; 10003:    LPVIEWENTITY     hChildViewEntity;
; 10004:    LPVIEWENTITYCSR  lpViewEntityCsr;
; 10005:    LPENTITYINSTANCE lpChildEntityInstance;
; 10006:    zSHORT           nEntityInstanceLevel;
; 10007:    zSHORT           nReturnCode = 0;

	xor	edx, edx
	mov	WORD PTR _nReturnCode$[ebp], dx

; 10008:    zSHORT           nRC;
; 10009: 
; 10010:    lpViewEntity = zGETPTR( lpEntityInstance->hViewEntity );

	mov	eax, DWORD PTR _lpEntityInstance$[ebp]
	mov	ecx, DWORD PTR [eax+2]
	push	ecx
	call	DWORD PTR _g_pfnGetPtr
	mov	DWORD PTR _lpViewEntity$[ebp], eax

; 10011:    nEntityInstanceLevel = lpEntityInstance->nLevel;

	mov	edx, DWORD PTR _lpEntityInstance$[ebp]
	mov	ax, WORD PTR [edx+58]
	mov	WORD PTR _nEntityInstanceLevel$[ebp], ax

; 10012: 
; 10013:    // If view entity is recursive, then reset lpViewEntity to point to the
; 10014:    // parent view entity that has the same EREntTok as the current lpViewEntity.
; 10015:    if ( lpViewEntity->bRecursive )

	mov	ecx, DWORD PTR _lpViewEntity$[ebp]
	mov	edx, DWORD PTR [ecx+235]
	shr	edx, 11					; 0000000bH
	and	edx, 1
	je	SHORT $LN17@fnLoadChil

; 10016:    {
; 10017:       zLONG lCurrentEREntTok;
; 10018: 
; 10019:       lCurrentEREntTok = lpViewEntity->lEREntTok;

	mov	eax, DWORD PTR _lpViewEntity$[ebp]
	mov	ecx, DWORD PTR [eax+195]
	mov	DWORD PTR _lCurrentEREntTok$1[ebp], ecx

; 10020:       lpViewEntity = zGETPTR( lpViewEntity->hParent );

	mov	edx, DWORD PTR _lpViewEntity$[ebp]
	mov	eax, DWORD PTR [edx+10]
	push	eax
	call	DWORD PTR _g_pfnGetPtr
	mov	DWORD PTR _lpViewEntity$[ebp], eax
$LN2@fnLoadChil:

; 10021:       while ( lpViewEntity->lEREntTok != lCurrentEREntTok )

	mov	ecx, DWORD PTR _lpViewEntity$[ebp]
	mov	edx, DWORD PTR [ecx+195]
	cmp	edx, DWORD PTR _lCurrentEREntTok$1[ebp]
	je	SHORT $LN17@fnLoadChil

; 10022:          lpViewEntity = zGETPTR( lpViewEntity->hParent );

	mov	eax, DWORD PTR _lpViewEntity$[ebp]
	mov	ecx, DWORD PTR [eax+10]
	push	ecx
	call	DWORD PTR _g_pfnGetPtr
	mov	DWORD PTR _lpViewEntity$[ebp], eax
	jmp	SHORT $LN2@fnLoadChil
$LN17@fnLoadChil:

; 10023:    }
; 10024: 
; 10025:    hViewEntity = zGETHNDL( lpViewEntity );

	mov	edx, DWORD PTR _lpViewEntity$[ebp]
	push	edx
	call	DWORD PTR _g_pfnGetHndl
	mov	DWORD PTR _hViewEntity$[ebp], eax

; 10026: 
; 10027:    // The first child ViewEntity of the current lpViewEntity is the next
; 10028:    // view entity in hierachical order.
; 10029:    hChildViewEntity  = lpViewEntity->hNextHier;

	mov	eax, DWORD PTR _lpViewEntity$[ebp]
	mov	ecx, DWORD PTR [eax+2]
	mov	DWORD PTR _hChildViewEntity$[ebp], ecx

; 10030:    lpChildViewEntity = zGETPTR( hChildViewEntity );

	mov	edx, DWORD PTR _hChildViewEntity$[ebp]
	push	edx
	call	DWORD PTR _g_pfnGetPtr
	mov	DWORD PTR _lpChildViewEntity$[ebp], eax

; 10031: 
; 10032:    // Check to see if there are child entity definitions.  If not, there are
; 10033:    // no children to load, so exit.  There is no child entity if:
; 10034:    //    o lpChildViewEntity is null (there are no entities after
; 10035:    //      lpViewEntity).
; 10036:    //    o The level number of the next view entity is "equal to" (which means
; 10037:    //      that the next view entity is a sibling) or "less than" (which means
; 10038:    //      that the next view entity is the sibling of an ancestor).
; 10039:    if ( lpChildViewEntity == 0 ||

	cmp	DWORD PTR _lpChildViewEntity$[ebp], 0
	je	SHORT $LN19@fnLoadChil
	mov	eax, DWORD PTR _lpChildViewEntity$[ebp]
	movsx	ecx, WORD PTR [eax+215]
	mov	edx, DWORD PTR _lpViewEntity$[ebp]
	movsx	eax, WORD PTR [edx+215]
	cmp	ecx, eax
	jg	SHORT $LN18@fnLoadChil
$LN19@fnLoadChil:

; 10040:         lpChildViewEntity->nLevel <= lpViewEntity->nLevel )
; 10041:    {
; 10042:       return( 0 );

	xor	eax, eax
	jmp	$LN1@fnLoadChil
$LN18@fnLoadChil:

; 10043:    }
; 10044: 
; 10045:    // Load all the child entities of lpEntityInstance, starting with the first
; 10046:    // child entity definition via hierarchical ordering.  After loading a type
; 10047:    // of entity, find the next child entity type and (if there are more) load
; 10048:    // those.  Keep going until there are no more child entity types for
; 10049:    // lpEntityInstance.
; 10050: 
; 10051:    for ( ;

	jmp	SHORT $LN6@fnLoadChil
$LN4@fnLoadChil:

; 10053:          lpChildViewEntity = zGETPTR( lpChildViewEntity->hNextSibling ) )

	mov	ecx, DWORD PTR _lpChildViewEntity$[ebp]
	mov	edx, DWORD PTR [ecx+247]
	push	edx
	call	DWORD PTR _g_pfnGetPtr
	mov	DWORD PTR _lpChildViewEntity$[ebp], eax
$LN6@fnLoadChil:

; 10052:          lpChildViewEntity;

	cmp	DWORD PTR _lpChildViewEntity$[ebp], 0
	je	$LN5@fnLoadChil

; 10054:    {
; 10055:       hChildViewEntity = zGETHNDL( lpChildViewEntity );

	mov	eax, DWORD PTR _lpChildViewEntity$[ebp]
	push	eax
	call	DWORD PTR _g_pfnGetHndl
	mov	DWORD PTR _hChildViewEntity$[ebp], eax

; 10056: 
; 10057:       // If the max cardinality of the child instance is 1 then it's possible
; 10058:       // that the child was already activated by the DBHandler.  Check to see
; 10059:       // if a child EI already exists.
; 10060:       if ( lpChildViewEntity->uCardMax == 1 )

	mov	ecx, DWORD PTR _lpChildViewEntity$[ebp]
	movzx	edx, WORD PTR [ecx+221]
	cmp	edx, 1
	jne	$LN20@fnLoadChil

; 10061:       {
; 10062:          // Because the object might be recursive, we also
; 10063:          // need to check to make sure that the level of the child entity
; 10064:          // instance is exactly 1 more the the level of the parent entity.
; 10065:          lpChildEntityInstance = zGETPTR( lpEntityInstance->hNextHier );

	mov	eax, DWORD PTR _lpEntityInstance$[ebp]
	mov	ecx, DWORD PTR [eax+14]
	push	ecx
	call	DWORD PTR _g_pfnGetPtr
	mov	DWORD PTR _lpChildEntityInstance$[ebp], eax
$LN7@fnLoadChil:

; 10066:          while ( lpChildEntityInstance &&

	cmp	DWORD PTR _lpChildEntityInstance$[ebp], 0
	je	SHORT $LN8@fnLoadChil
	mov	edx, DWORD PTR _lpChildEntityInstance$[ebp]
	mov	eax, DWORD PTR [edx+2]
	cmp	eax, DWORD PTR _hChildViewEntity$[ebp]
	jne	SHORT $LN22@fnLoadChil
	mov	ecx, DWORD PTR _lpChildEntityInstance$[ebp]
	movsx	edx, WORD PTR [ecx+58]
	movsx	eax, WORD PTR _nEntityInstanceLevel$[ebp]
	add	eax, 1
	cmp	edx, eax
	je	SHORT $LN8@fnLoadChil
$LN22@fnLoadChil:

; 10067:                  (lpChildEntityInstance->hViewEntity != hChildViewEntity ||
; 10068:                   lpChildEntityInstance->nLevel != nEntityInstanceLevel + 1) )
; 10069:          {
; 10070:             if ( lpChildEntityInstance->nLevel <= nEntityInstanceLevel )

	mov	ecx, DWORD PTR _lpChildEntityInstance$[ebp]
	movsx	edx, WORD PTR [ecx+58]
	movsx	eax, WORD PTR _nEntityInstanceLevel$[ebp]
	cmp	edx, eax
	jg	SHORT $LN9@fnLoadChil

; 10071:             {
; 10072:                lpChildEntityInstance = 0;

	mov	DWORD PTR _lpChildEntityInstance$[ebp], 0

; 10073:                break;

	jmp	SHORT $LN8@fnLoadChil
$LN9@fnLoadChil:

; 10074:             }
; 10075: 
; 10076:             while ( lpChildEntityInstance->hNextTwin )

	mov	ecx, DWORD PTR _lpChildEntityInstance$[ebp]
	cmp	DWORD PTR [ecx+22], 0
	je	SHORT $LN10@fnLoadChil

; 10077:                lpChildEntityInstance = zGETPTR( lpChildEntityInstance->hNextTwin );

	mov	edx, DWORD PTR _lpChildEntityInstance$[ebp]
	mov	eax, DWORD PTR [edx+22]
	push	eax
	call	DWORD PTR _g_pfnGetPtr
	mov	DWORD PTR _lpChildEntityInstance$[ebp], eax
	jmp	SHORT $LN9@fnLoadChil
$LN10@fnLoadChil:

; 10078: 
; 10079:             lpChildEntityInstance = zGETPTR( lpChildEntityInstance->hNextHier );

	mov	ecx, DWORD PTR _lpChildEntityInstance$[ebp]
	mov	edx, DWORD PTR [ecx+14]
	push	edx
	call	DWORD PTR _g_pfnGetPtr
	mov	DWORD PTR _lpChildEntityInstance$[ebp], eax

; 10080:          }

	jmp	SHORT $LN7@fnLoadChil
$LN8@fnLoadChil:

; 10081: 
; 10082:          nRC = 0;

	xor	eax, eax
	mov	WORD PTR _nRC$[ebp], ax

; 10083:       }

	jmp	SHORT $LN21@fnLoadChil
$LN20@fnLoadChil:

; 10084:       else
; 10085:          lpChildEntityInstance = 0;

	mov	DWORD PTR _lpChildEntityInstance$[ebp], 0
$LN21@fnLoadChil:

; 10086: 
; 10087:       // If lpChildEntityInstance is still 0 then we need to load it.
; 10088:       if ( lpChildEntityInstance == 0 )

	cmp	DWORD PTR _lpChildEntityInstance$[ebp], 0
	jne	$LN24@fnLoadChil

; 10089:       {
; 10090:          // If the child entity not either a derived path or a duplicate
; 10091:          // relationship path then attempt to load that entity.
; 10092:          if ( lpChildViewEntity->bDerivedPath == FALSE &&

	mov	ecx, DWORD PTR _lpChildViewEntity$[ebp]
	mov	edx, DWORD PTR [ecx+235]
	shr	edx, 14					; 0000000eH
	and	edx, 1
	jne	$LN25@fnLoadChil
	mov	eax, DWORD PTR _lpChildViewEntity$[ebp]
	mov	ecx, DWORD PTR [eax+235]
	shr	ecx, 27					; 0000001bH
	and	ecx, 1
	jne	$LN25@fnLoadChil

; 10093:               lpChildViewEntity->bDupRelPath == FALSE )
; 10094:          {
; 10095:             // Child entities couldn't be loaded via cacheing, so call the
; 10096:             // db-handler.
; 10097:             nRC = (*pOper)( (zLONG) zGETHNDL( lpCurrentTask ),

	mov	edx, DWORD PTR _lpPtr$[ebp]
	push	edx
	mov	eax, DWORD PTR _lpQualView$[ebp]
	push	eax
	mov	ecx, DWORD PTR _lpView$[ebp]
	push	ecx
	mov	edx, DWORD PTR _lpChildViewEntity$[ebp]
	push	edx
	mov	eax, DWORD PTR _lpViewOD$[ebp]
	push	eax
	push	0
	push	32800					; 00008020H
	mov	ecx, DWORD PTR _lpCurrentTask$[ebp]
	push	ecx
	call	DWORD PTR _g_pfnGetHndl
	push	eax
	call	DWORD PTR _pOper$[ebp]
	mov	WORD PTR _nRC$[ebp], ax

; 10098:                             DBH_Entity | DBH_Load, 0, lpViewOD,
; 10099:                             lpChildViewEntity, lpView, lpQualView, lpPtr );
; 10100:             if ( nRC == zDB_DEADLOCK )

	movsx	edx, WORD PTR _nRC$[ebp]
	cmp	edx, -3					; fffffffdH
	jne	SHORT $LN26@fnLoadChil

; 10101:                return( nRC );

	mov	ax, WORD PTR _nRC$[ebp]
	jmp	$LN1@fnLoadChil
$LN26@fnLoadChil:

; 10102: 
; 10103:             if ( lpCurrentTask->bLoadAllocLimit )

	mov	eax, DWORD PTR _lpCurrentTask$[ebp]
	mov	ecx, DWORD PTR [eax+443]
	shr	ecx, 14					; 0000000eH
	and	ecx, 1
	je	SHORT $LN27@fnLoadChil

; 10104:             {
; 10105:                lpCurrentTask->bLoadAllocLimit = FALSE;

	mov	edx, DWORD PTR _lpCurrentTask$[ebp]
	mov	eax, DWORD PTR [edx+443]
	and	eax, -16385				; ffffbfffH
	mov	ecx, DWORD PTR _lpCurrentTask$[ebp]
	mov	DWORD PTR [ecx+443], eax

; 10106:                return( zMEMORY_LIMIT );

	mov	eax, -7					; fffffff9H
	jmp	$LN1@fnLoadChil
$LN27@fnLoadChil:

; 10107:             }
; 10108: 
; 10109:             if ( nRC < -1 )

	movsx	edx, WORD PTR _nRC$[ebp]
	cmp	edx, -1
	jge	SHORT $LN28@fnLoadChil

; 10110:                return( zCALL_ERROR );

	mov	eax, -16				; fffffff0H
	jmp	$LN1@fnLoadChil
$LN28@fnLoadChil:

; 10111: 
; 10112:             // Check to see if the activate limit was reached.
; 10113:             if ( nRC == 2 )

	movsx	eax, WORD PTR _nRC$[ebp]
	cmp	eax, 2
	jne	SHORT $LN25@fnLoadChil

; 10114:                nReturnCode = 2;

	mov	ecx, 2
	mov	WORD PTR _nReturnCode$[ebp], cx
$LN25@fnLoadChil:

; 10115:          }
; 10116: 
; 10117:          // If we didn't load any child entities see if we need to create a
; 10118:          // child entity because of the "hanging keys" problem.
; 10119:          if ( nRC == -1 && lpChildViewEntity->bHangingFKey )

	movsx	edx, WORD PTR _nRC$[ebp]
	cmp	edx, -1
	jne	SHORT $LN30@fnLoadChil
	mov	eax, DWORD PTR _lpChildViewEntity$[ebp]
	mov	ecx, DWORD PTR [eax+239]
	shr	ecx, 10					; 0000000aH
	and	ecx, 1
	je	SHORT $LN30@fnLoadChil

; 10120:             fnAddHangingEntity( lpView, lpChildViewEntity );

	mov	edx, DWORD PTR _lpChildViewEntity$[ebp]
	push	edx
	mov	eax, DWORD PTR _lpView$[ebp]
	push	eax
	call	_fnAddHangingEntity@8
$LN30@fnLoadChil:

; 10121: 
; 10122:          // If any children were loaded, call this proc recursively to load all
; 10123:          // of THEIR children.
; 10124: 
; 10125:          // Find the first child entity of lpChildViewEntity.
; 10126:          lpChildEntityInstance = zGETPTR( lpEntityInstance->hNextHier );

	mov	ecx, DWORD PTR _lpEntityInstance$[ebp]
	mov	edx, DWORD PTR [ecx+14]
	push	edx
	call	DWORD PTR _g_pfnGetPtr
	mov	DWORD PTR _lpChildEntityInstance$[ebp], eax
$LN11@fnLoadChil:

; 10127: 
; 10128:          // Now find the first child entity instance that matches
; 10129:          // lpChildViewEntity.  Because the object might be recursive, we also
; 10130:          // need to check to make sure that the level of the child entity
; 10131:          // instance is exactly 1 more the the level of the parent entity.
; 10132:          while ( lpChildEntityInstance &&

	cmp	DWORD PTR _lpChildEntityInstance$[ebp], 0
	je	SHORT $LN24@fnLoadChil
	mov	eax, DWORD PTR _lpChildEntityInstance$[ebp]
	mov	ecx, DWORD PTR [eax+2]
	cmp	ecx, DWORD PTR _hChildViewEntity$[ebp]
	jne	SHORT $LN31@fnLoadChil
	mov	edx, DWORD PTR _lpChildEntityInstance$[ebp]
	movsx	eax, WORD PTR [edx+58]
	movsx	ecx, WORD PTR _nEntityInstanceLevel$[ebp]
	add	ecx, 1
	cmp	eax, ecx
	je	SHORT $LN24@fnLoadChil
$LN31@fnLoadChil:

; 10133:                  (lpChildEntityInstance->hViewEntity != hChildViewEntity ||
; 10134:                   lpChildEntityInstance->nLevel != nEntityInstanceLevel + 1) )
; 10135:          {
; 10136:             if ( lpChildEntityInstance->nLevel <= nEntityInstanceLevel )

	mov	edx, DWORD PTR _lpChildEntityInstance$[ebp]
	movsx	eax, WORD PTR [edx+58]
	movsx	ecx, WORD PTR _nEntityInstanceLevel$[ebp]
	cmp	eax, ecx
	jg	SHORT $LN13@fnLoadChil

; 10137:             {
; 10138:                lpChildEntityInstance = 0;

	mov	DWORD PTR _lpChildEntityInstance$[ebp], 0

; 10139:                break;

	jmp	SHORT $LN24@fnLoadChil
$LN13@fnLoadChil:

; 10140:             }
; 10141: 
; 10142:             while ( lpChildEntityInstance->hNextTwin )

	mov	edx, DWORD PTR _lpChildEntityInstance$[ebp]
	cmp	DWORD PTR [edx+22], 0
	je	SHORT $LN14@fnLoadChil

; 10143:                lpChildEntityInstance = zGETPTR( lpChildEntityInstance->hNextTwin );

	mov	eax, DWORD PTR _lpChildEntityInstance$[ebp]
	mov	ecx, DWORD PTR [eax+22]
	push	ecx
	call	DWORD PTR _g_pfnGetPtr
	mov	DWORD PTR _lpChildEntityInstance$[ebp], eax
	jmp	SHORT $LN13@fnLoadChil
$LN14@fnLoadChil:

; 10144: 
; 10145:             lpChildEntityInstance = zGETPTR( lpChildEntityInstance->hNextHier );

	mov	edx, DWORD PTR _lpChildEntityInstance$[ebp]
	mov	eax, DWORD PTR [edx+14]
	push	eax
	call	DWORD PTR _g_pfnGetPtr
	mov	DWORD PTR _lpChildEntityInstance$[ebp], eax

; 10146:          }

	jmp	SHORT $LN11@fnLoadChil
$LN24@fnLoadChil:

; 10147: 
; 10148:       } // if ( lpChildEntityInstance == 0 )...
; 10149: 
; 10150:       // If nRC == -1, then no children were loaded.
; 10151:       if ( nRC >= 0 && lpChildEntityInstance )

	movsx	ecx, WORD PTR _nRC$[ebp]
	test	ecx, ecx
	jl	$LN33@fnLoadChil
	cmp	DWORD PTR _lpChildEntityInstance$[ebp], 0
	je	$LN33@fnLoadChil
$LN15@fnLoadChil:

; 10152:       {
; 10153:          // Load the children of the just-loaded children.
; 10154:          while ( lpChildEntityInstance )

	cmp	DWORD PTR _lpChildEntityInstance$[ebp], 0
	je	$LN33@fnLoadChil

; 10155:          {
; 10156:             //
; 10157:             // Make lpChildEntityInstance the current instance.
; 10158:             //
; 10159:             lpViewEntityCsr =

	mov	edx, DWORD PTR _lpChildEntityInstance$[ebp]
	push	edx
	push	0
	mov	eax, DWORD PTR _lpView$[ebp]
	push	eax
	call	_fnEstablishViewForInstance
	add	esp, 12					; 0000000cH
	mov	DWORD PTR _lpViewEntityCsr$[ebp], eax

; 10160:                 fnEstablishViewForInstance( lpView, 0, lpChildEntityInstance );
; 10161: 
; 10162:             // If the entity is flagged as recursive, then set the view to
; 10163:             // have the current child entity as the parent of the recursive
; 10164:             // relationship before calling fnLoadChildEntities.
; 10165:             if ( lpChildViewEntity->bRecursive )

	mov	ecx, DWORD PTR _lpChildViewEntity$[ebp]
	mov	edx, DWORD PTR [ecx+235]
	shr	edx, 11					; 0000000bH
	and	edx, 1
	je	$LN34@fnLoadChil

; 10166:             {
; 10167:                fnSetViewToSubobject( lpView, lpChildViewEntity,

	mov	eax, DWORD PTR _lpViewEntityCsr$[ebp]
	push	eax
	mov	ecx, DWORD PTR _lpChildViewEntity$[ebp]
	push	ecx
	mov	edx, DWORD PTR _lpView$[ebp]
	push	edx
	call	_fnSetViewToSubobject
	add	esp, 12					; 0000000cH

; 10168:                                      lpViewEntityCsr );
; 10169: 
; 10170:                // Check to make sure the recursive entity instance hasn't
; 10171:                // already been loaded as a parent.  If it has then this is
; 10172:                // an error because the OI has an infinite looping sub-object.
; 10173:                // If the return value is TRUE then there was an error.
; 10174:                if ( fnCheckForRecursiveLoop( lpView,
; 10175:                                              lpChildEntityInstance ) == 0 )

	mov	eax, DWORD PTR _lpChildEntityInstance$[ebp]
	push	eax
	mov	ecx, DWORD PTR _lpView$[ebp]
	push	ecx
	call	_fnCheckForRecursiveLoop@8
	movsx	edx, ax
	test	edx, edx
	jne	SHORT $LN36@fnLoadChil

; 10176:                {
; 10177:                   // Everything ok so load children.
; 10178:                   nRC = fnLoadChildEntities( lpCurrentTask, lpView,

	mov	eax, DWORD PTR _lpPtr$[ebp]
	push	eax
	mov	ecx, DWORD PTR _pOper$[ebp]
	push	ecx
	mov	edx, DWORD PTR _lpQualView$[ebp]
	push	edx
	mov	eax, DWORD PTR _lpChildEntityInstance$[ebp]
	push	eax
	mov	ecx, DWORD PTR _lpView$[ebp]
	push	ecx
	mov	edx, DWORD PTR _lpCurrentTask$[ebp]
	push	edx
	call	_fnLoadChildEntities
	add	esp, 24					; 00000018H
	mov	WORD PTR _nRC$[ebp], ax

; 10179:                                              lpChildEntityInstance, lpQualView,
; 10180:                                              pOper, lpPtr );
; 10181:                   if ( nRC == zDB_DEADLOCK || nRC == zMEMORY_LIMIT )

	movsx	eax, WORD PTR _nRC$[ebp]
	cmp	eax, -3					; fffffffdH
	je	SHORT $LN38@fnLoadChil
	movsx	ecx, WORD PTR _nRC$[ebp]
	cmp	ecx, -7					; fffffff9H
	jne	SHORT $LN37@fnLoadChil
$LN38@fnLoadChil:

; 10182:                      return( nRC );

	mov	ax, WORD PTR _nRC$[ebp]
	jmp	$LN1@fnLoadChil
$LN37@fnLoadChil:

; 10183: 
; 10184:                   if ( nRC < 0 )

	movsx	edx, WORD PTR _nRC$[ebp]
	test	edx, edx
	jge	SHORT $LN39@fnLoadChil

; 10185:                      return( zCALL_ERROR );

	mov	eax, -16				; fffffff0H
	jmp	$LN1@fnLoadChil
$LN39@fnLoadChil:

; 10186: 
; 10187:                   if ( nRC == 2 )

	movsx	eax, WORD PTR _nRC$[ebp]
	cmp	eax, 2
	jne	SHORT $LN36@fnLoadChil

; 10188:                      nReturnCode = 2;

	mov	ecx, 2
	mov	WORD PTR _nReturnCode$[ebp], cx
$LN36@fnLoadChil:

; 10189:                }
; 10190: 
; 10191:                fnResetViewFromSubobject( lpView );

	mov	edx, DWORD PTR _lpView$[ebp]
	push	edx
	call	_fnResetViewFromSubobject
	add	esp, 4

; 10192:             }

	jmp	SHORT $LN35@fnLoadChil
$LN34@fnLoadChil:

; 10193:             else
; 10194:             {
; 10195:                nRC = fnLoadChildEntities( lpCurrentTask, lpView,

	mov	eax, DWORD PTR _lpPtr$[ebp]
	push	eax
	mov	ecx, DWORD PTR _pOper$[ebp]
	push	ecx
	mov	edx, DWORD PTR _lpQualView$[ebp]
	push	edx
	mov	eax, DWORD PTR _lpChildEntityInstance$[ebp]
	push	eax
	mov	ecx, DWORD PTR _lpView$[ebp]
	push	ecx
	mov	edx, DWORD PTR _lpCurrentTask$[ebp]
	push	edx
	call	_fnLoadChildEntities
	add	esp, 24					; 00000018H
	mov	WORD PTR _nRC$[ebp], ax

; 10196:                                           lpChildEntityInstance, lpQualView,
; 10197:                                           pOper, lpPtr );
; 10198:                if ( nRC == zDB_DEADLOCK || nRC == zMEMORY_LIMIT )

	movsx	eax, WORD PTR _nRC$[ebp]
	cmp	eax, -3					; fffffffdH
	je	SHORT $LN42@fnLoadChil
	movsx	ecx, WORD PTR _nRC$[ebp]
	cmp	ecx, -7					; fffffff9H
	jne	SHORT $LN41@fnLoadChil
$LN42@fnLoadChil:

; 10199:                   return( nRC );

	mov	ax, WORD PTR _nRC$[ebp]
	jmp	SHORT $LN1@fnLoadChil
$LN41@fnLoadChil:

; 10200: 
; 10201:                if ( nRC < 0 )

	movsx	edx, WORD PTR _nRC$[ebp]
	test	edx, edx
	jge	SHORT $LN43@fnLoadChil

; 10202:                   return( zCALL_ERROR );

	mov	eax, -16				; fffffff0H
	jmp	SHORT $LN1@fnLoadChil
$LN43@fnLoadChil:

; 10203: 
; 10204:                if ( nRC == 2 )

	movsx	eax, WORD PTR _nRC$[ebp]
	cmp	eax, 2
	jne	SHORT $LN35@fnLoadChil

; 10205:                   nReturnCode = 2;

	mov	ecx, 2
	mov	WORD PTR _nReturnCode$[ebp], cx
$LN35@fnLoadChil:

; 10206:             }
; 10207: 
; 10208:             // Get next twin.
; 10209:             lpChildEntityInstance = zGETPTR( lpChildEntityInstance->hNextTwin );

	mov	edx, DWORD PTR _lpChildEntityInstance$[ebp]
	mov	eax, DWORD PTR [edx+22]
	push	eax
	call	DWORD PTR _g_pfnGetPtr
	mov	DWORD PTR _lpChildEntityInstance$[ebp], eax

; 10210: 
; 10211:          }  // while ( lpChildEntityInstance )...

	jmp	$LN15@fnLoadChil
$LN33@fnLoadChil:

; 10212: 
; 10213:       }  // if ( nRC > 0 && lpChildEntityInstance &&... )...
; 10214: 
; 10215:    } // for ( lpChildViewEntity )

	jmp	$LN4@fnLoadChil
$LN5@fnLoadChil:

; 10216: 
; 10217:    return( nReturnCode );

	mov	ax, WORD PTR _nReturnCode$[ebp]
$LN1@fnLoadChil:

; 10218: 
; 10219: }  // fnLoadChildEntities

	mov	esp, ebp
	pop	ebp
	ret	0
_fnLoadChildEntities ENDP
_TEXT	ENDS
; Function compile flags: /Odtp
; File c:\10c\a\oe\kzoeoiaa.c
_TEXT	SEGMENT
_lpCurrentTask$ = -844					; size = 4
_lpViewOD$1 = -840					; size = 4
_lpViewEntity$ = -836					; size = 4
_lpParentViewAttrib$2 = -832				; size = 4
_lpViewAttrib$ = -828					; size = 4
_lpParent$ = -824					; size = 4
_lpParentViewEntity$3 = -820				; size = 4
_nKeyCnt$ = -816					; size = 2
_bKeysMatch$4 = -809					; size = 1
_k$5 = -808						; size = 2
_lpKeys$ = -804						; size = 800
__$ArrayPad$ = -4					; size = 4
_lpView$ = 8						; size = 4
_lpEntityInstance$ = 12					; size = 4
_fnCheckForRecursiveLoop@8 PROC

; 9863 : {

	push	ebp
	mov	ebp, esp
	sub	esp, 844				; 0000034cH
	mov	eax, DWORD PTR ___security_cookie
	xor	eax, ebp
	mov	DWORD PTR __$ArrayPad$[ebp], eax

; 9864 :    LPVIEWENTITY     lpViewEntity = zGETPTR( lpEntityInstance->hViewEntity );

	mov	eax, DWORD PTR _lpEntityInstance$[ebp]
	mov	ecx, DWORD PTR [eax+2]
	push	ecx
	call	DWORD PTR _g_pfnGetPtr
	mov	DWORD PTR _lpViewEntity$[ebp], eax

; 9865 :    LPENTITYINSTANCE lpParent;
; 9866 :    LPVIEWATTRIB     lpKeys[ 200 ];
; 9867 :    LPVIEWATTRIB     lpViewAttrib;
; 9868 :    LPTASK           lpCurrentTask = zGETPTR( lpView->hTask );

	mov	edx, DWORD PTR _lpView$[ebp]
	mov	eax, DWORD PTR [edx+14]
	push	eax
	call	DWORD PTR _g_pfnGetPtr
	mov	DWORD PTR _lpCurrentTask$[ebp], eax

; 9869 :    zSHORT           nKeyCnt;
; 9870 : 
; 9871 :    // In an attempt to make things faster later let's get all the keys for
; 9872 :    // lpEntityInstance.
; 9873 :    nKeyCnt = 0;

	xor	ecx, ecx
	mov	WORD PTR _nKeyCnt$[ebp], cx

; 9874 :    for ( lpViewAttrib = zGETPTR( lpViewEntity->hFirstOD_Attrib );

	mov	edx, DWORD PTR _lpViewEntity$[ebp]
	mov	eax, DWORD PTR [edx+179]
	push	eax
	call	DWORD PTR _g_pfnGetPtr
	mov	DWORD PTR _lpViewAttrib$[ebp], eax
	jmp	SHORT $LN4@fnCheckFor
$LN2@fnCheckFor:

; 9876 :          lpViewAttrib = zGETPTR( lpViewAttrib->hNextOD_Attrib ) )

	mov	ecx, DWORD PTR _lpViewAttrib$[ebp]
	mov	edx, DWORD PTR [ecx+2]
	push	edx
	call	DWORD PTR _g_pfnGetPtr
	mov	DWORD PTR _lpViewAttrib$[ebp], eax
$LN4@fnCheckFor:

; 9875 :          lpViewAttrib;

	cmp	DWORD PTR _lpViewAttrib$[ebp], 0
	je	SHORT $LN3@fnCheckFor

; 9877 :    {
; 9878 :       if ( lpViewAttrib->bKey == FALSE )

	mov	eax, DWORD PTR _lpViewAttrib$[ebp]
	mov	ecx, DWORD PTR [eax+193]
	shr	ecx, 1
	and	ecx, 1
	jne	SHORT $LN14@fnCheckFor

; 9879 :         continue;

	jmp	SHORT $LN2@fnCheckFor
$LN14@fnCheckFor:

; 9880 : 
; 9881 :       lpKeys[ nKeyCnt++ ] = lpViewAttrib;

	movsx	edx, WORD PTR _nKeyCnt$[ebp]
	mov	eax, DWORD PTR _lpViewAttrib$[ebp]
	mov	DWORD PTR _lpKeys$[ebp+edx*4], eax
	mov	cx, WORD PTR _nKeyCnt$[ebp]
	add	cx, 1
	mov	WORD PTR _nKeyCnt$[ebp], cx

; 9882 :    }

	jmp	SHORT $LN2@fnCheckFor
$LN3@fnCheckFor:

; 9883 : 
; 9884 : 
; 9885 :    for ( lpParent = zGETPTR( lpEntityInstance->hParent );

	mov	edx, DWORD PTR _lpEntityInstance$[ebp]
	mov	eax, DWORD PTR [edx+30]
	push	eax
	call	DWORD PTR _g_pfnGetPtr
	mov	DWORD PTR _lpParent$[ebp], eax
	jmp	SHORT $LN7@fnCheckFor
$LN5@fnCheckFor:

; 9887 :          lpParent = zGETPTR( lpParent->hParent ) )

	mov	ecx, DWORD PTR _lpParent$[ebp]
	mov	edx, DWORD PTR [ecx+30]
	push	edx
	call	DWORD PTR _g_pfnGetPtr
	mov	DWORD PTR _lpParent$[ebp], eax
$LN7@fnCheckFor:

; 9886 :          lpParent;

	cmp	DWORD PTR _lpParent$[ebp], 0
	je	$LN6@fnCheckFor

; 9888 :    {
; 9889 :       LPVIEWENTITY lpParentViewEntity = zGETPTR( lpParent->hViewEntity );

	mov	eax, DWORD PTR _lpParent$[ebp]
	mov	ecx, DWORD PTR [eax+2]
	push	ecx
	call	DWORD PTR _g_pfnGetPtr
	mov	DWORD PTR _lpParentViewEntity$3[ebp], eax

; 9890 :       zBOOL        bKeysMatch;
; 9891 :       zSHORT       k;
; 9892 : 
; 9893 :       // We only care about the parent if it's also recursive.  If NONE of the
; 9894 :       // recursive flags are set then skip it.  It's possible--althought
; 9895 :       // highly unlikely--that the entity we are looking for also exists as
; 9896 :       // a non-recursive entity between the recursive parent & child.
; 9897 :       if ( lpParentViewEntity->bRecursiveSt  == 0 &&
; 9898 :            lpParentViewEntity->bRecursive    == 0 &&

	mov	edx, DWORD PTR _lpParentViewEntity$3[ebp]
	mov	eax, DWORD PTR [edx+235]
	shr	eax, 10					; 0000000aH
	and	eax, 1
	jne	SHORT $LN15@fnCheckFor
	mov	ecx, DWORD PTR _lpParentViewEntity$3[ebp]
	mov	edx, DWORD PTR [ecx+235]
	shr	edx, 11					; 0000000bH
	and	edx, 1
	jne	SHORT $LN15@fnCheckFor
	mov	eax, DWORD PTR _lpParentViewEntity$3[ebp]
	mov	ecx, DWORD PTR [eax+235]
	shr	ecx, 29					; 0000001dH
	and	ecx, 1
	jne	SHORT $LN15@fnCheckFor

; 9899 :            lpParentViewEntity->bRecursivePar == 0 )
; 9900 :       {
; 9901 :          continue;

	jmp	SHORT $LN5@fnCheckFor
$LN15@fnCheckFor:

; 9902 :       }
; 9903 : 
; 9904 :       // The parent must be the same ER entity as the child.
